"File: co.c          Assembler  Version HGASM0202      Page 1


   1  0000              ; Generated by holtek-gcc v3.19, Tue Sep 26 20:12:46 2023
   2  0000              ; 
   3  0000              ; Configuration:
   4  0000              ;       with long instruction
   5  0000              ;       Single ROM, Multi-RAM
   6  0000              ;       bits_per_rom_unit:16
   7  0000              ;       with mp1
   8  0000              ;       with tbhp, address(0x9)
   9  0000              ;          Use tabrd-const
  10  0000              ;       
  11  0000              ; SFR address of long-instruction arch:
  12  0000              ;    mp0 = -1,1,0
  13  0000              ;    mp1 = 4,3,2
  14  0000              ;    mp2 = 14,13,12
  15  0000              ;    tbp = 9,7,8
  16  0000              ;    acc = 5
  17  0000              ;    pcl = 6
  18  0000              ;    status = 10
  19  0000              ;    bp = 11
  20  0000              ;    intc = 72
  21  0000              ;       
  22  0000              ;       
  23  0000              ; use 'tabrdc' instead of 'tabrd'
  24  0000              ;       
  25  0000              
  26  0000              #pragma translator "holtek-gcc 4.6.4" "3.19" "build 20130711"
  27  0000              ; Rebuild 718
  28  0000              
  29  0000              ir equ [2]
  30  0000              mp equ [3]
  31  0000              sbp equ [4]
  32  0000              acc equ [5]
  33  0000              bp equ [11]
  34  0000              tblp equ [7]
  35  0000              tbhp equ [9]
  36  0000              status equ [10]
  37  0000              c equ [10].0
  38  0000              ac equ [10].1
  39  0000              z equ [10].2
  40  0000              ov equ [10].3
  41  0000              cz equ [10].6
  42  0000              sc equ [10].7
  43  0000              intc equ [72]
  44  0000              
  45  0000              extern ra:byte
  46  0000              extern rb:byte
  47  0000              extern rc:byte
  48  0000              extern rd:byte
  49  0000              extern re:byte
  50  0000              extern rf:byte
  51  0000              extern rg:byte
  52  0000              extern rh:byte
  53  0000              extern _Crom2Prom:near
  54  0000              extern _Crom2PromNext:near
  55  0000              
  56  0000              RAMBANK 0 @BITDATASEC, @BITDATASEC1
  57  0000              @HCCINIT	.section 'data'
  58  0000              @HCCINIT0	.section 'data'
  59  0000              @BITDATASEC	 .section 'data'
"File: co.ASM        Assembler  Version HGASM0202      Page 2

  60  0000              @BITDATASEC1	 .section 'data'
  61  0000              
  62  0000              #pragma debug scope 1 1
  63  0000              	extern __DELAY3:near
  64  0000              	extern __DELAYX3:near
  65  0000              	extern __DELAYX6:near
  66  0000              	extern __DELAYY5:near
  67  0000              	extern __DELAYY3:near
  68  0000              	extern _builtin_holtek_delay_2:byte
  69  0000              ___pa equ [20]
  70  0000              ___papu equ [22]
  71  0000              ___pawu equ [23]
  72  0000              public _key
  73  0000              #pragma debug scope 2 1

 221  0000              #line 221 "c:\users\tech\desktop\codetector\co.c"
 221  0000              _key .section 'code'
 221  0000              _key proc
 221  0000  00              local _key_2 db 1 dup(?)	; 0,1
 226  0001              #line 226 "c:\users\tech\desktop\codetector\co.c"
 226  0000  3E14        	sz [20].4
 226  0001  2800     R  	jmp _L3
 229  0002              #line 229 "c:\users\tech\desktop\codetector\co.c"
 229  0002  0F01        	mov a,1
 229  0003  0300     R  	add a,_debounceCounter[0]
 229  0004  0080     E  	mov rb,a
 229  0005  0F00        	mov a,0
 229  0006  1300     R  	adc a,_debounceCounter[1]
 229  0007  0080     E  	mov rc,a
 229  0008  0700     E  	mov a,rb
 229  0009  0080     R  	mov _debounceCounter[0],a
 229  000A  0700     E  	mov a,rc
 229  000B  0080     R  	mov _debounceCounter[1],a
 230  000C              #line 230 "c:\users\tech\desktop\codetector\co.c"
 230  000C  1F00     R  	clr _buttonStatus[0]
 230  000D  1F00     R  	clr _buttonStatus[1]
 231  000E              #line 231 "c:\users\tech\desktop\codetector\co.c"
 231  000E  0F01        	mov a,1
 231  000F  0080     R  	mov _pressFlag[0],a
 233  0010              #line 233 "c:\users\tech\desktop\codetector\co.c"
 233  0010  1700     R  	sdza _pressLockFlag[0]
 233  0011  2800     R  	jmp _L4
 235  0012              #line 235 "c:\users\tech\desktop\codetector\co.c"
 235  0012  0F01        	mov a,1
 235  0013  0080     E  	mov ra,a
 235  0014  1E00     R  	snz _keyState[0]
 235  0015  2800     R  	jmp _L5
 235  0016  1F00     E  	clr ra
 235  0017              _L5:
 235  0017  0700     E  	mov a,ra
 235  0018  0080     R  	mov _keyState[0],a
 236  0019              #line 236 "c:\users\tech\desktop\codetector\co.c"
 236  0019  1F00     R  	clr _keyCounter[0]
 236  001A  1F00     R  	clr _keyCounter[1]
 237  001B              #line 237 "c:\users\tech\desktop\codetector\co.c"
 237  001B  1F00     R  	clr _pressLockFlag[0]
 237  001C              _L4:
 239  001C              #line 239 "c:\users\tech\desktop\codetector\co.c"
 239  001C  0FD0        	mov a,208
 239  001D  0200     E  	sub a,rb
"File: co.c          Assembler  Version HGASM0202      Page 3

 239  001E  0F07        	mov a,7
 239  001F  1200     E  	sbc a,rc
 239  0020  3C0A        	sz c
 239  0021  2800     R  	jmp _L3
 241  0022              #line 241 "c:\users\tech\desktop\codetector\co.c"
 241  0022  0F02        	mov a,2
 241  0023  0080     R  	mov _pressFlag[0],a
 241  0024              _L3:
 246  0024              #line 246 "c:\users\tech\desktop\codetector\co.c"
 246  0024  3A14        	snz [20].4
 246  0025  2800     R  	jmp _L7
 246  0026  1700     R  	sdza _pressFlag[0]
 246  0027  2800     R  	jmp _L7
 248  0028              #line 248 "c:\users\tech\desktop\codetector\co.c"
 248  0028  0F01        	mov a,1
 248  0029  0080     R  	mov _pressLockFlag[0],a
 249  002A              #line 249 "c:\users\tech\desktop\codetector\co.c"
 249  002A  1F00     R  	clr _debounceCounter[0]
 249  002B  1F00     R  	clr _debounceCounter[1]
 251  002C              #line 251 "c:\users\tech\desktop\codetector\co.c"
 251  002C  2000     E  	call _clearSegment
 252  002D              #line 252 "c:\users\tech\desktop\codetector\co.c"
 252  002D  3216        	set [22].4
 253  002E              #line 253 "c:\users\tech\desktop\codetector\co.c"
 253  002E  3217        	set [23].4
 255  002F              #line 255 "c:\users\tech\desktop\codetector\co.c"
 255  002F  0700     R  	mov a,_keyState[0]
 255  0030  0080     R  	mov _key_2[0],a
 255  0031  1700     R  	sdza _key_2[0]
 255  0032  2800     R  	jmp _L8
 258  0033              #line 258 "c:\users\tech\desktop\codetector\co.c"
 258  0033  0F02        	mov a,2
 258  0034  0080     R  	mov _buttonStatus[0],a
 258  0035  1F00     R  	clr _buttonStatus[1]
 258  0036  2800     R  	jmp _L22
 258  0037              _L8:
 270  0037              #line 270 "c:\users\tech\desktop\codetector\co.c"
 270  0037  1080     R  	sz _key_2[0]
 270  0038  2800     R  	jmp _L11
 272  0039              #line 272 "c:\users\tech\desktop\codetector\co.c"
 272  0039  0F01        	mov a,1
 272  003A  0080     R  	mov _buttonStatus[0],a
 272  003B  1F00     R  	clr _buttonStatus[1]
 272  003C              _L22:
 273  003C              #line 273 "c:\users\tech\desktop\codetector\co.c"
 273  003C  0F01        	mov a,1
 273  003D  0300     R  	add a,_keyCounter[0]
 273  003E  0080     E  	mov rb,a
 273  003F  0F00        	mov a,0
 273  0040  1300     R  	adc a,_keyCounter[1]
 273  0041  0080     E  	mov rc,a
 273  0042  0700     E  	mov a,rb
 273  0043  0080     R  	mov _keyCounter[0],a
 273  0044  0700     E  	mov a,rc
 273  0045  0080     R  	mov _keyCounter[1],a
 274  0046              #line 274 "c:\users\tech\desktop\codetector\co.c"
 274  0046  0FF3        	mov a,243
 274  0047  0200     E  	sub a,rb
 274  0048  0F01        	mov a,1
 274  0049  1200     E  	sbc a,rc
"File: co.c          Assembler  Version HGASM0202      Page 4

 274  004A  3C0A        	sz c
 274  004B  2800     R  	jmp _L11
 276  004C              #line 276 "c:\users\tech\desktop\codetector\co.c"
 276  004C  1F00     R  	clr _debounceCounter[0]
 276  004D  1F00     R  	clr _debounceCounter[1]
 277  004E              #line 277 "c:\users\tech\desktop\codetector\co.c"
 277  004E  1F00     R  	clr _pressFlag[0]
 278  004F              #line 278 "c:\users\tech\desktop\codetector\co.c"
 278  004F  1F00     R  	clr _keyCounter[0]
 278  0050  1F00     R  	clr _keyCounter[1]
 278  0051              _L11:
 283  0051              #line 283 "c:\users\tech\desktop\codetector\co.c"
 283  0051  2000     E  	call _clearSegment
 285  0052              #line 285 "c:\users\tech\desktop\codetector\co.c"
 285  0052  3216        	set [22].4
 286  0053              #line 286 "c:\users\tech\desktop\codetector\co.c"
 286  0053  3217        	set [23].4
 286  0054              _L7:
 290  0054              #line 290 "c:\users\tech\desktop\codetector\co.c"
 290  0054  3A14        	snz [20].4
 290  0055  2800     R  	jmp _L14
 290  0056  0700     R  	mov a,_pressFlag[0]
 290  0057  0A02        	sub a,2
 290  0058  390A        	snz z
 290  0059  2800     R  	jmp _L14
 292  005A              #line 292 "c:\users\tech\desktop\codetector\co.c"
 292  005A  0F03        	mov a,3
 292  005B  0080     R  	mov _buttonStatus[0],a
 292  005C  1F00     R  	clr _buttonStatus[1]
 293  005D              #line 293 "c:\users\tech\desktop\codetector\co.c"
 293  005D  0F01        	mov a,1
 293  005E  0300     R  	add a,_keyCounter[0]
 293  005F  0080     E  	mov rb,a
 293  0060  0F00        	mov a,0
 293  0061  1300     R  	adc a,_keyCounter[1]
 293  0062  0080     E  	mov rc,a
 293  0063  0700     E  	mov a,rb
 293  0064  0080     R  	mov _keyCounter[0],a
 293  0065  0700     E  	mov a,rc
 293  0066  0080     R  	mov _keyCounter[1],a
 295  0067              #line 295 "c:\users\tech\desktop\codetector\co.c"
 295  0067  0FF3        	mov a,243
 295  0068  0200     E  	sub a,rb
 295  0069  0F01        	mov a,1
 295  006A  1200     E  	sbc a,rc
 295  006B  3C0A        	sz c
 295  006C  2800     R  	jmp _L14
 297  006D              #line 297 "c:\users\tech\desktop\codetector\co.c"
 297  006D  1F00     R  	clr _debounceCounter[0]
 297  006E  1F00     R  	clr _debounceCounter[1]
 298  006F              #line 298 "c:\users\tech\desktop\codetector\co.c"
 298  006F  1F00     R  	clr _pressFlag[0]
 299  0070              #line 299 "c:\users\tech\desktop\codetector\co.c"
 299  0070  1F00     R  	clr _keyCounter[0]
 299  0071  1F00     R  	clr _keyCounter[1]
 299  0072              _L14:
 305  0072              #line 305 "c:\users\tech\desktop\codetector\co.c"
 305  0072  1080     R  	sz _pressFlag[0]
 305  0073  2800     R  	jmp _L16
 307  0074              #line 307 "c:\users\tech\desktop\codetector\co.c"
"File: co.c          Assembler  Version HGASM0202      Page 5

 307  0074  0F04        	mov a,4
 307  0075  0080     R  	mov _buttonStatus[0],a
 307  0076  1F00     R  	clr _buttonStatus[1]
 307  0077              _L16:
 307  0077  0003        	ret
 307  0078              _key endp
 307  0078              #line 307 "c:\users\tech\desktop\codetector\co.c"
 307  0078              #pragma debug scope 1 1
 307  0078              public _TempToPPMPercentage
 307  0078              #pragma debug scope 3 1
 315  0078              #line 315 "c:\users\tech\desktop\codetector\co.c"
 315  0000              _TempToPPMPercentage .section 'code'
 315  0000              _TempToPPMPercentage proc
 315  0000              public _TempToPPMPercentage_2
 315  0000  0003[           local _TempToPPMPercentage_2 db 3 dup(?)	; 3,0
            00
            ]
 315  0003              #pragma debug variable 28 3 _TempToPPMPercentage_2+0 "temperatur"
 317  0003              #line 317 "c:\users\tech\desktop\codetector\co.c"
 317  0000  0700     R  	mov a,_TempToPPMPercentage_2[2]
 317  0001  0080     E  	mov _builtin_holtek_mant1[2],a
 317  0002  0700     R  	mov a,_TempToPPMPercentage_2[1]
 317  0003  0080     E  	mov _builtin_holtek_mant1[1],a
 317  0004  0700     R  	mov a,_TempToPPMPercentage_2[0]
 317  0005  0080     E  	mov _builtin_holtek_mant1[0],a
 317  0006  0F00        	mov a,0
 317  0007  0080     E  	mov _builtin_holtek_mant2[2],a
 317  0008  0F00        	mov a,0
 317  0009  0080     E  	mov _builtin_holtek_mant2[1],a
 317  000A  0F00        	mov a,0
 317  000B  0080     E  	mov _builtin_holtek_mant2[0],a
 317  000C  2000     E  	call _builtin_holtek_ftsub
 317  000D  3C00     E  	sz _builtin_holtek_mant1[2].7
 317  000E  2800     R  	jmp _L38
 317  000F  2800     R  	jmp _L25
 317  0010              _L38:
 317  0010              #line 317 "c:\users\tech\desktop\codetector\co.c"
 317  0010  0700     R  	mov a,_TempToPPMPercentage_2[2]
 317  0011  0080     E  	mov _builtin_holtek_mant1[2],a
 317  0012  0700     R  	mov a,_TempToPPMPercentage_2[1]
 317  0013  0080     E  	mov _builtin_holtek_mant1[1],a
 317  0014  0700     R  	mov a,_TempToPPMPercentage_2[0]
 317  0015  0080     E  	mov _builtin_holtek_mant1[0],a
 317  0016  0FC1        	mov a,193
 317  0017  0080     E  	mov _builtin_holtek_mant2[2],a
 317  0018  0FA0        	mov a,160
 317  0019  0080     E  	mov _builtin_holtek_mant2[1],a
 317  001A  0F00        	mov a,0
 317  001B  0080     E  	mov _builtin_holtek_mant2[0],a
 317  001C  2000     E  	call _builtin_holtek_ftsub
 317  001D  3800     E  	snz _builtin_holtek_mant1[2].7
 317  001E  2800     R  	jmp _L39
 317  001F  2800     R  	jmp _L25
 317  0020              _L39:
 319  0020              #line 319 "c:\users\tech\desktop\codetector\co.c"
 319  0020  0700     R  	mov a,_TempToPPMPercentage_2[2]
 319  0021  0080     E  	mov _builtin_holtek_mant1[2],a
 319  0022  0700     R  	mov a,_TempToPPMPercentage_2[1]
 319  0023  0080     E  	mov _builtin_holtek_mant1[1],a
 319  0024  0700     R  	mov a,_TempToPPMPercentage_2[0]
"File: co.c          Assembler  Version HGASM0202      Page 6

 319  0025  0080     E  	mov _builtin_holtek_mant1[0],a
 319  0026  0F41        	mov a,65
 319  0027  0080     E  	mov _builtin_holtek_mant2[2],a
 319  0028  0FA0        	mov a,160
 319  0029  0080     E  	mov _builtin_holtek_mant2[1],a
 319  002A  0F00        	mov a,0
 319  002B  0080     E  	mov _builtin_holtek_mant2[0],a
 319  002C  2000     E  	call _builtin_holtek_ftadd
 319  002D  0700     E  	mov a,_builtin_holtek_mant1[2]
 319  002E  0080     E  	mov re,a
 319  002F  0700     E  	mov a,_builtin_holtek_mant1[1]
 319  0030  0080     E  	mov rd,a
 319  0031  0700     E  	mov a,_builtin_holtek_mant1[0]
 319  0032  0080     E  	mov rc,a
 319  0033  0700     E  	mov a,re
 319  0034  0080     E  	mov rg,a
 319  0035  0700     E  	mov a,rd
 319  0036  0080     E  	mov rf,a
 319  0037  0700     E  	mov a,rc
 319  0038  0080     E  	mov re,a
 319  0039  1F00     E  	clr rd
 319  003A  0700     E  	mov a,rg
 319  003B  0080     E  	mov _builtin_holtek_mant12p[0],a
 319  003C  0700     E  	mov a,rf
 319  003D  0080     E  	mov _builtin_holtek_mant1[2],a
 319  003E  0700     E  	mov a,re
 319  003F  0080     E  	mov _builtin_holtek_mant1[1],a
 319  0040  0700     E  	mov a,rd
 319  0041  0080     E  	mov _builtin_holtek_mant1[0],a
 319  0042  0FBB        	mov a,187
 319  0043  0080     E  	mov _builtin_holtek_mant12p[1],a
 319  0044  0FF5        	mov a,245
 319  0045  0080     E  	mov _builtin_holtek_mant2[2],a
 319  0046  0FC2        	mov a,194
 319  0047  0080     E  	mov _builtin_holtek_mant2[1],a
 319  0048  0F8F        	mov a,143
 319  0049  0080     E  	mov _builtin_holtek_mant2[0],a
 319  004A  2000     E  	call _builtin_holtek_dtmul
 319  004B  0700     E  	mov a,_builtin_holtek_mant12p[0]
 319  004C  0080     E  	mov rg,a
 319  004D  0700     E  	mov a,_builtin_holtek_mant1[2]
 319  004E  0080     E  	mov rf,a
 319  004F  0700     E  	mov a,_builtin_holtek_mant1[1]
 319  0050  0080     E  	mov re,a
 319  0051  0700     E  	mov a,_builtin_holtek_mant1[0]
 319  0052  0080     E  	mov rd,a
 319  0053  0700     E  	mov a,rg
 319  0054  0080     E  	mov _builtin_holtek_mant12p[0],a
 319  0055  0700     E  	mov a,rf
 319  0056  0080     E  	mov _builtin_holtek_mant1[2],a
 319  0057  0700     E  	mov a,re
 319  0058  0080     E  	mov _builtin_holtek_mant1[1],a
 319  0059  0700     E  	mov a,rd
 319  005A  0080     E  	mov _builtin_holtek_mant1[0],a
 319  005B  0F3F        	mov a,63
 319  005C  0080     E  	mov _builtin_holtek_mant12p[1],a
 319  005D  0F19        	mov a,25
 319  005E  0080     E  	mov _builtin_holtek_mant2[2],a
 319  005F  0F99        	mov a,153
 319  0060  0080     E  	mov _builtin_holtek_mant2[1],a
"File: co.c          Assembler  Version HGASM0202      Page 7

 319  0061  0F9A        	mov a,154
 319  0062  0080     E  	mov _builtin_holtek_mant2[0],a
 319  0063  2000     E  	call _builtin_holtek_dtadd
 319  0064  0700     E  	mov a,_builtin_holtek_mant12p[0]
 319  0065  0080     E  	mov rg,a
 319  0066  0700     E  	mov a,_builtin_holtek_mant1[2]
 319  0067  0080     E  	mov rf,a
 319  0068  0700     E  	mov a,_builtin_holtek_mant1[1]
 319  0069  0080     E  	mov re,a
 319  006A  0700     E  	mov a,_builtin_holtek_mant1[0]
 319  006B  0080     E  	mov rd,a
 319  006C  2800     R  	jmp _L46
 319  006D              _L25:
 321  006D              #line 321 "c:\users\tech\desktop\codetector\co.c"
 321  006D  0700     R  	mov a,_TempToPPMPercentage_2[2]
 321  006E  0080     E  	mov _builtin_holtek_mant1[2],a
 321  006F  0700     R  	mov a,_TempToPPMPercentage_2[1]
 321  0070  0080     E  	mov _builtin_holtek_mant1[1],a
 321  0071  0700     R  	mov a,_TempToPPMPercentage_2[0]
 321  0072  0080     E  	mov _builtin_holtek_mant1[0],a
 321  0073  0F00        	mov a,0
 321  0074  0080     E  	mov _builtin_holtek_mant2[2],a
 321  0075  0F00        	mov a,0
 321  0076  0080     E  	mov _builtin_holtek_mant2[1],a
 321  0077  0F00        	mov a,0
 321  0078  0080     E  	mov _builtin_holtek_mant2[0],a
 321  0079  2000     E  	call _builtin_holtek_ftsub
 321  007A  3800     E  	snz _builtin_holtek_mant1[2].7
 321  007B  2800     R  	jmp _L40
 321  007C  2800     R  	jmp _L29
 321  007D              _L40:
 321  007D  0700     R  	mov a,_TempToPPMPercentage_2[2]
 321  007E  0080     E  	mov _builtin_holtek_mant1[2],a
 321  007F  0700     R  	mov a,_TempToPPMPercentage_2[1]
 321  0080  0080     E  	mov _builtin_holtek_mant1[1],a
 321  0081  0700     R  	mov a,_TempToPPMPercentage_2[0]
 321  0082  0080     E  	mov _builtin_holtek_mant1[0],a
 321  0083  0F41        	mov a,65
 321  0084  0080     E  	mov _builtin_holtek_mant2[2],a
 321  0085  0FA0        	mov a,160
 321  0086  0080     E  	mov _builtin_holtek_mant2[1],a
 321  0087  0F00        	mov a,0
 321  0088  0080     E  	mov _builtin_holtek_mant2[0],a
 321  0089  2000     E  	call _builtin_holtek_ftsub
 321  008A  3C00     E  	sz _builtin_holtek_mant1[2].7
 321  008B  2800     R  	jmp _L41
 321  008C  2800     R  	jmp _L29
 321  008D              _L41:
 323  008D              #line 323 "c:\users\tech\desktop\codetector\co.c"
 323  008D  0700     R  	mov a,_TempToPPMPercentage_2[0]
 323  008E  0080     E  	mov re,a
 323  008F  0700     R  	mov a,_TempToPPMPercentage_2[1]
 323  0090  0080     E  	mov rf,a
 323  0091  0700     R  	mov a,_TempToPPMPercentage_2[2]
 323  0092  0080     E  	mov rg,a
 323  0093  1F00     E  	clr rd
 323  0094  0700     E  	mov a,rg
 323  0095  0080     E  	mov _builtin_holtek_mant12p[0],a
 323  0096  0700     E  	mov a,rf
 323  0097  0080     E  	mov _builtin_holtek_mant1[2],a
"File: co.c          Assembler  Version HGASM0202      Page 8

 323  0098  0700     E  	mov a,re
 323  0099  0080     E  	mov _builtin_holtek_mant1[1],a
 323  009A  0700     E  	mov a,rd
 323  009B  0080     E  	mov _builtin_holtek_mant1[0],a
 323  009C  0F3B        	mov a,59
 323  009D  0080     E  	mov _builtin_holtek_mant12p[1],a
 323  009E  0F23        	mov a,35
 323  009F  0080     E  	mov _builtin_holtek_mant2[2],a
 323  00A0  0FD7        	mov a,215
 323  00A1  0080     E  	mov _builtin_holtek_mant2[1],a
 323  00A2  0F0A        	mov a,10
 323  00A3  0080     E  	mov _builtin_holtek_mant2[0],a
 323  00A4  2000     E  	call _builtin_holtek_dtmul
 323  00A5  0700     E  	mov a,_builtin_holtek_mant12p[0]
 323  00A6  0080     E  	mov rg,a
 323  00A7  0700     E  	mov a,_builtin_holtek_mant1[2]
 323  00A8  0080     E  	mov rf,a
 323  00A9  0700     E  	mov a,_builtin_holtek_mant1[1]
 323  00AA  0080     E  	mov re,a
 323  00AB  0700     E  	mov a,_builtin_holtek_mant1[0]
 323  00AC  0080     E  	mov rd,a
 323  00AD  0700     E  	mov a,rg
 323  00AE  0080     E  	mov _builtin_holtek_mant12p[0],a
 323  00AF  0700     E  	mov a,rf
 323  00B0  0080     E  	mov _builtin_holtek_mant1[2],a
 323  00B1  0700     E  	mov a,re
 323  00B2  0080     E  	mov _builtin_holtek_mant1[1],a
 323  00B3  0700     E  	mov a,rd
 323  00B4  0080     E  	mov _builtin_holtek_mant1[0],a
 323  00B5  0F3F        	mov a,63
 323  00B6  0080     E  	mov _builtin_holtek_mant12p[1],a
 323  00B7  0F40        	mov a,64
 323  00B8  0080     E  	mov _builtin_holtek_mant2[2],a
 323  00B9  0F00        	mov a,0
 323  00BA  0080     E  	mov _builtin_holtek_mant2[1],a
 323  00BB  0F00        	mov a,0
 323  00BC  0080     E  	mov _builtin_holtek_mant2[0],a
 323  00BD  2000     E  	call _builtin_holtek_dtadd
 323  00BE  0700     E  	mov a,_builtin_holtek_mant12p[0]
 323  00BF  0080     E  	mov rg,a
 323  00C0  0700     E  	mov a,_builtin_holtek_mant1[2]
 323  00C1  0080     E  	mov rf,a
 323  00C2  0700     E  	mov a,_builtin_holtek_mant1[1]
 323  00C3  0080     E  	mov re,a
 323  00C4  0700     E  	mov a,_builtin_holtek_mant1[0]
 323  00C5  0080     E  	mov rd,a
 323  00C6  2800     R  	jmp _L46
 323  00C7              _L29:
 325  00C7              #line 325 "c:\users\tech\desktop\codetector\co.c"
 325  00C7  0700     R  	mov a,_TempToPPMPercentage_2[2]
 325  00C8  0080     E  	mov _builtin_holtek_mant1[2],a
 325  00C9  0700     R  	mov a,_TempToPPMPercentage_2[1]
 325  00CA  0080     E  	mov _builtin_holtek_mant1[1],a
 325  00CB  0700     R  	mov a,_TempToPPMPercentage_2[0]
 325  00CC  0080     E  	mov _builtin_holtek_mant1[0],a
 325  00CD  0F41        	mov a,65
 325  00CE  0080     E  	mov _builtin_holtek_mant2[2],a
 325  00CF  0FA0        	mov a,160
 325  00D0  0080     E  	mov _builtin_holtek_mant2[1],a
 325  00D1  0F00        	mov a,0
"File: co.c          Assembler  Version HGASM0202      Page 9

 325  00D2  0080     E  	mov _builtin_holtek_mant2[0],a
 325  00D3  2000     E  	call _builtin_holtek_ftsub
 325  00D4  3800     E  	snz _builtin_holtek_mant1[2].7
 325  00D5  2800     R  	jmp _L42
 325  00D6  2800     R  	jmp _L32
 325  00D7              _L42:
 325  00D7  0700     R  	mov a,_TempToPPMPercentage_2[2]
 325  00D8  0080     E  	mov _builtin_holtek_mant1[2],a
 325  00D9  0700     R  	mov a,_TempToPPMPercentage_2[1]
 325  00DA  0080     E  	mov _builtin_holtek_mant1[1],a
 325  00DB  0700     R  	mov a,_TempToPPMPercentage_2[0]
 325  00DC  0080     E  	mov _builtin_holtek_mant1[0],a
 325  00DD  0F42        	mov a,66
 325  00DE  0080     E  	mov _builtin_holtek_mant2[2],a
 325  00DF  0F48        	mov a,72
 325  00E0  0080     E  	mov _builtin_holtek_mant2[1],a
 325  00E1  0F00        	mov a,0
 325  00E2  0080     E  	mov _builtin_holtek_mant2[0],a
 325  00E3  2000     E  	call _builtin_holtek_ftsub
 325  00E4  3C00     E  	sz _builtin_holtek_mant1[2].7
 325  00E5  2800     R  	jmp _L43
 325  00E6  2800     R  	jmp _L32
 325  00E7              _L43:
 327  00E7              #line 327 "c:\users\tech\desktop\codetector\co.c"
 327  00E7  0700     R  	mov a,_TempToPPMPercentage_2[2]
 327  00E8  0080     E  	mov _builtin_holtek_mant1[2],a
 327  00E9  0700     R  	mov a,_TempToPPMPercentage_2[1]
 327  00EA  0080     E  	mov _builtin_holtek_mant1[1],a
 327  00EB  0700     R  	mov a,_TempToPPMPercentage_2[0]
 327  00EC  0080     E  	mov _builtin_holtek_mant1[0],a
 327  00ED  0F41        	mov a,65
 327  00EE  0080     E  	mov _builtin_holtek_mant2[2],a
 327  00EF  0FA0        	mov a,160
 327  00F0  0080     E  	mov _builtin_holtek_mant2[1],a
 327  00F1  0F00        	mov a,0
 327  00F2  0080     E  	mov _builtin_holtek_mant2[0],a
 327  00F3  2000     E  	call _builtin_holtek_ftsub
 327  00F4  0700     E  	mov a,_builtin_holtek_mant1[2]
 327  00F5  0080     E  	mov re,a
 327  00F6  0700     E  	mov a,_builtin_holtek_mant1[1]
 327  00F7  0080     E  	mov rd,a
 327  00F8  0700     E  	mov a,_builtin_holtek_mant1[0]
 327  00F9  0080     E  	mov rc,a
 327  00FA  0700     E  	mov a,re
 327  00FB  0080     E  	mov rg,a
 327  00FC  0700     E  	mov a,rd
 327  00FD  0080     E  	mov rf,a
 327  00FE  0700     E  	mov a,rc
 327  00FF  0080     E  	mov re,a
 327  0100  1F00     E  	clr rd
 327  0101  0700     E  	mov a,rg
 327  0102  0080     E  	mov _builtin_holtek_mant12p[0],a
 327  0103  0700     E  	mov a,rf
 327  0104  0080     E  	mov _builtin_holtek_mant1[2],a
 327  0105  0700     E  	mov a,re
 327  0106  0080     E  	mov _builtin_holtek_mant1[1],a
 327  0107  0700     E  	mov a,rd
 327  0108  0080     E  	mov _builtin_holtek_mant1[0],a
 327  0109  0F3C        	mov a,60
 327  010A  0080     E  	mov _builtin_holtek_mant12p[1],a
"File: co.c          Assembler  Version HGASM0202      Page 10

 327  010B  0F3E        	mov a,62
 327  010C  0080     E  	mov _builtin_holtek_mant2[2],a
 327  010D  0F0D        	mov a,13
 327  010E  0080     E  	mov _builtin_holtek_mant2[1],a
 327  010F  0FED        	mov a,237
 327  0110  0080     E  	mov _builtin_holtek_mant2[0],a
 327  0111  2000     E  	call _builtin_holtek_dtmul
 327  0112  0700     E  	mov a,_builtin_holtek_mant12p[0]
 327  0113  0080     E  	mov rg,a
 327  0114  0700     E  	mov a,_builtin_holtek_mant1[2]
 327  0115  0080     E  	mov rf,a
 327  0116  0700     E  	mov a,_builtin_holtek_mant1[1]
 327  0117  0080     E  	mov re,a
 327  0118  0700     E  	mov a,_builtin_holtek_mant1[0]
 327  0119  0080     E  	mov rd,a
 327  011A  0700     E  	mov a,rg
 327  011B  0080     E  	mov _builtin_holtek_mant12p[0],a
 327  011C  0700     E  	mov a,rf
 327  011D  0080     E  	mov _builtin_holtek_mant1[2],a
 327  011E  0700     E  	mov a,re
 327  011F  0080     E  	mov _builtin_holtek_mant1[1],a
 327  0120  0700     E  	mov a,rd
 327  0121  0080     E  	mov _builtin_holtek_mant1[0],a
 327  0122  0F3D        	mov a,61
 327  0123  0080     E  	mov _builtin_holtek_mant12p[1],a
 327  0124  0FCC        	mov a,204
 327  0125  0080     E  	mov _builtin_holtek_mant2[2],a
 327  0126  0FCC        	mov a,204
 327  0127  0080     E  	mov _builtin_holtek_mant2[1],a
 327  0128  0FCD        	mov a,205
 327  0129  0080     E  	mov _builtin_holtek_mant2[0],a
 327  012A  2000     E  	call _builtin_holtek_dtadd
 327  012B  0700     E  	mov a,_builtin_holtek_mant12p[0]
 327  012C  0080     E  	mov rg,a
 327  012D  0700     E  	mov a,_builtin_holtek_mant1[2]
 327  012E  0080     E  	mov rf,a
 327  012F  0700     E  	mov a,_builtin_holtek_mant1[1]
 327  0130  0080     E  	mov re,a
 327  0131  0700     E  	mov a,_builtin_holtek_mant1[0]
 327  0132  0080     E  	mov rd,a
 327  0133  2800     R  	jmp _L46
 327  0134              _L32:
 329  0134              #line 329 "c:\users\tech\desktop\codetector\co.c"
 329  0134  0700     R  	mov a,_TempToPPMPercentage_2[2]
 329  0135  0080     E  	mov _builtin_holtek_mant1[2],a
 329  0136  0700     R  	mov a,_TempToPPMPercentage_2[1]
 329  0137  0080     E  	mov _builtin_holtek_mant1[1],a
 329  0138  0700     R  	mov a,_TempToPPMPercentage_2[0]
 329  0139  0080     E  	mov _builtin_holtek_mant1[0],a
 329  013A  0F42        	mov a,66
 329  013B  0080     E  	mov _builtin_holtek_mant2[2],a
 329  013C  0F48        	mov a,72
 329  013D  0080     E  	mov _builtin_holtek_mant2[1],a
 329  013E  0F00        	mov a,0
 329  013F  0080     E  	mov _builtin_holtek_mant2[0],a
 329  0140  2000     E  	call _builtin_holtek_ftsub
 329  0141  3800     E  	snz _builtin_holtek_mant1[2].7
 329  0142  2800     R  	jmp _L44
 329  0143  2800     R  	jmp _L35
 329  0144              _L44:
"File: co.c          Assembler  Version HGASM0202      Page 11

 329  0144  0700     R  	mov a,_TempToPPMPercentage_2[2]
 329  0145  0080     E  	mov _builtin_holtek_mant1[2],a
 329  0146  0700     R  	mov a,_TempToPPMPercentage_2[1]
 329  0147  0080     E  	mov _builtin_holtek_mant1[1],a
 329  0148  0700     R  	mov a,_TempToPPMPercentage_2[0]
 329  0149  0080     E  	mov _builtin_holtek_mant1[0],a
 329  014A  0F42        	mov a,66
 329  014B  0080     E  	mov _builtin_holtek_mant2[2],a
 329  014C  0F8C        	mov a,140
 329  014D  0080     E  	mov _builtin_holtek_mant2[1],a
 329  014E  0F00        	mov a,0
 329  014F  0080     E  	mov _builtin_holtek_mant2[0],a
 329  0150  2000     E  	call _builtin_holtek_ftsub
 329  0151  3C00     E  	sz _builtin_holtek_mant1[2].7
 329  0152  2800     R  	jmp _L45
 329  0153  0700     E  	mov a,_builtin_holtek_mant1[2]
 329  0154  0500     E  	or a,_builtin_holtek_mant1[1]
 329  0155  0500     E  	or a,_builtin_holtek_mant1[0]
 329  0156  3D0A        	sz z
 329  0157  2800     R  	jmp _L45
 329  0158  2800     R  	jmp _L35
 329  0159              _L45:
 331  0159              #line 331 "c:\users\tech\desktop\codetector\co.c"
 331  0159  0700     R  	mov a,_TempToPPMPercentage_2[2]
 331  015A  0080     E  	mov _builtin_holtek_mant1[2],a
 331  015B  0700     R  	mov a,_TempToPPMPercentage_2[1]
 331  015C  0080     E  	mov _builtin_holtek_mant1[1],a
 331  015D  0700     R  	mov a,_TempToPPMPercentage_2[0]
 331  015E  0080     E  	mov _builtin_holtek_mant1[0],a
 331  015F  0F42        	mov a,66
 331  0160  0080     E  	mov _builtin_holtek_mant2[2],a
 331  0161  0F48        	mov a,72
 331  0162  0080     E  	mov _builtin_holtek_mant2[1],a
 331  0163  0F00        	mov a,0
 331  0164  0080     E  	mov _builtin_holtek_mant2[0],a
 331  0165  2000     E  	call _builtin_holtek_ftsub
 331  0166  0700     E  	mov a,_builtin_holtek_mant1[2]
 331  0167  0080     E  	mov re,a
 331  0168  0700     E  	mov a,_builtin_holtek_mant1[1]
 331  0169  0080     E  	mov rd,a
 331  016A  0700     E  	mov a,_builtin_holtek_mant1[0]
 331  016B  0080     E  	mov rc,a
 331  016C  0700     E  	mov a,re
 331  016D  0080     E  	mov rg,a
 331  016E  0700     E  	mov a,rd
 331  016F  0080     E  	mov rf,a
 331  0170  0700     E  	mov a,rc
 331  0171  0080     E  	mov re,a
 331  0172  1F00     E  	clr rd
 331  0173  0700     E  	mov a,rg
 331  0174  0080     E  	mov _builtin_holtek_mant12p[0],a
 331  0175  0700     E  	mov a,rf
 331  0176  0080     E  	mov _builtin_holtek_mant1[2],a
 331  0177  0700     E  	mov a,re
 331  0178  0080     E  	mov _builtin_holtek_mant1[1],a
 331  0179  0700     E  	mov a,rd
 331  017A  0080     E  	mov _builtin_holtek_mant1[0],a
 331  017B  0F3B        	mov a,59
 331  017C  0080     E  	mov _builtin_holtek_mant12p[1],a
 331  017D  0FA3        	mov a,163
"File: co.c          Assembler  Version HGASM0202      Page 12

 331  017E  0080     E  	mov _builtin_holtek_mant2[2],a
 331  017F  0FD7        	mov a,215
 331  0180  0080     E  	mov _builtin_holtek_mant2[1],a
 331  0181  0F0A        	mov a,10
 331  0182  0080     E  	mov _builtin_holtek_mant2[0],a
 331  0183  2000     E  	call _builtin_holtek_dtmul
 331  0184  0700     E  	mov a,_builtin_holtek_mant12p[0]
 331  0185  0080     E  	mov rg,a
 331  0186  0700     E  	mov a,_builtin_holtek_mant1[2]
 331  0187  0080     E  	mov rf,a
 331  0188  0700     E  	mov a,_builtin_holtek_mant1[1]
 331  0189  0080     E  	mov re,a
 331  018A  0700     E  	mov a,_builtin_holtek_mant1[0]
 331  018B  0080     E  	mov rd,a
 331  018C  0700     E  	mov a,rg
 331  018D  0080     E  	mov _builtin_holtek_mant12p[0],a
 331  018E  0700     E  	mov a,rf
 331  018F  0080     E  	mov _builtin_holtek_mant1[2],a
 331  0190  0700     E  	mov a,re
 331  0191  0080     E  	mov _builtin_holtek_mant1[1],a
 331  0192  0700     E  	mov a,rd
 331  0193  0080     E  	mov _builtin_holtek_mant1[0],a
 331  0194  0F3E        	mov a,62
 331  0195  0080     E  	mov _builtin_holtek_mant12p[1],a
 331  0196  0F0A        	mov a,10
 331  0197  0080     E  	mov _builtin_holtek_mant2[2],a
 331  0198  0F3D        	mov a,61
 331  0199  0080     E  	mov _builtin_holtek_mant2[1],a
 331  019A  0F71        	mov a,113
 331  019B  0080     E  	mov _builtin_holtek_mant2[0],a
 331  019C  2000     E  	call _builtin_holtek_dtadd
 331  019D  0700     E  	mov a,_builtin_holtek_mant12p[0]
 331  019E  0080     E  	mov rg,a
 331  019F  0700     E  	mov a,_builtin_holtek_mant1[2]
 331  01A0  0080     E  	mov rf,a
 331  01A1  0700     E  	mov a,_builtin_holtek_mant1[1]
 331  01A2  0080     E  	mov re,a
 331  01A3  0700     E  	mov a,_builtin_holtek_mant1[0]
 331  01A4  0080     E  	mov rd,a
 331  01A5              _L46:
 331  01A5  0700     E  	mov a,re
 331  01A6  0080     E  	mov rc,a
 331  01A7  0700     E  	mov a,rf
 331  01A8  0080     E  	mov rd,a
 331  01A9  0700     E  	mov a,rg
 331  01AA  0080     E  	mov re,a
 331  01AB  0700     E  	mov a,rc
 331  01AC  0080     E  	mov ra,a
 331  01AD  0700     E  	mov a,rd
 331  01AE  0080     E  	mov rb,a
 331  01AF  0700     E  	mov a,re
 331  01B0  0080     E  	mov rc,a
 331  01B1  2800     R  	jmp _L24
 331  01B2              _L35:
 331  01B2              _L24:
 331  01B2  0003        	ret
 331  01B3              _TempToPPMPercentage endp
 331  01B3              #line 331 "c:\users\tech\desktop\codetector\co.c"
 331  01B3              #pragma debug scope 1 1
 331  01B3              ___status equ [10]
"File: co.c          Assembler  Version HGASM0202      Page 13

 331  01B3              ___isgenc equ [93]
 331  01B3              ___vbgrc equ [11]
 331  01B3              ___sda0c equ [35]
 331  01B3              ___sda1c equ [37]
 331  01B3              public _main
 331  01B3              #pragma debug scope 4 1
  84  01B3              #line 84 "c:\users\tech\desktop\codetector\co.c"
  84  01B3              IFDEF WITH_DEFAULT_STARTUP
  84  01B3              extern _main_initial0:near
  84  01B3              extern _main_startup:near
  84  01B3              ENDIF
  84  01B3              
  84  01B3              ROMBANK 0 @start
  84  0000              @start .section com_l 'code'
  84  0000              _main_startup1:
  84  0000              @start .section com_e 'code'
  84  0000  2800     R  	jmp _main
  84  0001              
  84  0000              _main .section 'code'
  84  0000              _main proc
  84  0000  0003[           local _main_2 db 3 dup(?)
            00
            ]
  87  0003              #line 87 "c:\users\tech\desktop\codetector\co.c"
  87  0000  3E8A        	sz [10].5
  87  0001  2800     R  	jmp _L48
  89  0002              #line 89 "c:\users\tech\desktop\codetector\co.c"
  89  0002  1F00     R  	clr _debounceCounter[0]
  89  0003  1F00     R  	clr _debounceCounter[1]
  89  0004              _L48:
  94  0004              #line 94 "c:\users\tech\desktop\codetector\co.c"
  94  0004  2000     E  	call _ClockInit
  95  0005              #line 95 "c:\users\tech\desktop\codetector\co.c"
  95  0005  2000     E  	call _GPIOInit
  96  0006              #line 96 "c:\users\tech\desktop\codetector\co.c"
  96  0006  2000     E  	call _GPIOToGNDCurentInit
  97  0007              #line 97 "c:\users\tech\desktop\codetector\co.c"
  97  0007  2000     E  	call _OPAMPInit
  98  0008              #line 98 "c:\users\tech\desktop\codetector\co.c"
  98  0008  2000     E  	call _S_ADC_Init
  99  0009              #line 99 "c:\users\tech\desktop\codetector\co.c"
  99  0009  2000     E  	call _PTimerInit
 100  000A              #line 100 "c:\users\tech\desktop\codetector\co.c"
 100  000A  0F00        	mov a,0
 100  000B  2000     E  	call _PWMSeter
 106  000C              #line 106 "c:\users\tech\desktop\codetector\co.c"
 106  000C  305D        	set [93].0
 107  000D              #line 107 "c:\users\tech\desktop\codetector\co.c"
 107  000D  34DD        	clr [93].1
 108  000E              #line 108 "c:\users\tech\desktop\codetector\co.c"
 108  000E  300B        	set [11].0
 109  000F              #line 109 "c:\users\tech\desktop\codetector\co.c"
 109  000F  3323        	set [35].6
 110  0010              #line 110 "c:\users\tech\desktop\codetector\co.c"
 110  0010  3325        	set [37].6
 117  0011              #line 117 "c:\users\tech\desktop\codetector\co.c"
 117  0011  2000     E  	call _clearSegment
 118  0012              #line 118 "c:\users\tech\desktop\codetector\co.c"
 118  0012  3216        	set [22].4
 119  0013              #line 119 "c:\users\tech\desktop\codetector\co.c"
"File: co.c          Assembler  Version HGASM0202      Page 14

 119  0013  3217        	set [23].4
 120  0014              #line 120 "c:\users\tech\desktop\codetector\co.c"
 120  0014  0F38        	mov a,56
 120  0015  0097        	mov [23],a
 121  0016              #line 121 "c:\users\tech\desktop\codetector\co.c"
 121  0016  1F00     R  	clr _pressFlag[0]
 122  0017              #line 122 "c:\users\tech\desktop\codetector\co.c"
 122  0017  1F00     R  	clr _debounceCounter[0]
 122  0018  1F00     R  	clr _debounceCounter[1]
 123  0019              #line 123 "c:\users\tech\desktop\codetector\co.c"
 123  0019  1F00     R  	clr _keyCounter[0]
 123  001A  1F00     R  	clr _keyCounter[1]
 127  001B              #line 127 "c:\users\tech\desktop\codetector\co.c"
 127  001B  0F04        	mov a,4
 127  001C  2000     E  	call _S_READ_ADC
 127  001D  0700     E  	mov a,rb
 127  001E  0080     E  	mov _builtin_holtek_mant1[1],a
 127  001F  0700     E  	mov a,ra
 127  0020  0080     E  	mov _builtin_holtek_mant1[0],a
 127  0021  3400     E  	clr _builtin_holtek_signs.0
 127  0022  2000     E  	call _builtin_holtek_uitod
 127  0023  0700     E  	mov a,_builtin_holtek_mant12p[0]
 127  0024  0080     E  	mov rh,a
 127  0025  0700     E  	mov a,_builtin_holtek_mant1[2]
 127  0026  0080     E  	mov rg,a
 127  0027  0700     E  	mov a,_builtin_holtek_mant1[1]
 127  0028  0080     E  	mov rf,a
 127  0029  0700     E  	mov a,_builtin_holtek_mant1[0]
 127  002A  0080     E  	mov re,a
 127  002B  1F00     E  	clr ra
 127  002C  0FF0        	mov a,-16
 127  002D  0080     E  	mov rb,a
 127  002E  0F7F        	mov a,127
 127  002F  0080     E  	mov rc,a
 127  0030  0F45        	mov a,69
 127  0031  0080     E  	mov rd,a
 127  0032  0700     E  	mov a,rd
 127  0033  0080     E  	mov _builtin_holtek_mant12p[0],a
 127  0034  0700     E  	mov a,rc
 127  0035  0080     E  	mov _builtin_holtek_mant1[2],a
 127  0036  0700     E  	mov a,rb
 127  0037  0080     E  	mov _builtin_holtek_mant1[1],a
 127  0038  0700     E  	mov a,ra
 127  0039  0080     E  	mov _builtin_holtek_mant1[0],a
 127  003A  0700     E  	mov a,rh
 127  003B  0080     E  	mov _builtin_holtek_mant12p[1],a
 127  003C  0700     E  	mov a,rg
 127  003D  0080     E  	mov _builtin_holtek_mant2[2],a
 127  003E  0700     E  	mov a,rf
 127  003F  0080     E  	mov _builtin_holtek_mant2[1],a
 127  0040  0700     E  	mov a,re
 127  0041  0080     E  	mov _builtin_holtek_mant2[0],a
 127  0042  2000     E  	call _builtin_holtek_dtdiv
 127  0043  0700     E  	mov a,_builtin_holtek_mant12p[0]
 127  0044  0080     E  	mov rh,a
 127  0045  0700     E  	mov a,_builtin_holtek_mant1[2]
 127  0046  0080     E  	mov rg,a
 127  0047  0700     E  	mov a,_builtin_holtek_mant1[1]
 127  0048  0080     E  	mov rf,a
 127  0049  0700     E  	mov a,_builtin_holtek_mant1[0]
"File: co.c          Assembler  Version HGASM0202      Page 15

 127  004A  0080     E  	mov re,a
 127  004B  0700     E  	mov a,rh
 127  004C  0080     E  	mov _builtin_holtek_mant12p[0],a
 127  004D  0700     E  	mov a,rg
 127  004E  0080     E  	mov _builtin_holtek_mant1[2],a
 127  004F  0700     E  	mov a,rf
 127  0050  0080     E  	mov _builtin_holtek_mant1[1],a
 127  0051  0700     E  	mov a,re
 127  0052  0080     E  	mov _builtin_holtek_mant1[0],a
 127  0053  0F3F        	mov a,63
 127  0054  0080     E  	mov _builtin_holtek_mant12p[1],a
 127  0055  0F99        	mov a,153
 127  0056  0080     E  	mov _builtin_holtek_mant2[2],a
 127  0057  0F99        	mov a,153
 127  0058  0080     E  	mov _builtin_holtek_mant2[1],a
 127  0059  0F9A        	mov a,154
 127  005A  0080     E  	mov _builtin_holtek_mant2[0],a
 127  005B  2000     E  	call _builtin_holtek_dtmul
 127  005C  0700     E  	mov a,_builtin_holtek_mant12p[0]
 127  005D  0080     E  	mov rg,a
 127  005E  0700     E  	mov a,_builtin_holtek_mant1[2]
 127  005F  0080     E  	mov rf,a
 127  0060  0700     E  	mov a,_builtin_holtek_mant1[1]
 127  0061  0080     E  	mov re,a
 127  0062  0700     E  	mov a,_builtin_holtek_mant1[0]
 127  0063  0080     E  	mov rd,a
 127  0064  0700     E  	mov a,rg
 127  0065  0080     R  	mov _main_2[2],a
 127  0066  0700     E  	mov a,rf
 127  0067  0080     R  	mov _main_2[1],a
 127  0068  0700     E  	mov a,re
 127  0069  0080     R  	mov _main_2[0],a
 127  006A  0700     R  	mov a,_main_2[0]
 127  006B  0080     R  	mov _VDD[0],a
 127  006C  0700     R  	mov a,_main_2[1]
 127  006D  0080     R  	mov _VDD[1],a
 127  006E  0700     R  	mov a,_main_2[2]
 127  006F  0080     R  	mov _VDD[2],a
 128  0070              #line 128 "c:\users\tech\desktop\codetector\co.c"
 128  0070  0F01        	mov a,1
 128  0071  2000     E  	call _S_READ_ADC
 128  0072  0700     R  	mov a,_main_2[0]
 128  0073  0080     E  	mov _temperature_2[2],a
 128  0074  0700     R  	mov a,_main_2[1]
 128  0075  0080     E  	mov _temperature_2[3],a
 128  0076  0700     R  	mov a,_main_2[2]
 128  0077  0080     E  	mov _temperature_2[4],a
 128  0078  0700     E  	mov a,ra
 128  0079  0080     E  	mov _temperature_2[0],a
 128  007A  0700     E  	mov a,rb
 128  007B  0080     E  	mov _temperature_2[1],a
 128  007C  2000     E  	call _temperature
 128  007D  0700     E  	mov a,ra
 128  007E  0080     R  	mov _temperatur[0],a
 128  007F  0700     E  	mov a,rb
 128  0080  0080     R  	mov _temperatur[1],a
 128  0081  0700     E  	mov a,rc
 128  0082  0080     R  	mov _temperatur[2],a
 129  0083              #line 129 "c:\users\tech\desktop\codetector\co.c"
 129  0083  0F05        	mov a,5
"File: co.c          Assembler  Version HGASM0202      Page 16

 129  0084  2000     E  	call _S_READ_ADC
 129  0085  0700     E  	mov a,rb
 129  0086  0080     E  	mov _builtin_holtek_mant1[1],a
 129  0087  0700     E  	mov a,ra
 129  0088  0080     E  	mov _builtin_holtek_mant1[0],a
 129  0089  3400     E  	clr _builtin_holtek_signs.0
 129  008A  2000     E  	call _builtin_holtek_uitof
 129  008B  0700     E  	mov a,_builtin_holtek_mant1[2]
 129  008C  0080     E  	mov re,a
 129  008D  0700     E  	mov a,_builtin_holtek_mant1[1]
 129  008E  0080     E  	mov rd,a
 129  008F  0700     E  	mov a,_builtin_holtek_mant1[0]
 129  0090  0080     E  	mov rc,a
 129  0091  0700     E  	mov a,rc
 129  0092  0080     R  	mov _Amplifier1[0],a
 129  0093  0700     E  	mov a,rd
 129  0094  0080     R  	mov _Amplifier1[1],a
 129  0095  0700     E  	mov a,re
 129  0096  0080     R  	mov _Amplifier1[2],a
 130  0097              #line 130 "c:\users\tech\desktop\codetector\co.c"
 130  0097  0700     R  	mov a,_VDD[2]
 130  0098  0080     E  	mov _builtin_holtek_mant1[2],a
 130  0099  0700     R  	mov a,_VDD[1]
 130  009A  0080     E  	mov _builtin_holtek_mant1[1],a
 130  009B  0700     R  	mov a,_VDD[0]
 130  009C  0080     E  	mov _builtin_holtek_mant1[0],a
 130  009D  0F45        	mov a,69
 130  009E  0080     E  	mov _builtin_holtek_mant2[2],a
 130  009F  0F7F        	mov a,127
 130  00A0  0080     E  	mov _builtin_holtek_mant2[1],a
 130  00A1  0FF0        	mov a,240
 130  00A2  0080     E  	mov _builtin_holtek_mant2[0],a
 130  00A3  2000     E  	call _builtin_holtek_ftdiv
 130  00A4  0700     E  	mov a,_builtin_holtek_mant1[2]
 130  00A5  0080     E  	mov rh,a
 130  00A6  0700     E  	mov a,_builtin_holtek_mant1[1]
 130  00A7  0080     E  	mov rg,a
 130  00A8  0700     E  	mov a,_builtin_holtek_mant1[0]
 130  00A9  0080     E  	mov rf,a
 130  00AA  0700     E  	mov a,re
 130  00AB  0080     E  	mov _builtin_holtek_mant1[2],a
 130  00AC  0700     E  	mov a,rd
 130  00AD  0080     E  	mov _builtin_holtek_mant1[1],a
 130  00AE  0700     E  	mov a,rc
 130  00AF  0080     E  	mov _builtin_holtek_mant1[0],a
 130  00B0  0700     E  	mov a,rh
 130  00B1  0080     E  	mov _builtin_holtek_mant2[2],a
 130  00B2  0700     E  	mov a,rg
 130  00B3  0080     E  	mov _builtin_holtek_mant2[1],a
 130  00B4  0700     E  	mov a,rf
 130  00B5  0080     E  	mov _builtin_holtek_mant2[0],a
 130  00B6  2000     E  	call _builtin_holtek_ftmul
 130  00B7  0700     E  	mov a,_builtin_holtek_mant1[2]
 130  00B8  0080     E  	mov re,a
 130  00B9  0700     E  	mov a,_builtin_holtek_mant1[1]
 130  00BA  0080     E  	mov rd,a
 130  00BB  0700     E  	mov a,_builtin_holtek_mant1[0]
 130  00BC  0080     E  	mov rc,a
 130  00BD  0700     E  	mov a,re
 130  00BE  0080     E  	mov rg,a
"File: co.c          Assembler  Version HGASM0202      Page 17

 130  00BF  0700     E  	mov a,rd
 130  00C0  0080     E  	mov rf,a
 130  00C1  0700     E  	mov a,rc
 130  00C2  0080     E  	mov re,a
 130  00C3  1F00     E  	clr rd
 130  00C4  0700     E  	mov a,rg
 130  00C5  0080     E  	mov _builtin_holtek_mant12p[0],a
 130  00C6  0700     E  	mov a,rf
 130  00C7  0080     E  	mov _builtin_holtek_mant1[2],a
 130  00C8  0700     E  	mov a,re
 130  00C9  0080     E  	mov _builtin_holtek_mant1[1],a
 130  00CA  0700     E  	mov a,rd
 130  00CB  0080     E  	mov _builtin_holtek_mant1[0],a
 130  00CC  0F40        	mov a,64
 130  00CD  0080     E  	mov _builtin_holtek_mant12p[1],a
 130  00CE  0FF5        	mov a,245
 130  00CF  0080     E  	mov _builtin_holtek_mant2[2],a
 130  00D0  0F55        	mov a,85
 130  00D1  0080     E  	mov _builtin_holtek_mant2[1],a
 130  00D2  0F55        	mov a,85
 130  00D3  0080     E  	mov _builtin_holtek_mant2[0],a
 130  00D4  2000     E  	call _builtin_holtek_dtdiv
 130  00D5  0700     E  	mov a,_builtin_holtek_mant12p[0]
 130  00D6  0080     E  	mov rg,a
 130  00D7  0700     E  	mov a,_builtin_holtek_mant1[2]
 130  00D8  0080     E  	mov rf,a
 130  00D9  0700     E  	mov a,_builtin_holtek_mant1[1]
 130  00DA  0080     E  	mov re,a
 130  00DB  0700     E  	mov a,_builtin_holtek_mant1[0]
 130  00DC  0080     E  	mov rd,a
 130  00DD  0700     E  	mov a,rg
 130  00DE  0080     E  	mov _builtin_holtek_mant12p[0],a
 130  00DF  0700     E  	mov a,rf
 130  00E0  0080     E  	mov _builtin_holtek_mant1[2],a
 130  00E1  0700     E  	mov a,re
 130  00E2  0080     E  	mov _builtin_holtek_mant1[1],a
 130  00E3  0700     E  	mov a,rd
 130  00E4  0080     E  	mov _builtin_holtek_mant1[0],a
 130  00E5  0F44        	mov a,68
 130  00E6  0080     E  	mov _builtin_holtek_mant12p[1],a
 130  00E7  0F7A        	mov a,122
 130  00E8  0080     E  	mov _builtin_holtek_mant2[2],a
 130  00E9  0F00        	mov a,0
 130  00EA  0080     E  	mov _builtin_holtek_mant2[1],a
 130  00EB  0F00        	mov a,0
 130  00EC  0080     E  	mov _builtin_holtek_mant2[0],a
 130  00ED  2000     E  	call _builtin_holtek_dtmul
 130  00EE  0700     E  	mov a,_builtin_holtek_mant12p[0]
 130  00EF  0080     E  	mov rg,a
 130  00F0  0700     E  	mov a,_builtin_holtek_mant1[2]
 130  00F1  0080     E  	mov rf,a
 130  00F2  0700     E  	mov a,_builtin_holtek_mant1[1]
 130  00F3  0080     E  	mov re,a
 130  00F4  0700     E  	mov a,_builtin_holtek_mant1[0]
 130  00F5  0080     E  	mov rd,a
 130  00F6  0700     E  	mov a,rg
 130  00F7  0080     E  	mov _builtin_holtek_mant12p[0],a
 130  00F8  0700     E  	mov a,rf
 130  00F9  0080     E  	mov _builtin_holtek_mant1[2],a
 130  00FA  0700     E  	mov a,re
"File: co.c          Assembler  Version HGASM0202      Page 18

 130  00FB  0080     E  	mov _builtin_holtek_mant1[1],a
 130  00FC  0700     E  	mov a,rd
 130  00FD  0080     E  	mov _builtin_holtek_mant1[0],a
 130  00FE  0F41        	mov a,65
 130  00FF  0080     E  	mov _builtin_holtek_mant12p[1],a
 130  0100  0F70        	mov a,112
 130  0101  0080     E  	mov _builtin_holtek_mant2[2],a
 130  0102  0F00        	mov a,0
 130  0103  0080     E  	mov _builtin_holtek_mant2[1],a
 130  0104  0F00        	mov a,0
 130  0105  0080     E  	mov _builtin_holtek_mant2[0],a
 130  0106  2000     E  	call _builtin_holtek_dtdiv
 130  0107  0700     E  	mov a,_builtin_holtek_mant12p[0]
 130  0108  0080     E  	mov rg,a
 130  0109  0700     E  	mov a,_builtin_holtek_mant1[2]
 130  010A  0080     E  	mov rf,a
 130  010B  0700     E  	mov a,_builtin_holtek_mant1[1]
 130  010C  0080     E  	mov re,a
 130  010D  0700     E  	mov a,_builtin_holtek_mant1[0]
 130  010E  0080     E  	mov rd,a
 130  010F  0700     E  	mov a,rg
 130  0110  0080     E  	mov _builtin_holtek_mant12p[0],a
 130  0111  0700     E  	mov a,rf
 130  0112  0080     E  	mov _builtin_holtek_mant1[2],a
 130  0113  0700     E  	mov a,re
 130  0114  0080     E  	mov _builtin_holtek_mant1[1],a
 130  0115  0700     E  	mov a,rd
 130  0116  0080     E  	mov _builtin_holtek_mant1[0],a
 130  0117  0F44        	mov a,68
 130  0118  0080     E  	mov _builtin_holtek_mant12p[1],a
 130  0119  0F7A        	mov a,122
 130  011A  0080     E  	mov _builtin_holtek_mant2[2],a
 130  011B  0F00        	mov a,0
 130  011C  0080     E  	mov _builtin_holtek_mant2[1],a
 130  011D  0F00        	mov a,0
 130  011E  0080     E  	mov _builtin_holtek_mant2[0],a
 130  011F  2000     E  	call _builtin_holtek_dtmul
 130  0120  0700     E  	mov a,_builtin_holtek_mant12p[0]
 130  0121  0080     E  	mov rg,a
 130  0122  0700     E  	mov a,_builtin_holtek_mant1[2]
 130  0123  0080     E  	mov rf,a
 130  0124  0700     E  	mov a,_builtin_holtek_mant1[1]
 130  0125  0080     E  	mov re,a
 130  0126  0700     E  	mov a,_builtin_holtek_mant1[0]
 130  0127  0080     E  	mov rd,a
 130  0128  0700     E  	mov a,rg
 130  0129  0080     R  	mov _main_2[2],a
 130  012A  0700     E  	mov a,rf
 130  012B  0080     R  	mov _main_2[1],a
 130  012C  0700     E  	mov a,re
 130  012D  0080     R  	mov _main_2[0],a
 130  012E  0700     R  	mov a,_main_2[0]
 130  012F  0080     R  	mov _VAmplifier1[0],a
 130  0130  0700     R  	mov a,_main_2[1]
 130  0131  0080     R  	mov _VAmplifier1[1],a
 130  0132  0700     R  	mov a,_main_2[2]
 130  0133  0080     R  	mov _VAmplifier1[2],a
 132  0134              #line 132 "c:\users\tech\desktop\codetector\co.c"
 132  0134  0700     R  	mov a,_temperatur[0]
 132  0135  0080     R  	mov _TempToPPMPercentage_2[0],a
"File: co.c          Assembler  Version HGASM0202      Page 19

 132  0136  0700     R  	mov a,_temperatur[1]
 132  0137  0080     R  	mov _TempToPPMPercentage_2[1],a
 132  0138  0700     R  	mov a,_temperatur[2]
 132  0139  0080     R  	mov _TempToPPMPercentage_2[2],a
 132  013A  2000     R  	call _TempToPPMPercentage
 131  013B              #line 131 "c:\users\tech\desktop\codetector\co.c"
 131  013B  0700     R  	mov a,_main_2[0]
 131  013C  0080     E  	mov re,a
 131  013D  0700     R  	mov a,_main_2[1]
 131  013E  0080     E  	mov rf,a
 131  013F  0700     R  	mov a,_main_2[2]
 131  0140  0080     E  	mov rg,a
 131  0141  1F00     E  	clr rd
 131  0142  0700     E  	mov a,rg
 131  0143  0080     E  	mov _builtin_holtek_mant12p[0],a
 131  0144  0700     E  	mov a,rf
 131  0145  0080     E  	mov _builtin_holtek_mant1[2],a
 131  0146  0700     E  	mov a,re
 131  0147  0080     E  	mov _builtin_holtek_mant1[1],a
 131  0148  0700     E  	mov a,rd
 131  0149  0080     E  	mov _builtin_holtek_mant1[0],a
 131  014A  0F3D        	mov a,61
 131  014B  0080     E  	mov _builtin_holtek_mant12p[1],a
 131  014C  0F23        	mov a,35
 131  014D  0080     E  	mov _builtin_holtek_mant2[2],a
 131  014E  0FD7        	mov a,215
 131  014F  0080     E  	mov _builtin_holtek_mant2[1],a
 131  0150  0F0A        	mov a,10
 131  0151  0080     E  	mov _builtin_holtek_mant2[0],a
 131  0152  2000     E  	call _builtin_holtek_dtmul
 131  0153  0700     E  	mov a,_builtin_holtek_mant12p[0]
 131  0154  0080     E  	mov rg,a
 131  0155  0700     E  	mov a,_builtin_holtek_mant1[2]
 131  0156  0080     E  	mov rf,a
 131  0157  0700     E  	mov a,_builtin_holtek_mant1[1]
 131  0158  0080     E  	mov re,a
 131  0159  0700     E  	mov a,_builtin_holtek_mant1[0]
 131  015A  0080     E  	mov rd,a
 131  015B  0700     E  	mov a,rg
 131  015C  0080     E  	mov rh,a
 131  015D  0700     E  	mov a,rf
 131  015E  0080     E  	mov rg,a
 131  015F  0700     E  	mov a,re
 131  0160  0080     E  	mov rf,a
 132  0161              #line 132 "c:\users\tech\desktop\codetector\co.c"
 132  0161  0700     E  	mov a,rc
 132  0162  0080     E  	mov _builtin_holtek_mant1[2],a
 132  0163  0700     E  	mov a,rb
 132  0164  0080     E  	mov _builtin_holtek_mant1[1],a
 132  0165  0700     E  	mov a,ra
 132  0166  0080     E  	mov _builtin_holtek_mant1[0],a
 132  0167  0700     E  	mov a,rh
 132  0168  0080     E  	mov _builtin_holtek_mant2[2],a
 132  0169  0700     E  	mov a,rg
 132  016A  0080     E  	mov _builtin_holtek_mant2[1],a
 132  016B  0700     E  	mov a,rf
 132  016C  0080     E  	mov _builtin_holtek_mant2[0],a
 132  016D  2000     E  	call _builtin_holtek_ftmul
 132  016E  0700     E  	mov a,_builtin_holtek_mant1[2]
 132  016F  0080     R  	mov _COValue[2],a
"File: co.c          Assembler  Version HGASM0202      Page 20

 132  0170  0700     E  	mov a,_builtin_holtek_mant1[1]
 132  0171  0080     R  	mov _COValue[1],a
 132  0172  0700     E  	mov a,_builtin_holtek_mant1[0]
 132  0173  0080     R  	mov _COValue[0],a
 132  0174              _L67:
 140  0174              #line 140 "c:\users\tech\desktop\codetector\co.c"
 140  0174  0700     R  	mov a,_COValue[2]
 140  0175  0080     E  	mov _builtin_holtek_mant1[2],a
 140  0176  0700     R  	mov a,_COValue[1]
 140  0177  0080     E  	mov _builtin_holtek_mant1[1],a
 140  0178  0700     R  	mov a,_COValue[0]
 140  0179  0080     E  	mov _builtin_holtek_mant1[0],a
 140  017A  0F41        	mov a,65
 140  017B  0080     E  	mov _builtin_holtek_mant2[2],a
 140  017C  0FF0        	mov a,240
 140  017D  0080     E  	mov _builtin_holtek_mant2[1],a
 140  017E  0F00        	mov a,0
 140  017F  0080     E  	mov _builtin_holtek_mant2[0],a
 140  0180  2000     E  	call _builtin_holtek_ftsub
 140  0181  3C00     E  	sz _builtin_holtek_mant1[2].7
 140  0182  2800     R  	jmp _LI1
 140  0183  0700     E  	mov a,_builtin_holtek_mant1[2]
 140  0184  0500     E  	or a,_builtin_holtek_mant1[1]
 140  0185  0500     E  	or a,_builtin_holtek_mant1[0]
 140  0186  390A        	snz z
 140  0187  2800     R  	jmp _L68
 140  0188              _LI1:
 140  0188  2800     R  	jmp _L81
 140  0189              _L68:
 142  0189              #line 142 "c:\users\tech\desktop\codetector\co.c"
 142  0189  1480     R  	inc _alarmCounter[0]
 142  018A  3D0A        	sz z
 142  018B  1480     R  	inc _alarmCounter[1]
 142  018C  2800     R  	jmp _L51
 142  018D              _L81:
 146  018D              #line 146 "c:\users\tech\desktop\codetector\co.c"
 146  018D  0700     R  	mov a,_alarmCounter[0]
 146  018E  0080     E  	mov rb,a
 146  018F  0700     R  	mov a,_alarmCounter[1]
 146  0190  0080     E  	mov rc,a
 146  0191  0700     E  	mov a,rb
 146  0192  0500     E  	or a,rc
 146  0193  3D0A        	sz z
 146  0194  2800     R  	jmp _L52
 146  0195  0FFF        	mov a,255
 146  0196  0300     E  	add a,rb
 146  0197  0080     R  	mov _alarmCounter[0],a
 146  0198  0FFF        	mov a,255
 146  0199  1300     E  	adc a,rc
 146  019A  0080     R  	mov _alarmCounter[1],a
 146  019B              _L52:
 147  019B              #line 147 "c:\users\tech\desktop\codetector\co.c"
 147  019B  0F00        	mov a,0
 147  019C  2000     E  	call _PWMSeter
 147  019D              _L51:
 150  019D              #line 150 "c:\users\tech\desktop\codetector\co.c"
 150  019D  0700     R  	mov a,_COValue[0]
 150  019E  0080     E  	mov rc,a
 150  019F  0700     R  	mov a,_COValue[1]
 150  01A0  0080     E  	mov rd,a
"File: co.c          Assembler  Version HGASM0202      Page 21

 150  01A1  0700     R  	mov a,_COValue[2]
 150  01A2  0080     E  	mov re,a
 150  01A3  0700     E  	mov a,re
 150  01A4  0080     E  	mov _builtin_holtek_mant1[2],a
 150  01A5  0700     E  	mov a,rd
 150  01A6  0080     E  	mov _builtin_holtek_mant1[1],a
 150  01A7  0700     E  	mov a,rc
 150  01A8  0080     E  	mov _builtin_holtek_mant1[0],a
 150  01A9  0F41        	mov a,65
 150  01AA  0080     E  	mov _builtin_holtek_mant2[2],a
 150  01AB  0FF0        	mov a,240
 150  01AC  0080     E  	mov _builtin_holtek_mant2[1],a
 150  01AD  0F00        	mov a,0
 150  01AE  0080     E  	mov _builtin_holtek_mant2[0],a
 150  01AF  2000     E  	call _builtin_holtek_ftsub
 150  01B0  3C00     E  	sz _builtin_holtek_mant1[2].7
 150  01B1  2800     R  	jmp _LI2
 150  01B2  0700     E  	mov a,_builtin_holtek_mant1[2]
 150  01B3  0500     E  	or a,_builtin_holtek_mant1[1]
 150  01B4  0500     E  	or a,_builtin_holtek_mant1[0]
 150  01B5  390A        	snz z
 150  01B6  2800     R  	jmp _L69
 150  01B7              _LI2:
 150  01B7  2800     R  	jmp _L53
 150  01B8              _L69:
 150  01B8  0F0F        	mov a,15
 150  01B9  0200     R  	sub a,_alarmCounter[0]
 150  01BA  0F0E        	mov a,14
 150  01BB  1200     R  	sbc a,_alarmCounter[1]
 150  01BC  380A        	snz c
 150  01BD  2800     R  	jmp _L55
 150  01BE              _L53:
 150  01BE  0700     E  	mov a,re
 150  01BF  0080     E  	mov _builtin_holtek_mant1[2],a
 150  01C0  0700     E  	mov a,rd
 150  01C1  0080     E  	mov _builtin_holtek_mant1[1],a
 150  01C2  0700     E  	mov a,rc
 150  01C3  0080     E  	mov _builtin_holtek_mant1[0],a
 150  01C4  0F42        	mov a,66
 150  01C5  0080     E  	mov _builtin_holtek_mant2[2],a
 150  01C6  0F8C        	mov a,140
 150  01C7  0080     E  	mov _builtin_holtek_mant2[1],a
 150  01C8  0F00        	mov a,0
 150  01C9  0080     E  	mov _builtin_holtek_mant2[0],a
 150  01CA  2000     E  	call _builtin_holtek_ftsub
 150  01CB  3C00     E  	sz _builtin_holtek_mant1[2].7
 150  01CC  2800     R  	jmp _LI3
 150  01CD  0700     E  	mov a,_builtin_holtek_mant1[2]
 150  01CE  0500     E  	or a,_builtin_holtek_mant1[1]
 150  01CF  0500     E  	or a,_builtin_holtek_mant1[0]
 150  01D0  390A        	snz z
 150  01D1  2800     R  	jmp _L70
 150  01D2              _LI3:
 150  01D2  2800     R  	jmp _L56
 150  01D3              _L70:
 150  01D3  0FC2        	mov a,194
 150  01D4  0200     R  	sub a,_alarmCounter[0]
 150  01D5  0F01        	mov a,1
 150  01D6  1200     R  	sbc a,_alarmCounter[1]
 150  01D7  380A        	snz c
"File: co.c          Assembler  Version HGASM0202      Page 22

 150  01D8  2800     R  	jmp _L55
 150  01D9              _L56:
 150  01D9  0700     E  	mov a,re
 150  01DA  0080     E  	mov _builtin_holtek_mant1[2],a
 150  01DB  0700     E  	mov a,rd
 150  01DC  0080     E  	mov _builtin_holtek_mant1[1],a
 150  01DD  0700     E  	mov a,rc
 150  01DE  0080     E  	mov _builtin_holtek_mant1[0],a
 150  01DF  0F43        	mov a,67
 150  01E0  0080     E  	mov _builtin_holtek_mant2[2],a
 150  01E1  0F16        	mov a,22
 150  01E2  0080     E  	mov _builtin_holtek_mant2[1],a
 150  01E3  0F00        	mov a,0
 150  01E4  0080     E  	mov _builtin_holtek_mant2[0],a
 150  01E5  2000     E  	call _builtin_holtek_ftsub
 150  01E6  3C00     E  	sz _builtin_holtek_mant1[2].7
 150  01E7  2800     R  	jmp _LI4
 150  01E8  0700     E  	mov a,_builtin_holtek_mant1[2]
 150  01E9  0500     E  	or a,_builtin_holtek_mant1[1]
 150  01EA  0500     E  	or a,_builtin_holtek_mant1[0]
 150  01EB  390A        	snz z
 150  01EC  2800     R  	jmp _L71
 150  01ED              _LI4:
 150  01ED  2800     R  	jmp _L58
 150  01EE              _L71:
 150  01EE  0F4B        	mov a,75
 150  01EF  0200     R  	sub a,_alarmCounter[0]
 150  01F0  0F00        	mov a,0
 150  01F1  1200     R  	sbc a,_alarmCounter[1]
 150  01F2  380A        	snz c
 150  01F3  2800     R  	jmp _L55
 150  01F4              _L58:
 150  01F4  0700     E  	mov a,re
 150  01F5  0080     E  	mov _builtin_holtek_mant1[2],a
 150  01F6  0700     E  	mov a,rd
 150  01F7  0080     E  	mov _builtin_holtek_mant1[1],a
 150  01F8  0700     E  	mov a,rc
 150  01F9  0080     E  	mov _builtin_holtek_mant1[0],a
 150  01FA  0F43        	mov a,67
 150  01FB  0080     E  	mov _builtin_holtek_mant2[2],a
 150  01FC  0FC8        	mov a,200
 150  01FD  0080     E  	mov _builtin_holtek_mant2[1],a
 150  01FE  0F00        	mov a,0
 150  01FF  0080     E  	mov _builtin_holtek_mant2[0],a
 150  0200  2000     E  	call _builtin_holtek_ftsub
 150  0201  3C00     E  	sz _builtin_holtek_mant1[2].7
 150  0202  2800     R  	jmp _LI5
 150  0203  0700     E  	mov a,_builtin_holtek_mant1[2]
 150  0204  0500     E  	or a,_builtin_holtek_mant1[1]
 150  0205  0500     E  	or a,_builtin_holtek_mant1[0]
 150  0206  390A        	snz z
 150  0207  2800     R  	jmp _L72
 150  0208              _LI5:
 150  0208  2800     R  	jmp _L60
 150  0209              _L72:
 150  0209  0F1E        	mov a,30
 150  020A  0200     R  	sub a,_alarmCounter[0]
 150  020B  0F00        	mov a,0
 150  020C  1200     R  	sbc a,_alarmCounter[1]
 150  020D  3C0A        	sz c
"File: co.c          Assembler  Version HGASM0202      Page 23

 150  020E  2800     R  	jmp _L60
 150  020F              _L55:
 152  020F              #line 152 "c:\users\tech\desktop\codetector\co.c"
 152  020F  0F01        	mov a,1
 152  0210  2000     E  	call _PWMSeter
 152  0211              _L60:
 160  0211              #line 160 "c:\users\tech\desktop\codetector\co.c"
 160  0211  2000     R  	call _key
 161  0212              #line 161 "c:\users\tech\desktop\codetector\co.c"
 161  0212  0700     R  	mov a,_buttonStatus[0]
 161  0213  0C04        	xor a,4
 161  0214  0500     R  	or a,_buttonStatus[1]
 161  0215  390A        	snz z
 161  0216  2800     R  	jmp _L62
 163  0217              #line 163 "c:\users\tech\desktop\codetector\co.c"
 163  0217              ;# 163 "c:\users\tech\desktop\codetector\co.c" 1
 163  0217  0002        	halt
 163  0218  2800     R  	jmp _L63
 163  0219              _L62:
 167  0219              #line 167 "c:\users\tech\desktop\codetector\co.c"
 167  0219  3216        	set [22].4
 168  021A              #line 168 "c:\users\tech\desktop\codetector\co.c"
 168  021A  3217        	set [23].4
 169  021B              #line 169 "c:\users\tech\desktop\codetector\co.c"
 169  021B  0F38        	mov a,56
 169  021C  0097        	mov [23],a
 170  021D              #line 170 "c:\users\tech\desktop\codetector\co.c"
 170  021D  2000     E  	call _clearSegment
 172  021E              #line 172 "c:\users\tech\desktop\codetector\co.c"
 172  021E  0700     R  	mov a,_buttonStatus[0]
 172  021F  0080     E  	mov rb,a
 172  0220  0700     R  	mov a,_buttonStatus[1]
 172  0221  0080     E  	mov rc,a
 172  0222  0700     E  	mov a,rb
 172  0223  0500     E  	or a,rc
 172  0224  3D0A        	sz z
 172  0225  2800     R  	jmp _L64
 176  0226              #line 176 "c:\users\tech\desktop\codetector\co.c"
 176  0226  0700     E  	mov a,rb
 176  0227  0C02        	xor a,2
 176  0228  0500     E  	or a,rc
 176  0229  390A        	snz z
 176  022A  2800     R  	jmp _L65
 178  022B              #line 178 "c:\users\tech\desktop\codetector\co.c"
 178  022B              ;# 178 "c:\users\tech\desktop\codetector\co.c" 1
 178  022B  0001        	clr wdt
 180  022C              #line 180 "c:\users\tech\desktop\codetector\co.c"
 180  022C  1F00     E  	clr _builtin_holtek_mant12p[0]
 180  022D  0700     R  	mov a,_COValue[2]
 180  022E  0080     E  	mov _builtin_holtek_mant1[2],a
 180  022F  0700     R  	mov a,_COValue[1]
 180  0230  0080     E  	mov _builtin_holtek_mant1[1],a
 180  0231  0700     R  	mov a,_COValue[0]
 180  0232  0080     E  	mov _builtin_holtek_mant1[0],a
 180  0233  2000     E  	call _builtin_holtek_ftol
 180  0234  0700     E  	mov a,_builtin_holtek_mant12p[0]
 180  0235  0080     E  	mov rg,a
 180  0236  0700     E  	mov a,_builtin_holtek_mant1[2]
 180  0237  0080     E  	mov rf,a
 180  0238  0700     E  	mov a,_builtin_holtek_mant1[1]
"File: co.c          Assembler  Version HGASM0202      Page 24

 180  0239  0080     E  	mov re,a
 180  023A  0700     E  	mov a,_builtin_holtek_mant1[0]
 180  023B  0080     E  	mov rd,a
 180  023C  0700     E  	mov a,rd
 180  023D  0080     E  	mov _shwoSegment_2[0],a
 180  023E  0700     E  	mov a,re
 180  023F  0080     E  	mov _shwoSegment_2[1],a
 180  0240  2000     E  	call _shwoSegment
 180  0241  2800     R  	jmp _L64
 180  0242              _L65:
 183  0242              #line 183 "c:\users\tech\desktop\codetector\co.c"
 183  0242  0700     E  	mov a,rb
 183  0243  0C01        	xor a,1
 183  0244  0500     E  	or a,rc
 183  0245  3D0A        	sz z
 183  0246  2800     R  	jmp _L80
 188  0247              #line 188 "c:\users\tech\desktop\codetector\co.c"
 188  0247  0700     E  	mov a,rb
 188  0248  0C03        	xor a,3
 188  0249  0500     E  	or a,rc
 188  024A  390A        	snz z
 188  024B  2800     R  	jmp _L64
 188  024C              _L80:
 190  024C              #line 190 "c:\users\tech\desktop\codetector\co.c"
 190  024C              ;# 190 "c:\users\tech\desktop\codetector\co.c" 1
 190  024C  0001        	clr wdt
 190  024D              _L64:
 196  024D              #line 196 "c:\users\tech\desktop\codetector\co.c"
 196  024D  2000     E  	call _clearSegment
 197  024E              #line 197 "c:\users\tech\desktop\codetector\co.c"
 197  024E  3216        	set [22].4
 198  024F              #line 198 "c:\users\tech\desktop\codetector\co.c"
 198  024F  3217        	set [23].4
 198  0250              _L63:
 201  0250              #line 201 "c:\users\tech\desktop\codetector\co.c"
 201  0250  2000     E  	call _clearSegment
 202  0251              #line 202 "c:\users\tech\desktop\codetector\co.c"
 202  0251  3216        	set [22].4
 203  0252              #line 203 "c:\users\tech\desktop\codetector\co.c"
 203  0252  3217        	set [23].4
 204  0253              #line 204 "c:\users\tech\desktop\codetector\co.c"
 204  0253  0F38        	mov a,56
 204  0254  0097        	mov [23],a
 207  0255              #line 207 "c:\users\tech\desktop\codetector\co.c"
 207  0255  2800     R  	jmp _L67
 207  0256  2800     R  	jmp $
 207  0257              _main endp
 207  0257              
 207  0257              @dummy endp
 207  0257              
 207  0257              #line 207 "c:\users\tech\desktop\codetector\co.c"
 207  0257              #pragma debug scope 1 1
 207  0257              public _keyCounter
 207  0000              @HCCINIT	.section 'data'
  77  0000              #line 77 "c:\users\tech\desktop\codetector\co.c"
  77  0000              @HCCINIT_keyCounter .section 'data'
  77  0000              _keyCounter label byte
  77  0000              #pragma debug variable 12 1 _keyCounter "keyCounter"
  77  0000              	db 0
  77  0000              @ROMDATA_BASE .section inpage 'code'
"File: co.c          Assembler  Version HGASM0202      Page 25

  77  0000              	db 0
  77  0001              @HCCINIT_keyCounter .section 'data'
  77  0001              	db 0
  77  0001              @ROMDATA_BASE .section inpage 'code'
  77  0001              	db 0
  77  0002              @HCCINIT_keyCounter .section 'data'
  77  0002              public _pressFlag
  76  0002              #line 76 "c:\users\tech\desktop\codetector\co.c"
  76  0000              @HCCINIT_pressFlag .section 'data'
  76  0000              _pressFlag label byte
  76  0000              #pragma debug variable 7 1 _pressFlag "pressFlag"
  76  0000              	db 0
  76  0001              @ROMDATA_BASE .section inpage 'code'
  76  0001              	db 0
  76  0001              @HCCINIT_pressFlag .section 'data'
  76  0001              public _pressLockFlag
  75  0001              #line 75 "c:\users\tech\desktop\codetector\co.c"
  75  0000              @HCCINIT_pressLockFlag .section 'data'
  75  0000              _pressLockFlag label byte
  75  0000              #pragma debug variable 7 1 _pressLockFlag "pressLockFlag"
  75  0000              	db 2
  75  0002              @ROMDATA_BASE .section inpage 'code'
  75  0002              	db 2
  75  0001              @HCCINIT_pressLockFlag .section 'data'
  75  0001              public _keyState
  74  0001              #line 74 "c:\users\tech\desktop\codetector\co.c"
  74  0000              @HCCINIT_keyState .section 'data'
  74  0000              _keyState label byte
  74  0000              #pragma debug variable 7 1 _keyState "keyState"
  74  0000              	db 0
  74  0002              @ROMDATA_BASE .section inpage 'code'
  74  0002              	db 0
  74  0001              @HCCINIT_keyState .section 'data'
  73  0001              #line 73 "c:\users\tech\desktop\codetector\co.c"
  73  0001              public _debounceCounter
  73  0000              @HCCINIT0_debounceCounter .section 'data'
  73  0000  0002[       _debounceCounter	db 2 dup(0)
            00
            ]
  73  0002              #pragma debug variable 12 1 _debounceCounter "debounceCounter"
  73  0002              
  73  0000              @HCCINIT .section 'data'
  70  0000              #line 70 "c:\users\tech\desktop\codetector\co.c"
  70  0000              public _buttonStatus
  70  0000              @HCCINIT0_buttonStatus .section 'data'
  70  0000  0002[       _buttonStatus	db 2 dup(0)
            00
            ]
  70  0002              #pragma debug variable 12 1 _buttonStatus "buttonStatus"
  70  0002              
  70  0000              @HCCINIT .section 'data'
  53  0000              #line 53 "c:\users\tech\desktop\codetector\co.c"
  53  0000              public _alarmCounter
  53  0000              @HCCINIT0_alarmCounter .section 'data'
  53  0000  0002[       _alarmCounter	db 2 dup(0)
            00
            ]
  53  0002              #pragma debug variable 12 1 _alarmCounter "alarmCounter"
  53  0002              
  53  0000              @HCCINIT .section 'data'
"File: co.c          Assembler  Version HGASM0202      Page 26

  53  0000              public _VAmplifier1
  51  0000              #line 51 "c:\users\tech\desktop\codetector\co.c"
  51  0000              @HCCINIT_VAmplifier1 .section 'data'
  51  0000              _VAmplifier1 label byte
  51  0000              #pragma debug variable 28 1 _VAmplifier1 "VAmplifier1"
  51  0000              	db 0
  51  0003              @ROMDATA_BASE .section inpage 'code'
  51  0003              	db 0
  51  0001              @HCCINIT_VAmplifier1 .section 'data'
  51  0001              	db 0
  51  0003              @ROMDATA_BASE .section inpage 'code'
  51  0003              	db 0
  51  0002              @HCCINIT_VAmplifier1 .section 'data'
  51  0002              	db 0
  51  0004              @ROMDATA_BASE .section inpage 'code'
  51  0004              	db 0
  51  0003              @HCCINIT_VAmplifier1 .section 'data'
  51  0003              public _Amplifier1
  50  0003              #line 50 "c:\users\tech\desktop\codetector\co.c"
  50  0000              @HCCINIT_Amplifier1 .section 'data'
  50  0000              _Amplifier1 label byte
  50  0000              #pragma debug variable 28 1 _Amplifier1 "Amplifier1"
  50  0000              	db 0
  50  0004              @ROMDATA_BASE .section inpage 'code'
  50  0004              	db 0
  50  0001              @HCCINIT_Amplifier1 .section 'data'
  50  0001              	db 0
  50  0005              @ROMDATA_BASE .section inpage 'code'
  50  0005              	db 0
  50  0002              @HCCINIT_Amplifier1 .section 'data'
  50  0002              	db 0
  50  0005              @ROMDATA_BASE .section inpage 'code'
  50  0005              	db 0
  50  0003              @HCCINIT_Amplifier1 .section 'data'
  50  0003              public _temperatur
  49  0003              #line 49 "c:\users\tech\desktop\codetector\co.c"
  49  0000              @HCCINIT_temperatur .section 'data'
  49  0000              _temperatur label byte
  49  0000              #pragma debug variable 28 1 _temperatur "temperatur"
  49  0000              	db 0
  49  0006              @ROMDATA_BASE .section inpage 'code'
  49  0006              	db 0
  49  0001              @HCCINIT_temperatur .section 'data'
  49  0001              	db 0
  49  0006              @ROMDATA_BASE .section inpage 'code'
  49  0006              	db 0
  49  0002              @HCCINIT_temperatur .section 'data'
  49  0002              	db 0
  49  0007              @ROMDATA_BASE .section inpage 'code'
  49  0007              	db 0
  49  0003              @HCCINIT_temperatur .section 'data'
  49  0003              public _COValue
  48  0003              #line 48 "c:\users\tech\desktop\codetector\co.c"
  48  0000              @HCCINIT_COValue .section 'data'
  48  0000              _COValue label byte
  48  0000              #pragma debug variable 28 1 _COValue "COValue"
  48  0000              	db 0
  48  0007              @ROMDATA_BASE .section inpage 'code'
  48  0007              	db 0
  48  0001              @HCCINIT_COValue .section 'data'
"File: co.c          Assembler  Version HGASM0202      Page 27

  48  0001              	db 0
  48  0008              @ROMDATA_BASE .section inpage 'code'
  48  0008              	db 0
  48  0002              @HCCINIT_COValue .section 'data'
  48  0002              	db 0
  48  0008              @ROMDATA_BASE .section inpage 'code'
  48  0008              	db 0
  48  0003              @HCCINIT_COValue .section 'data'
  48  0003              public _VDD
  47  0003              #line 47 "c:\users\tech\desktop\codetector\co.c"
  47  0000              @HCCINIT_VDD .section 'data'
  47  0000              _VDD label byte
  47  0000              #pragma debug variable 28 1 _VDD "VDD"
  47  0000              	db 0
  47  0009              @ROMDATA_BASE .section inpage 'code'
  47  0009              	db 0
  47  0001              @HCCINIT_VDD .section 'data'
  47  0001              	db 0
  47  0009              @ROMDATA_BASE .section inpage 'code'
  47  0009              	db 0
  47  0002              @HCCINIT_VDD .section 'data'
  47  0002              	db 0
  47  000A              @ROMDATA_BASE .section inpage 'code'
  47  000A              	db 0
  47  0003              @HCCINIT_VDD .section 'data'
  47  0003              #pragma debug struct_end
  47  0003              #pragma debug struct_end
  47  0003              #pragma debug union_end
  47  0003              #pragma debug union_end
  47  0003              #pragma debug variable 43 1 ___status "__status" 1
  47  0003              #pragma debug struct_end
  47  0003              #pragma debug struct_end
  47  0003              #pragma debug union_end
  47  0003              #pragma debug union_end
  47  0003              #pragma debug variable 45 1 ___vbgrc "__vbgrc" 1
  47  0003              #pragma debug struct_end
  47  0003              #pragma debug struct_end
  47  0003              #pragma debug union_end
  47  0003              #pragma debug union_end
  47  0003              #pragma debug variable 47 1 ___pa "__pa" 1
  47  0003              #pragma debug struct_end
  47  0003              #pragma debug struct_end
  47  0003              #pragma debug union_end
  47  0003              #pragma debug union_end
  47  0003              #pragma debug variable 49 1 ___papu "__papu" 1
  47  0003              #pragma debug struct_end
  47  0003              #pragma debug struct_end
  47  0003              #pragma debug union_end
  47  0003              #pragma debug union_end
  47  0003              #pragma debug variable 51 1 ___pawu "__pawu" 1
  47  0003              #pragma debug struct_end
  47  0003              #pragma debug struct_end
  47  0003              #pragma debug union_end
  47  0003              #pragma debug union_end
  47  0003              #pragma debug variable 53 1 ___sda0c "__sda0c" 1
  47  0003              #pragma debug struct_end
  47  0003              #pragma debug struct_end
  47  0003              #pragma debug union_end
  47  0003              #pragma debug union_end
  47  0003              #pragma debug variable 55 1 ___sda1c "__sda1c" 1
"File: co.c          Assembler  Version HGASM0202      Page 28

  47  0003              #pragma debug struct_end
  47  0003              #pragma debug struct_end
  47  0003              #pragma debug union_end
  47  0003              #pragma debug union_end
  47  0003              #pragma debug variable 57 1 ___isgenc "__isgenc" 1
  84  0003              #line 84 "c:\users\tech\desktop\codetector\co.c"
  84  0000              @code .section at 0 'code'
  84  0000  2800     R  	jmp _main_startup1
  84  0001              
  84  0001              extern _clearSegment:near
  84  0001              extern _builtin_holtek_mant1:byte
  84  0001              extern _builtin_holtek_mant2:byte
  84  0001              extern _builtin_holtek_ftsub:near
  84  0001              extern _builtin_holtek_ftadd:near
  84  0001              extern _builtin_holtek_mant12p:byte
  84  0001              extern _builtin_holtek_dtmul:near
  84  0001              extern _builtin_holtek_dtadd:near
  84  0001              extern _ClockInit:near
  84  0001              extern _GPIOInit:near
  84  0001              extern _GPIOToGNDCurentInit:near
  84  0001              extern _OPAMPInit:near
  84  0001              extern _S_ADC_Init:near
  84  0001              extern _PTimerInit:near
  84  0001              extern _PWMSeter:near
  84  0001              extern _S_READ_ADC:near
  84  0001              extern _builtin_holtek_signs:byte
  84  0001              extern _builtin_holtek_uitod:near
  84  0001              extern _builtin_holtek_dtdiv:near
  84  0001              extern _temperature_2:byte
  84  0001              extern _temperature:near
  84  0001              extern _builtin_holtek_uitof:near
  84  0001              extern _builtin_holtek_ftdiv:near
  84  0001              extern _builtin_holtek_ftmul:near
  84  0001              extern _builtin_holtek_ftol:near
  84  0001              extern _shwoSegment_2:byte
  84  0001              extern _shwoSegment:near
  84  0001              
  84  0001              ; 
  84  0001              ; Generated by holtek-gcc v3.19, Tue Sep 26 20:12:46 2023
  84  0001              ; Rebuild 718
  84  0001              ; end of file


        0 Errors, 0