"File: co.c          Assembler  Version HGASM0202      Page 1


   1  0000              ; Generated by holtek-gcc v3.19, Sun Sep 24 15:40:40 2023
   2  0000              ; 
   3  0000              ; Configuration:
   4  0000              ;       with long instruction
   5  0000              ;       Single ROM, Multi-RAM
   6  0000              ;       bits_per_rom_unit:16
   7  0000              ;       with mp1
   8  0000              ;       with tbhp, address(0x9)
   9  0000              ;          Use tabrd-const
  10  0000              ;       
  11  0000              ; SFR address of long-instruction arch:
  12  0000              ;    mp0 = -1,1,0
  13  0000              ;    mp1 = 4,3,2
  14  0000              ;    mp2 = 14,13,12
  15  0000              ;    tbp = 9,7,8
  16  0000              ;    acc = 5
  17  0000              ;    pcl = 6
  18  0000              ;    status = 10
  19  0000              ;    bp = 11
  20  0000              ;    intc = 72
  21  0000              ;       
  22  0000              ;       
  23  0000              ; use 'tabrdc' instead of 'tabrd'
  24  0000              ;       
  25  0000              
  26  0000              #pragma translator "holtek-gcc 4.6.4" "3.19" "build 20130711"
  27  0000              ; Rebuild 718
  28  0000              
  29  0000              ir equ [2]
  30  0000              mp equ [3]
  31  0000              sbp equ [4]
  32  0000              acc equ [5]
  33  0000              bp equ [11]
  34  0000              tblp equ [7]
  35  0000              tbhp equ [9]
  36  0000              status equ [10]
  37  0000              c equ [10].0
  38  0000              ac equ [10].1
  39  0000              z equ [10].2
  40  0000              ov equ [10].3
  41  0000              cz equ [10].6
  42  0000              sc equ [10].7
  43  0000              intc equ [72]
  44  0000              
  45  0000              extern ra:byte
  46  0000              extern rb:byte
  47  0000              extern rc:byte
  48  0000              extern rd:byte
  49  0000              extern re:byte
  50  0000              extern rf:byte
  51  0000              extern rg:byte
  52  0000              extern rh:byte
  53  0000              extern _Crom2Prom:near
  54  0000              extern _Crom2PromNext:near
  55  0000              
  56  0000              RAMBANK 0 @BITDATASEC, @BITDATASEC1
  57  0000              @HCCINIT	.section 'data'
  58  0000              @HCCINIT0	.section 'data'
  59  0000              @BITDATASEC	 .section 'data'
"File: co.ASM        Assembler  Version HGASM0202      Page 2

  60  0000              @BITDATASEC1	 .section 'data'
  61  0000              
  62  0000              #pragma debug scope 1 1
  63  0000              	extern __DELAY3:near
  64  0000              	extern __DELAYX3:near
  65  0000              	extern __DELAYX6:near
  66  0000              	extern __DELAYY5:near
  67  0000              	extern __DELAYY3:near
  68  0000              	extern _builtin_holtek_delay_2:byte
  69  0000              ___pa equ [20]
  70  0000              ___papu equ [22]
  71  0000              ___pawu equ [23]
  72  0000              public _key
  73  0000              #pragma debug scope 2 1

 202  0000              #line 202 "Y:\Desktop\CODetector\co.c"
 202  0000              _key .section 'code'
 202  0000              _key proc
 202  0000  00              local _key_2 db 1 dup(?)	; 0,1
 207  0001              #line 207 "Y:\Desktop\CODetector\co.c"
 207  0000  3E14        	sz [20].4
 207  0001  2800     R  	jmp _L3
 210  0002              #line 210 "Y:\Desktop\CODetector\co.c"
 210  0002  0F01        	mov a,1
 210  0003  0300     R  	add a,_debounceCounter[0]
 210  0004  0080     E  	mov rb,a
 210  0005  0F00        	mov a,0
 210  0006  1300     R  	adc a,_debounceCounter[1]
 210  0007  0080     E  	mov rc,a
 210  0008  0700     E  	mov a,rb
 210  0009  0080     R  	mov _debounceCounter[0],a
 210  000A  0700     E  	mov a,rc
 210  000B  0080     R  	mov _debounceCounter[1],a
 211  000C              #line 211 "Y:\Desktop\CODetector\co.c"
 211  000C  1F00     R  	clr _buttonStatus[0]
 211  000D  1F00     R  	clr _buttonStatus[1]
 212  000E              #line 212 "Y:\Desktop\CODetector\co.c"
 212  000E  0F01        	mov a,1
 212  000F  0080     R  	mov _pressFlag[0],a
 214  0010              #line 214 "Y:\Desktop\CODetector\co.c"
 214  0010  1700     R  	sdza _pressLockFlag[0]
 214  0011  2800     R  	jmp _L4
 216  0012              #line 216 "Y:\Desktop\CODetector\co.c"
 216  0012  0F01        	mov a,1
 216  0013  0080     E  	mov ra,a
 216  0014  1E00     R  	snz _keyState[0]
 216  0015  2800     R  	jmp _L5
 216  0016  1F00     E  	clr ra
 216  0017              _L5:
 216  0017  0700     E  	mov a,ra
 216  0018  0080     R  	mov _keyState[0],a
 217  0019              #line 217 "Y:\Desktop\CODetector\co.c"
 217  0019  1F00     R  	clr _keyCounter[0]
 217  001A  1F00     R  	clr _keyCounter[1]
 218  001B              #line 218 "Y:\Desktop\CODetector\co.c"
 218  001B  1F00     R  	clr _pressLockFlag[0]
 218  001C              _L4:
 220  001C              #line 220 "Y:\Desktop\CODetector\co.c"
 220  001C  0F88        	mov a,136
 220  001D  0200     E  	sub a,rb
"File: co.c          Assembler  Version HGASM0202      Page 3

 220  001E  0F13        	mov a,19
 220  001F  1200     E  	sbc a,rc
 220  0020  3C0A        	sz c
 220  0021  2800     R  	jmp _L3
 222  0022              #line 222 "Y:\Desktop\CODetector\co.c"
 222  0022  0F02        	mov a,2
 222  0023  0080     R  	mov _pressFlag[0],a
 222  0024              _L3:
 227  0024              #line 227 "Y:\Desktop\CODetector\co.c"
 227  0024  3A14        	snz [20].4
 227  0025  2800     R  	jmp _L7
 227  0026  1700     R  	sdza _pressFlag[0]
 227  0027  2800     R  	jmp _L7
 229  0028              #line 229 "Y:\Desktop\CODetector\co.c"
 229  0028  0F01        	mov a,1
 229  0029  0080     R  	mov _pressLockFlag[0],a
 230  002A              #line 230 "Y:\Desktop\CODetector\co.c"
 230  002A  1F00     R  	clr _debounceCounter[0]
 230  002B  1F00     R  	clr _debounceCounter[1]
 232  002C              #line 232 "Y:\Desktop\CODetector\co.c"
 232  002C  2000     E  	call _clearSegment
 233  002D              #line 233 "Y:\Desktop\CODetector\co.c"
 233  002D  3216        	set [22].4
 234  002E              #line 234 "Y:\Desktop\CODetector\co.c"
 234  002E  3217        	set [23].4
 236  002F              #line 236 "Y:\Desktop\CODetector\co.c"
 236  002F  0700     R  	mov a,_keyState[0]
 236  0030  0080     R  	mov _key_2[0],a
 236  0031  1700     R  	sdza _key_2[0]
 236  0032  2800     R  	jmp _L8
 239  0033              #line 239 "Y:\Desktop\CODetector\co.c"
 239  0033  0F02        	mov a,2
 239  0034  0080     R  	mov _buttonStatus[0],a
 239  0035  1F00     R  	clr _buttonStatus[1]
 239  0036  2800     R  	jmp _L22
 239  0037              _L8:
 251  0037              #line 251 "Y:\Desktop\CODetector\co.c"
 251  0037  1080     R  	sz _key_2[0]
 251  0038  2800     R  	jmp _L11
 253  0039              #line 253 "Y:\Desktop\CODetector\co.c"
 253  0039  0F01        	mov a,1
 253  003A  0080     R  	mov _buttonStatus[0],a
 253  003B  1F00     R  	clr _buttonStatus[1]
 253  003C              _L22:
 254  003C              #line 254 "Y:\Desktop\CODetector\co.c"
 254  003C  0F01        	mov a,1
 254  003D  0300     R  	add a,_keyCounter[0]
 254  003E  0080     E  	mov rb,a
 254  003F  0F00        	mov a,0
 254  0040  1300     R  	adc a,_keyCounter[1]
 254  0041  0080     E  	mov rc,a
 254  0042  0700     E  	mov a,rb
 254  0043  0080     R  	mov _keyCounter[0],a
 254  0044  0700     E  	mov a,rc
 254  0045  0080     R  	mov _keyCounter[1],a
 255  0046              #line 255 "Y:\Desktop\CODetector\co.c"
 255  0046  0FF3        	mov a,243
 255  0047  0200     E  	sub a,rb
 255  0048  0F01        	mov a,1
 255  0049  1200     E  	sbc a,rc
"File: co.c          Assembler  Version HGASM0202      Page 4

 255  004A  3C0A        	sz c
 255  004B  2800     R  	jmp _L11
 257  004C              #line 257 "Y:\Desktop\CODetector\co.c"
 257  004C  1F00     R  	clr _debounceCounter[0]
 257  004D  1F00     R  	clr _debounceCounter[1]
 258  004E              #line 258 "Y:\Desktop\CODetector\co.c"
 258  004E  1F00     R  	clr _pressFlag[0]
 259  004F              #line 259 "Y:\Desktop\CODetector\co.c"
 259  004F  1F00     R  	clr _keyCounter[0]
 259  0050  1F00     R  	clr _keyCounter[1]
 259  0051              _L11:
 264  0051              #line 264 "Y:\Desktop\CODetector\co.c"
 264  0051  2000     E  	call _clearSegment
 266  0052              #line 266 "Y:\Desktop\CODetector\co.c"
 266  0052  3216        	set [22].4
 267  0053              #line 267 "Y:\Desktop\CODetector\co.c"
 267  0053  3217        	set [23].4
 267  0054              _L7:
 271  0054              #line 271 "Y:\Desktop\CODetector\co.c"
 271  0054  3A14        	snz [20].4
 271  0055  2800     R  	jmp _L14
 271  0056  0700     R  	mov a,_pressFlag[0]
 271  0057  0A02        	sub a,2
 271  0058  390A        	snz z
 271  0059  2800     R  	jmp _L14
 273  005A              #line 273 "Y:\Desktop\CODetector\co.c"
 273  005A  0F03        	mov a,3
 273  005B  0080     R  	mov _buttonStatus[0],a
 273  005C  1F00     R  	clr _buttonStatus[1]
 274  005D              #line 274 "Y:\Desktop\CODetector\co.c"
 274  005D  0F01        	mov a,1
 274  005E  0300     R  	add a,_keyCounter[0]
 274  005F  0080     E  	mov rb,a
 274  0060  0F00        	mov a,0
 274  0061  1300     R  	adc a,_keyCounter[1]
 274  0062  0080     E  	mov rc,a
 274  0063  0700     E  	mov a,rb
 274  0064  0080     R  	mov _keyCounter[0],a
 274  0065  0700     E  	mov a,rc
 274  0066  0080     R  	mov _keyCounter[1],a
 276  0067              #line 276 "Y:\Desktop\CODetector\co.c"
 276  0067  0FF3        	mov a,243
 276  0068  0200     E  	sub a,rb
 276  0069  0F01        	mov a,1
 276  006A  1200     E  	sbc a,rc
 276  006B  3C0A        	sz c
 276  006C  2800     R  	jmp _L14
 278  006D              #line 278 "Y:\Desktop\CODetector\co.c"
 278  006D  1F00     R  	clr _debounceCounter[0]
 278  006E  1F00     R  	clr _debounceCounter[1]
 279  006F              #line 279 "Y:\Desktop\CODetector\co.c"
 279  006F  1F00     R  	clr _pressFlag[0]
 280  0070              #line 280 "Y:\Desktop\CODetector\co.c"
 280  0070  1F00     R  	clr _keyCounter[0]
 280  0071  1F00     R  	clr _keyCounter[1]
 280  0072              _L14:
 286  0072              #line 286 "Y:\Desktop\CODetector\co.c"
 286  0072  1080     R  	sz _pressFlag[0]
 286  0073  2800     R  	jmp _L16
 288  0074              #line 288 "Y:\Desktop\CODetector\co.c"
"File: co.c          Assembler  Version HGASM0202      Page 5

 288  0074  0F04        	mov a,4
 288  0075  0080     R  	mov _buttonStatus[0],a
 288  0076  1F00     R  	clr _buttonStatus[1]
 288  0077              _L16:
 288  0077  0003        	ret
 288  0078              _key endp
 288  0078              #line 288 "Y:\Desktop\CODetector\co.c"
 288  0078              #pragma debug scope 1 1
 288  0078              ___status equ [10]
 288  0078              ___isgenc equ [93]
 288  0078              ___vbgrc equ [11]
 288  0078              ___sda0c equ [35]
 288  0078              ___sda1c equ [37]
 288  0078              public _main
 288  0078              #pragma debug scope 3 1
  82  0078              #line 82 "Y:\Desktop\CODetector\co.c"
  82  0078              IFDEF WITH_DEFAULT_STARTUP
  82  0078              extern _main_initial0:near
  82  0078              extern _main_startup:near
  82  0078              ENDIF
  82  0078              
  82  0078              ROMBANK 0 @start
  82  0000              @start .section com_l 'code'
  82  0000              _main_startup1:
  82  0000              @start .section com_e 'code'
  82  0000  2800     R  	jmp _main
  82  0001              
  82  0000              _main .section 'code'
  82  0000              _main proc
  82  0000  000F[           local _main_2 db 15 dup(?)
            00
            ]
  85  000F              #line 85 "Y:\Desktop\CODetector\co.c"
  85  0000  3E8A        	sz [10].5
  85  0001  2800     R  	jmp _L25
  87  0002              #line 87 "Y:\Desktop\CODetector\co.c"
  87  0002  1F00     R  	clr _debounceCounter[0]
  87  0003  1F00     R  	clr _debounceCounter[1]
  87  0004              _L25:
  91  0004              #line 91 "Y:\Desktop\CODetector\co.c"
  91  0004  305D        	set [93].0
  92  0005              #line 92 "Y:\Desktop\CODetector\co.c"
  92  0005  34DD        	clr [93].1
  93  0006              #line 93 "Y:\Desktop\CODetector\co.c"
  93  0006  300B        	set [11].0
  94  0007              #line 94 "Y:\Desktop\CODetector\co.c"
  94  0007  3323        	set [35].6
  95  0008              #line 95 "Y:\Desktop\CODetector\co.c"
  95  0008  3325        	set [37].6
  98  0009              #line 98 "Y:\Desktop\CODetector\co.c"
  98  0009  2000     E  	call _ClockInit
  99  000A              #line 99 "Y:\Desktop\CODetector\co.c"
  99  000A  2000     E  	call _GPIOInit
 100  000B              #line 100 "Y:\Desktop\CODetector\co.c"
 100  000B  2000     E  	call _GPIOToGNDCurentInit
 101  000C              #line 101 "Y:\Desktop\CODetector\co.c"
 101  000C  2000     E  	call _OPAMPInit
 102  000D              #line 102 "Y:\Desktop\CODetector\co.c"
 102  000D  2000     E  	call _S_ADC_Init
 103  000E              #line 103 "Y:\Desktop\CODetector\co.c"
"File: co.c          Assembler  Version HGASM0202      Page 6

 103  000E  2000     E  	call _PTimerInit
 104  000F              #line 104 "Y:\Desktop\CODetector\co.c"
 104  000F  0F00        	mov a,0
 104  0010  2000     E  	call _PWMSeter
 107  0011              #line 107 "Y:\Desktop\CODetector\co.c"
 107  0011  0F04        	mov a,4
 107  0012  2000     E  	call _S_READ_ADC
 107  0013  0700     E  	mov a,rb
 107  0014  0080     E  	mov _builtin_holtek_mant1[1],a
 107  0015  0700     E  	mov a,ra
 107  0016  0080     E  	mov _builtin_holtek_mant1[0],a
 107  0017  3400     E  	clr _builtin_holtek_signs.0
 107  0018  2000     E  	call _builtin_holtek_uitod
 107  0019  0700     E  	mov a,_builtin_holtek_mant12p[0]
 107  001A  0080     E  	mov rh,a
 107  001B  0700     E  	mov a,_builtin_holtek_mant1[2]
 107  001C  0080     E  	mov rg,a
 107  001D  0700     E  	mov a,_builtin_holtek_mant1[1]
 107  001E  0080     E  	mov rf,a
 107  001F  0700     E  	mov a,_builtin_holtek_mant1[0]
 107  0020  0080     E  	mov re,a
 107  0021  1F00     E  	clr ra
 107  0022  0FF0        	mov a,-16
 107  0023  0080     E  	mov rb,a
 107  0024  0F7F        	mov a,127
 107  0025  0080     E  	mov rc,a
 107  0026  0F45        	mov a,69
 107  0027  0080     E  	mov rd,a
 107  0028  0700     E  	mov a,rd
 107  0029  0080     E  	mov _builtin_holtek_mant12p[0],a
 107  002A  0700     E  	mov a,rc
 107  002B  0080     E  	mov _builtin_holtek_mant1[2],a
 107  002C  0700     E  	mov a,rb
 107  002D  0080     E  	mov _builtin_holtek_mant1[1],a
 107  002E  0700     E  	mov a,ra
 107  002F  0080     E  	mov _builtin_holtek_mant1[0],a
 107  0030  0700     E  	mov a,rh
 107  0031  0080     E  	mov _builtin_holtek_mant12p[1],a
 107  0032  0700     E  	mov a,rg
 107  0033  0080     E  	mov _builtin_holtek_mant2[2],a
 107  0034  0700     E  	mov a,rf
 107  0035  0080     E  	mov _builtin_holtek_mant2[1],a
 107  0036  0700     E  	mov a,re
 107  0037  0080     E  	mov _builtin_holtek_mant2[0],a
 107  0038  2000     E  	call _builtin_holtek_dtdiv
 107  0039  0700     E  	mov a,_builtin_holtek_mant12p[0]
 107  003A  0080     E  	mov rh,a
 107  003B  0700     E  	mov a,_builtin_holtek_mant1[2]
 107  003C  0080     E  	mov rg,a
 107  003D  0700     E  	mov a,_builtin_holtek_mant1[1]
 107  003E  0080     E  	mov rf,a
 107  003F  0700     E  	mov a,_builtin_holtek_mant1[0]
 107  0040  0080     E  	mov re,a
 107  0041  0700     E  	mov a,rh
 107  0042  0080     E  	mov _builtin_holtek_mant12p[0],a
 107  0043  0700     E  	mov a,rg
 107  0044  0080     E  	mov _builtin_holtek_mant1[2],a
 107  0045  0700     E  	mov a,rf
 107  0046  0080     E  	mov _builtin_holtek_mant1[1],a
 107  0047  0700     E  	mov a,re
"File: co.c          Assembler  Version HGASM0202      Page 7

 107  0048  0080     E  	mov _builtin_holtek_mant1[0],a
 107  0049  0F3F        	mov a,63
 107  004A  0080     E  	mov _builtin_holtek_mant12p[1],a
 107  004B  0F99        	mov a,153
 107  004C  0080     E  	mov _builtin_holtek_mant2[2],a
 107  004D  0F99        	mov a,153
 107  004E  0080     E  	mov _builtin_holtek_mant2[1],a
 107  004F  0F9A        	mov a,154
 107  0050  0080     E  	mov _builtin_holtek_mant2[0],a
 107  0051  2000     E  	call _builtin_holtek_dtmul
 107  0052  0700     E  	mov a,_builtin_holtek_mant12p[0]
 107  0053  0080     E  	mov rg,a
 107  0054  0700     E  	mov a,_builtin_holtek_mant1[2]
 107  0055  0080     E  	mov rf,a
 107  0056  0700     E  	mov a,_builtin_holtek_mant1[1]
 107  0057  0080     E  	mov re,a
 107  0058  0700     E  	mov a,_builtin_holtek_mant1[0]
 107  0059  0080     E  	mov rd,a
 107  005A  0700     E  	mov a,rg
 107  005B  0080     R  	mov _main_2[2],a
 107  005C  0700     E  	mov a,rf
 107  005D  0080     R  	mov _main_2[1],a
 107  005E  0700     E  	mov a,re
 107  005F  0080     R  	mov _main_2[0],a
 107  0060  0700     R  	mov a,_main_2[0]
 107  0061  0080     R  	mov _VDD[0],a
 107  0062  0700     R  	mov a,_main_2[1]
 107  0063  0080     R  	mov _VDD[1],a
 107  0064  0700     R  	mov a,_main_2[2]
 107  0065  0080     R  	mov _VDD[2],a
 108  0066              #line 108 "Y:\Desktop\CODetector\co.c"
 108  0066  0F01        	mov a,1
 108  0067  2000     E  	call _S_READ_ADC
 108  0068  0700     R  	mov a,_main_2[0]
 108  0069  0080     E  	mov _temperature_2[2],a
 108  006A  0700     R  	mov a,_main_2[1]
 108  006B  0080     E  	mov _temperature_2[3],a
 108  006C  0700     R  	mov a,_main_2[2]
 108  006D  0080     E  	mov _temperature_2[4],a
 108  006E  0700     E  	mov a,ra
 108  006F  0080     E  	mov _temperature_2[0],a
 108  0070  0700     E  	mov a,rb
 108  0071  0080     E  	mov _temperature_2[1],a
 108  0072  2000     E  	call _temperature
 108  0073  0700     E  	mov a,ra
 108  0074  0080     R  	mov _temperatur[0],a
 108  0075  0700     E  	mov a,rb
 108  0076  0080     R  	mov _temperatur[1],a
 108  0077  0700     E  	mov a,rc
 108  0078  0080     R  	mov _temperatur[2],a
 109  0079              #line 109 "Y:\Desktop\CODetector\co.c"
 109  0079  0F05        	mov a,5
 109  007A  2000     E  	call _S_READ_ADC
 109  007B  0700     E  	mov a,rb
 109  007C  0080     E  	mov _builtin_holtek_mant1[1],a
 109  007D  0700     E  	mov a,ra
 109  007E  0080     E  	mov _builtin_holtek_mant1[0],a
 109  007F  3400     E  	clr _builtin_holtek_signs.0
 109  0080  2000     E  	call _builtin_holtek_uitof
 109  0081  0700     E  	mov a,_builtin_holtek_mant1[2]
"File: co.c          Assembler  Version HGASM0202      Page 8

 109  0082  0080     E  	mov re,a
 109  0083  0700     E  	mov a,_builtin_holtek_mant1[1]
 109  0084  0080     E  	mov rd,a
 109  0085  0700     E  	mov a,_builtin_holtek_mant1[0]
 109  0086  0080     E  	mov rc,a
 109  0087  0700     E  	mov a,rc
 109  0088  0080     R  	mov _Amplifier1[0],a
 109  0089  0700     E  	mov a,rd
 109  008A  0080     R  	mov _Amplifier1[1],a
 109  008B  0700     E  	mov a,re
 109  008C  0080     R  	mov _Amplifier1[2],a
 110  008D              #line 110 "Y:\Desktop\CODetector\co.c"
 110  008D  0700     R  	mov a,_VDD[2]
 110  008E  0080     E  	mov _builtin_holtek_mant1[2],a
 110  008F  0700     R  	mov a,_VDD[1]
 110  0090  0080     E  	mov _builtin_holtek_mant1[1],a
 110  0091  0700     R  	mov a,_VDD[0]
 110  0092  0080     E  	mov _builtin_holtek_mant1[0],a
 110  0093  0F45        	mov a,69
 110  0094  0080     E  	mov _builtin_holtek_mant2[2],a
 110  0095  0F7F        	mov a,127
 110  0096  0080     E  	mov _builtin_holtek_mant2[1],a
 110  0097  0FF0        	mov a,240
 110  0098  0080     E  	mov _builtin_holtek_mant2[0],a
 110  0099  2000     E  	call _builtin_holtek_ftdiv
 110  009A  0700     E  	mov a,_builtin_holtek_mant1[2]
 110  009B  0080     E  	mov rh,a
 110  009C  0700     E  	mov a,_builtin_holtek_mant1[1]
 110  009D  0080     E  	mov rg,a
 110  009E  0700     E  	mov a,_builtin_holtek_mant1[0]
 110  009F  0080     E  	mov rf,a
 110  00A0  0700     E  	mov a,re
 110  00A1  0080     E  	mov _builtin_holtek_mant1[2],a
 110  00A2  0700     E  	mov a,rd
 110  00A3  0080     E  	mov _builtin_holtek_mant1[1],a
 110  00A4  0700     E  	mov a,rc
 110  00A5  0080     E  	mov _builtin_holtek_mant1[0],a
 110  00A6  0700     E  	mov a,rh
 110  00A7  0080     E  	mov _builtin_holtek_mant2[2],a
 110  00A8  0700     E  	mov a,rg
 110  00A9  0080     E  	mov _builtin_holtek_mant2[1],a
 110  00AA  0700     E  	mov a,rf
 110  00AB  0080     E  	mov _builtin_holtek_mant2[0],a
 110  00AC  2000     E  	call _builtin_holtek_ftmul
 110  00AD  0700     E  	mov a,_builtin_holtek_mant1[2]
 110  00AE  0080     E  	mov re,a
 110  00AF  0700     E  	mov a,_builtin_holtek_mant1[1]
 110  00B0  0080     E  	mov rd,a
 110  00B1  0700     E  	mov a,_builtin_holtek_mant1[0]
 110  00B2  0080     E  	mov rc,a
 110  00B3  0700     E  	mov a,re
 110  00B4  0080     E  	mov rg,a
 110  00B5  0700     E  	mov a,rd
 110  00B6  0080     E  	mov rf,a
 110  00B7  0700     E  	mov a,rc
 110  00B8  0080     E  	mov re,a
 110  00B9  1F00     E  	clr rd
 110  00BA  0700     E  	mov a,rg
 110  00BB  0080     E  	mov _builtin_holtek_mant12p[0],a
 110  00BC  0700     E  	mov a,rf
"File: co.c          Assembler  Version HGASM0202      Page 9

 110  00BD  0080     E  	mov _builtin_holtek_mant1[2],a
 110  00BE  0700     E  	mov a,re
 110  00BF  0080     E  	mov _builtin_holtek_mant1[1],a
 110  00C0  0700     E  	mov a,rd
 110  00C1  0080     E  	mov _builtin_holtek_mant1[0],a
 110  00C2  0F40        	mov a,64
 110  00C3  0080     E  	mov _builtin_holtek_mant12p[1],a
 110  00C4  0FD5        	mov a,213
 110  00C5  0080     E  	mov _builtin_holtek_mant2[2],a
 110  00C6  0F55        	mov a,85
 110  00C7  0080     E  	mov _builtin_holtek_mant2[1],a
 110  00C8  0F55        	mov a,85
 110  00C9  0080     E  	mov _builtin_holtek_mant2[0],a
 110  00CA  2000     E  	call _builtin_holtek_dtdiv
 110  00CB  0700     E  	mov a,_builtin_holtek_mant12p[0]
 110  00CC  0080     E  	mov rg,a
 110  00CD  0700     E  	mov a,_builtin_holtek_mant1[2]
 110  00CE  0080     E  	mov rf,a
 110  00CF  0700     E  	mov a,_builtin_holtek_mant1[1]
 110  00D0  0080     E  	mov re,a
 110  00D1  0700     E  	mov a,_builtin_holtek_mant1[0]
 110  00D2  0080     E  	mov rd,a
 110  00D3  0700     E  	mov a,rg
 110  00D4  0080     E  	mov _builtin_holtek_mant12p[0],a
 110  00D5  0700     E  	mov a,rf
 110  00D6  0080     E  	mov _builtin_holtek_mant1[2],a
 110  00D7  0700     E  	mov a,re
 110  00D8  0080     E  	mov _builtin_holtek_mant1[1],a
 110  00D9  0700     E  	mov a,rd
 110  00DA  0080     E  	mov _builtin_holtek_mant1[0],a
 110  00DB  0F44        	mov a,68
 110  00DC  0080     E  	mov _builtin_holtek_mant12p[1],a
 110  00DD  0F7A        	mov a,122
 110  00DE  0080     E  	mov _builtin_holtek_mant2[2],a
 110  00DF  0F00        	mov a,0
 110  00E0  0080     E  	mov _builtin_holtek_mant2[1],a
 110  00E1  0F00        	mov a,0
 110  00E2  0080     E  	mov _builtin_holtek_mant2[0],a
 110  00E3  2000     E  	call _builtin_holtek_dtmul
 110  00E4  0700     E  	mov a,_builtin_holtek_mant12p[0]
 110  00E5  0080     E  	mov rg,a
 110  00E6  0700     E  	mov a,_builtin_holtek_mant1[2]
 110  00E7  0080     E  	mov rf,a
 110  00E8  0700     E  	mov a,_builtin_holtek_mant1[1]
 110  00E9  0080     E  	mov re,a
 110  00EA  0700     E  	mov a,_builtin_holtek_mant1[0]
 110  00EB  0080     E  	mov rd,a
 110  00EC  0700     E  	mov a,rg
 110  00ED  0080     E  	mov _builtin_holtek_mant12p[0],a
 110  00EE  0700     E  	mov a,rf
 110  00EF  0080     E  	mov _builtin_holtek_mant1[2],a
 110  00F0  0700     E  	mov a,re
 110  00F1  0080     E  	mov _builtin_holtek_mant1[1],a
 110  00F2  0700     E  	mov a,rd
 110  00F3  0080     E  	mov _builtin_holtek_mant1[0],a
 110  00F4  0F41        	mov a,65
 110  00F5  0080     E  	mov _builtin_holtek_mant12p[1],a
 110  00F6  0F70        	mov a,112
 110  00F7  0080     E  	mov _builtin_holtek_mant2[2],a
 110  00F8  0F00        	mov a,0
"File: co.c          Assembler  Version HGASM0202      Page 10

 110  00F9  0080     E  	mov _builtin_holtek_mant2[1],a
 110  00FA  0F00        	mov a,0
 110  00FB  0080     E  	mov _builtin_holtek_mant2[0],a
 110  00FC  2000     E  	call _builtin_holtek_dtdiv
 110  00FD  0700     E  	mov a,_builtin_holtek_mant12p[0]
 110  00FE  0080     E  	mov rg,a
 110  00FF  0700     E  	mov a,_builtin_holtek_mant1[2]
 110  0100  0080     E  	mov rf,a
 110  0101  0700     E  	mov a,_builtin_holtek_mant1[1]
 110  0102  0080     E  	mov re,a
 110  0103  0700     E  	mov a,_builtin_holtek_mant1[0]
 110  0104  0080     E  	mov rd,a
 110  0105  0700     E  	mov a,rg
 110  0106  0080     E  	mov _builtin_holtek_mant12p[0],a
 110  0107  0700     E  	mov a,rf
 110  0108  0080     E  	mov _builtin_holtek_mant1[2],a
 110  0109  0700     E  	mov a,re
 110  010A  0080     E  	mov _builtin_holtek_mant1[1],a
 110  010B  0700     E  	mov a,rd
 110  010C  0080     E  	mov _builtin_holtek_mant1[0],a
 110  010D  0F44        	mov a,68
 110  010E  0080     E  	mov _builtin_holtek_mant12p[1],a
 110  010F  0F7A        	mov a,122
 110  0110  0080     E  	mov _builtin_holtek_mant2[2],a
 110  0111  0F00        	mov a,0
 110  0112  0080     E  	mov _builtin_holtek_mant2[1],a
 110  0113  0F00        	mov a,0
 110  0114  0080     E  	mov _builtin_holtek_mant2[0],a
 110  0115  2000     E  	call _builtin_holtek_dtmul
 110  0116  0700     E  	mov a,_builtin_holtek_mant12p[0]
 110  0117  0080     E  	mov rg,a
 110  0118  0700     E  	mov a,_builtin_holtek_mant1[2]
 110  0119  0080     E  	mov rf,a
 110  011A  0700     E  	mov a,_builtin_holtek_mant1[1]
 110  011B  0080     E  	mov re,a
 110  011C  0700     E  	mov a,_builtin_holtek_mant1[0]
 110  011D  0080     E  	mov rd,a
 110  011E  0700     E  	mov a,rg
 110  011F  0080     E  	mov _builtin_holtek_mant12p[0],a
 110  0120  0700     E  	mov a,rf
 110  0121  0080     E  	mov _builtin_holtek_mant1[2],a
 110  0122  0700     E  	mov a,re
 110  0123  0080     E  	mov _builtin_holtek_mant1[1],a
 110  0124  0700     E  	mov a,rd
 110  0125  0080     E  	mov _builtin_holtek_mant1[0],a
 110  0126  0F3C        	mov a,60
 110  0127  0080     E  	mov _builtin_holtek_mant12p[1],a
 110  0128  0FE1        	mov a,225
 110  0129  0080     E  	mov _builtin_holtek_mant2[2],a
 110  012A  0F47        	mov a,71
 110  012B  0080     E  	mov _builtin_holtek_mant2[1],a
 110  012C  0FAE        	mov a,174
 110  012D  0080     E  	mov _builtin_holtek_mant2[0],a
 110  012E  2000     E  	call _builtin_holtek_dtmul
 110  012F  0700     E  	mov a,_builtin_holtek_mant12p[0]
 110  0130  0080     E  	mov rg,a
 110  0131  0700     E  	mov a,_builtin_holtek_mant1[2]
 110  0132  0080     E  	mov rf,a
 110  0133  0700     E  	mov a,_builtin_holtek_mant1[1]
 110  0134  0080     E  	mov re,a
"File: co.c          Assembler  Version HGASM0202      Page 11

 110  0135  0700     E  	mov a,_builtin_holtek_mant1[0]
 110  0136  0080     E  	mov rd,a
 110  0137  0700     E  	mov a,rg
 110  0138  0080     R  	mov _COValue[2],a
 110  0139  0700     E  	mov a,rf
 110  013A  0080     R  	mov _COValue[1],a
 110  013B  0700     E  	mov a,re
 110  013C  0080     R  	mov _COValue[0],a
 112  013D              #line 112 "Y:\Desktop\CODetector\co.c"
 112  013D  2000     E  	call _clearSegment
 113  013E              #line 113 "Y:\Desktop\CODetector\co.c"
 113  013E  3216        	set [22].4
 114  013F              #line 114 "Y:\Desktop\CODetector\co.c"
 114  013F  3217        	set [23].4
 115  0140              #line 115 "Y:\Desktop\CODetector\co.c"
 115  0140  0F38        	mov a,56
 115  0141  0097        	mov [23],a
 117  0142              #line 117 "Y:\Desktop\CODetector\co.c"
 117  0142  1F00     R  	clr _pressFlag[0]
 118  0143              #line 118 "Y:\Desktop\CODetector\co.c"
 118  0143  1F00     R  	clr _debounceCounter[0]
 118  0144  1F00     R  	clr _debounceCounter[1]
 119  0145              #line 119 "Y:\Desktop\CODetector\co.c"
 119  0145  1F00     R  	clr _keyCounter[0]
 119  0146  1F00     R  	clr _keyCounter[1]
 123  0147              #line 123 "Y:\Desktop\CODetector\co.c"
 123  0147  0700     R  	mov a,_COValue[2]
 123  0148  0080     E  	mov _builtin_holtek_mant1[2],a
 123  0149  0700     R  	mov a,_COValue[1]
 123  014A  0080     E  	mov _builtin_holtek_mant1[1],a
 123  014B  0700     R  	mov a,_COValue[0]
 123  014C  0080     E  	mov _builtin_holtek_mant1[0],a
 123  014D  0F41        	mov a,65
 123  014E  0080     E  	mov _builtin_holtek_mant2[2],a
 123  014F  0FF0        	mov a,240
 123  0150  0080     E  	mov _builtin_holtek_mant2[1],a
 123  0151  0F00        	mov a,0
 123  0152  0080     E  	mov _builtin_holtek_mant2[0],a
 123  0153  2000     E  	call _builtin_holtek_ftsub
 123  0154  3C00     E  	sz _builtin_holtek_mant1[2].7
 123  0155  2800     R  	jmp _LI1
 123  0156  0700     E  	mov a,_builtin_holtek_mant1[2]
 123  0157  0500     E  	or a,_builtin_holtek_mant1[1]
 123  0158  0500     E  	or a,_builtin_holtek_mant1[0]
 123  0159  390A        	snz z
 123  015A  2800     R  	jmp _L36
 123  015B              _LI1:
 123  015B  2800     R  	jmp _L46
 123  015C              _L36:
 125  015C              #line 125 "Y:\Desktop\CODetector\co.c"
 125  015C  1480     R  	inc _alarmCounter[0]
 125  015D  3D0A        	sz z
 125  015E  1480     R  	inc _alarmCounter[1]
 125  015F  2800     R  	jmp _L28
 125  0160              _L46:
 129  0160              #line 129 "Y:\Desktop\CODetector\co.c"
 129  0160  0700     R  	mov a,_alarmCounter[0]
 129  0161  0080     E  	mov rb,a
 129  0162  0700     R  	mov a,_alarmCounter[1]
 129  0163  0080     E  	mov rc,a
"File: co.c          Assembler  Version HGASM0202      Page 12

 129  0164  0700     E  	mov a,rb
 129  0165  0500     E  	or a,rc
 129  0166  3D0A        	sz z
 129  0167  2800     R  	jmp _L29
 129  0168  0FFF        	mov a,255
 129  0169  0300     E  	add a,rb
 129  016A  0080     R  	mov _alarmCounter[0],a
 129  016B  0FFF        	mov a,255
 129  016C  1300     E  	adc a,rc
 129  016D  0080     R  	mov _alarmCounter[1],a
 129  016E              _L29:
 130  016E              #line 130 "Y:\Desktop\CODetector\co.c"
 130  016E  0F00        	mov a,0
 130  016F  2000     E  	call _PWMSeter
 130  0170              _L28:
 142  0170              #line 142 "Y:\Desktop\CODetector\co.c"
 142  0170  2000     R  	call _key
 144  0171              #line 144 "Y:\Desktop\CODetector\co.c"
 144  0171  0700     R  	mov a,_buttonStatus[0]
 144  0172  0C04        	xor a,4
 144  0173  0500     R  	or a,_buttonStatus[1]
 144  0174  390A        	snz z
 144  0175  2800     R  	jmp _L31
 146  0176              #line 146 "Y:\Desktop\CODetector\co.c"
 146  0176              ;# 146 "Y:\Desktop\CODetector\co.c" 1
 146  0176  0002        	halt
 146  0177  2800     R  	jmp _L32
 146  0178              _L31:
 150  0178              #line 150 "Y:\Desktop\CODetector\co.c"
 150  0178  3216        	set [22].4
 151  0179              #line 151 "Y:\Desktop\CODetector\co.c"
 151  0179  3217        	set [23].4
 152  017A              #line 152 "Y:\Desktop\CODetector\co.c"
 152  017A  0F38        	mov a,56
 152  017B  0097        	mov [23],a
 153  017C              #line 153 "Y:\Desktop\CODetector\co.c"
 153  017C  2000     E  	call _clearSegment
 155  017D              #line 155 "Y:\Desktop\CODetector\co.c"
 155  017D  0700     R  	mov a,_buttonStatus[0]
 155  017E  0080     E  	mov rb,a
 155  017F  0700     R  	mov a,_buttonStatus[1]
 155  0180  0080     E  	mov rc,a
 155  0181  0700     E  	mov a,rb
 155  0182  0500     E  	or a,rc
 155  0183  3D0A        	sz z
 155  0184  2800     R  	jmp _L33
 159  0185              #line 159 "Y:\Desktop\CODetector\co.c"
 159  0185  0700     E  	mov a,rb
 159  0186  0C02        	xor a,2
 159  0187  0500     E  	or a,rc
 159  0188  390A        	snz z
 159  0189  2800     R  	jmp _L34
 161  018A              #line 161 "Y:\Desktop\CODetector\co.c"
 161  018A              ;# 161 "Y:\Desktop\CODetector\co.c" 1
 161  018A  0001        	clr wdt
 162  018B              #line 162 "Y:\Desktop\CODetector\co.c"
 162  018B  0700     R  	mov a,_temperatur[0]
 162  018C  0080     E  	mov rf,a
 162  018D  0700     R  	mov a,_temperatur[1]
 162  018E  0080     E  	mov rg,a
"File: co.c          Assembler  Version HGASM0202      Page 13

 162  018F  0700     R  	mov a,_temperatur[2]
 162  0190  0080     E  	mov rh,a
 162  0191  0700     E  	mov a,rh
 162  0192  0080     E  	mov _builtin_holtek_mant1[2],a
 162  0193  0700     E  	mov a,rg
 162  0194  0080     E  	mov _builtin_holtek_mant1[1],a
 162  0195  0700     E  	mov a,rf
 162  0196  0080     E  	mov _builtin_holtek_mant1[0],a
 162  0197  0F41        	mov a,65
 162  0198  0080     E  	mov _builtin_holtek_mant2[2],a
 162  0199  0F20        	mov a,32
 162  019A  0080     E  	mov _builtin_holtek_mant2[1],a
 162  019B  0F00        	mov a,0
 162  019C  0080     E  	mov _builtin_holtek_mant2[0],a
 162  019D  2000     E  	call _builtin_holtek_ftdiv
 162  019E  0700     E  	mov a,_builtin_holtek_mant1[2]
 162  019F  0080     R  	mov _main_2[2],a
 162  01A0  0700     E  	mov a,_builtin_holtek_mant1[1]
 162  01A1  0080     R  	mov _main_2[1],a
 162  01A2  0700     E  	mov a,_builtin_holtek_mant1[0]
 162  01A3  0080     R  	mov _main_2[0],a
 162  01A4  0700     R  	mov a,_main_2[2]
 162  01A5  0080     E  	mov _builtin_holtek_mant1[2],a
 162  01A6  0700     R  	mov a,_main_2[1]
 162  01A7  0080     E  	mov _builtin_holtek_mant1[1],a
 162  01A8  0700     R  	mov a,_main_2[0]
 162  01A9  0080     E  	mov _builtin_holtek_mant1[0],a
 162  01AA  0700     E  	mov a,rh
 162  01AB  0080     E  	mov _builtin_holtek_mant2[2],a
 162  01AC  0700     E  	mov a,rg
 162  01AD  0080     E  	mov _builtin_holtek_mant2[1],a
 162  01AE  0700     E  	mov a,rf
 162  01AF  0080     E  	mov _builtin_holtek_mant2[0],a
 162  01B0  2000     E  	call _builtin_holtek_ftmul
 162  01B1  0700     E  	mov a,_builtin_holtek_mant1[2]
 162  01B2  0080     E  	mov re,a
 162  01B3  0700     E  	mov a,_builtin_holtek_mant1[1]
 162  01B4  0080     E  	mov rd,a
 162  01B5  0700     E  	mov a,_builtin_holtek_mant1[0]
 162  01B6  0080     E  	mov rc,a
 162  01B7  0700     E  	mov a,re
 162  01B8  0080     E  	mov _builtin_holtek_mant1[2],a
 162  01B9  0700     E  	mov a,rd
 162  01BA  0080     E  	mov _builtin_holtek_mant1[1],a
 162  01BB  0700     E  	mov a,rc
 162  01BC  0080     E  	mov _builtin_holtek_mant1[0],a
 162  01BD  0F41        	mov a,65
 162  01BE  0080     E  	mov _builtin_holtek_mant2[2],a
 162  01BF  0F20        	mov a,32
 162  01C0  0080     E  	mov _builtin_holtek_mant2[1],a
 162  01C1  0F00        	mov a,0
 162  01C2  0080     E  	mov _builtin_holtek_mant2[0],a
 162  01C3  2000     E  	call _builtin_holtek_ftdiv
 162  01C4  0700     E  	mov a,_builtin_holtek_mant1[2]
 162  01C5  0080     R  	mov _main_2[10],a
 162  01C6  0700     E  	mov a,_builtin_holtek_mant1[1]
 162  01C7  0080     R  	mov _main_2[9],a
 162  01C8  0700     E  	mov a,_builtin_holtek_mant1[0]
 162  01C9  0080     R  	mov _main_2[8],a
 162  01CA  0700     R  	mov a,_main_2[10]
"File: co.c          Assembler  Version HGASM0202      Page 14

 162  01CB  0080     E  	mov _builtin_holtek_mant1[2],a
 162  01CC  0700     R  	mov a,_main_2[9]
 162  01CD  0080     E  	mov _builtin_holtek_mant1[1],a
 162  01CE  0700     R  	mov a,_main_2[8]
 162  01CF  0080     E  	mov _builtin_holtek_mant1[0],a
 162  01D0  0700     E  	mov a,rh
 162  01D1  0080     E  	mov _builtin_holtek_mant2[2],a
 162  01D2  0700     E  	mov a,rg
 162  01D3  0080     E  	mov _builtin_holtek_mant2[1],a
 162  01D4  0700     E  	mov a,rf
 162  01D5  0080     E  	mov _builtin_holtek_mant2[0],a
 162  01D6  2000     E  	call _builtin_holtek_ftmul
 162  01D7  0700     E  	mov a,_builtin_holtek_mant1[2]
 162  01D8  0080     E  	mov re,a
 162  01D9  0700     E  	mov a,_builtin_holtek_mant1[1]
 162  01DA  0080     E  	mov rd,a
 162  01DB  0700     E  	mov a,_builtin_holtek_mant1[0]
 162  01DC  0080     E  	mov rc,a
 162  01DD  0700     E  	mov a,re
 162  01DE  0080     E  	mov _builtin_holtek_mant1[2],a
 162  01DF  0700     E  	mov a,rd
 162  01E0  0080     E  	mov _builtin_holtek_mant1[1],a
 162  01E1  0700     E  	mov a,rc
 162  01E2  0080     E  	mov _builtin_holtek_mant1[0],a
 162  01E3  0F41        	mov a,65
 162  01E4  0080     E  	mov _builtin_holtek_mant2[2],a
 162  01E5  0F20        	mov a,32
 162  01E6  0080     E  	mov _builtin_holtek_mant2[1],a
 162  01E7  0F00        	mov a,0
 162  01E8  0080     E  	mov _builtin_holtek_mant2[0],a
 162  01E9  2000     E  	call _builtin_holtek_ftdiv
 162  01EA  0700     E  	mov a,_builtin_holtek_mant1[2]
 162  01EB  0080     E  	mov rc,a
 162  01EC  0700     E  	mov a,_builtin_holtek_mant1[1]
 162  01ED  0080     E  	mov rb,a
 162  01EE  0700     E  	mov a,_builtin_holtek_mant1[0]
 162  01EF  0080     E  	mov ra,a
 162  01F0  0700     R  	mov a,_COValue[0]
 162  01F1  0080     R  	mov _main_2[12],a
 162  01F2  0700     R  	mov a,_COValue[1]
 162  01F3  0080     R  	mov _main_2[13],a
 162  01F4  0700     R  	mov a,_COValue[2]
 162  01F5  0080     R  	mov _main_2[14],a
 162  01F6  1F00     R  	clr _main_2[11]
 162  01F7  0700     E  	mov a,rc
 162  01F8  0080     E  	mov _builtin_holtek_mant1[2],a
 162  01F9  0700     E  	mov a,rb
 162  01FA  0080     E  	mov _builtin_holtek_mant1[1],a
 162  01FB  0700     E  	mov a,ra
 162  01FC  0080     E  	mov _builtin_holtek_mant1[0],a
 162  01FD  0700     E  	mov a,rh
 162  01FE  0080     E  	mov _builtin_holtek_mant2[2],a
 162  01FF  0700     E  	mov a,rg
 162  0200  0080     E  	mov _builtin_holtek_mant2[1],a
 162  0201  0700     E  	mov a,rf
 162  0202  0080     E  	mov _builtin_holtek_mant2[0],a
 162  0203  2000     E  	call _builtin_holtek_ftmul
 162  0204  0700     E  	mov a,_builtin_holtek_mant1[2]
 162  0205  0080     E  	mov rh,a
 162  0206  0700     E  	mov a,_builtin_holtek_mant1[1]
"File: co.c          Assembler  Version HGASM0202      Page 15

 162  0207  0080     E  	mov rg,a
 162  0208  0700     E  	mov a,_builtin_holtek_mant1[0]
 162  0209  0080     E  	mov rf,a
 162  020A  0700     E  	mov a,rh
 162  020B  0080     E  	mov _builtin_holtek_mant1[2],a
 162  020C  0700     E  	mov a,rg
 162  020D  0080     E  	mov _builtin_holtek_mant1[1],a
 162  020E  0700     E  	mov a,rf
 162  020F  0080     E  	mov _builtin_holtek_mant1[0],a
 162  0210  0F41        	mov a,65
 162  0211  0080     E  	mov _builtin_holtek_mant2[2],a
 162  0212  0F20        	mov a,32
 162  0213  0080     E  	mov _builtin_holtek_mant2[1],a
 162  0214  0F00        	mov a,0
 162  0215  0080     E  	mov _builtin_holtek_mant2[0],a
 162  0216  2000     E  	call _builtin_holtek_ftdiv
 162  0217  0700     E  	mov a,_builtin_holtek_mant1[2]
 162  0218  0080     E  	mov rh,a
 162  0219  0700     E  	mov a,_builtin_holtek_mant1[1]
 162  021A  0080     E  	mov rg,a
 162  021B  0700     E  	mov a,_builtin_holtek_mant1[0]
 162  021C  0080     E  	mov rf,a
 162  021D  0700     E  	mov a,rf
 162  021E  0080     E  	mov re,a
 162  021F  0700     E  	mov a,rg
 162  0220  0080     E  	mov rf,a
 162  0221  0700     E  	mov a,rh
 162  0222  0080     E  	mov rg,a
 162  0223  1F00     E  	clr rd
 162  0224  0700     E  	mov a,rg
 162  0225  0080     E  	mov _builtin_holtek_mant12p[0],a
 162  0226  0700     E  	mov a,rf
 162  0227  0080     E  	mov _builtin_holtek_mant1[2],a
 162  0228  0700     E  	mov a,re
 162  0229  0080     E  	mov _builtin_holtek_mant1[1],a
 162  022A  0700     E  	mov a,rd
 162  022B  0080     E  	mov _builtin_holtek_mant1[0],a
 162  022C  0F32        	mov a,50
 162  022D  0080     E  	mov _builtin_holtek_mant12p[1],a
 162  022E  0FD6        	mov a,214
 162  022F  0080     E  	mov _builtin_holtek_mant2[2],a
 162  0230  0FBF        	mov a,191
 162  0231  0080     E  	mov _builtin_holtek_mant2[1],a
 162  0232  0F95        	mov a,149
 162  0233  0080     E  	mov _builtin_holtek_mant2[0],a
 162  0234  2000     E  	call _builtin_holtek_dtmul
 162  0235  0700     E  	mov a,_builtin_holtek_mant12p[0]
 162  0236  0080     R  	mov _main_2[7],a
 162  0237  0700     E  	mov a,_builtin_holtek_mant1[2]
 162  0238  0080     R  	mov _main_2[6],a
 162  0239  0700     E  	mov a,_builtin_holtek_mant1[1]
 162  023A  0080     R  	mov _main_2[5],a
 162  023B  0700     E  	mov a,_builtin_holtek_mant1[0]
 162  023C  0080     R  	mov _main_2[4],a
 162  023D  0700     E  	mov a,ra
 162  023E  0080     E  	mov re,a
 162  023F  0700     E  	mov a,rb
 162  0240  0080     E  	mov rf,a
 162  0241  0700     E  	mov a,rc
 162  0242  0080     E  	mov rg,a
"File: co.c          Assembler  Version HGASM0202      Page 16

 162  0243  1F00     E  	clr rd
 162  0244  0700     E  	mov a,rg
 162  0245  0080     E  	mov _builtin_holtek_mant12p[0],a
 162  0246  0700     E  	mov a,rf
 162  0247  0080     E  	mov _builtin_holtek_mant1[2],a
 162  0248  0700     E  	mov a,re
 162  0249  0080     E  	mov _builtin_holtek_mant1[1],a
 162  024A  0700     E  	mov a,rd
 162  024B  0080     E  	mov _builtin_holtek_mant1[0],a
 162  024C  0F36        	mov a,54
 162  024D  0080     E  	mov _builtin_holtek_mant12p[1],a
 162  024E  0F72        	mov a,114
 162  024F  0080     E  	mov _builtin_holtek_mant2[2],a
 162  0250  0F54        	mov a,84
 162  0251  0080     E  	mov _builtin_holtek_mant2[1],a
 162  0252  0F82        	mov a,130
 162  0253  0080     E  	mov _builtin_holtek_mant2[0],a
 162  0254  2000     E  	call _builtin_holtek_dtmul
 162  0255  0700     E  	mov a,_builtin_holtek_mant12p[0]
 162  0256  0080     E  	mov rg,a
 162  0257  0700     E  	mov a,_builtin_holtek_mant1[2]
 162  0258  0080     E  	mov rf,a
 162  0259  0700     E  	mov a,_builtin_holtek_mant1[1]
 162  025A  0080     E  	mov re,a
 162  025B  0700     E  	mov a,_builtin_holtek_mant1[0]
 162  025C  0080     E  	mov rd,a
 162  025D  0700     R  	mov a,_main_2[7]
 162  025E  0080     E  	mov _builtin_holtek_mant12p[0],a
 162  025F  0700     R  	mov a,_main_2[6]
 162  0260  0080     E  	mov _builtin_holtek_mant1[2],a
 162  0261  0700     R  	mov a,_main_2[5]
 162  0262  0080     E  	mov _builtin_holtek_mant1[1],a
 162  0263  0700     R  	mov a,_main_2[4]
 162  0264  0080     E  	mov _builtin_holtek_mant1[0],a
 162  0265  0700     E  	mov a,rg
 162  0266  0080     E  	mov _builtin_holtek_mant12p[1],a
 162  0267  0700     E  	mov a,rf
 162  0268  0080     E  	mov _builtin_holtek_mant2[2],a
 162  0269  0700     E  	mov a,re
 162  026A  0080     E  	mov _builtin_holtek_mant2[1],a
 162  026B  0700     E  	mov a,rd
 162  026C  0080     E  	mov _builtin_holtek_mant2[0],a
 162  026D  2000     E  	call _builtin_holtek_dtsub
 162  026E  0700     E  	mov a,_builtin_holtek_mant12p[0]
 162  026F  0080     R  	mov _main_2[7],a
 162  0270  0700     E  	mov a,_builtin_holtek_mant1[2]
 162  0271  0080     R  	mov _main_2[6],a
 162  0272  0700     E  	mov a,_builtin_holtek_mant1[1]
 162  0273  0080     R  	mov _main_2[5],a
 162  0274  0700     E  	mov a,_builtin_holtek_mant1[0]
 162  0275  0080     R  	mov _main_2[4],a
 162  0276  0700     R  	mov a,_main_2[8]
 162  0277  0080     E  	mov re,a
 162  0278  0700     R  	mov a,_main_2[9]
 162  0279  0080     E  	mov rf,a
 162  027A  0700     R  	mov a,_main_2[10]
 162  027B  0080     E  	mov rg,a
 162  027C  1F00     E  	clr rd
 162  027D  0700     E  	mov a,rg
 162  027E  0080     E  	mov _builtin_holtek_mant12p[0],a
"File: co.c          Assembler  Version HGASM0202      Page 17

 162  027F  0700     E  	mov a,rf
 162  0280  0080     E  	mov _builtin_holtek_mant1[2],a
 162  0281  0700     E  	mov a,re
 162  0282  0080     E  	mov _builtin_holtek_mant1[1],a
 162  0283  0700     E  	mov a,rd
 162  0284  0080     E  	mov _builtin_holtek_mant1[0],a
 162  0285  0F38        	mov a,56
 162  0286  0080     E  	mov _builtin_holtek_mant12p[1],a
 162  0287  0F5A        	mov a,90
 162  0288  0080     E  	mov _builtin_holtek_mant2[2],a
 162  0289  0FDD        	mov a,221
 162  028A  0080     E  	mov _builtin_holtek_mant2[1],a
 162  028B  0FFF        	mov a,255
 162  028C  0080     E  	mov _builtin_holtek_mant2[0],a
 162  028D  2000     E  	call _builtin_holtek_dtmul
 162  028E  0700     E  	mov a,_builtin_holtek_mant12p[0]
 162  028F  0080     E  	mov rg,a
 162  0290  0700     E  	mov a,_builtin_holtek_mant1[2]
 162  0291  0080     E  	mov rf,a
 162  0292  0700     E  	mov a,_builtin_holtek_mant1[1]
 162  0293  0080     E  	mov re,a
 162  0294  0700     E  	mov a,_builtin_holtek_mant1[0]
 162  0295  0080     E  	mov rd,a
 162  0296  0700     R  	mov a,_main_2[7]
 162  0297  0080     E  	mov _builtin_holtek_mant12p[0],a
 162  0298  0700     R  	mov a,_main_2[6]
 162  0299  0080     E  	mov _builtin_holtek_mant1[2],a
 162  029A  0700     R  	mov a,_main_2[5]
 162  029B  0080     E  	mov _builtin_holtek_mant1[1],a
 162  029C  0700     R  	mov a,_main_2[4]
 162  029D  0080     E  	mov _builtin_holtek_mant1[0],a
 162  029E  0700     E  	mov a,rg
 162  029F  0080     E  	mov _builtin_holtek_mant12p[1],a
 162  02A0  0700     E  	mov a,rf
 162  02A1  0080     E  	mov _builtin_holtek_mant2[2],a
 162  02A2  0700     E  	mov a,re
 162  02A3  0080     E  	mov _builtin_holtek_mant2[1],a
 162  02A4  0700     E  	mov a,rd
 162  02A5  0080     E  	mov _builtin_holtek_mant2[0],a
 162  02A6  2000     E  	call _builtin_holtek_dtadd
 162  02A7  0700     E  	mov a,_builtin_holtek_mant12p[0]
 162  02A8  0080     E  	mov rg,a
 162  02A9  0700     E  	mov a,_builtin_holtek_mant1[2]
 162  02AA  0080     E  	mov rf,a
 162  02AB  0700     E  	mov a,_builtin_holtek_mant1[1]
 162  02AC  0080     E  	mov re,a
 162  02AD  0700     E  	mov a,_builtin_holtek_mant1[0]
 162  02AE  0080     E  	mov rd,a
 162  02AF  0700     R  	mov a,_main_2[0]
 162  02B0  0080     R  	mov _main_2[1],a
 162  02B1  0700     R  	mov a,_main_2[1]
 162  02B2  0080     R  	mov _main_2[2],a
 162  02B3  0700     R  	mov a,_main_2[2]
 162  02B4  0080     R  	mov _main_2[3],a
 162  02B5  1F00     R  	clr _main_2[0]
 162  02B6  0700     R  	mov a,_main_2[3]
 162  02B7  0080     E  	mov _builtin_holtek_mant12p[0],a
 162  02B8  0700     R  	mov a,_main_2[2]
 162  02B9  0080     E  	mov _builtin_holtek_mant1[2],a
 162  02BA  0700     R  	mov a,_main_2[1]
"File: co.c          Assembler  Version HGASM0202      Page 18

 162  02BB  0080     E  	mov _builtin_holtek_mant1[1],a
 162  02BC  0700     R  	mov a,_main_2[0]
 162  02BD  0080     E  	mov _builtin_holtek_mant1[0],a
 162  02BE  0F3C        	mov a,60
 162  02BF  0080     E  	mov _builtin_holtek_mant12p[1],a
 162  02C0  0F78        	mov a,120
 162  02C1  0080     E  	mov _builtin_holtek_mant2[2],a
 162  02C2  0FF1        	mov a,241
 162  02C3  0080     E  	mov _builtin_holtek_mant2[1],a
 162  02C4  0FEF        	mov a,239
 162  02C5  0080     E  	mov _builtin_holtek_mant2[0],a
 162  02C6  2000     E  	call _builtin_holtek_dtmul
 162  02C7  0700     E  	mov a,_builtin_holtek_mant12p[0]
 162  02C8  0080     R  	mov _main_2[3],a
 162  02C9  0700     E  	mov a,_builtin_holtek_mant1[2]
 162  02CA  0080     R  	mov _main_2[2],a
 162  02CB  0700     E  	mov a,_builtin_holtek_mant1[1]
 162  02CC  0080     R  	mov _main_2[1],a
 162  02CD  0700     E  	mov a,_builtin_holtek_mant1[0]
 162  02CE  0080     R  	mov _main_2[0],a
 162  02CF  0700     E  	mov a,rg
 162  02D0  0080     E  	mov _builtin_holtek_mant12p[0],a
 162  02D1  0700     E  	mov a,rf
 162  02D2  0080     E  	mov _builtin_holtek_mant1[2],a
 162  02D3  0700     E  	mov a,re
 162  02D4  0080     E  	mov _builtin_holtek_mant1[1],a
 162  02D5  0700     E  	mov a,rd
 162  02D6  0080     E  	mov _builtin_holtek_mant1[0],a
 162  02D7  0700     R  	mov a,_main_2[3]
 162  02D8  0080     E  	mov _builtin_holtek_mant12p[1],a
 162  02D9  0700     R  	mov a,_main_2[2]
 162  02DA  0080     E  	mov _builtin_holtek_mant2[2],a
 162  02DB  0700     R  	mov a,_main_2[1]
 162  02DC  0080     E  	mov _builtin_holtek_mant2[1],a
 162  02DD  0700     R  	mov a,_main_2[0]
 162  02DE  0080     E  	mov _builtin_holtek_mant2[0],a
 162  02DF  2000     E  	call _builtin_holtek_dtadd
 162  02E0  0700     E  	mov a,_builtin_holtek_mant12p[0]
 162  02E1  0080     E  	mov rg,a
 162  02E2  0700     E  	mov a,_builtin_holtek_mant1[2]
 162  02E3  0080     E  	mov rf,a
 162  02E4  0700     E  	mov a,_builtin_holtek_mant1[1]
 162  02E5  0080     E  	mov re,a
 162  02E6  0700     E  	mov a,_builtin_holtek_mant1[0]
 162  02E7  0080     E  	mov rd,a
 162  02E8  0700     E  	mov a,rg
 162  02E9  0080     E  	mov _builtin_holtek_mant12p[0],a
 162  02EA  0700     E  	mov a,rf
 162  02EB  0080     E  	mov _builtin_holtek_mant1[2],a
 162  02EC  0700     E  	mov a,re
 162  02ED  0080     E  	mov _builtin_holtek_mant1[1],a
 162  02EE  0700     E  	mov a,rd
 162  02EF  0080     E  	mov _builtin_holtek_mant1[0],a
 162  02F0  0F3F        	mov a,63
 162  02F1  0080     E  	mov _builtin_holtek_mant12p[1],a
 162  02F2  0F33        	mov a,51
 162  02F3  0080     E  	mov _builtin_holtek_mant2[2],a
 162  02F4  0F33        	mov a,51
 162  02F5  0080     E  	mov _builtin_holtek_mant2[1],a
 162  02F6  0F33        	mov a,51
"File: co.c          Assembler  Version HGASM0202      Page 19

 162  02F7  0080     E  	mov _builtin_holtek_mant2[0],a
 162  02F8  2000     E  	call _builtin_holtek_dtadd
 162  02F9  0700     E  	mov a,_builtin_holtek_mant12p[0]
 162  02FA  0080     E  	mov rg,a
 162  02FB  0700     E  	mov a,_builtin_holtek_mant1[2]
 162  02FC  0080     E  	mov rf,a
 162  02FD  0700     E  	mov a,_builtin_holtek_mant1[1]
 162  02FE  0080     E  	mov re,a
 162  02FF  0700     E  	mov a,_builtin_holtek_mant1[0]
 162  0300  0080     E  	mov rd,a
 162  0301  0700     R  	mov a,_main_2[14]
 162  0302  0080     E  	mov _builtin_holtek_mant12p[0],a
 162  0303  0700     R  	mov a,_main_2[13]
 162  0304  0080     E  	mov _builtin_holtek_mant1[2],a
 162  0305  0700     R  	mov a,_main_2[12]
 162  0306  0080     E  	mov _builtin_holtek_mant1[1],a
 162  0307  0700     R  	mov a,_main_2[11]
 162  0308  0080     E  	mov _builtin_holtek_mant1[0],a
 162  0309  0700     E  	mov a,rg
 162  030A  0080     E  	mov _builtin_holtek_mant12p[1],a
 162  030B  0700     E  	mov a,rf
 162  030C  0080     E  	mov _builtin_holtek_mant2[2],a
 162  030D  0700     E  	mov a,re
 162  030E  0080     E  	mov _builtin_holtek_mant2[1],a
 162  030F  0700     E  	mov a,rd
 162  0310  0080     E  	mov _builtin_holtek_mant2[0],a
 162  0311  2000     E  	call _builtin_holtek_dtmul
 162  0312  0700     E  	mov a,_builtin_holtek_mant12p[0]
 162  0313  0080     E  	mov rg,a
 162  0314  0700     E  	mov a,_builtin_holtek_mant1[2]
 162  0315  0080     E  	mov rf,a
 162  0316  0700     E  	mov a,_builtin_holtek_mant1[1]
 162  0317  0080     E  	mov re,a
 162  0318  0700     E  	mov a,_builtin_holtek_mant1[0]
 162  0319  0080     E  	mov rd,a
 162  031A  0700     E  	mov a,rg
 162  031B  0080     E  	mov _builtin_holtek_mant12p[0],a
 162  031C  0700     E  	mov a,rf
 162  031D  0080     E  	mov _builtin_holtek_mant1[2],a
 162  031E  0700     E  	mov a,re
 162  031F  0080     E  	mov _builtin_holtek_mant1[1],a
 162  0320  0700     E  	mov a,rd
 162  0321  0080     E  	mov _builtin_holtek_mant1[0],a
 162  0322  2000     E  	call _builtin_holtek_dtol
 162  0323  0700     E  	mov a,_builtin_holtek_mant12p[0]
 162  0324  0080     E  	mov rg,a
 162  0325  0700     E  	mov a,_builtin_holtek_mant1[2]
 162  0326  0080     E  	mov rf,a
 162  0327  0700     E  	mov a,_builtin_holtek_mant1[1]
 162  0328  0080     E  	mov re,a
 162  0329  0700     E  	mov a,_builtin_holtek_mant1[0]
 162  032A  0080     E  	mov rd,a
 162  032B  2800     R  	jmp _L45
 162  032C              _L34:
 165  032C              #line 165 "Y:\Desktop\CODetector\co.c"
 165  032C  0700     E  	mov a,rb
 165  032D  0C01        	xor a,1
 165  032E  0500     E  	or a,rc
 165  032F  390A        	snz z
 165  0330  2800     R  	jmp _L35
"File: co.c          Assembler  Version HGASM0202      Page 20

 167  0331              #line 167 "Y:\Desktop\CODetector\co.c"
 167  0331              ;# 167 "Y:\Desktop\CODetector\co.c" 1
 167  0331  0001        	clr wdt
 168  0332              #line 168 "Y:\Desktop\CODetector\co.c"
 168  0332  0700     R  	mov a,_temperatur[2]
 168  0333  0080     E  	mov _builtin_holtek_mant1[2],a
 168  0334  0700     R  	mov a,_temperatur[1]
 168  0335  0080     E  	mov _builtin_holtek_mant1[1],a
 168  0336  0700     R  	mov a,_temperatur[0]
 168  0337  0080     E  	mov _builtin_holtek_mant1[0],a
 168  0338  0F41        	mov a,65
 168  0339  0080     E  	mov _builtin_holtek_mant2[2],a
 168  033A  0F20        	mov a,32
 168  033B  0080     E  	mov _builtin_holtek_mant2[1],a
 168  033C  0F00        	mov a,0
 168  033D  0080     E  	mov _builtin_holtek_mant2[0],a
 168  033E  2000     E  	call _builtin_holtek_ftdiv
 168  033F  0700     E  	mov a,_builtin_holtek_mant1[2]
 168  0340  0080     E  	mov re,a
 168  0341  0700     E  	mov a,_builtin_holtek_mant1[1]
 168  0342  0080     E  	mov rd,a
 168  0343  0700     E  	mov a,_builtin_holtek_mant1[0]
 168  0344  0080     E  	mov rc,a
 168  0345  1F00     E  	clr _builtin_holtek_mant12p[0]
 168  0346  0700     E  	mov a,re
 168  0347  0080     E  	mov _builtin_holtek_mant1[2],a
 168  0348  0700     E  	mov a,rd
 168  0349  0080     E  	mov _builtin_holtek_mant1[1],a
 168  034A  0700     E  	mov a,rc
 168  034B  0080     E  	mov _builtin_holtek_mant1[0],a
 168  034C  2000     E  	call _builtin_holtek_ftol
 168  034D  0700     E  	mov a,_builtin_holtek_mant12p[0]
 168  034E  0080     E  	mov rg,a
 168  034F  0700     E  	mov a,_builtin_holtek_mant1[2]
 168  0350  0080     E  	mov rf,a
 168  0351  0700     E  	mov a,_builtin_holtek_mant1[1]
 168  0352  0080     E  	mov re,a
 168  0353  0700     E  	mov a,_builtin_holtek_mant1[0]
 168  0354  0080     E  	mov rd,a
 168  0355              _L45:
 168  0355  0700     E  	mov a,rd
 168  0356  0080     E  	mov _shwoSegment_2[0],a
 168  0357  0700     E  	mov a,re
 168  0358  0080     E  	mov _shwoSegment_2[1],a
 168  0359  2800     R  	jmp _L44
 168  035A              _L35:
 170  035A              #line 170 "Y:\Desktop\CODetector\co.c"
 170  035A  0700     E  	mov a,rb
 170  035B  0C03        	xor a,3
 170  035C  0500     E  	or a,rc
 170  035D  390A        	snz z
 170  035E  2800     R  	jmp _L33
 172  035F              #line 172 "Y:\Desktop\CODetector\co.c"
 172  035F              ;# 172 "Y:\Desktop\CODetector\co.c" 1
 172  035F  0001        	clr wdt
 173  0360              #line 173 "Y:\Desktop\CODetector\co.c"
 173  0360  0F4D        	mov a,77
 173  0361  0080     E  	mov _shwoSegment_2[0],a
 173  0362  0F01        	mov a,1
 173  0363  0080     E  	mov _shwoSegment_2[1],a
"File: co.c          Assembler  Version HGASM0202      Page 21

 173  0364              _L44:
 173  0364  2000     E  	call _shwoSegment
 173  0365              _L33:
 177  0365              #line 177 "Y:\Desktop\CODetector\co.c"
 177  0365  2000     E  	call _clearSegment
 178  0366              #line 178 "Y:\Desktop\CODetector\co.c"
 178  0366  3216        	set [22].4
 179  0367              #line 179 "Y:\Desktop\CODetector\co.c"
 179  0367  3217        	set [23].4
 179  0368              _L32:
 182  0368              #line 182 "Y:\Desktop\CODetector\co.c"
 182  0368  2000     E  	call _clearSegment
 183  0369              #line 183 "Y:\Desktop\CODetector\co.c"
 183  0369  3216        	set [22].4
 184  036A              #line 184 "Y:\Desktop\CODetector\co.c"
 184  036A  3217        	set [23].4
 185  036B              #line 185 "Y:\Desktop\CODetector\co.c"
 185  036B  0F38        	mov a,56
 185  036C  0097        	mov [23],a
 188  036D              #line 188 "Y:\Desktop\CODetector\co.c"
 188  036D  2800     R  	jmp _L28
 188  036E  2800     R  	jmp $
 188  036F              _main endp
 188  036F              
 188  036F              @dummy endp
 188  036F              
 188  036F              #line 188 "Y:\Desktop\CODetector\co.c"
 188  036F              #pragma debug scope 1 1
 188  036F              public _keyCounter
 188  0000              @HCCINIT	.section 'data'
  75  0000              #line 75 "Y:\Desktop\CODetector\co.c"
  75  0000              @HCCINIT_keyCounter .section 'data'
  75  0000              _keyCounter label byte
  75  0000              #pragma debug variable 12 1 _keyCounter "keyCounter"
  75  0000              	db 0
  75  0000              @ROMDATA_BASE .section inpage 'code'
  75  0000              	db 0
  75  0001              @HCCINIT_keyCounter .section 'data'
  75  0001              	db 0
  75  0001              @ROMDATA_BASE .section inpage 'code'
  75  0001              	db 0
  75  0002              @HCCINIT_keyCounter .section 'data'
  75  0002              public _pressFlag
  74  0002              #line 74 "Y:\Desktop\CODetector\co.c"
  74  0000              @HCCINIT_pressFlag .section 'data'
  74  0000              _pressFlag label byte
  74  0000              #pragma debug variable 7 1 _pressFlag "pressFlag"
  74  0000              	db 0
  74  0001              @ROMDATA_BASE .section inpage 'code'
  74  0001              	db 0
  74  0001              @HCCINIT_pressFlag .section 'data'
  74  0001              public _pressLockFlag
  73  0001              #line 73 "Y:\Desktop\CODetector\co.c"
  73  0000              @HCCINIT_pressLockFlag .section 'data'
  73  0000              _pressLockFlag label byte
  73  0000              #pragma debug variable 7 1 _pressLockFlag "pressLockFlag"
  73  0000              	db 2
  73  0002              @ROMDATA_BASE .section inpage 'code'
  73  0002              	db 2
  73  0001              @HCCINIT_pressLockFlag .section 'data'
"File: co.c          Assembler  Version HGASM0202      Page 22

  73  0001              public _keyState
  72  0001              #line 72 "Y:\Desktop\CODetector\co.c"
  72  0000              @HCCINIT_keyState .section 'data'
  72  0000              _keyState label byte
  72  0000              #pragma debug variable 7 1 _keyState "keyState"
  72  0000              	db 0
  72  0002              @ROMDATA_BASE .section inpage 'code'
  72  0002              	db 0
  72  0001              @HCCINIT_keyState .section 'data'
  71  0001              #line 71 "Y:\Desktop\CODetector\co.c"
  71  0001              public _debounceCounter
  71  0000              @HCCINIT0_debounceCounter .section 'data'
  71  0000  0002[       _debounceCounter	db 2 dup(0)
            00
            ]
  71  0002              #pragma debug variable 12 1 _debounceCounter "debounceCounter"
  71  0002              
  71  0000              @HCCINIT .section 'data'
  68  0000              #line 68 "Y:\Desktop\CODetector\co.c"
  68  0000              public _buttonStatus
  68  0000              @HCCINIT0_buttonStatus .section 'data'
  68  0000  0002[       _buttonStatus	db 2 dup(0)
            00
            ]
  68  0002              #pragma debug variable 12 1 _buttonStatus "buttonStatus"
  68  0002              
  68  0000              @HCCINIT .section 'data'
  51  0000              #line 51 "Y:\Desktop\CODetector\co.c"
  51  0000              public _alarmCounter
  51  0000              @HCCINIT0_alarmCounter .section 'data'
  51  0000  0002[       _alarmCounter	db 2 dup(0)
            00
            ]
  51  0002              #pragma debug variable 12 1 _alarmCounter "alarmCounter"
  51  0002              
  51  0000              @HCCINIT .section 'data'
  51  0000              public _Amplifier1
  48  0000              #line 48 "Y:\Desktop\CODetector\co.c"
  48  0000              @HCCINIT_Amplifier1 .section 'data'
  48  0000              _Amplifier1 label byte
  48  0000              #pragma debug variable 28 1 _Amplifier1 "Amplifier1"
  48  0000              	db 0
  48  0003              @ROMDATA_BASE .section inpage 'code'
  48  0003              	db 0
  48  0001              @HCCINIT_Amplifier1 .section 'data'
  48  0001              	db 0
  48  0003              @ROMDATA_BASE .section inpage 'code'
  48  0003              	db 0
  48  0002              @HCCINIT_Amplifier1 .section 'data'
  48  0002              	db 0
  48  0004              @ROMDATA_BASE .section inpage 'code'
  48  0004              	db 0
  48  0003              @HCCINIT_Amplifier1 .section 'data'
  48  0003              public _temperatur
  47  0003              #line 47 "Y:\Desktop\CODetector\co.c"
  47  0000              @HCCINIT_temperatur .section 'data'
  47  0000              _temperatur label byte
  47  0000              #pragma debug variable 28 1 _temperatur "temperatur"
  47  0000              	db 0
  47  0004              @ROMDATA_BASE .section inpage 'code'
"File: co.c          Assembler  Version HGASM0202      Page 23

  47  0004              	db 0
  47  0001              @HCCINIT_temperatur .section 'data'
  47  0001              	db 0
  47  0005              @ROMDATA_BASE .section inpage 'code'
  47  0005              	db 0
  47  0002              @HCCINIT_temperatur .section 'data'
  47  0002              	db 0
  47  0005              @ROMDATA_BASE .section inpage 'code'
  47  0005              	db 0
  47  0003              @HCCINIT_temperatur .section 'data'
  47  0003              public _COValue
  46  0003              #line 46 "Y:\Desktop\CODetector\co.c"
  46  0000              @HCCINIT_COValue .section 'data'
  46  0000              _COValue label byte
  46  0000              #pragma debug variable 28 1 _COValue "COValue"
  46  0000              	db 0
  46  0006              @ROMDATA_BASE .section inpage 'code'
  46  0006              	db 0
  46  0001              @HCCINIT_COValue .section 'data'
  46  0001              	db 0
  46  0006              @ROMDATA_BASE .section inpage 'code'
  46  0006              	db 0
  46  0002              @HCCINIT_COValue .section 'data'
  46  0002              	db 0
  46  0007              @ROMDATA_BASE .section inpage 'code'
  46  0007              	db 0
  46  0003              @HCCINIT_COValue .section 'data'
  46  0003              public _VDD
  45  0003              #line 45 "Y:\Desktop\CODetector\co.c"
  45  0000              @HCCINIT_VDD .section 'data'
  45  0000              _VDD label byte
  45  0000              #pragma debug variable 28 1 _VDD "VDD"
  45  0000              	db 0
  45  0007              @ROMDATA_BASE .section inpage 'code'
  45  0007              	db 0
  45  0001              @HCCINIT_VDD .section 'data'
  45  0001              	db 0
  45  0008              @ROMDATA_BASE .section inpage 'code'
  45  0008              	db 0
  45  0002              @HCCINIT_VDD .section 'data'
  45  0002              	db 0
  45  0008              @ROMDATA_BASE .section inpage 'code'
  45  0008              	db 0
  45  0003              @HCCINIT_VDD .section 'data'
  45  0003              #pragma debug struct_end
  45  0003              #pragma debug struct_end
  45  0003              #pragma debug union_end
  45  0003              #pragma debug union_end
  45  0003              #pragma debug variable 43 1 ___status "__status" 1
  45  0003              #pragma debug struct_end
  45  0003              #pragma debug struct_end
  45  0003              #pragma debug union_end
  45  0003              #pragma debug union_end
  45  0003              #pragma debug variable 45 1 ___vbgrc "__vbgrc" 1
  45  0003              #pragma debug struct_end
  45  0003              #pragma debug struct_end
  45  0003              #pragma debug union_end
  45  0003              #pragma debug union_end
  45  0003              #pragma debug variable 47 1 ___pa "__pa" 1
  45  0003              #pragma debug struct_end
"File: co.c          Assembler  Version HGASM0202      Page 24

  45  0003              #pragma debug struct_end
  45  0003              #pragma debug union_end
  45  0003              #pragma debug union_end
  45  0003              #pragma debug variable 49 1 ___papu "__papu" 1
  45  0003              #pragma debug struct_end
  45  0003              #pragma debug struct_end
  45  0003              #pragma debug union_end
  45  0003              #pragma debug union_end
  45  0003              #pragma debug variable 51 1 ___pawu "__pawu" 1
  45  0003              #pragma debug struct_end
  45  0003              #pragma debug struct_end
  45  0003              #pragma debug union_end
  45  0003              #pragma debug union_end
  45  0003              #pragma debug variable 53 1 ___sda0c "__sda0c" 1
  45  0003              #pragma debug struct_end
  45  0003              #pragma debug struct_end
  45  0003              #pragma debug union_end
  45  0003              #pragma debug union_end
  45  0003              #pragma debug variable 55 1 ___sda1c "__sda1c" 1
  45  0003              #pragma debug struct_end
  45  0003              #pragma debug struct_end
  45  0003              #pragma debug union_end
  45  0003              #pragma debug union_end
  45  0003              #pragma debug variable 57 1 ___isgenc "__isgenc" 1
  82  0003              #line 82 "Y:\Desktop\CODetector\co.c"
  82  0000              @code .section at 0 'code'
  82  0000  2800     R  	jmp _main_startup1
  82  0001              
  82  0001              extern _clearSegment:near
  82  0001              extern _ClockInit:near
  82  0001              extern _GPIOInit:near
  82  0001              extern _GPIOToGNDCurentInit:near
  82  0001              extern _OPAMPInit:near
  82  0001              extern _S_ADC_Init:near
  82  0001              extern _PTimerInit:near
  82  0001              extern _PWMSeter:near
  82  0001              extern _S_READ_ADC:near
  82  0001              extern _builtin_holtek_mant1:byte
  82  0001              extern _builtin_holtek_mant12p:byte
  82  0001              extern _builtin_holtek_signs:byte
  82  0001              extern _builtin_holtek_uitod:near
  82  0001              extern _builtin_holtek_mant2:byte
  82  0001              extern _builtin_holtek_dtdiv:near
  82  0001              extern _builtin_holtek_dtmul:near
  82  0001              extern _temperature_2:byte
  82  0001              extern _temperature:near
  82  0001              extern _builtin_holtek_uitof:near
  82  0001              extern _builtin_holtek_ftdiv:near
  82  0001              extern _builtin_holtek_ftmul:near
  82  0001              extern _builtin_holtek_ftsub:near
  82  0001              extern _builtin_holtek_dtsub:near
  82  0001              extern _builtin_holtek_dtadd:near
  82  0001              extern _builtin_holtek_dtol:near
  82  0001              extern _builtin_holtek_ftol:near
  82  0001              extern _shwoSegment_2:byte
  82  0001              extern _shwoSegment:near
  82  0001              
  82  0001              ; 
  82  0001              ; Generated by holtek-gcc v3.19, Sun Sep 24 15:40:40 2023
  82  0001              ; Rebuild 718
"File: co.c          Assembler  Version HGASM0202      Page 25

  82  0001              ; end of file


        0 Errors, 0