"File: SevenSegment3DigitComplex.c  Assembler  Version HGASM0202      Page 1


   1  0000              ; Generated by holtek-gcc v3.19, Mon Sep 25 19:05:38 2023
   2  0000              ; 
   3  0000              ; Configuration:
   4  0000              ;       with long instruction
   5  0000              ;       Single ROM, Multi-RAM
   6  0000              ;       bits_per_rom_unit:16
   7  0000              ;       with mp1
   8  0000              ;       with tbhp, address(0x9)
   9  0000              ;          Use tabrd-const
  10  0000              ;       
  11  0000              ; SFR address of long-instruction arch:
  12  0000              ;    mp0 = -1,1,0
  13  0000              ;    mp1 = 4,3,2
  14  0000              ;    mp2 = 14,13,12
  15  0000              ;    tbp = 9,7,8
  16  0000              ;    acc = 5
  17  0000              ;    pcl = 6
  18  0000              ;    status = 10
  19  0000              ;    bp = 11
  20  0000              ;    intc = 72
  21  0000              ;       
  22  0000              ;       
  23  0000              ; use 'tabrdc' instead of 'tabrd'
  24  0000              ;       
  25  0000              
  26  0000              #pragma translator "holtek-gcc 4.6.4" "3.19" "build 20130711"
  27  0000              ; Rebuild 718
  28  0000              
  29  0000              ir equ [2]
  30  0000              mp equ [3]
  31  0000              sbp equ [4]
  32  0000              acc equ [5]
  33  0000              bp equ [11]
  34  0000              tblp equ [7]
  35  0000              tbhp equ [9]
  36  0000              status equ [10]
  37  0000              c equ [10].0
  38  0000              ac equ [10].1
  39  0000              z equ [10].2
  40  0000              ov equ [10].3
  41  0000              cz equ [10].6
  42  0000              sc equ [10].7
  43  0000              intc equ [72]
  44  0000              
  45  0000              extern ra:byte
  46  0000              extern rb:byte
  47  0000              extern rc:byte
  48  0000              extern rd:byte
  49  0000              extern re:byte
  50  0000              extern rf:byte
  51  0000              extern rg:byte
  52  0000              extern rh:byte
  53  0000              extern _Crom2Prom:near
  54  0000              extern _Crom2PromNext:near
  55  0000              
  56  0000              RAMBANK 0 @BITDATASEC, @BITDATASEC1
  57  0000              @HCCINIT	.section 'data'
  58  0000              @HCCINIT0	.section 'data'
  59  0000              @BITDATASEC	 .section 'data'
"File: SevenSegment3DigitComplex.ASM  Assembler  Version HGASM0202      Page 2

  60  0000              @BITDATASEC1	 .section 'data'
  61  0000              
  62  0000              #pragma debug scope 1 1
  63  0000              	extern __DELAY3:near
  64  0000              	extern __DELAYX3:near
  65  0000              	extern __DELAYX6:near
  66  0000              	extern __DELAYY5:near
  67  0000              	extern __DELAYY3:near
  68  0000              	extern _builtin_holtek_delay_2:byte
  69  0000              ___pbc equ [25]
  70  0000              ___pac equ [21]
  71  0000              ___pb equ [24]
  72  0000              ___pa equ [20]
  73  0000              public _oneDigit1
  74  0000              #pragma debug scope 2 1

 200  0000              #line 200 "c:\users\tech\desktop\codetector\sevenSegment3DigitComplex\SevenSegment3DigitComplex.c"
 200  0000              _oneDigit1 .section 'code'
 200  0000              _oneDigit1 proc
 205  0000              #line 205 "c:\users\tech\desktop\codetector\sevenSegment3DigitComplex\SevenSegment3DigitComplex.c"
 205  0000  3519        	clr [25].2
 206  0001              #line 206 "c:\users\tech\desktop\codetector\sevenSegment3DigitComplex\SevenSegment3DigitComplex.c"
 206  0001  3615        	clr [21].4
 207  0002              #line 207 "c:\users\tech\desktop\codetector\sevenSegment3DigitComplex\SevenSegment3DigitComplex.c"
 207  0002  3415        	clr [21].0
 208  0003              #line 208 "c:\users\tech\desktop\codetector\sevenSegment3DigitComplex\SevenSegment3DigitComplex.c"
 208  0003  3518        	clr [24].2
 209  0004              #line 209 "c:\users\tech\desktop\codetector\sevenSegment3DigitComplex\SevenSegment3DigitComplex.c"
 209  0004  3214        	set [20].4
 210  0005              #line 210 "c:\users\tech\desktop\codetector\sevenSegment3DigitComplex\SevenSegment3DigitComplex.c"
 210  0005  3014        	set [20].0
 211  0006              #line 211 "c:\users\tech\desktop\codetector\sevenSegment3DigitComplex\SevenSegment3DigitComplex.c"
 211  0006              ;# 211 "c:\users\tech\desktop\codetector\sevenSegment3DigitComplex\SevenSegment3DigitComplex.c" 1
 211  0006              	IF 1000>263690
 211  0006              ;# 211 "c:\users\tech\desktop\codetector\sevenSegment3DigitComplex\SevenSegment3DigitComplex.c" 1
 211  0006              	ERRMESSAGE 'the value 1000of the argument exceeds the maxinum 263690'
 211  0006              	ENDIF
 211  0006              ;# 211 "c:\users\tech\desktop\codetector\sevenSegment3DigitComplex\SevenSegment3DigitComplex.c" 1
 211  0006              	IF 1000<0
 211  0006              ;# 211 "c:\users\tech\desktop\codetector\sevenSegment3DigitComplex\SevenSegment3DigitComplex.c" 1
 211  0006              	ERRMESSAGE 'the value 1000 of the argument exceeds the mininum 0'
 211  0006              	ENDIF
 211  0006              ;# 211 "c:\users\tech\desktop\codetector\sevenSegment3DigitComplex\SevenSegment3DigitComplex.c" 1
 211  0006              	IF 1000==0
 211  0006              ;# 211 "c:\users\tech\desktop\codetector\sevenSegment3DigitComplex\SevenSegment3DigitComplex.c" 1
 211  0006              	JMP $
 211  0006              	ENDIF
 211  0006              ;# 211 "c:\users\tech\desktop\codetector\sevenSegment3DigitComplex\SevenSegment3DigitComplex.c" 1
 211  0006              	IF 1000==1
 211  0006              ;# 211 "c:\users\tech\desktop\codetector\sevenSegment3DigitComplex\SevenSegment3DigitComplex.c" 1
 211  0006              	NOP
 211  0006              	ENDIF
 211  0006              ;# 211 "c:\users\tech\desktop\codetector\sevenSegment3DigitComplex\SevenSegment3DigitComplex.c" 1
 211  0006              	IF 1000==2
 211  0006              ;# 211 "c:\users\tech\desktop\codetector\sevenSegment3DigitComplex\SevenSegment3DigitComplex.c" 1
 211  0006              	NOP
 211  0006              ;# 211 "c:\users\tech\desktop\codetector\sevenSegment3DigitComplex\SevenSegment3DigitComplex.c" 1
 211  0006              	NOP
 211  0006              	ENDIF
 211  0006              ;# 211 "c:\users\tech\desktop\codetector\sevenSegment3DigitComplex\SevenSegment3DigitComplex.c" 1
"File: SevenSegment3DigitComplex.c  Assembler  Version HGASM0202      Page 3

 211  0006              	IF 1000==3
 211  0006              ;# 211 "c:\users\tech\desktop\codetector\sevenSegment3DigitComplex\SevenSegment3DigitComplex.c" 1
 211  0006              	NOP
 211  0006              ;# 211 "c:\users\tech\desktop\codetector\sevenSegment3DigitComplex\SevenSegment3DigitComplex.c" 1
 211  0006              	NOP
 211  0006              ;# 211 "c:\users\tech\desktop\codetector\sevenSegment3DigitComplex\SevenSegment3DigitComplex.c" 1
 211  0006              	NOP
 211  0006              	ENDIF
 211  0006              ;# 211 "c:\users\tech\desktop\codetector\sevenSegment3DigitComplex\SevenSegment3DigitComplex.c" 1
 211  0006              	IF (1000<8) AND (1000>3)
 211  0006              ;# 211 "c:\users\tech\desktop\codetector\sevenSegment3DigitComplex\SevenSegment3DigitComplex.c" 1
 211  0006              	CALL __DELAY3 + 7 -1000
 211  0006              	ENDIF
 211  0006              ;# 211 "c:\users\tech\desktop\codetector\sevenSegment3DigitComplex\SevenSegment3DigitComplex.c" 1
 211  0006              	IF (1000< 0404h) AND (1000>7)
 211  0006              ;# 211 "c:\users\tech\desktop\codetector\sevenSegment3DigitComplex\SevenSegment3DigitComplex.c" 1
 211  0006  0FF9        	MOV A,1000/4-1
 211  0007              ;# 211 "c:\users\tech\desktop\codetector\sevenSegment3DigitComplex\SevenSegment3DigitComplex.c" 1
 211  0007  2000     E  	CALL __DELAYX3 + 3 -(1000 MOD 4)
 211  0008              	ENDIF
 211  0008              ;# 211 "c:\users\tech\desktop\codetector\sevenSegment3DigitComplex\SevenSegment3DigitComplex.c" 1
 211  0008              	IF (1000< 0x40B) AND (1000> 0403h)
 211  0008              ;# 211 "c:\users\tech\desktop\codetector\sevenSegment3DigitComplex\SevenSegment3DigitComplex.c" 1
 211  0008              	MOV A,0 
 211  0008              ;# 211 "c:\users\tech\desktop\codetector\sevenSegment3DigitComplex\SevenSegment3DigitComplex.c" 1
 211  0008              	CALL __DELAYX6 + 0x40a -1000
 211  0008              	ENDIF
 211  0008              ;# 211 "c:\users\tech\desktop\codetector\sevenSegment3DigitComplex\SevenSegment3DigitComplex.c" 1
 211  0008              	IF (1000 >= 0x40b) AND ((((1000-9)%0402h)/4+1)>256)
 211  0008              ;# 211 "c:\users\tech\desktop\codetector\sevenSegment3DigitComplex\SevenSegment3DigitComplex.c" 1
 211  0008              	MOV A,(1000-9)/0402h
 211  0008              ;# 211 "c:\users\tech\desktop\codetector\sevenSegment3DigitComplex\SevenSegment3DigitComplex.c" 1
 211  0008              	MOV _builtin_holtek_delay_2,A
 211  0008              ;# 211 "c:\users\tech\desktop\codetector\sevenSegment3DigitComplex\SevenSegment3DigitComplex.c" 1
 211  0008              	MOV A,0
 211  0008              ;# 211 "c:\users\tech\desktop\codetector\sevenSegment3DigitComplex\SevenSegment3DigitComplex.c" 1
 211  0008              	CALL __DELAYY5 +5- (((1000-9)%0402h)%6)
 211  0008              	ENDIF
 211  0008              ;# 211 "c:\users\tech\desktop\codetector\sevenSegment3DigitComplex\SevenSegment3DigitComplex.c" 1
 211  0008              	IF (1000 >= 0x40b) AND ((((1000-9)%0402h)/4+1)<=256)
 211  0008              ;# 211 "c:\users\tech\desktop\codetector\sevenSegment3DigitComplex\SevenSegment3DigitComplex.c" 1
 211  0008              	MOV A,(1000-9)/0402h
 211  0008              ;# 211 "c:\users\tech\desktop\codetector\sevenSegment3DigitComplex\SevenSegment3DigitComplex.c" 1
 211  0008              	MOV _builtin_holtek_delay_2,A
 211  0008              ;# 211 "c:\users\tech\desktop\codetector\sevenSegment3DigitComplex\SevenSegment3DigitComplex.c" 1
 211  0008              	MOV A,((1000-9)%0402h)/4+1
 211  0008              ;# 211 "c:\users\tech\desktop\codetector\sevenSegment3DigitComplex\SevenSegment3DigitComplex.c" 1
 211  0008              	CALL __DELAYY3 +3-(((1000-9)%0402h)%4)
 211  0008              	ENDIF
 211  0008  0003        	ret
 211  0009              _oneDigit1 endp
 211  0009              #line 211 "c:\users\tech\desktop\codetector\sevenSegment3DigitComplex\SevenSegment3DigitComplex.c"
 211  0009              #pragma debug scope 1 1
 211  0009              public _oneDigit2
 211  0009              #pragma debug scope 3 1
 213  0009              #line 213 "c:\users\tech\desktop\codetector\sevenSegment3DigitComplex\SevenSegment3DigitComplex.c"
 213  0000              _oneDigit2 .section 'code'
 213  0000              _oneDigit2 proc
 216  0000              #line 216 "c:\users\tech\desktop\codetector\sevenSegment3DigitComplex\SevenSegment3DigitComplex.c"
 216  0000  3519        	clr [25].2
"File: SevenSegment3DigitComplex.c  Assembler  Version HGASM0202      Page 4

 217  0001              #line 217 "c:\users\tech\desktop\codetector\sevenSegment3DigitComplex\SevenSegment3DigitComplex.c"
 217  0001  3615        	clr [21].4
 218  0002              #line 218 "c:\users\tech\desktop\codetector\sevenSegment3DigitComplex\SevenSegment3DigitComplex.c"
 218  0002  3415        	clr [21].0
 219  0003              #line 219 "c:\users\tech\desktop\codetector\sevenSegment3DigitComplex\SevenSegment3DigitComplex.c"
 219  0003  3118        	set [24].2
 220  0004              #line 220 "c:\users\tech\desktop\codetector\sevenSegment3DigitComplex\SevenSegment3DigitComplex.c"
 220  0004  3614        	clr [20].4
 221  0005              #line 221 "c:\users\tech\desktop\codetector\sevenSegment3DigitComplex\SevenSegment3DigitComplex.c"
 221  0005  3414        	clr [20].0
 222  0006              #line 222 "c:\users\tech\desktop\codetector\sevenSegment3DigitComplex\SevenSegment3DigitComplex.c"
 222  0006              ;# 222 "c:\users\tech\desktop\codetector\sevenSegment3DigitComplex\SevenSegment3DigitComplex.c" 1
 222  0006              	IF 1000>263690
 222  0006              ;# 222 "c:\users\tech\desktop\codetector\sevenSegment3DigitComplex\SevenSegment3DigitComplex.c" 1
 222  0006              	ERRMESSAGE 'the value 1000of the argument exceeds the maxinum 263690'
 222  0006              	ENDIF
 222  0006              ;# 222 "c:\users\tech\desktop\codetector\sevenSegment3DigitComplex\SevenSegment3DigitComplex.c" 1
 222  0006              	IF 1000<0
 222  0006              ;# 222 "c:\users\tech\desktop\codetector\sevenSegment3DigitComplex\SevenSegment3DigitComplex.c" 1
 222  0006              	ERRMESSAGE 'the value 1000 of the argument exceeds the mininum 0'
 222  0006              	ENDIF
 222  0006              ;# 222 "c:\users\tech\desktop\codetector\sevenSegment3DigitComplex\SevenSegment3DigitComplex.c" 1
 222  0006              	IF 1000==0
 222  0006              ;# 222 "c:\users\tech\desktop\codetector\sevenSegment3DigitComplex\SevenSegment3DigitComplex.c" 1
 222  0006              	JMP $
 222  0006              	ENDIF
 222  0006              ;# 222 "c:\users\tech\desktop\codetector\sevenSegment3DigitComplex\SevenSegment3DigitComplex.c" 1
 222  0006              	IF 1000==1
 222  0006              ;# 222 "c:\users\tech\desktop\codetector\sevenSegment3DigitComplex\SevenSegment3DigitComplex.c" 1
 222  0006              	NOP
 222  0006              	ENDIF
 222  0006              ;# 222 "c:\users\tech\desktop\codetector\sevenSegment3DigitComplex\SevenSegment3DigitComplex.c" 1
 222  0006              	IF 1000==2
 222  0006              ;# 222 "c:\users\tech\desktop\codetector\sevenSegment3DigitComplex\SevenSegment3DigitComplex.c" 1
 222  0006              	NOP
 222  0006              ;# 222 "c:\users\tech\desktop\codetector\sevenSegment3DigitComplex\SevenSegment3DigitComplex.c" 1
 222  0006              	NOP
 222  0006              	ENDIF
 222  0006              ;# 222 "c:\users\tech\desktop\codetector\sevenSegment3DigitComplex\SevenSegment3DigitComplex.c" 1
 222  0006              	IF 1000==3
 222  0006              ;# 222 "c:\users\tech\desktop\codetector\sevenSegment3DigitComplex\SevenSegment3DigitComplex.c" 1
 222  0006              	NOP
 222  0006              ;# 222 "c:\users\tech\desktop\codetector\sevenSegment3DigitComplex\SevenSegment3DigitComplex.c" 1
 222  0006              	NOP
 222  0006              ;# 222 "c:\users\tech\desktop\codetector\sevenSegment3DigitComplex\SevenSegment3DigitComplex.c" 1
 222  0006              	NOP
 222  0006              	ENDIF
 222  0006              ;# 222 "c:\users\tech\desktop\codetector\sevenSegment3DigitComplex\SevenSegment3DigitComplex.c" 1
 222  0006              	IF (1000<8) AND (1000>3)
 222  0006              ;# 222 "c:\users\tech\desktop\codetector\sevenSegment3DigitComplex\SevenSegment3DigitComplex.c" 1
 222  0006              	CALL __DELAY3 + 7 -1000
 222  0006              	ENDIF
 222  0006              ;# 222 "c:\users\tech\desktop\codetector\sevenSegment3DigitComplex\SevenSegment3DigitComplex.c" 1
 222  0006              	IF (1000< 0404h) AND (1000>7)
 222  0006              ;# 222 "c:\users\tech\desktop\codetector\sevenSegment3DigitComplex\SevenSegment3DigitComplex.c" 1
 222  0006  0FF9        	MOV A,1000/4-1
 222  0007              ;# 222 "c:\users\tech\desktop\codetector\sevenSegment3DigitComplex\SevenSegment3DigitComplex.c" 1
 222  0007  2000     E  	CALL __DELAYX3 + 3 -(1000 MOD 4)
 222  0008              	ENDIF
 222  0008              ;# 222 "c:\users\tech\desktop\codetector\sevenSegment3DigitComplex\SevenSegment3DigitComplex.c" 1
"File: SevenSegment3DigitComplex.c  Assembler  Version HGASM0202      Page 5

 222  0008              	IF (1000< 0x40B) AND (1000> 0403h)
 222  0008              ;# 222 "c:\users\tech\desktop\codetector\sevenSegment3DigitComplex\SevenSegment3DigitComplex.c" 1
 222  0008              	MOV A,0 
 222  0008              ;# 222 "c:\users\tech\desktop\codetector\sevenSegment3DigitComplex\SevenSegment3DigitComplex.c" 1
 222  0008              	CALL __DELAYX6 + 0x40a -1000
 222  0008              	ENDIF
 222  0008              ;# 222 "c:\users\tech\desktop\codetector\sevenSegment3DigitComplex\SevenSegment3DigitComplex.c" 1
 222  0008              	IF (1000 >= 0x40b) AND ((((1000-9)%0402h)/4+1)>256)
 222  0008              ;# 222 "c:\users\tech\desktop\codetector\sevenSegment3DigitComplex\SevenSegment3DigitComplex.c" 1
 222  0008              	MOV A,(1000-9)/0402h
 222  0008              ;# 222 "c:\users\tech\desktop\codetector\sevenSegment3DigitComplex\SevenSegment3DigitComplex.c" 1
 222  0008              	MOV _builtin_holtek_delay_2,A
 222  0008              ;# 222 "c:\users\tech\desktop\codetector\sevenSegment3DigitComplex\SevenSegment3DigitComplex.c" 1
 222  0008              	MOV A,0
 222  0008              ;# 222 "c:\users\tech\desktop\codetector\sevenSegment3DigitComplex\SevenSegment3DigitComplex.c" 1
 222  0008              	CALL __DELAYY5 +5- (((1000-9)%0402h)%6)
 222  0008              	ENDIF
 222  0008              ;# 222 "c:\users\tech\desktop\codetector\sevenSegment3DigitComplex\SevenSegment3DigitComplex.c" 1
 222  0008              	IF (1000 >= 0x40b) AND ((((1000-9)%0402h)/4+1)<=256)
 222  0008              ;# 222 "c:\users\tech\desktop\codetector\sevenSegment3DigitComplex\SevenSegment3DigitComplex.c" 1
 222  0008              	MOV A,(1000-9)/0402h
 222  0008              ;# 222 "c:\users\tech\desktop\codetector\sevenSegment3DigitComplex\SevenSegment3DigitComplex.c" 1
 222  0008              	MOV _builtin_holtek_delay_2,A
 222  0008              ;# 222 "c:\users\tech\desktop\codetector\sevenSegment3DigitComplex\SevenSegment3DigitComplex.c" 1
 222  0008              	MOV A,((1000-9)%0402h)/4+1
 222  0008              ;# 222 "c:\users\tech\desktop\codetector\sevenSegment3DigitComplex\SevenSegment3DigitComplex.c" 1
 222  0008              	CALL __DELAYY3 +3-(((1000-9)%0402h)%4)
 222  0008              	ENDIF
 222  0008  0003        	ret
 222  0009              _oneDigit2 endp
 222  0009              #line 222 "c:\users\tech\desktop\codetector\sevenSegment3DigitComplex\SevenSegment3DigitComplex.c"
 222  0009              #pragma debug scope 1 1
 222  0009              public _sevenDigit1
 222  0009              #pragma debug scope 4 1
 625  0009              #line 625 "c:\users\tech\desktop\codetector\sevenSegment3DigitComplex\SevenSegment3DigitComplex.c"
 625  0000              _sevenDigit1 .section 'code'
 625  0000              _sevenDigit1 proc
 628  0000              #line 628 "c:\users\tech\desktop\codetector\sevenSegment3DigitComplex\SevenSegment3DigitComplex.c"
 628  0000  3499        	clr [25].1
 629  0001              #line 629 "c:\users\tech\desktop\codetector\sevenSegment3DigitComplex\SevenSegment3DigitComplex.c"
 629  0001  3519        	clr [25].2
 630  0002              #line 630 "c:\users\tech\desktop\codetector\sevenSegment3DigitComplex\SevenSegment3DigitComplex.c"
 630  0002  3615        	clr [21].4
 631  0003              #line 631 "c:\users\tech\desktop\codetector\sevenSegment3DigitComplex\SevenSegment3DigitComplex.c"
 631  0003  3415        	clr [21].0
 632  0004              #line 632 "c:\users\tech\desktop\codetector\sevenSegment3DigitComplex\SevenSegment3DigitComplex.c"
 632  0004  3518        	clr [24].2
 633  0005              #line 633 "c:\users\tech\desktop\codetector\sevenSegment3DigitComplex\SevenSegment3DigitComplex.c"
 633  0005  3098        	set [24].1
 634  0006              #line 634 "c:\users\tech\desktop\codetector\sevenSegment3DigitComplex\SevenSegment3DigitComplex.c"
 634  0006  3214        	set [20].4
 635  0007              #line 635 "c:\users\tech\desktop\codetector\sevenSegment3DigitComplex\SevenSegment3DigitComplex.c"
 635  0007  3014        	set [20].0
 636  0008              #line 636 "c:\users\tech\desktop\codetector\sevenSegment3DigitComplex\SevenSegment3DigitComplex.c"
 636  0008              ;# 636 "c:\users\tech\desktop\codetector\sevenSegment3DigitComplex\SevenSegment3DigitComplex.c" 1
 636  0008              	IF 1000>263690
 636  0008              ;# 636 "c:\users\tech\desktop\codetector\sevenSegment3DigitComplex\SevenSegment3DigitComplex.c" 1
 636  0008              	ERRMESSAGE 'the value 1000of the argument exceeds the maxinum 263690'
 636  0008              	ENDIF
 636  0008              ;# 636 "c:\users\tech\desktop\codetector\sevenSegment3DigitComplex\SevenSegment3DigitComplex.c" 1
"File: SevenSegment3DigitComplex.c  Assembler  Version HGASM0202      Page 6

 636  0008              	IF 1000<0
 636  0008              ;# 636 "c:\users\tech\desktop\codetector\sevenSegment3DigitComplex\SevenSegment3DigitComplex.c" 1
 636  0008              	ERRMESSAGE 'the value 1000 of the argument exceeds the mininum 0'
 636  0008              	ENDIF
 636  0008              ;# 636 "c:\users\tech\desktop\codetector\sevenSegment3DigitComplex\SevenSegment3DigitComplex.c" 1
 636  0008              	IF 1000==0
 636  0008              ;# 636 "c:\users\tech\desktop\codetector\sevenSegment3DigitComplex\SevenSegment3DigitComplex.c" 1
 636  0008              	JMP $
 636  0008              	ENDIF
 636  0008              ;# 636 "c:\users\tech\desktop\codetector\sevenSegment3DigitComplex\SevenSegment3DigitComplex.c" 1
 636  0008              	IF 1000==1
 636  0008              ;# 636 "c:\users\tech\desktop\codetector\sevenSegment3DigitComplex\SevenSegment3DigitComplex.c" 1
 636  0008              	NOP
 636  0008              	ENDIF
 636  0008              ;# 636 "c:\users\tech\desktop\codetector\sevenSegment3DigitComplex\SevenSegment3DigitComplex.c" 1
 636  0008              	IF 1000==2
 636  0008              ;# 636 "c:\users\tech\desktop\codetector\sevenSegment3DigitComplex\SevenSegment3DigitComplex.c" 1
 636  0008              	NOP
 636  0008              ;# 636 "c:\users\tech\desktop\codetector\sevenSegment3DigitComplex\SevenSegment3DigitComplex.c" 1
 636  0008              	NOP
 636  0008              	ENDIF
 636  0008              ;# 636 "c:\users\tech\desktop\codetector\sevenSegment3DigitComplex\SevenSegment3DigitComplex.c" 1
 636  0008              	IF 1000==3
 636  0008              ;# 636 "c:\users\tech\desktop\codetector\sevenSegment3DigitComplex\SevenSegment3DigitComplex.c" 1
 636  0008              	NOP
 636  0008              ;# 636 "c:\users\tech\desktop\codetector\sevenSegment3DigitComplex\SevenSegment3DigitComplex.c" 1
 636  0008              	NOP
 636  0008              ;# 636 "c:\users\tech\desktop\codetector\sevenSegment3DigitComplex\SevenSegment3DigitComplex.c" 1
 636  0008              	NOP
 636  0008              	ENDIF
 636  0008              ;# 636 "c:\users\tech\desktop\codetector\sevenSegment3DigitComplex\SevenSegment3DigitComplex.c" 1
 636  0008              	IF (1000<8) AND (1000>3)
 636  0008              ;# 636 "c:\users\tech\desktop\codetector\sevenSegment3DigitComplex\SevenSegment3DigitComplex.c" 1
 636  0008              	CALL __DELAY3 + 7 -1000
 636  0008              	ENDIF
 636  0008              ;# 636 "c:\users\tech\desktop\codetector\sevenSegment3DigitComplex\SevenSegment3DigitComplex.c" 1
 636  0008              	IF (1000< 0404h) AND (1000>7)
 636  0008              ;# 636 "c:\users\tech\desktop\codetector\sevenSegment3DigitComplex\SevenSegment3DigitComplex.c" 1
 636  0008  0FF9        	MOV A,1000/4-1
 636  0009              ;# 636 "c:\users\tech\desktop\codetector\sevenSegment3DigitComplex\SevenSegment3DigitComplex.c" 1
 636  0009  2000     E  	CALL __DELAYX3 + 3 -(1000 MOD 4)
 636  000A              	ENDIF
 636  000A              ;# 636 "c:\users\tech\desktop\codetector\sevenSegment3DigitComplex\SevenSegment3DigitComplex.c" 1
 636  000A              	IF (1000< 0x40B) AND (1000> 0403h)
 636  000A              ;# 636 "c:\users\tech\desktop\codetector\sevenSegment3DigitComplex\SevenSegment3DigitComplex.c" 1
 636  000A              	MOV A,0 
 636  000A              ;# 636 "c:\users\tech\desktop\codetector\sevenSegment3DigitComplex\SevenSegment3DigitComplex.c" 1
 636  000A              	CALL __DELAYX6 + 0x40a -1000
 636  000A              	ENDIF
 636  000A              ;# 636 "c:\users\tech\desktop\codetector\sevenSegment3DigitComplex\SevenSegment3DigitComplex.c" 1
 636  000A              	IF (1000 >= 0x40b) AND ((((1000-9)%0402h)/4+1)>256)
 636  000A              ;# 636 "c:\users\tech\desktop\codetector\sevenSegment3DigitComplex\SevenSegment3DigitComplex.c" 1
 636  000A              	MOV A,(1000-9)/0402h
 636  000A              ;# 636 "c:\users\tech\desktop\codetector\sevenSegment3DigitComplex\SevenSegment3DigitComplex.c" 1
 636  000A              	MOV _builtin_holtek_delay_2,A
 636  000A              ;# 636 "c:\users\tech\desktop\codetector\sevenSegment3DigitComplex\SevenSegment3DigitComplex.c" 1
 636  000A              	MOV A,0
 636  000A              ;# 636 "c:\users\tech\desktop\codetector\sevenSegment3DigitComplex\SevenSegment3DigitComplex.c" 1
 636  000A              	CALL __DELAYY5 +5- (((1000-9)%0402h)%6)
 636  000A              	ENDIF
"File: SevenSegment3DigitComplex.c  Assembler  Version HGASM0202      Page 7

 636  000A              ;# 636 "c:\users\tech\desktop\codetector\sevenSegment3DigitComplex\SevenSegment3DigitComplex.c" 1
 636  000A              	IF (1000 >= 0x40b) AND ((((1000-9)%0402h)/4+1)<=256)
 636  000A              ;# 636 "c:\users\tech\desktop\codetector\sevenSegment3DigitComplex\SevenSegment3DigitComplex.c" 1
 636  000A              	MOV A,(1000-9)/0402h
 636  000A              ;# 636 "c:\users\tech\desktop\codetector\sevenSegment3DigitComplex\SevenSegment3DigitComplex.c" 1
 636  000A              	MOV _builtin_holtek_delay_2,A
 636  000A              ;# 636 "c:\users\tech\desktop\codetector\sevenSegment3DigitComplex\SevenSegment3DigitComplex.c" 1
 636  000A              	MOV A,((1000-9)%0402h)/4+1
 636  000A              ;# 636 "c:\users\tech\desktop\codetector\sevenSegment3DigitComplex\SevenSegment3DigitComplex.c" 1
 636  000A              	CALL __DELAYY3 +3-(((1000-9)%0402h)%4)
 636  000A              	ENDIF
 636  000A  0003        	ret
 636  000B              _sevenDigit1 endp
 636  000B              #line 636 "c:\users\tech\desktop\codetector\sevenSegment3DigitComplex\SevenSegment3DigitComplex.c"
 636  000B              #pragma debug scope 1 1
 636  000B              public _sevenDigit2
 636  000B              #pragma debug scope 5 1
 640  000B              #line 640 "c:\users\tech\desktop\codetector\sevenSegment3DigitComplex\SevenSegment3DigitComplex.c"
 640  0000              _sevenDigit2 .section 'code'
 640  0000              _sevenDigit2 proc
 644  0000              #line 644 "c:\users\tech\desktop\codetector\sevenSegment3DigitComplex\SevenSegment3DigitComplex.c"
 644  0000  3519        	clr [25].2
 645  0001              #line 645 "c:\users\tech\desktop\codetector\sevenSegment3DigitComplex\SevenSegment3DigitComplex.c"
 645  0001  3499        	clr [25].1
 646  0002              #line 646 "c:\users\tech\desktop\codetector\sevenSegment3DigitComplex\SevenSegment3DigitComplex.c"
 646  0002  3615        	clr [21].4
 647  0003              #line 647 "c:\users\tech\desktop\codetector\sevenSegment3DigitComplex\SevenSegment3DigitComplex.c"
 647  0003  3415        	clr [21].0
 649  0004              #line 649 "c:\users\tech\desktop\codetector\sevenSegment3DigitComplex\SevenSegment3DigitComplex.c"
 649  0004  3118        	set [24].2
 650  0005              #line 650 "c:\users\tech\desktop\codetector\sevenSegment3DigitComplex\SevenSegment3DigitComplex.c"
 650  0005  3498        	clr [24].1
 651  0006              #line 651 "c:\users\tech\desktop\codetector\sevenSegment3DigitComplex\SevenSegment3DigitComplex.c"
 651  0006  3614        	clr [20].4
 652  0007              #line 652 "c:\users\tech\desktop\codetector\sevenSegment3DigitComplex\SevenSegment3DigitComplex.c"
 652  0007  3414        	clr [20].0
 653  0008              #line 653 "c:\users\tech\desktop\codetector\sevenSegment3DigitComplex\SevenSegment3DigitComplex.c"
 653  0008              ;# 653 "c:\users\tech\desktop\codetector\sevenSegment3DigitComplex\SevenSegment3DigitComplex.c" 1
 653  0008              	IF 1000>263690
 653  0008              ;# 653 "c:\users\tech\desktop\codetector\sevenSegment3DigitComplex\SevenSegment3DigitComplex.c" 1
 653  0008              	ERRMESSAGE 'the value 1000of the argument exceeds the maxinum 263690'
 653  0008              	ENDIF
 653  0008              ;# 653 "c:\users\tech\desktop\codetector\sevenSegment3DigitComplex\SevenSegment3DigitComplex.c" 1
 653  0008              	IF 1000<0
 653  0008              ;# 653 "c:\users\tech\desktop\codetector\sevenSegment3DigitComplex\SevenSegment3DigitComplex.c" 1
 653  0008              	ERRMESSAGE 'the value 1000 of the argument exceeds the mininum 0'
 653  0008              	ENDIF
 653  0008              ;# 653 "c:\users\tech\desktop\codetector\sevenSegment3DigitComplex\SevenSegment3DigitComplex.c" 1
 653  0008              	IF 1000==0
 653  0008              ;# 653 "c:\users\tech\desktop\codetector\sevenSegment3DigitComplex\SevenSegment3DigitComplex.c" 1
 653  0008              	JMP $
 653  0008              	ENDIF
 653  0008              ;# 653 "c:\users\tech\desktop\codetector\sevenSegment3DigitComplex\SevenSegment3DigitComplex.c" 1
 653  0008              	IF 1000==1
 653  0008              ;# 653 "c:\users\tech\desktop\codetector\sevenSegment3DigitComplex\SevenSegment3DigitComplex.c" 1
 653  0008              	NOP
 653  0008              	ENDIF
 653  0008              ;# 653 "c:\users\tech\desktop\codetector\sevenSegment3DigitComplex\SevenSegment3DigitComplex.c" 1
 653  0008              	IF 1000==2
 653  0008              ;# 653 "c:\users\tech\desktop\codetector\sevenSegment3DigitComplex\SevenSegment3DigitComplex.c" 1
"File: SevenSegment3DigitComplex.c  Assembler  Version HGASM0202      Page 8

 653  0008              	NOP
 653  0008              ;# 653 "c:\users\tech\desktop\codetector\sevenSegment3DigitComplex\SevenSegment3DigitComplex.c" 1
 653  0008              	NOP
 653  0008              	ENDIF
 653  0008              ;# 653 "c:\users\tech\desktop\codetector\sevenSegment3DigitComplex\SevenSegment3DigitComplex.c" 1
 653  0008              	IF 1000==3
 653  0008              ;# 653 "c:\users\tech\desktop\codetector\sevenSegment3DigitComplex\SevenSegment3DigitComplex.c" 1
 653  0008              	NOP
 653  0008              ;# 653 "c:\users\tech\desktop\codetector\sevenSegment3DigitComplex\SevenSegment3DigitComplex.c" 1
 653  0008              	NOP
 653  0008              ;# 653 "c:\users\tech\desktop\codetector\sevenSegment3DigitComplex\SevenSegment3DigitComplex.c" 1
 653  0008              	NOP
 653  0008              	ENDIF
 653  0008              ;# 653 "c:\users\tech\desktop\codetector\sevenSegment3DigitComplex\SevenSegment3DigitComplex.c" 1
 653  0008              	IF (1000<8) AND (1000>3)
 653  0008              ;# 653 "c:\users\tech\desktop\codetector\sevenSegment3DigitComplex\SevenSegment3DigitComplex.c" 1
 653  0008              	CALL __DELAY3 + 7 -1000
 653  0008              	ENDIF
 653  0008              ;# 653 "c:\users\tech\desktop\codetector\sevenSegment3DigitComplex\SevenSegment3DigitComplex.c" 1
 653  0008              	IF (1000< 0404h) AND (1000>7)
 653  0008              ;# 653 "c:\users\tech\desktop\codetector\sevenSegment3DigitComplex\SevenSegment3DigitComplex.c" 1
 653  0008  0FF9        	MOV A,1000/4-1
 653  0009              ;# 653 "c:\users\tech\desktop\codetector\sevenSegment3DigitComplex\SevenSegment3DigitComplex.c" 1
 653  0009  2000     E  	CALL __DELAYX3 + 3 -(1000 MOD 4)
 653  000A              	ENDIF
 653  000A              ;# 653 "c:\users\tech\desktop\codetector\sevenSegment3DigitComplex\SevenSegment3DigitComplex.c" 1
 653  000A              	IF (1000< 0x40B) AND (1000> 0403h)
 653  000A              ;# 653 "c:\users\tech\desktop\codetector\sevenSegment3DigitComplex\SevenSegment3DigitComplex.c" 1
 653  000A              	MOV A,0 
 653  000A              ;# 653 "c:\users\tech\desktop\codetector\sevenSegment3DigitComplex\SevenSegment3DigitComplex.c" 1
 653  000A              	CALL __DELAYX6 + 0x40a -1000
 653  000A              	ENDIF
 653  000A              ;# 653 "c:\users\tech\desktop\codetector\sevenSegment3DigitComplex\SevenSegment3DigitComplex.c" 1
 653  000A              	IF (1000 >= 0x40b) AND ((((1000-9)%0402h)/4+1)>256)
 653  000A              ;# 653 "c:\users\tech\desktop\codetector\sevenSegment3DigitComplex\SevenSegment3DigitComplex.c" 1
 653  000A              	MOV A,(1000-9)/0402h
 653  000A              ;# 653 "c:\users\tech\desktop\codetector\sevenSegment3DigitComplex\SevenSegment3DigitComplex.c" 1
 653  000A              	MOV _builtin_holtek_delay_2,A
 653  000A              ;# 653 "c:\users\tech\desktop\codetector\sevenSegment3DigitComplex\SevenSegment3DigitComplex.c" 1
 653  000A              	MOV A,0
 653  000A              ;# 653 "c:\users\tech\desktop\codetector\sevenSegment3DigitComplex\SevenSegment3DigitComplex.c" 1
 653  000A              	CALL __DELAYY5 +5- (((1000-9)%0402h)%6)
 653  000A              	ENDIF
 653  000A              ;# 653 "c:\users\tech\desktop\codetector\sevenSegment3DigitComplex\SevenSegment3DigitComplex.c" 1
 653  000A              	IF (1000 >= 0x40b) AND ((((1000-9)%0402h)/4+1)<=256)
 653  000A              ;# 653 "c:\users\tech\desktop\codetector\sevenSegment3DigitComplex\SevenSegment3DigitComplex.c" 1
 653  000A              	MOV A,(1000-9)/0402h
 653  000A              ;# 653 "c:\users\tech\desktop\codetector\sevenSegment3DigitComplex\SevenSegment3DigitComplex.c" 1
 653  000A              	MOV _builtin_holtek_delay_2,A
 653  000A              ;# 653 "c:\users\tech\desktop\codetector\sevenSegment3DigitComplex\SevenSegment3DigitComplex.c" 1
 653  000A              	MOV A,((1000-9)%0402h)/4+1
 653  000A              ;# 653 "c:\users\tech\desktop\codetector\sevenSegment3DigitComplex\SevenSegment3DigitComplex.c" 1
 653  000A              	CALL __DELAYY3 +3-(((1000-9)%0402h)%4)
 653  000A              	ENDIF
 653  000A  0003        	ret
 653  000B              _sevenDigit2 endp
 653  000B              #line 653 "c:\users\tech\desktop\codetector\sevenSegment3DigitComplex\SevenSegment3DigitComplex.c"
 653  000B              #pragma debug scope 1 1
 653  000B              public _sevenDigit3
 653  000B              #pragma debug scope 6 1
"File: SevenSegment3DigitComplex.c  Assembler  Version HGASM0202      Page 9

 655  000B              #line 655 "c:\users\tech\desktop\codetector\sevenSegment3DigitComplex\SevenSegment3DigitComplex.c"
 655  0000              _sevenDigit3 .section 'code'
 655  0000              _sevenDigit3 proc
 659  0000              #line 659 "c:\users\tech\desktop\codetector\sevenSegment3DigitComplex\SevenSegment3DigitComplex.c"
 659  0000  3499        	clr [25].1
 660  0001              #line 660 "c:\users\tech\desktop\codetector\sevenSegment3DigitComplex\SevenSegment3DigitComplex.c"
 660  0001  3615        	clr [21].4
 661  0002              #line 661 "c:\users\tech\desktop\codetector\sevenSegment3DigitComplex\SevenSegment3DigitComplex.c"
 661  0002  3415        	clr [21].0
 662  0003              #line 662 "c:\users\tech\desktop\codetector\sevenSegment3DigitComplex\SevenSegment3DigitComplex.c"
 662  0003  3515        	clr [21].2
 663  0004              #line 663 "c:\users\tech\desktop\codetector\sevenSegment3DigitComplex\SevenSegment3DigitComplex.c"
 663  0004  3098        	set [24].1
 664  0005              #line 664 "c:\users\tech\desktop\codetector\sevenSegment3DigitComplex\SevenSegment3DigitComplex.c"
 664  0005  3614        	clr [20].4
 665  0006              #line 665 "c:\users\tech\desktop\codetector\sevenSegment3DigitComplex\SevenSegment3DigitComplex.c"
 665  0006  3414        	clr [20].0
 666  0007              #line 666 "c:\users\tech\desktop\codetector\sevenSegment3DigitComplex\SevenSegment3DigitComplex.c"
 666  0007  3514        	clr [20].2
 667  0008              #line 667 "c:\users\tech\desktop\codetector\sevenSegment3DigitComplex\SevenSegment3DigitComplex.c"
 667  0008              ;# 667 "c:\users\tech\desktop\codetector\sevenSegment3DigitComplex\SevenSegment3DigitComplex.c" 1
 667  0008              	IF 1000>263690
 667  0008              ;# 667 "c:\users\tech\desktop\codetector\sevenSegment3DigitComplex\SevenSegment3DigitComplex.c" 1
 667  0008              	ERRMESSAGE 'the value 1000of the argument exceeds the maxinum 263690'
 667  0008              	ENDIF
 667  0008              ;# 667 "c:\users\tech\desktop\codetector\sevenSegment3DigitComplex\SevenSegment3DigitComplex.c" 1
 667  0008              	IF 1000<0
 667  0008              ;# 667 "c:\users\tech\desktop\codetector\sevenSegment3DigitComplex\SevenSegment3DigitComplex.c" 1
 667  0008              	ERRMESSAGE 'the value 1000 of the argument exceeds the mininum 0'
 667  0008              	ENDIF
 667  0008              ;# 667 "c:\users\tech\desktop\codetector\sevenSegment3DigitComplex\SevenSegment3DigitComplex.c" 1
 667  0008              	IF 1000==0
 667  0008              ;# 667 "c:\users\tech\desktop\codetector\sevenSegment3DigitComplex\SevenSegment3DigitComplex.c" 1
 667  0008              	JMP $
 667  0008              	ENDIF
 667  0008              ;# 667 "c:\users\tech\desktop\codetector\sevenSegment3DigitComplex\SevenSegment3DigitComplex.c" 1
 667  0008              	IF 1000==1
 667  0008              ;# 667 "c:\users\tech\desktop\codetector\sevenSegment3DigitComplex\SevenSegment3DigitComplex.c" 1
 667  0008              	NOP
 667  0008              	ENDIF
 667  0008              ;# 667 "c:\users\tech\desktop\codetector\sevenSegment3DigitComplex\SevenSegment3DigitComplex.c" 1
 667  0008              	IF 1000==2
 667  0008              ;# 667 "c:\users\tech\desktop\codetector\sevenSegment3DigitComplex\SevenSegment3DigitComplex.c" 1
 667  0008              	NOP
 667  0008              ;# 667 "c:\users\tech\desktop\codetector\sevenSegment3DigitComplex\SevenSegment3DigitComplex.c" 1
 667  0008              	NOP
 667  0008              	ENDIF
 667  0008              ;# 667 "c:\users\tech\desktop\codetector\sevenSegment3DigitComplex\SevenSegment3DigitComplex.c" 1
 667  0008              	IF 1000==3
 667  0008              ;# 667 "c:\users\tech\desktop\codetector\sevenSegment3DigitComplex\SevenSegment3DigitComplex.c" 1
 667  0008              	NOP
 667  0008              ;# 667 "c:\users\tech\desktop\codetector\sevenSegment3DigitComplex\SevenSegment3DigitComplex.c" 1
 667  0008              	NOP
 667  0008              ;# 667 "c:\users\tech\desktop\codetector\sevenSegment3DigitComplex\SevenSegment3DigitComplex.c" 1
 667  0008              	NOP
 667  0008              	ENDIF
 667  0008              ;# 667 "c:\users\tech\desktop\codetector\sevenSegment3DigitComplex\SevenSegment3DigitComplex.c" 1
 667  0008              	IF (1000<8) AND (1000>3)
 667  0008              ;# 667 "c:\users\tech\desktop\codetector\sevenSegment3DigitComplex\SevenSegment3DigitComplex.c" 1
 667  0008              	CALL __DELAY3 + 7 -1000
"File: SevenSegment3DigitComplex.c  Assembler  Version HGASM0202      Page 10

 667  0008              	ENDIF
 667  0008              ;# 667 "c:\users\tech\desktop\codetector\sevenSegment3DigitComplex\SevenSegment3DigitComplex.c" 1
 667  0008              	IF (1000< 0404h) AND (1000>7)
 667  0008              ;# 667 "c:\users\tech\desktop\codetector\sevenSegment3DigitComplex\SevenSegment3DigitComplex.c" 1
 667  0008  0FF9        	MOV A,1000/4-1
 667  0009              ;# 667 "c:\users\tech\desktop\codetector\sevenSegment3DigitComplex\SevenSegment3DigitComplex.c" 1
 667  0009  2000     E  	CALL __DELAYX3 + 3 -(1000 MOD 4)
 667  000A              	ENDIF
 667  000A              ;# 667 "c:\users\tech\desktop\codetector\sevenSegment3DigitComplex\SevenSegment3DigitComplex.c" 1
 667  000A              	IF (1000< 0x40B) AND (1000> 0403h)
 667  000A              ;# 667 "c:\users\tech\desktop\codetector\sevenSegment3DigitComplex\SevenSegment3DigitComplex.c" 1
 667  000A              	MOV A,0 
 667  000A              ;# 667 "c:\users\tech\desktop\codetector\sevenSegment3DigitComplex\SevenSegment3DigitComplex.c" 1
 667  000A              	CALL __DELAYX6 + 0x40a -1000
 667  000A              	ENDIF
 667  000A              ;# 667 "c:\users\tech\desktop\codetector\sevenSegment3DigitComplex\SevenSegment3DigitComplex.c" 1
 667  000A              	IF (1000 >= 0x40b) AND ((((1000-9)%0402h)/4+1)>256)
 667  000A              ;# 667 "c:\users\tech\desktop\codetector\sevenSegment3DigitComplex\SevenSegment3DigitComplex.c" 1
 667  000A              	MOV A,(1000-9)/0402h
 667  000A              ;# 667 "c:\users\tech\desktop\codetector\sevenSegment3DigitComplex\SevenSegment3DigitComplex.c" 1
 667  000A              	MOV _builtin_holtek_delay_2,A
 667  000A              ;# 667 "c:\users\tech\desktop\codetector\sevenSegment3DigitComplex\SevenSegment3DigitComplex.c" 1
 667  000A              	MOV A,0
 667  000A              ;# 667 "c:\users\tech\desktop\codetector\sevenSegment3DigitComplex\SevenSegment3DigitComplex.c" 1
 667  000A              	CALL __DELAYY5 +5- (((1000-9)%0402h)%6)
 667  000A              	ENDIF
 667  000A              ;# 667 "c:\users\tech\desktop\codetector\sevenSegment3DigitComplex\SevenSegment3DigitComplex.c" 1
 667  000A              	IF (1000 >= 0x40b) AND ((((1000-9)%0402h)/4+1)<=256)
 667  000A              ;# 667 "c:\users\tech\desktop\codetector\sevenSegment3DigitComplex\SevenSegment3DigitComplex.c" 1
 667  000A              	MOV A,(1000-9)/0402h
 667  000A              ;# 667 "c:\users\tech\desktop\codetector\sevenSegment3DigitComplex\SevenSegment3DigitComplex.c" 1
 667  000A              	MOV _builtin_holtek_delay_2,A
 667  000A              ;# 667 "c:\users\tech\desktop\codetector\sevenSegment3DigitComplex\SevenSegment3DigitComplex.c" 1
 667  000A              	MOV A,((1000-9)%0402h)/4+1
 667  000A              ;# 667 "c:\users\tech\desktop\codetector\sevenSegment3DigitComplex\SevenSegment3DigitComplex.c" 1
 667  000A              	CALL __DELAYY3 +3-(((1000-9)%0402h)%4)
 667  000A              	ENDIF
 667  000A  0003        	ret
 667  000B              _sevenDigit3 endp
 667  000B              #line 667 "c:\users\tech\desktop\codetector\sevenSegment3DigitComplex\SevenSegment3DigitComplex.c"
 667  000B              #pragma debug scope 1 1
 667  000B              public _length
 667  000B              #pragma debug scope 7 1
 854  000B              #line 854 "c:\users\tech\desktop\codetector\sevenSegment3DigitComplex\SevenSegment3DigitComplex.c"
 854  0000              _length .section 'code'
 854  0000              _length proc
 854  0000              public _length_2
 854  0000  0002[           local _length_2 db 2 dup(?)	; 2,0
            00
            ]
 854  0002              #pragma debug variable 11 7 _length_2+0 "number"
 855  0002              #line 855 "c:\users\tech\desktop\codetector\sevenSegment3DigitComplex\SevenSegment3DigitComplex.c"
 855  0000  1F00     E  	clr ra
 855  0001  1F00     E  	clr rb
 856  0002              #line 856 "c:\users\tech\desktop\codetector\sevenSegment3DigitComplex\SevenSegment3DigitComplex.c"
 856  0002  2800     R  	jmp _L7
 856  0003              _L8:
 858  0003              #line 858 "c:\users\tech\desktop\codetector\sevenSegment3DigitComplex\SevenSegment3DigitComplex.c"
 858  0003  0700     R  	mov a,_length_2[0]
 858  0004  0080     E  	mov _builtin_holtek_udivmodhi4_2[0],a
"File: SevenSegment3DigitComplex.c  Assembler  Version HGASM0202      Page 11

 858  0005  0700     R  	mov a,_length_2[1]
 858  0006  0080     E  	mov _builtin_holtek_udivmodhi4_2[1],a
 858  0007  0F0A        	mov a,10
 858  0008  0080     E  	mov _builtin_holtek_udivmodhi4_2[2],a
 858  0009  0F00        	mov a,0
 858  000A  0080     E  	mov _builtin_holtek_udivmodhi4_2[3],a
 858  000B  2000     E  	call _builtin_holtek_divmodhi4
 858  000C  0700     E  	mov a,_builtin_holtek_udivmodhi4_2[0]
 858  000D  0080     R  	mov _length_2[0],a
 858  000E  0700     E  	mov a,_builtin_holtek_udivmodhi4_2[1]
 858  000F  0080     R  	mov _length_2[1],a
 859  0010              #line 859 "c:\users\tech\desktop\codetector\sevenSegment3DigitComplex\SevenSegment3DigitComplex.c"
 859  0010  1480     E  	inc ra
 859  0011  3D0A        	sz z
 859  0012  1480     E  	inc rb
 859  0013              _L7:
 856  0013              #line 856 "c:\users\tech\desktop\codetector\sevenSegment3DigitComplex\SevenSegment3DigitComplex.c"
 856  0013  0700     R  	mov a,_length_2[0]
 856  0014  0500     R  	or a,_length_2[1]
 856  0015  390A        	snz z
 856  0016  2800     R  	jmp _L8
 856  0017  0003        	ret
 856  0018              _length endp
 856  0018              #line 856 "c:\users\tech\desktop\codetector\sevenSegment3DigitComplex\SevenSegment3DigitComplex.c"
 856  0018              #pragma debug scope 1 1
 856  0018              public _clearSegment
 856  0018              #pragma debug scope 8 1
 983  0018              #line 983 "c:\users\tech\desktop\codetector\sevenSegment3DigitComplex\SevenSegment3DigitComplex.c"
 983  0000              _clearSegment .section 'code'
 983  0000              _clearSegment proc
 985  0000              #line 985 "c:\users\tech\desktop\codetector\sevenSegment3DigitComplex\SevenSegment3DigitComplex.c"
 985  0000  3119        	set [25].2
 986  0001              #line 986 "c:\users\tech\desktop\codetector\sevenSegment3DigitComplex\SevenSegment3DigitComplex.c"
 986  0001  3099        	set [25].1
 987  0002              #line 987 "c:\users\tech\desktop\codetector\sevenSegment3DigitComplex\SevenSegment3DigitComplex.c"
 987  0002  3215        	set [21].4
 988  0003              #line 988 "c:\users\tech\desktop\codetector\sevenSegment3DigitComplex\SevenSegment3DigitComplex.c"
 988  0003  3015        	set [21].0
 989  0004              #line 989 "c:\users\tech\desktop\codetector\sevenSegment3DigitComplex\SevenSegment3DigitComplex.c"
 989  0004  3115        	set [21].2
 990  0005              #line 990 "c:\users\tech\desktop\codetector\sevenSegment3DigitComplex\SevenSegment3DigitComplex.c"
 990  0005  3199        	set [25].3
 990  0006  0003        	ret
 990  0007              _clearSegment endp
 990  0007              #line 990 "c:\users\tech\desktop\codetector\sevenSegment3DigitComplex\SevenSegment3DigitComplex.c"
 990  0007              #pragma debug scope 1 1
 990  0007              public _errorSeg
 990  0007              #pragma debug scope 9 1
   7  0007              #line 7 "c:\users\tech\desktop\codetector\sevenSegment3DigitComplex\SevenSegment3DigitComplex.c"
   7  0000              _errorSeg .section 'code'
   7  0000              _errorSeg proc
   9  0000              #line 9 "c:\users\tech\desktop\codetector\sevenSegment3DigitComplex\SevenSegment3DigitComplex.c"
   9  0000  3519        	clr [25].2
  10  0001              #line 10 "c:\users\tech\desktop\codetector\sevenSegment3DigitComplex\SevenSegment3DigitComplex.c"
  10  0001  3499        	clr [25].1
  11  0002              #line 11 "c:\users\tech\desktop\codetector\sevenSegment3DigitComplex\SevenSegment3DigitComplex.c"
  11  0002  3515        	clr [21].2
  12  0003              #line 12 "c:\users\tech\desktop\codetector\sevenSegment3DigitComplex\SevenSegment3DigitComplex.c"
  12  0003  3599        	clr [25].3
  13  0004              #line 13 "c:\users\tech\desktop\codetector\sevenSegment3DigitComplex\SevenSegment3DigitComplex.c"
"File: SevenSegment3DigitComplex.c  Assembler  Version HGASM0202      Page 12

  13  0004  3518        	clr [24].2
  14  0005              #line 14 "c:\users\tech\desktop\codetector\sevenSegment3DigitComplex\SevenSegment3DigitComplex.c"
  14  0005  3098        	set [24].1
  15  0006              #line 15 "c:\users\tech\desktop\codetector\sevenSegment3DigitComplex\SevenSegment3DigitComplex.c"
  15  0006  3114        	set [20].2
  16  0007              #line 16 "c:\users\tech\desktop\codetector\sevenSegment3DigitComplex\SevenSegment3DigitComplex.c"
  16  0007  3198        	set [24].3
  17  0008              #line 17 "c:\users\tech\desktop\codetector\sevenSegment3DigitComplex\SevenSegment3DigitComplex.c"
  17  0008              ;# 17 "c:\users\tech\desktop\codetector\sevenSegment3DigitComplex\SevenSegment3DigitComplex.c" 1
  17  0008              	IF 1000>263690
  17  0008              ;# 17 "c:\users\tech\desktop\codetector\sevenSegment3DigitComplex\SevenSegment3DigitComplex.c" 1
  17  0008              	ERRMESSAGE 'the value 1000of the argument exceeds the maxinum 263690'
  17  0008              	ENDIF
  17  0008              ;# 17 "c:\users\tech\desktop\codetector\sevenSegment3DigitComplex\SevenSegment3DigitComplex.c" 1
  17  0008              	IF 1000<0
  17  0008              ;# 17 "c:\users\tech\desktop\codetector\sevenSegment3DigitComplex\SevenSegment3DigitComplex.c" 1
  17  0008              	ERRMESSAGE 'the value 1000 of the argument exceeds the mininum 0'
  17  0008              	ENDIF
  17  0008              ;# 17 "c:\users\tech\desktop\codetector\sevenSegment3DigitComplex\SevenSegment3DigitComplex.c" 1
  17  0008              	IF 1000==0
  17  0008              ;# 17 "c:\users\tech\desktop\codetector\sevenSegment3DigitComplex\SevenSegment3DigitComplex.c" 1
  17  0008              	JMP $
  17  0008              	ENDIF
  17  0008              ;# 17 "c:\users\tech\desktop\codetector\sevenSegment3DigitComplex\SevenSegment3DigitComplex.c" 1
  17  0008              	IF 1000==1
  17  0008              ;# 17 "c:\users\tech\desktop\codetector\sevenSegment3DigitComplex\SevenSegment3DigitComplex.c" 1
  17  0008              	NOP
  17  0008              	ENDIF
  17  0008              ;# 17 "c:\users\tech\desktop\codetector\sevenSegment3DigitComplex\SevenSegment3DigitComplex.c" 1
  17  0008              	IF 1000==2
  17  0008              ;# 17 "c:\users\tech\desktop\codetector\sevenSegment3DigitComplex\SevenSegment3DigitComplex.c" 1
  17  0008              	NOP
  17  0008              ;# 17 "c:\users\tech\desktop\codetector\sevenSegment3DigitComplex\SevenSegment3DigitComplex.c" 1
  17  0008              	NOP
  17  0008              	ENDIF
  17  0008              ;# 17 "c:\users\tech\desktop\codetector\sevenSegment3DigitComplex\SevenSegment3DigitComplex.c" 1
  17  0008              	IF 1000==3
  17  0008              ;# 17 "c:\users\tech\desktop\codetector\sevenSegment3DigitComplex\SevenSegment3DigitComplex.c" 1
  17  0008              	NOP
  17  0008              ;# 17 "c:\users\tech\desktop\codetector\sevenSegment3DigitComplex\SevenSegment3DigitComplex.c" 1
  17  0008              	NOP
  17  0008              ;# 17 "c:\users\tech\desktop\codetector\sevenSegment3DigitComplex\SevenSegment3DigitComplex.c" 1
  17  0008              	NOP
  17  0008              	ENDIF
  17  0008              ;# 17 "c:\users\tech\desktop\codetector\sevenSegment3DigitComplex\SevenSegment3DigitComplex.c" 1
  17  0008              	IF (1000<8) AND (1000>3)
  17  0008              ;# 17 "c:\users\tech\desktop\codetector\sevenSegment3DigitComplex\SevenSegment3DigitComplex.c" 1
  17  0008              	CALL __DELAY3 + 7 -1000
  17  0008              	ENDIF
  17  0008              ;# 17 "c:\users\tech\desktop\codetector\sevenSegment3DigitComplex\SevenSegment3DigitComplex.c" 1
  17  0008              	IF (1000< 0404h) AND (1000>7)
  17  0008              ;# 17 "c:\users\tech\desktop\codetector\sevenSegment3DigitComplex\SevenSegment3DigitComplex.c" 1
  17  0008  0FF9        	MOV A,1000/4-1
  17  0009              ;# 17 "c:\users\tech\desktop\codetector\sevenSegment3DigitComplex\SevenSegment3DigitComplex.c" 1
  17  0009  2000     E  	CALL __DELAYX3 + 3 -(1000 MOD 4)
  17  000A              	ENDIF
  17  000A              ;# 17 "c:\users\tech\desktop\codetector\sevenSegment3DigitComplex\SevenSegment3DigitComplex.c" 1
  17  000A              	IF (1000< 0x40B) AND (1000> 0403h)
  17  000A              ;# 17 "c:\users\tech\desktop\codetector\sevenSegment3DigitComplex\SevenSegment3DigitComplex.c" 1
  17  000A              	MOV A,0 
"File: SevenSegment3DigitComplex.c  Assembler  Version HGASM0202      Page 13

  17  000A              ;# 17 "c:\users\tech\desktop\codetector\sevenSegment3DigitComplex\SevenSegment3DigitComplex.c" 1
  17  000A              	CALL __DELAYX6 + 0x40a -1000
  17  000A              	ENDIF
  17  000A              ;# 17 "c:\users\tech\desktop\codetector\sevenSegment3DigitComplex\SevenSegment3DigitComplex.c" 1
  17  000A              	IF (1000 >= 0x40b) AND ((((1000-9)%0402h)/4+1)>256)
  17  000A              ;# 17 "c:\users\tech\desktop\codetector\sevenSegment3DigitComplex\SevenSegment3DigitComplex.c" 1
  17  000A              	MOV A,(1000-9)/0402h
  17  000A              ;# 17 "c:\users\tech\desktop\codetector\sevenSegment3DigitComplex\SevenSegment3DigitComplex.c" 1
  17  000A              	MOV _builtin_holtek_delay_2,A
  17  000A              ;# 17 "c:\users\tech\desktop\codetector\sevenSegment3DigitComplex\SevenSegment3DigitComplex.c" 1
  17  000A              	MOV A,0
  17  000A              ;# 17 "c:\users\tech\desktop\codetector\sevenSegment3DigitComplex\SevenSegment3DigitComplex.c" 1
  17  000A              	CALL __DELAYY5 +5- (((1000-9)%0402h)%6)
  17  000A              	ENDIF
  17  000A              ;# 17 "c:\users\tech\desktop\codetector\sevenSegment3DigitComplex\SevenSegment3DigitComplex.c" 1
  17  000A              	IF (1000 >= 0x40b) AND ((((1000-9)%0402h)/4+1)<=256)
  17  000A              ;# 17 "c:\users\tech\desktop\codetector\sevenSegment3DigitComplex\SevenSegment3DigitComplex.c" 1
  17  000A              	MOV A,(1000-9)/0402h
  17  000A              ;# 17 "c:\users\tech\desktop\codetector\sevenSegment3DigitComplex\SevenSegment3DigitComplex.c" 1
  17  000A              	MOV _builtin_holtek_delay_2,A
  17  000A              ;# 17 "c:\users\tech\desktop\codetector\sevenSegment3DigitComplex\SevenSegment3DigitComplex.c" 1
  17  000A              	MOV A,((1000-9)%0402h)/4+1
  17  000A              ;# 17 "c:\users\tech\desktop\codetector\sevenSegment3DigitComplex\SevenSegment3DigitComplex.c" 1
  17  000A              	CALL __DELAYY3 +3-(((1000-9)%0402h)%4)
  17  000A              	ENDIF
  18  000A              #line 18 "c:\users\tech\desktop\codetector\sevenSegment3DigitComplex\SevenSegment3DigitComplex.c"
  18  000A  2000     R  	call _clearSegment
  19  000B              #line 19 "c:\users\tech\desktop\codetector\sevenSegment3DigitComplex\SevenSegment3DigitComplex.c"
  19  000B  3499        	clr [25].1
  20  000C              #line 20 "c:\users\tech\desktop\codetector\sevenSegment3DigitComplex\SevenSegment3DigitComplex.c"
  20  000C  3615        	clr [21].4
  21  000D              #line 21 "c:\users\tech\desktop\codetector\sevenSegment3DigitComplex\SevenSegment3DigitComplex.c"
  21  000D  3415        	clr [21].0
  22  000E              #line 22 "c:\users\tech\desktop\codetector\sevenSegment3DigitComplex\SevenSegment3DigitComplex.c"
  22  000E  3498        	clr [24].1
  23  000F              #line 23 "c:\users\tech\desktop\codetector\sevenSegment3DigitComplex\SevenSegment3DigitComplex.c"
  23  000F  3214        	set [20].4
  24  0010              #line 24 "c:\users\tech\desktop\codetector\sevenSegment3DigitComplex\SevenSegment3DigitComplex.c"
  24  0010  3014        	set [20].0
  25  0011              #line 25 "c:\users\tech\desktop\codetector\sevenSegment3DigitComplex\SevenSegment3DigitComplex.c"
  25  0011              ;# 25 "c:\users\tech\desktop\codetector\sevenSegment3DigitComplex\SevenSegment3DigitComplex.c" 1
  25  0011              	IF 1000>263690
  25  0011              ;# 25 "c:\users\tech\desktop\codetector\sevenSegment3DigitComplex\SevenSegment3DigitComplex.c" 1
  25  0011              	ERRMESSAGE 'the value 1000of the argument exceeds the maxinum 263690'
  25  0011              	ENDIF
  25  0011              ;# 25 "c:\users\tech\desktop\codetector\sevenSegment3DigitComplex\SevenSegment3DigitComplex.c" 1
  25  0011              	IF 1000<0
  25  0011              ;# 25 "c:\users\tech\desktop\codetector\sevenSegment3DigitComplex\SevenSegment3DigitComplex.c" 1
  25  0011              	ERRMESSAGE 'the value 1000 of the argument exceeds the mininum 0'
  25  0011              	ENDIF
  25  0011              ;# 25 "c:\users\tech\desktop\codetector\sevenSegment3DigitComplex\SevenSegment3DigitComplex.c" 1
  25  0011              	IF 1000==0
  25  0011              ;# 25 "c:\users\tech\desktop\codetector\sevenSegment3DigitComplex\SevenSegment3DigitComplex.c" 1
  25  0011              	JMP $
  25  0011              	ENDIF
  25  0011              ;# 25 "c:\users\tech\desktop\codetector\sevenSegment3DigitComplex\SevenSegment3DigitComplex.c" 1
  25  0011              	IF 1000==1
  25  0011              ;# 25 "c:\users\tech\desktop\codetector\sevenSegment3DigitComplex\SevenSegment3DigitComplex.c" 1
  25  0011              	NOP
  25  0011              	ENDIF
"File: SevenSegment3DigitComplex.c  Assembler  Version HGASM0202      Page 14

  25  0011              ;# 25 "c:\users\tech\desktop\codetector\sevenSegment3DigitComplex\SevenSegment3DigitComplex.c" 1
  25  0011              	IF 1000==2
  25  0011              ;# 25 "c:\users\tech\desktop\codetector\sevenSegment3DigitComplex\SevenSegment3DigitComplex.c" 1
  25  0011              	NOP
  25  0011              ;# 25 "c:\users\tech\desktop\codetector\sevenSegment3DigitComplex\SevenSegment3DigitComplex.c" 1
  25  0011              	NOP
  25  0011              	ENDIF
  25  0011              ;# 25 "c:\users\tech\desktop\codetector\sevenSegment3DigitComplex\SevenSegment3DigitComplex.c" 1
  25  0011              	IF 1000==3
  25  0011              ;# 25 "c:\users\tech\desktop\codetector\sevenSegment3DigitComplex\SevenSegment3DigitComplex.c" 1
  25  0011              	NOP
  25  0011              ;# 25 "c:\users\tech\desktop\codetector\sevenSegment3DigitComplex\SevenSegment3DigitComplex.c" 1
  25  0011              	NOP
  25  0011              ;# 25 "c:\users\tech\desktop\codetector\sevenSegment3DigitComplex\SevenSegment3DigitComplex.c" 1
  25  0011              	NOP
  25  0011              	ENDIF
  25  0011              ;# 25 "c:\users\tech\desktop\codetector\sevenSegment3DigitComplex\SevenSegment3DigitComplex.c" 1
  25  0011              	IF (1000<8) AND (1000>3)
  25  0011              ;# 25 "c:\users\tech\desktop\codetector\sevenSegment3DigitComplex\SevenSegment3DigitComplex.c" 1
  25  0011              	CALL __DELAY3 + 7 -1000
  25  0011              	ENDIF
  25  0011              ;# 25 "c:\users\tech\desktop\codetector\sevenSegment3DigitComplex\SevenSegment3DigitComplex.c" 1
  25  0011              	IF (1000< 0404h) AND (1000>7)
  25  0011              ;# 25 "c:\users\tech\desktop\codetector\sevenSegment3DigitComplex\SevenSegment3DigitComplex.c" 1
  25  0011  0FF9        	MOV A,1000/4-1
  25  0012              ;# 25 "c:\users\tech\desktop\codetector\sevenSegment3DigitComplex\SevenSegment3DigitComplex.c" 1
  25  0012  2000     E  	CALL __DELAYX3 + 3 -(1000 MOD 4)
  25  0013              	ENDIF
  25  0013              ;# 25 "c:\users\tech\desktop\codetector\sevenSegment3DigitComplex\SevenSegment3DigitComplex.c" 1
  25  0013              	IF (1000< 0x40B) AND (1000> 0403h)
  25  0013              ;# 25 "c:\users\tech\desktop\codetector\sevenSegment3DigitComplex\SevenSegment3DigitComplex.c" 1
  25  0013              	MOV A,0 
  25  0013              ;# 25 "c:\users\tech\desktop\codetector\sevenSegment3DigitComplex\SevenSegment3DigitComplex.c" 1
  25  0013              	CALL __DELAYX6 + 0x40a -1000
  25  0013              	ENDIF
  25  0013              ;# 25 "c:\users\tech\desktop\codetector\sevenSegment3DigitComplex\SevenSegment3DigitComplex.c" 1
  25  0013              	IF (1000 >= 0x40b) AND ((((1000-9)%0402h)/4+1)>256)
  25  0013              ;# 25 "c:\users\tech\desktop\codetector\sevenSegment3DigitComplex\SevenSegment3DigitComplex.c" 1
  25  0013              	MOV A,(1000-9)/0402h
  25  0013              ;# 25 "c:\users\tech\desktop\codetector\sevenSegment3DigitComplex\SevenSegment3DigitComplex.c" 1
  25  0013              	MOV _builtin_holtek_delay_2,A
  25  0013              ;# 25 "c:\users\tech\desktop\codetector\sevenSegment3DigitComplex\SevenSegment3DigitComplex.c" 1
  25  0013              	MOV A,0
  25  0013              ;# 25 "c:\users\tech\desktop\codetector\sevenSegment3DigitComplex\SevenSegment3DigitComplex.c" 1
  25  0013              	CALL __DELAYY5 +5- (((1000-9)%0402h)%6)
  25  0013              	ENDIF
  25  0013              ;# 25 "c:\users\tech\desktop\codetector\sevenSegment3DigitComplex\SevenSegment3DigitComplex.c" 1
  25  0013              	IF (1000 >= 0x40b) AND ((((1000-9)%0402h)/4+1)<=256)
  25  0013              ;# 25 "c:\users\tech\desktop\codetector\sevenSegment3DigitComplex\SevenSegment3DigitComplex.c" 1
  25  0013              	MOV A,(1000-9)/0402h
  25  0013              ;# 25 "c:\users\tech\desktop\codetector\sevenSegment3DigitComplex\SevenSegment3DigitComplex.c" 1
  25  0013              	MOV _builtin_holtek_delay_2,A
  25  0013              ;# 25 "c:\users\tech\desktop\codetector\sevenSegment3DigitComplex\SevenSegment3DigitComplex.c" 1
  25  0013              	MOV A,((1000-9)%0402h)/4+1
  25  0013              ;# 25 "c:\users\tech\desktop\codetector\sevenSegment3DigitComplex\SevenSegment3DigitComplex.c" 1
  25  0013              	CALL __DELAYY3 +3-(((1000-9)%0402h)%4)
  25  0013              	ENDIF
  26  0013              #line 26 "c:\users\tech\desktop\codetector\sevenSegment3DigitComplex\SevenSegment3DigitComplex.c"
  26  0013  2000     R  	call _clearSegment
  27  0014              #line 27 "c:\users\tech\desktop\codetector\sevenSegment3DigitComplex\SevenSegment3DigitComplex.c"
"File: SevenSegment3DigitComplex.c  Assembler  Version HGASM0202      Page 15

  27  0014  3519        	clr [25].2
  28  0015              #line 28 "c:\users\tech\desktop\codetector\sevenSegment3DigitComplex\SevenSegment3DigitComplex.c"
  28  0015  3499        	clr [25].1
  29  0016              #line 29 "c:\users\tech\desktop\codetector\sevenSegment3DigitComplex\SevenSegment3DigitComplex.c"
  29  0016  3599        	clr [25].3
  30  0017              #line 30 "c:\users\tech\desktop\codetector\sevenSegment3DigitComplex\SevenSegment3DigitComplex.c"
  30  0017  3118        	set [24].2
  31  0018              #line 31 "c:\users\tech\desktop\codetector\sevenSegment3DigitComplex\SevenSegment3DigitComplex.c"
  31  0018  3498        	clr [24].1
  32  0019              #line 32 "c:\users\tech\desktop\codetector\sevenSegment3DigitComplex\SevenSegment3DigitComplex.c"
  32  0019  3598        	clr [24].3
  33  001A              #line 33 "c:\users\tech\desktop\codetector\sevenSegment3DigitComplex\SevenSegment3DigitComplex.c"
  33  001A              ;# 33 "c:\users\tech\desktop\codetector\sevenSegment3DigitComplex\SevenSegment3DigitComplex.c" 1
  33  001A              	IF 1000>263690
  33  001A              ;# 33 "c:\users\tech\desktop\codetector\sevenSegment3DigitComplex\SevenSegment3DigitComplex.c" 1
  33  001A              	ERRMESSAGE 'the value 1000of the argument exceeds the maxinum 263690'
  33  001A              	ENDIF
  33  001A              ;# 33 "c:\users\tech\desktop\codetector\sevenSegment3DigitComplex\SevenSegment3DigitComplex.c" 1
  33  001A              	IF 1000<0
  33  001A              ;# 33 "c:\users\tech\desktop\codetector\sevenSegment3DigitComplex\SevenSegment3DigitComplex.c" 1
  33  001A              	ERRMESSAGE 'the value 1000 of the argument exceeds the mininum 0'
  33  001A              	ENDIF
  33  001A              ;# 33 "c:\users\tech\desktop\codetector\sevenSegment3DigitComplex\SevenSegment3DigitComplex.c" 1
  33  001A              	IF 1000==0
  33  001A              ;# 33 "c:\users\tech\desktop\codetector\sevenSegment3DigitComplex\SevenSegment3DigitComplex.c" 1
  33  001A              	JMP $
  33  001A              	ENDIF
  33  001A              ;# 33 "c:\users\tech\desktop\codetector\sevenSegment3DigitComplex\SevenSegment3DigitComplex.c" 1
  33  001A              	IF 1000==1
  33  001A              ;# 33 "c:\users\tech\desktop\codetector\sevenSegment3DigitComplex\SevenSegment3DigitComplex.c" 1
  33  001A              	NOP
  33  001A              	ENDIF
  33  001A              ;# 33 "c:\users\tech\desktop\codetector\sevenSegment3DigitComplex\SevenSegment3DigitComplex.c" 1
  33  001A              	IF 1000==2
  33  001A              ;# 33 "c:\users\tech\desktop\codetector\sevenSegment3DigitComplex\SevenSegment3DigitComplex.c" 1
  33  001A              	NOP
  33  001A              ;# 33 "c:\users\tech\desktop\codetector\sevenSegment3DigitComplex\SevenSegment3DigitComplex.c" 1
  33  001A              	NOP
  33  001A              	ENDIF
  33  001A              ;# 33 "c:\users\tech\desktop\codetector\sevenSegment3DigitComplex\SevenSegment3DigitComplex.c" 1
  33  001A              	IF 1000==3
  33  001A              ;# 33 "c:\users\tech\desktop\codetector\sevenSegment3DigitComplex\SevenSegment3DigitComplex.c" 1
  33  001A              	NOP
  33  001A              ;# 33 "c:\users\tech\desktop\codetector\sevenSegment3DigitComplex\SevenSegment3DigitComplex.c" 1
  33  001A              	NOP
  33  001A              ;# 33 "c:\users\tech\desktop\codetector\sevenSegment3DigitComplex\SevenSegment3DigitComplex.c" 1
  33  001A              	NOP
  33  001A              	ENDIF
  33  001A              ;# 33 "c:\users\tech\desktop\codetector\sevenSegment3DigitComplex\SevenSegment3DigitComplex.c" 1
  33  001A              	IF (1000<8) AND (1000>3)
  33  001A              ;# 33 "c:\users\tech\desktop\codetector\sevenSegment3DigitComplex\SevenSegment3DigitComplex.c" 1
  33  001A              	CALL __DELAY3 + 7 -1000
  33  001A              	ENDIF
  33  001A              ;# 33 "c:\users\tech\desktop\codetector\sevenSegment3DigitComplex\SevenSegment3DigitComplex.c" 1
  33  001A              	IF (1000< 0404h) AND (1000>7)
  33  001A              ;# 33 "c:\users\tech\desktop\codetector\sevenSegment3DigitComplex\SevenSegment3DigitComplex.c" 1
  33  001A  0FF9        	MOV A,1000/4-1
  33  001B              ;# 33 "c:\users\tech\desktop\codetector\sevenSegment3DigitComplex\SevenSegment3DigitComplex.c" 1
  33  001B  2000     E  	CALL __DELAYX3 + 3 -(1000 MOD 4)
  33  001C              	ENDIF
"File: SevenSegment3DigitComplex.c  Assembler  Version HGASM0202      Page 16

  33  001C              ;# 33 "c:\users\tech\desktop\codetector\sevenSegment3DigitComplex\SevenSegment3DigitComplex.c" 1
  33  001C              	IF (1000< 0x40B) AND (1000> 0403h)
  33  001C              ;# 33 "c:\users\tech\desktop\codetector\sevenSegment3DigitComplex\SevenSegment3DigitComplex.c" 1
  33  001C              	MOV A,0 
  33  001C              ;# 33 "c:\users\tech\desktop\codetector\sevenSegment3DigitComplex\SevenSegment3DigitComplex.c" 1
  33  001C              	CALL __DELAYX6 + 0x40a -1000
  33  001C              	ENDIF
  33  001C              ;# 33 "c:\users\tech\desktop\codetector\sevenSegment3DigitComplex\SevenSegment3DigitComplex.c" 1
  33  001C              	IF (1000 >= 0x40b) AND ((((1000-9)%0402h)/4+1)>256)
  33  001C              ;# 33 "c:\users\tech\desktop\codetector\sevenSegment3DigitComplex\SevenSegment3DigitComplex.c" 1
  33  001C              	MOV A,(1000-9)/0402h
  33  001C              ;# 33 "c:\users\tech\desktop\codetector\sevenSegment3DigitComplex\SevenSegment3DigitComplex.c" 1
  33  001C              	MOV _builtin_holtek_delay_2,A
  33  001C              ;# 33 "c:\users\tech\desktop\codetector\sevenSegment3DigitComplex\SevenSegment3DigitComplex.c" 1
  33  001C              	MOV A,0
  33  001C              ;# 33 "c:\users\tech\desktop\codetector\sevenSegment3DigitComplex\SevenSegment3DigitComplex.c" 1
  33  001C              	CALL __DELAYY5 +5- (((1000-9)%0402h)%6)
  33  001C              	ENDIF
  33  001C              ;# 33 "c:\users\tech\desktop\codetector\sevenSegment3DigitComplex\SevenSegment3DigitComplex.c" 1
  33  001C              	IF (1000 >= 0x40b) AND ((((1000-9)%0402h)/4+1)<=256)
  33  001C              ;# 33 "c:\users\tech\desktop\codetector\sevenSegment3DigitComplex\SevenSegment3DigitComplex.c" 1
  33  001C              	MOV A,(1000-9)/0402h
  33  001C              ;# 33 "c:\users\tech\desktop\codetector\sevenSegment3DigitComplex\SevenSegment3DigitComplex.c" 1
  33  001C              	MOV _builtin_holtek_delay_2,A
  33  001C              ;# 33 "c:\users\tech\desktop\codetector\sevenSegment3DigitComplex\SevenSegment3DigitComplex.c" 1
  33  001C              	MOV A,((1000-9)%0402h)/4+1
  33  001C              ;# 33 "c:\users\tech\desktop\codetector\sevenSegment3DigitComplex\SevenSegment3DigitComplex.c" 1
  33  001C              	CALL __DELAYY3 +3-(((1000-9)%0402h)%4)
  33  001C              	ENDIF
  34  001C              #line 34 "c:\users\tech\desktop\codetector\sevenSegment3DigitComplex\SevenSegment3DigitComplex.c"
  34  001C  2000     R  	call _clearSegment
  35  001D              #line 35 "c:\users\tech\desktop\codetector\sevenSegment3DigitComplex\SevenSegment3DigitComplex.c"
  35  001D  3499        	clr [25].1
  36  001E              #line 36 "c:\users\tech\desktop\codetector\sevenSegment3DigitComplex\SevenSegment3DigitComplex.c"
  36  001E  3515        	clr [21].2
  37  001F              #line 37 "c:\users\tech\desktop\codetector\sevenSegment3DigitComplex\SevenSegment3DigitComplex.c"
  37  001F  3498        	clr [24].1
  38  0020              #line 38 "c:\users\tech\desktop\codetector\sevenSegment3DigitComplex\SevenSegment3DigitComplex.c"
  38  0020  3114        	set [20].2
  39  0021              #line 39 "c:\users\tech\desktop\codetector\sevenSegment3DigitComplex\SevenSegment3DigitComplex.c"
  39  0021              ;# 39 "c:\users\tech\desktop\codetector\sevenSegment3DigitComplex\SevenSegment3DigitComplex.c" 1
  39  0021              	IF 1000>263690
  39  0021              ;# 39 "c:\users\tech\desktop\codetector\sevenSegment3DigitComplex\SevenSegment3DigitComplex.c" 1
  39  0021              	ERRMESSAGE 'the value 1000of the argument exceeds the maxinum 263690'
  39  0021              	ENDIF
  39  0021              ;# 39 "c:\users\tech\desktop\codetector\sevenSegment3DigitComplex\SevenSegment3DigitComplex.c" 1
  39  0021              	IF 1000<0
  39  0021              ;# 39 "c:\users\tech\desktop\codetector\sevenSegment3DigitComplex\SevenSegment3DigitComplex.c" 1
  39  0021              	ERRMESSAGE 'the value 1000 of the argument exceeds the mininum 0'
  39  0021              	ENDIF
  39  0021              ;# 39 "c:\users\tech\desktop\codetector\sevenSegment3DigitComplex\SevenSegment3DigitComplex.c" 1
  39  0021              	IF 1000==0
  39  0021              ;# 39 "c:\users\tech\desktop\codetector\sevenSegment3DigitComplex\SevenSegment3DigitComplex.c" 1
  39  0021              	JMP $
  39  0021              	ENDIF
  39  0021              ;# 39 "c:\users\tech\desktop\codetector\sevenSegment3DigitComplex\SevenSegment3DigitComplex.c" 1
  39  0021              	IF 1000==1
  39  0021              ;# 39 "c:\users\tech\desktop\codetector\sevenSegment3DigitComplex\SevenSegment3DigitComplex.c" 1
  39  0021              	NOP
  39  0021              	ENDIF
"File: SevenSegment3DigitComplex.c  Assembler  Version HGASM0202      Page 17

  39  0021              ;# 39 "c:\users\tech\desktop\codetector\sevenSegment3DigitComplex\SevenSegment3DigitComplex.c" 1
  39  0021              	IF 1000==2
  39  0021              ;# 39 "c:\users\tech\desktop\codetector\sevenSegment3DigitComplex\SevenSegment3DigitComplex.c" 1
  39  0021              	NOP
  39  0021              ;# 39 "c:\users\tech\desktop\codetector\sevenSegment3DigitComplex\SevenSegment3DigitComplex.c" 1
  39  0021              	NOP
  39  0021              	ENDIF
  39  0021              ;# 39 "c:\users\tech\desktop\codetector\sevenSegment3DigitComplex\SevenSegment3DigitComplex.c" 1
  39  0021              	IF 1000==3
  39  0021              ;# 39 "c:\users\tech\desktop\codetector\sevenSegment3DigitComplex\SevenSegment3DigitComplex.c" 1
  39  0021              	NOP
  39  0021              ;# 39 "c:\users\tech\desktop\codetector\sevenSegment3DigitComplex\SevenSegment3DigitComplex.c" 1
  39  0021              	NOP
  39  0021              ;# 39 "c:\users\tech\desktop\codetector\sevenSegment3DigitComplex\SevenSegment3DigitComplex.c" 1
  39  0021              	NOP
  39  0021              	ENDIF
  39  0021              ;# 39 "c:\users\tech\desktop\codetector\sevenSegment3DigitComplex\SevenSegment3DigitComplex.c" 1
  39  0021              	IF (1000<8) AND (1000>3)
  39  0021              ;# 39 "c:\users\tech\desktop\codetector\sevenSegment3DigitComplex\SevenSegment3DigitComplex.c" 1
  39  0021              	CALL __DELAY3 + 7 -1000
  39  0021              	ENDIF
  39  0021              ;# 39 "c:\users\tech\desktop\codetector\sevenSegment3DigitComplex\SevenSegment3DigitComplex.c" 1
  39  0021              	IF (1000< 0404h) AND (1000>7)
  39  0021              ;# 39 "c:\users\tech\desktop\codetector\sevenSegment3DigitComplex\SevenSegment3DigitComplex.c" 1
  39  0021  0FF9        	MOV A,1000/4-1
  39  0022              ;# 39 "c:\users\tech\desktop\codetector\sevenSegment3DigitComplex\SevenSegment3DigitComplex.c" 1
  39  0022  2000     E  	CALL __DELAYX3 + 3 -(1000 MOD 4)
  39  0023              	ENDIF
  39  0023              ;# 39 "c:\users\tech\desktop\codetector\sevenSegment3DigitComplex\SevenSegment3DigitComplex.c" 1
  39  0023              	IF (1000< 0x40B) AND (1000> 0403h)
  39  0023              ;# 39 "c:\users\tech\desktop\codetector\sevenSegment3DigitComplex\SevenSegment3DigitComplex.c" 1
  39  0023              	MOV A,0 
  39  0023              ;# 39 "c:\users\tech\desktop\codetector\sevenSegment3DigitComplex\SevenSegment3DigitComplex.c" 1
  39  0023              	CALL __DELAYX6 + 0x40a -1000
  39  0023              	ENDIF
  39  0023              ;# 39 "c:\users\tech\desktop\codetector\sevenSegment3DigitComplex\SevenSegment3DigitComplex.c" 1
  39  0023              	IF (1000 >= 0x40b) AND ((((1000-9)%0402h)/4+1)>256)
  39  0023              ;# 39 "c:\users\tech\desktop\codetector\sevenSegment3DigitComplex\SevenSegment3DigitComplex.c" 1
  39  0023              	MOV A,(1000-9)/0402h
  39  0023              ;# 39 "c:\users\tech\desktop\codetector\sevenSegment3DigitComplex\SevenSegment3DigitComplex.c" 1
  39  0023              	MOV _builtin_holtek_delay_2,A
  39  0023              ;# 39 "c:\users\tech\desktop\codetector\sevenSegment3DigitComplex\SevenSegment3DigitComplex.c" 1
  39  0023              	MOV A,0
  39  0023              ;# 39 "c:\users\tech\desktop\codetector\sevenSegment3DigitComplex\SevenSegment3DigitComplex.c" 1
  39  0023              	CALL __DELAYY5 +5- (((1000-9)%0402h)%6)
  39  0023              	ENDIF
  39  0023              ;# 39 "c:\users\tech\desktop\codetector\sevenSegment3DigitComplex\SevenSegment3DigitComplex.c" 1
  39  0023              	IF (1000 >= 0x40b) AND ((((1000-9)%0402h)/4+1)<=256)
  39  0023              ;# 39 "c:\users\tech\desktop\codetector\sevenSegment3DigitComplex\SevenSegment3DigitComplex.c" 1
  39  0023              	MOV A,(1000-9)/0402h
  39  0023              ;# 39 "c:\users\tech\desktop\codetector\sevenSegment3DigitComplex\SevenSegment3DigitComplex.c" 1
  39  0023              	MOV _builtin_holtek_delay_2,A
  39  0023              ;# 39 "c:\users\tech\desktop\codetector\sevenSegment3DigitComplex\SevenSegment3DigitComplex.c" 1
  39  0023              	MOV A,((1000-9)%0402h)/4+1
  39  0023              ;# 39 "c:\users\tech\desktop\codetector\sevenSegment3DigitComplex\SevenSegment3DigitComplex.c" 1
  39  0023              	CALL __DELAYY3 +3-(((1000-9)%0402h)%4)
  39  0023              	ENDIF
  39  0023  0003        	ret
  39  0024              _errorSeg endp
  39  0024              #line 39 "c:\users\tech\desktop\codetector\sevenSegment3DigitComplex\SevenSegment3DigitComplex.c"
"File: SevenSegment3DigitComplex.c  Assembler  Version HGASM0202      Page 18

  39  0024              #pragma debug scope 1 1
  39  0024              public _error1Seg
  39  0024              #pragma debug scope 10 1
  47  0024              #line 47 "c:\users\tech\desktop\codetector\sevenSegment3DigitComplex\SevenSegment3DigitComplex.c"
  47  0000              _error1Seg .section 'code'
  47  0000              _error1Seg proc
  49  0000              #line 49 "c:\users\tech\desktop\codetector\sevenSegment3DigitComplex\SevenSegment3DigitComplex.c"
  49  0000  3519        	clr [25].2
  50  0001              #line 50 "c:\users\tech\desktop\codetector\sevenSegment3DigitComplex\SevenSegment3DigitComplex.c"
  50  0001  3499        	clr [25].1
  51  0002              #line 51 "c:\users\tech\desktop\codetector\sevenSegment3DigitComplex\SevenSegment3DigitComplex.c"
  51  0002  3515        	clr [21].2
  52  0003              #line 52 "c:\users\tech\desktop\codetector\sevenSegment3DigitComplex\SevenSegment3DigitComplex.c"
  52  0003  3599        	clr [25].3
  53  0004              #line 53 "c:\users\tech\desktop\codetector\sevenSegment3DigitComplex\SevenSegment3DigitComplex.c"
  53  0004  3518        	clr [24].2
  54  0005              #line 54 "c:\users\tech\desktop\codetector\sevenSegment3DigitComplex\SevenSegment3DigitComplex.c"
  54  0005  3098        	set [24].1
  55  0006              #line 55 "c:\users\tech\desktop\codetector\sevenSegment3DigitComplex\SevenSegment3DigitComplex.c"
  55  0006  3114        	set [20].2
  56  0007              #line 56 "c:\users\tech\desktop\codetector\sevenSegment3DigitComplex\SevenSegment3DigitComplex.c"
  56  0007  3198        	set [24].3
  57  0008              #line 57 "c:\users\tech\desktop\codetector\sevenSegment3DigitComplex\SevenSegment3DigitComplex.c"
  57  0008              ;# 57 "c:\users\tech\desktop\codetector\sevenSegment3DigitComplex\SevenSegment3DigitComplex.c" 1
  57  0008              	IF 1000>263690
  57  0008              ;# 57 "c:\users\tech\desktop\codetector\sevenSegment3DigitComplex\SevenSegment3DigitComplex.c" 1
  57  0008              	ERRMESSAGE 'the value 1000of the argument exceeds the maxinum 263690'
  57  0008              	ENDIF
  57  0008              ;# 57 "c:\users\tech\desktop\codetector\sevenSegment3DigitComplex\SevenSegment3DigitComplex.c" 1
  57  0008              	IF 1000<0
  57  0008              ;# 57 "c:\users\tech\desktop\codetector\sevenSegment3DigitComplex\SevenSegment3DigitComplex.c" 1
  57  0008              	ERRMESSAGE 'the value 1000 of the argument exceeds the mininum 0'
  57  0008              	ENDIF
  57  0008              ;# 57 "c:\users\tech\desktop\codetector\sevenSegment3DigitComplex\SevenSegment3DigitComplex.c" 1
  57  0008              	IF 1000==0
  57  0008              ;# 57 "c:\users\tech\desktop\codetector\sevenSegment3DigitComplex\SevenSegment3DigitComplex.c" 1
  57  0008              	JMP $
  57  0008              	ENDIF
  57  0008              ;# 57 "c:\users\tech\desktop\codetector\sevenSegment3DigitComplex\SevenSegment3DigitComplex.c" 1
  57  0008              	IF 1000==1
  57  0008              ;# 57 "c:\users\tech\desktop\codetector\sevenSegment3DigitComplex\SevenSegment3DigitComplex.c" 1
  57  0008              	NOP
  57  0008              	ENDIF
  57  0008              ;# 57 "c:\users\tech\desktop\codetector\sevenSegment3DigitComplex\SevenSegment3DigitComplex.c" 1
  57  0008              	IF 1000==2
  57  0008              ;# 57 "c:\users\tech\desktop\codetector\sevenSegment3DigitComplex\SevenSegment3DigitComplex.c" 1
  57  0008              	NOP
  57  0008              ;# 57 "c:\users\tech\desktop\codetector\sevenSegment3DigitComplex\SevenSegment3DigitComplex.c" 1
  57  0008              	NOP
  57  0008              	ENDIF
  57  0008              ;# 57 "c:\users\tech\desktop\codetector\sevenSegment3DigitComplex\SevenSegment3DigitComplex.c" 1
  57  0008              	IF 1000==3
  57  0008              ;# 57 "c:\users\tech\desktop\codetector\sevenSegment3DigitComplex\SevenSegment3DigitComplex.c" 1
  57  0008              	NOP
  57  0008              ;# 57 "c:\users\tech\desktop\codetector\sevenSegment3DigitComplex\SevenSegment3DigitComplex.c" 1
  57  0008              	NOP
  57  0008              ;# 57 "c:\users\tech\desktop\codetector\sevenSegment3DigitComplex\SevenSegment3DigitComplex.c" 1
  57  0008              	NOP
  57  0008              	ENDIF
  57  0008              ;# 57 "c:\users\tech\desktop\codetector\sevenSegment3DigitComplex\SevenSegment3DigitComplex.c" 1
"File: SevenSegment3DigitComplex.c  Assembler  Version HGASM0202      Page 19

  57  0008              	IF (1000<8) AND (1000>3)
  57  0008              ;# 57 "c:\users\tech\desktop\codetector\sevenSegment3DigitComplex\SevenSegment3DigitComplex.c" 1
  57  0008              	CALL __DELAY3 + 7 -1000
  57  0008              	ENDIF
  57  0008              ;# 57 "c:\users\tech\desktop\codetector\sevenSegment3DigitComplex\SevenSegment3DigitComplex.c" 1
  57  0008              	IF (1000< 0404h) AND (1000>7)
  57  0008              ;# 57 "c:\users\tech\desktop\codetector\sevenSegment3DigitComplex\SevenSegment3DigitComplex.c" 1
  57  0008  0FF9        	MOV A,1000/4-1
  57  0009              ;# 57 "c:\users\tech\desktop\codetector\sevenSegment3DigitComplex\SevenSegment3DigitComplex.c" 1
  57  0009  2000     E  	CALL __DELAYX3 + 3 -(1000 MOD 4)
  57  000A              	ENDIF
  57  000A              ;# 57 "c:\users\tech\desktop\codetector\sevenSegment3DigitComplex\SevenSegment3DigitComplex.c" 1
  57  000A              	IF (1000< 0x40B) AND (1000> 0403h)
  57  000A              ;# 57 "c:\users\tech\desktop\codetector\sevenSegment3DigitComplex\SevenSegment3DigitComplex.c" 1
  57  000A              	MOV A,0 
  57  000A              ;# 57 "c:\users\tech\desktop\codetector\sevenSegment3DigitComplex\SevenSegment3DigitComplex.c" 1
  57  000A              	CALL __DELAYX6 + 0x40a -1000
  57  000A              	ENDIF
  57  000A              ;# 57 "c:\users\tech\desktop\codetector\sevenSegment3DigitComplex\SevenSegment3DigitComplex.c" 1
  57  000A              	IF (1000 >= 0x40b) AND ((((1000-9)%0402h)/4+1)>256)
  57  000A              ;# 57 "c:\users\tech\desktop\codetector\sevenSegment3DigitComplex\SevenSegment3DigitComplex.c" 1
  57  000A              	MOV A,(1000-9)/0402h
  57  000A              ;# 57 "c:\users\tech\desktop\codetector\sevenSegment3DigitComplex\SevenSegment3DigitComplex.c" 1
  57  000A              	MOV _builtin_holtek_delay_2,A
  57  000A              ;# 57 "c:\users\tech\desktop\codetector\sevenSegment3DigitComplex\SevenSegment3DigitComplex.c" 1
  57  000A              	MOV A,0
  57  000A              ;# 57 "c:\users\tech\desktop\codetector\sevenSegment3DigitComplex\SevenSegment3DigitComplex.c" 1
  57  000A              	CALL __DELAYY5 +5- (((1000-9)%0402h)%6)
  57  000A              	ENDIF
  57  000A              ;# 57 "c:\users\tech\desktop\codetector\sevenSegment3DigitComplex\SevenSegment3DigitComplex.c" 1
  57  000A              	IF (1000 >= 0x40b) AND ((((1000-9)%0402h)/4+1)<=256)
  57  000A              ;# 57 "c:\users\tech\desktop\codetector\sevenSegment3DigitComplex\SevenSegment3DigitComplex.c" 1
  57  000A              	MOV A,(1000-9)/0402h
  57  000A              ;# 57 "c:\users\tech\desktop\codetector\sevenSegment3DigitComplex\SevenSegment3DigitComplex.c" 1
  57  000A              	MOV _builtin_holtek_delay_2,A
  57  000A              ;# 57 "c:\users\tech\desktop\codetector\sevenSegment3DigitComplex\SevenSegment3DigitComplex.c" 1
  57  000A              	MOV A,((1000-9)%0402h)/4+1
  57  000A              ;# 57 "c:\users\tech\desktop\codetector\sevenSegment3DigitComplex\SevenSegment3DigitComplex.c" 1
  57  000A              	CALL __DELAYY3 +3-(((1000-9)%0402h)%4)
  57  000A              	ENDIF
  58  000A              #line 58 "c:\users\tech\desktop\codetector\sevenSegment3DigitComplex\SevenSegment3DigitComplex.c"
  58  000A  2000     R  	call _clearSegment
  59  000B              #line 59 "c:\users\tech\desktop\codetector\sevenSegment3DigitComplex\SevenSegment3DigitComplex.c"
  59  000B  3499        	clr [25].1
  60  000C              #line 60 "c:\users\tech\desktop\codetector\sevenSegment3DigitComplex\SevenSegment3DigitComplex.c"
  60  000C  3615        	clr [21].4
  61  000D              #line 61 "c:\users\tech\desktop\codetector\sevenSegment3DigitComplex\SevenSegment3DigitComplex.c"
  61  000D  3415        	clr [21].0
  62  000E              #line 62 "c:\users\tech\desktop\codetector\sevenSegment3DigitComplex\SevenSegment3DigitComplex.c"
  62  000E  3498        	clr [24].1
  63  000F              #line 63 "c:\users\tech\desktop\codetector\sevenSegment3DigitComplex\SevenSegment3DigitComplex.c"
  63  000F  3214        	set [20].4
  64  0010              #line 64 "c:\users\tech\desktop\codetector\sevenSegment3DigitComplex\SevenSegment3DigitComplex.c"
  64  0010  3014        	set [20].0
  65  0011              #line 65 "c:\users\tech\desktop\codetector\sevenSegment3DigitComplex\SevenSegment3DigitComplex.c"
  65  0011              ;# 65 "c:\users\tech\desktop\codetector\sevenSegment3DigitComplex\SevenSegment3DigitComplex.c" 1
  65  0011              	IF 1000>263690
  65  0011              ;# 65 "c:\users\tech\desktop\codetector\sevenSegment3DigitComplex\SevenSegment3DigitComplex.c" 1
  65  0011              	ERRMESSAGE 'the value 1000of the argument exceeds the maxinum 263690'
  65  0011              	ENDIF
"File: SevenSegment3DigitComplex.c  Assembler  Version HGASM0202      Page 20

  65  0011              ;# 65 "c:\users\tech\desktop\codetector\sevenSegment3DigitComplex\SevenSegment3DigitComplex.c" 1
  65  0011              	IF 1000<0
  65  0011              ;# 65 "c:\users\tech\desktop\codetector\sevenSegment3DigitComplex\SevenSegment3DigitComplex.c" 1
  65  0011              	ERRMESSAGE 'the value 1000 of the argument exceeds the mininum 0'
  65  0011              	ENDIF
  65  0011              ;# 65 "c:\users\tech\desktop\codetector\sevenSegment3DigitComplex\SevenSegment3DigitComplex.c" 1
  65  0011              	IF 1000==0
  65  0011              ;# 65 "c:\users\tech\desktop\codetector\sevenSegment3DigitComplex\SevenSegment3DigitComplex.c" 1
  65  0011              	JMP $
  65  0011              	ENDIF
  65  0011              ;# 65 "c:\users\tech\desktop\codetector\sevenSegment3DigitComplex\SevenSegment3DigitComplex.c" 1
  65  0011              	IF 1000==1
  65  0011              ;# 65 "c:\users\tech\desktop\codetector\sevenSegment3DigitComplex\SevenSegment3DigitComplex.c" 1
  65  0011              	NOP
  65  0011              	ENDIF
  65  0011              ;# 65 "c:\users\tech\desktop\codetector\sevenSegment3DigitComplex\SevenSegment3DigitComplex.c" 1
  65  0011              	IF 1000==2
  65  0011              ;# 65 "c:\users\tech\desktop\codetector\sevenSegment3DigitComplex\SevenSegment3DigitComplex.c" 1
  65  0011              	NOP
  65  0011              ;# 65 "c:\users\tech\desktop\codetector\sevenSegment3DigitComplex\SevenSegment3DigitComplex.c" 1
  65  0011              	NOP
  65  0011              	ENDIF
  65  0011              ;# 65 "c:\users\tech\desktop\codetector\sevenSegment3DigitComplex\SevenSegment3DigitComplex.c" 1
  65  0011              	IF 1000==3
  65  0011              ;# 65 "c:\users\tech\desktop\codetector\sevenSegment3DigitComplex\SevenSegment3DigitComplex.c" 1
  65  0011              	NOP
  65  0011              ;# 65 "c:\users\tech\desktop\codetector\sevenSegment3DigitComplex\SevenSegment3DigitComplex.c" 1
  65  0011              	NOP
  65  0011              ;# 65 "c:\users\tech\desktop\codetector\sevenSegment3DigitComplex\SevenSegment3DigitComplex.c" 1
  65  0011              	NOP
  65  0011              	ENDIF
  65  0011              ;# 65 "c:\users\tech\desktop\codetector\sevenSegment3DigitComplex\SevenSegment3DigitComplex.c" 1
  65  0011              	IF (1000<8) AND (1000>3)
  65  0011              ;# 65 "c:\users\tech\desktop\codetector\sevenSegment3DigitComplex\SevenSegment3DigitComplex.c" 1
  65  0011              	CALL __DELAY3 + 7 -1000
  65  0011              	ENDIF
  65  0011              ;# 65 "c:\users\tech\desktop\codetector\sevenSegment3DigitComplex\SevenSegment3DigitComplex.c" 1
  65  0011              	IF (1000< 0404h) AND (1000>7)
  65  0011              ;# 65 "c:\users\tech\desktop\codetector\sevenSegment3DigitComplex\SevenSegment3DigitComplex.c" 1
  65  0011  0FF9        	MOV A,1000/4-1
  65  0012              ;# 65 "c:\users\tech\desktop\codetector\sevenSegment3DigitComplex\SevenSegment3DigitComplex.c" 1
  65  0012  2000     E  	CALL __DELAYX3 + 3 -(1000 MOD 4)
  65  0013              	ENDIF
  65  0013              ;# 65 "c:\users\tech\desktop\codetector\sevenSegment3DigitComplex\SevenSegment3DigitComplex.c" 1
  65  0013              	IF (1000< 0x40B) AND (1000> 0403h)
  65  0013              ;# 65 "c:\users\tech\desktop\codetector\sevenSegment3DigitComplex\SevenSegment3DigitComplex.c" 1
  65  0013              	MOV A,0 
  65  0013              ;# 65 "c:\users\tech\desktop\codetector\sevenSegment3DigitComplex\SevenSegment3DigitComplex.c" 1
  65  0013              	CALL __DELAYX6 + 0x40a -1000
  65  0013              	ENDIF
  65  0013              ;# 65 "c:\users\tech\desktop\codetector\sevenSegment3DigitComplex\SevenSegment3DigitComplex.c" 1
  65  0013              	IF (1000 >= 0x40b) AND ((((1000-9)%0402h)/4+1)>256)
  65  0013              ;# 65 "c:\users\tech\desktop\codetector\sevenSegment3DigitComplex\SevenSegment3DigitComplex.c" 1
  65  0013              	MOV A,(1000-9)/0402h
  65  0013              ;# 65 "c:\users\tech\desktop\codetector\sevenSegment3DigitComplex\SevenSegment3DigitComplex.c" 1
  65  0013              	MOV _builtin_holtek_delay_2,A
  65  0013              ;# 65 "c:\users\tech\desktop\codetector\sevenSegment3DigitComplex\SevenSegment3DigitComplex.c" 1
  65  0013              	MOV A,0
  65  0013              ;# 65 "c:\users\tech\desktop\codetector\sevenSegment3DigitComplex\SevenSegment3DigitComplex.c" 1
  65  0013              	CALL __DELAYY5 +5- (((1000-9)%0402h)%6)
"File: SevenSegment3DigitComplex.c  Assembler  Version HGASM0202      Page 21

  65  0013              	ENDIF
  65  0013              ;# 65 "c:\users\tech\desktop\codetector\sevenSegment3DigitComplex\SevenSegment3DigitComplex.c" 1
  65  0013              	IF (1000 >= 0x40b) AND ((((1000-9)%0402h)/4+1)<=256)
  65  0013              ;# 65 "c:\users\tech\desktop\codetector\sevenSegment3DigitComplex\SevenSegment3DigitComplex.c" 1
  65  0013              	MOV A,(1000-9)/0402h
  65  0013              ;# 65 "c:\users\tech\desktop\codetector\sevenSegment3DigitComplex\SevenSegment3DigitComplex.c" 1
  65  0013              	MOV _builtin_holtek_delay_2,A
  65  0013              ;# 65 "c:\users\tech\desktop\codetector\sevenSegment3DigitComplex\SevenSegment3DigitComplex.c" 1
  65  0013              	MOV A,((1000-9)%0402h)/4+1
  65  0013              ;# 65 "c:\users\tech\desktop\codetector\sevenSegment3DigitComplex\SevenSegment3DigitComplex.c" 1
  65  0013              	CALL __DELAYY3 +3-(((1000-9)%0402h)%4)
  65  0013              	ENDIF
  66  0013              #line 66 "c:\users\tech\desktop\codetector\sevenSegment3DigitComplex\SevenSegment3DigitComplex.c"
  66  0013  2000     R  	call _clearSegment
  67  0014              #line 67 "c:\users\tech\desktop\codetector\sevenSegment3DigitComplex\SevenSegment3DigitComplex.c"
  67  0014  3519        	clr [25].2
  68  0015              #line 68 "c:\users\tech\desktop\codetector\sevenSegment3DigitComplex\SevenSegment3DigitComplex.c"
  68  0015  3499        	clr [25].1
  69  0016              #line 69 "c:\users\tech\desktop\codetector\sevenSegment3DigitComplex\SevenSegment3DigitComplex.c"
  69  0016  3599        	clr [25].3
  70  0017              #line 70 "c:\users\tech\desktop\codetector\sevenSegment3DigitComplex\SevenSegment3DigitComplex.c"
  70  0017  3118        	set [24].2
  71  0018              #line 71 "c:\users\tech\desktop\codetector\sevenSegment3DigitComplex\SevenSegment3DigitComplex.c"
  71  0018  3498        	clr [24].1
  72  0019              #line 72 "c:\users\tech\desktop\codetector\sevenSegment3DigitComplex\SevenSegment3DigitComplex.c"
  72  0019  3598        	clr [24].3
  73  001A              #line 73 "c:\users\tech\desktop\codetector\sevenSegment3DigitComplex\SevenSegment3DigitComplex.c"
  73  001A              ;# 73 "c:\users\tech\desktop\codetector\sevenSegment3DigitComplex\SevenSegment3DigitComplex.c" 1
  73  001A              	IF 1000>263690
  73  001A              ;# 73 "c:\users\tech\desktop\codetector\sevenSegment3DigitComplex\SevenSegment3DigitComplex.c" 1
  73  001A              	ERRMESSAGE 'the value 1000of the argument exceeds the maxinum 263690'
  73  001A              	ENDIF
  73  001A              ;# 73 "c:\users\tech\desktop\codetector\sevenSegment3DigitComplex\SevenSegment3DigitComplex.c" 1
  73  001A              	IF 1000<0
  73  001A              ;# 73 "c:\users\tech\desktop\codetector\sevenSegment3DigitComplex\SevenSegment3DigitComplex.c" 1
  73  001A              	ERRMESSAGE 'the value 1000 of the argument exceeds the mininum 0'
  73  001A              	ENDIF
  73  001A              ;# 73 "c:\users\tech\desktop\codetector\sevenSegment3DigitComplex\SevenSegment3DigitComplex.c" 1
  73  001A              	IF 1000==0
  73  001A              ;# 73 "c:\users\tech\desktop\codetector\sevenSegment3DigitComplex\SevenSegment3DigitComplex.c" 1
  73  001A              	JMP $
  73  001A              	ENDIF
  73  001A              ;# 73 "c:\users\tech\desktop\codetector\sevenSegment3DigitComplex\SevenSegment3DigitComplex.c" 1
  73  001A              	IF 1000==1
  73  001A              ;# 73 "c:\users\tech\desktop\codetector\sevenSegment3DigitComplex\SevenSegment3DigitComplex.c" 1
  73  001A              	NOP
  73  001A              	ENDIF
  73  001A              ;# 73 "c:\users\tech\desktop\codetector\sevenSegment3DigitComplex\SevenSegment3DigitComplex.c" 1
  73  001A              	IF 1000==2
  73  001A              ;# 73 "c:\users\tech\desktop\codetector\sevenSegment3DigitComplex\SevenSegment3DigitComplex.c" 1
  73  001A              	NOP
  73  001A              ;# 73 "c:\users\tech\desktop\codetector\sevenSegment3DigitComplex\SevenSegment3DigitComplex.c" 1
  73  001A              	NOP
  73  001A              	ENDIF
  73  001A              ;# 73 "c:\users\tech\desktop\codetector\sevenSegment3DigitComplex\SevenSegment3DigitComplex.c" 1
  73  001A              	IF 1000==3
  73  001A              ;# 73 "c:\users\tech\desktop\codetector\sevenSegment3DigitComplex\SevenSegment3DigitComplex.c" 1
  73  001A              	NOP
  73  001A              ;# 73 "c:\users\tech\desktop\codetector\sevenSegment3DigitComplex\SevenSegment3DigitComplex.c" 1
  73  001A              	NOP
"File: SevenSegment3DigitComplex.c  Assembler  Version HGASM0202      Page 22

  73  001A              ;# 73 "c:\users\tech\desktop\codetector\sevenSegment3DigitComplex\SevenSegment3DigitComplex.c" 1
  73  001A              	NOP
  73  001A              	ENDIF
  73  001A              ;# 73 "c:\users\tech\desktop\codetector\sevenSegment3DigitComplex\SevenSegment3DigitComplex.c" 1
  73  001A              	IF (1000<8) AND (1000>3)
  73  001A              ;# 73 "c:\users\tech\desktop\codetector\sevenSegment3DigitComplex\SevenSegment3DigitComplex.c" 1
  73  001A              	CALL __DELAY3 + 7 -1000
  73  001A              	ENDIF
  73  001A              ;# 73 "c:\users\tech\desktop\codetector\sevenSegment3DigitComplex\SevenSegment3DigitComplex.c" 1
  73  001A              	IF (1000< 0404h) AND (1000>7)
  73  001A              ;# 73 "c:\users\tech\desktop\codetector\sevenSegment3DigitComplex\SevenSegment3DigitComplex.c" 1
  73  001A  0FF9        	MOV A,1000/4-1
  73  001B              ;# 73 "c:\users\tech\desktop\codetector\sevenSegment3DigitComplex\SevenSegment3DigitComplex.c" 1
  73  001B  2000     E  	CALL __DELAYX3 + 3 -(1000 MOD 4)
  73  001C              	ENDIF
  73  001C              ;# 73 "c:\users\tech\desktop\codetector\sevenSegment3DigitComplex\SevenSegment3DigitComplex.c" 1
  73  001C              	IF (1000< 0x40B) AND (1000> 0403h)
  73  001C              ;# 73 "c:\users\tech\desktop\codetector\sevenSegment3DigitComplex\SevenSegment3DigitComplex.c" 1
  73  001C              	MOV A,0 
  73  001C              ;# 73 "c:\users\tech\desktop\codetector\sevenSegment3DigitComplex\SevenSegment3DigitComplex.c" 1
  73  001C              	CALL __DELAYX6 + 0x40a -1000
  73  001C              	ENDIF
  73  001C              ;# 73 "c:\users\tech\desktop\codetector\sevenSegment3DigitComplex\SevenSegment3DigitComplex.c" 1
  73  001C              	IF (1000 >= 0x40b) AND ((((1000-9)%0402h)/4+1)>256)
  73  001C              ;# 73 "c:\users\tech\desktop\codetector\sevenSegment3DigitComplex\SevenSegment3DigitComplex.c" 1
  73  001C              	MOV A,(1000-9)/0402h
  73  001C              ;# 73 "c:\users\tech\desktop\codetector\sevenSegment3DigitComplex\SevenSegment3DigitComplex.c" 1
  73  001C              	MOV _builtin_holtek_delay_2,A
  73  001C              ;# 73 "c:\users\tech\desktop\codetector\sevenSegment3DigitComplex\SevenSegment3DigitComplex.c" 1
  73  001C              	MOV A,0
  73  001C              ;# 73 "c:\users\tech\desktop\codetector\sevenSegment3DigitComplex\SevenSegment3DigitComplex.c" 1
  73  001C              	CALL __DELAYY5 +5- (((1000-9)%0402h)%6)
  73  001C              	ENDIF
  73  001C              ;# 73 "c:\users\tech\desktop\codetector\sevenSegment3DigitComplex\SevenSegment3DigitComplex.c" 1
  73  001C              	IF (1000 >= 0x40b) AND ((((1000-9)%0402h)/4+1)<=256)
  73  001C              ;# 73 "c:\users\tech\desktop\codetector\sevenSegment3DigitComplex\SevenSegment3DigitComplex.c" 1
  73  001C              	MOV A,(1000-9)/0402h
  73  001C              ;# 73 "c:\users\tech\desktop\codetector\sevenSegment3DigitComplex\SevenSegment3DigitComplex.c" 1
  73  001C              	MOV _builtin_holtek_delay_2,A
  73  001C              ;# 73 "c:\users\tech\desktop\codetector\sevenSegment3DigitComplex\SevenSegment3DigitComplex.c" 1
  73  001C              	MOV A,((1000-9)%0402h)/4+1
  73  001C              ;# 73 "c:\users\tech\desktop\codetector\sevenSegment3DigitComplex\SevenSegment3DigitComplex.c" 1
  73  001C              	CALL __DELAYY3 +3-(((1000-9)%0402h)%4)
  73  001C              	ENDIF
  74  001C              #line 74 "c:\users\tech\desktop\codetector\sevenSegment3DigitComplex\SevenSegment3DigitComplex.c"
  74  001C  2000     R  	call _clearSegment
  75  001D              #line 75 "c:\users\tech\desktop\codetector\sevenSegment3DigitComplex\SevenSegment3DigitComplex.c"
  75  001D  3499        	clr [25].1
  76  001E              #line 76 "c:\users\tech\desktop\codetector\sevenSegment3DigitComplex\SevenSegment3DigitComplex.c"
  76  001E  3515        	clr [21].2
  77  001F              #line 77 "c:\users\tech\desktop\codetector\sevenSegment3DigitComplex\SevenSegment3DigitComplex.c"
  77  001F  3498        	clr [24].1
  78  0020              #line 78 "c:\users\tech\desktop\codetector\sevenSegment3DigitComplex\SevenSegment3DigitComplex.c"
  78  0020  3114        	set [20].2
  79  0021              #line 79 "c:\users\tech\desktop\codetector\sevenSegment3DigitComplex\SevenSegment3DigitComplex.c"
  79  0021              ;# 79 "c:\users\tech\desktop\codetector\sevenSegment3DigitComplex\SevenSegment3DigitComplex.c" 1
  79  0021              	IF 1000>263690
  79  0021              ;# 79 "c:\users\tech\desktop\codetector\sevenSegment3DigitComplex\SevenSegment3DigitComplex.c" 1
  79  0021              	ERRMESSAGE 'the value 1000of the argument exceeds the maxinum 263690'
  79  0021              	ENDIF
"File: SevenSegment3DigitComplex.c  Assembler  Version HGASM0202      Page 23

  79  0021              ;# 79 "c:\users\tech\desktop\codetector\sevenSegment3DigitComplex\SevenSegment3DigitComplex.c" 1
  79  0021              	IF 1000<0
  79  0021              ;# 79 "c:\users\tech\desktop\codetector\sevenSegment3DigitComplex\SevenSegment3DigitComplex.c" 1
  79  0021              	ERRMESSAGE 'the value 1000 of the argument exceeds the mininum 0'
  79  0021              	ENDIF
  79  0021              ;# 79 "c:\users\tech\desktop\codetector\sevenSegment3DigitComplex\SevenSegment3DigitComplex.c" 1
  79  0021              	IF 1000==0
  79  0021              ;# 79 "c:\users\tech\desktop\codetector\sevenSegment3DigitComplex\SevenSegment3DigitComplex.c" 1
  79  0021              	JMP $
  79  0021              	ENDIF
  79  0021              ;# 79 "c:\users\tech\desktop\codetector\sevenSegment3DigitComplex\SevenSegment3DigitComplex.c" 1
  79  0021              	IF 1000==1
  79  0021              ;# 79 "c:\users\tech\desktop\codetector\sevenSegment3DigitComplex\SevenSegment3DigitComplex.c" 1
  79  0021              	NOP
  79  0021              	ENDIF
  79  0021              ;# 79 "c:\users\tech\desktop\codetector\sevenSegment3DigitComplex\SevenSegment3DigitComplex.c" 1
  79  0021              	IF 1000==2
  79  0021              ;# 79 "c:\users\tech\desktop\codetector\sevenSegment3DigitComplex\SevenSegment3DigitComplex.c" 1
  79  0021              	NOP
  79  0021              ;# 79 "c:\users\tech\desktop\codetector\sevenSegment3DigitComplex\SevenSegment3DigitComplex.c" 1
  79  0021              	NOP
  79  0021              	ENDIF
  79  0021              ;# 79 "c:\users\tech\desktop\codetector\sevenSegment3DigitComplex\SevenSegment3DigitComplex.c" 1
  79  0021              	IF 1000==3
  79  0021              ;# 79 "c:\users\tech\desktop\codetector\sevenSegment3DigitComplex\SevenSegment3DigitComplex.c" 1
  79  0021              	NOP
  79  0021              ;# 79 "c:\users\tech\desktop\codetector\sevenSegment3DigitComplex\SevenSegment3DigitComplex.c" 1
  79  0021              	NOP
  79  0021              ;# 79 "c:\users\tech\desktop\codetector\sevenSegment3DigitComplex\SevenSegment3DigitComplex.c" 1
  79  0021              	NOP
  79  0021              	ENDIF
  79  0021              ;# 79 "c:\users\tech\desktop\codetector\sevenSegment3DigitComplex\SevenSegment3DigitComplex.c" 1
  79  0021              	IF (1000<8) AND (1000>3)
  79  0021              ;# 79 "c:\users\tech\desktop\codetector\sevenSegment3DigitComplex\SevenSegment3DigitComplex.c" 1
  79  0021              	CALL __DELAY3 + 7 -1000
  79  0021              	ENDIF
  79  0021              ;# 79 "c:\users\tech\desktop\codetector\sevenSegment3DigitComplex\SevenSegment3DigitComplex.c" 1
  79  0021              	IF (1000< 0404h) AND (1000>7)
  79  0021              ;# 79 "c:\users\tech\desktop\codetector\sevenSegment3DigitComplex\SevenSegment3DigitComplex.c" 1
  79  0021  0FF9        	MOV A,1000/4-1
  79  0022              ;# 79 "c:\users\tech\desktop\codetector\sevenSegment3DigitComplex\SevenSegment3DigitComplex.c" 1
  79  0022  2000     E  	CALL __DELAYX3 + 3 -(1000 MOD 4)
  79  0023              	ENDIF
  79  0023              ;# 79 "c:\users\tech\desktop\codetector\sevenSegment3DigitComplex\SevenSegment3DigitComplex.c" 1
  79  0023              	IF (1000< 0x40B) AND (1000> 0403h)
  79  0023              ;# 79 "c:\users\tech\desktop\codetector\sevenSegment3DigitComplex\SevenSegment3DigitComplex.c" 1
  79  0023              	MOV A,0 
  79  0023              ;# 79 "c:\users\tech\desktop\codetector\sevenSegment3DigitComplex\SevenSegment3DigitComplex.c" 1
  79  0023              	CALL __DELAYX6 + 0x40a -1000
  79  0023              	ENDIF
  79  0023              ;# 79 "c:\users\tech\desktop\codetector\sevenSegment3DigitComplex\SevenSegment3DigitComplex.c" 1
  79  0023              	IF (1000 >= 0x40b) AND ((((1000-9)%0402h)/4+1)>256)
  79  0023              ;# 79 "c:\users\tech\desktop\codetector\sevenSegment3DigitComplex\SevenSegment3DigitComplex.c" 1
  79  0023              	MOV A,(1000-9)/0402h
  79  0023              ;# 79 "c:\users\tech\desktop\codetector\sevenSegment3DigitComplex\SevenSegment3DigitComplex.c" 1
  79  0023              	MOV _builtin_holtek_delay_2,A
  79  0023              ;# 79 "c:\users\tech\desktop\codetector\sevenSegment3DigitComplex\SevenSegment3DigitComplex.c" 1
  79  0023              	MOV A,0
  79  0023              ;# 79 "c:\users\tech\desktop\codetector\sevenSegment3DigitComplex\SevenSegment3DigitComplex.c" 1
  79  0023              	CALL __DELAYY5 +5- (((1000-9)%0402h)%6)
"File: SevenSegment3DigitComplex.c  Assembler  Version HGASM0202      Page 24

  79  0023              	ENDIF
  79  0023              ;# 79 "c:\users\tech\desktop\codetector\sevenSegment3DigitComplex\SevenSegment3DigitComplex.c" 1
  79  0023              	IF (1000 >= 0x40b) AND ((((1000-9)%0402h)/4+1)<=256)
  79  0023              ;# 79 "c:\users\tech\desktop\codetector\sevenSegment3DigitComplex\SevenSegment3DigitComplex.c" 1
  79  0023              	MOV A,(1000-9)/0402h
  79  0023              ;# 79 "c:\users\tech\desktop\codetector\sevenSegment3DigitComplex\SevenSegment3DigitComplex.c" 1
  79  0023              	MOV _builtin_holtek_delay_2,A
  79  0023              ;# 79 "c:\users\tech\desktop\codetector\sevenSegment3DigitComplex\SevenSegment3DigitComplex.c" 1
  79  0023              	MOV A,((1000-9)%0402h)/4+1
  79  0023              ;# 79 "c:\users\tech\desktop\codetector\sevenSegment3DigitComplex\SevenSegment3DigitComplex.c" 1
  79  0023              	CALL __DELAYY3 +3-(((1000-9)%0402h)%4)
  79  0023              	ENDIF
  81  0023              #line 81 "c:\users\tech\desktop\codetector\sevenSegment3DigitComplex\SevenSegment3DigitComplex.c"
  81  0023  2000     R  	call _clearSegment
  84  0024              #line 84 "c:\users\tech\desktop\codetector\sevenSegment3DigitComplex\SevenSegment3DigitComplex.c"
  84  0024  3499        	clr [25].1
  85  0025              #line 85 "c:\users\tech\desktop\codetector\sevenSegment3DigitComplex\SevenSegment3DigitComplex.c"
  85  0025  3415        	clr [21].0
  86  0026              #line 86 "c:\users\tech\desktop\codetector\sevenSegment3DigitComplex\SevenSegment3DigitComplex.c"
  86  0026  3515        	clr [21].2
  87  0027              #line 87 "c:\users\tech\desktop\codetector\sevenSegment3DigitComplex\SevenSegment3DigitComplex.c"
  87  0027  3098        	set [24].1
  88  0028              #line 88 "c:\users\tech\desktop\codetector\sevenSegment3DigitComplex\SevenSegment3DigitComplex.c"
  88  0028  3414        	clr [20].0
  89  0029              #line 89 "c:\users\tech\desktop\codetector\sevenSegment3DigitComplex\SevenSegment3DigitComplex.c"
  89  0029  3514        	clr [20].2
  90  002A              #line 90 "c:\users\tech\desktop\codetector\sevenSegment3DigitComplex\SevenSegment3DigitComplex.c"
  90  002A              ;# 90 "c:\users\tech\desktop\codetector\sevenSegment3DigitComplex\SevenSegment3DigitComplex.c" 1
  90  002A              	IF 1000>263690
  90  002A              ;# 90 "c:\users\tech\desktop\codetector\sevenSegment3DigitComplex\SevenSegment3DigitComplex.c" 1
  90  002A              	ERRMESSAGE 'the value 1000of the argument exceeds the maxinum 263690'
  90  002A              	ENDIF
  90  002A              ;# 90 "c:\users\tech\desktop\codetector\sevenSegment3DigitComplex\SevenSegment3DigitComplex.c" 1
  90  002A              	IF 1000<0
  90  002A              ;# 90 "c:\users\tech\desktop\codetector\sevenSegment3DigitComplex\SevenSegment3DigitComplex.c" 1
  90  002A              	ERRMESSAGE 'the value 1000 of the argument exceeds the mininum 0'
  90  002A              	ENDIF
  90  002A              ;# 90 "c:\users\tech\desktop\codetector\sevenSegment3DigitComplex\SevenSegment3DigitComplex.c" 1
  90  002A              	IF 1000==0
  90  002A              ;# 90 "c:\users\tech\desktop\codetector\sevenSegment3DigitComplex\SevenSegment3DigitComplex.c" 1
  90  002A              	JMP $
  90  002A              	ENDIF
  90  002A              ;# 90 "c:\users\tech\desktop\codetector\sevenSegment3DigitComplex\SevenSegment3DigitComplex.c" 1
  90  002A              	IF 1000==1
  90  002A              ;# 90 "c:\users\tech\desktop\codetector\sevenSegment3DigitComplex\SevenSegment3DigitComplex.c" 1
  90  002A              	NOP
  90  002A              	ENDIF
  90  002A              ;# 90 "c:\users\tech\desktop\codetector\sevenSegment3DigitComplex\SevenSegment3DigitComplex.c" 1
  90  002A              	IF 1000==2
  90  002A              ;# 90 "c:\users\tech\desktop\codetector\sevenSegment3DigitComplex\SevenSegment3DigitComplex.c" 1
  90  002A              	NOP
  90  002A              ;# 90 "c:\users\tech\desktop\codetector\sevenSegment3DigitComplex\SevenSegment3DigitComplex.c" 1
  90  002A              	NOP
  90  002A              	ENDIF
  90  002A              ;# 90 "c:\users\tech\desktop\codetector\sevenSegment3DigitComplex\SevenSegment3DigitComplex.c" 1
  90  002A              	IF 1000==3
  90  002A              ;# 90 "c:\users\tech\desktop\codetector\sevenSegment3DigitComplex\SevenSegment3DigitComplex.c" 1
  90  002A              	NOP
  90  002A              ;# 90 "c:\users\tech\desktop\codetector\sevenSegment3DigitComplex\SevenSegment3DigitComplex.c" 1
  90  002A              	NOP
"File: SevenSegment3DigitComplex.c  Assembler  Version HGASM0202      Page 25

  90  002A              ;# 90 "c:\users\tech\desktop\codetector\sevenSegment3DigitComplex\SevenSegment3DigitComplex.c" 1
  90  002A              	NOP
  90  002A              	ENDIF
  90  002A              ;# 90 "c:\users\tech\desktop\codetector\sevenSegment3DigitComplex\SevenSegment3DigitComplex.c" 1
  90  002A              	IF (1000<8) AND (1000>3)
  90  002A              ;# 90 "c:\users\tech\desktop\codetector\sevenSegment3DigitComplex\SevenSegment3DigitComplex.c" 1
  90  002A              	CALL __DELAY3 + 7 -1000
  90  002A              	ENDIF
  90  002A              ;# 90 "c:\users\tech\desktop\codetector\sevenSegment3DigitComplex\SevenSegment3DigitComplex.c" 1
  90  002A              	IF (1000< 0404h) AND (1000>7)
  90  002A              ;# 90 "c:\users\tech\desktop\codetector\sevenSegment3DigitComplex\SevenSegment3DigitComplex.c" 1
  90  002A  0FF9        	MOV A,1000/4-1
  90  002B              ;# 90 "c:\users\tech\desktop\codetector\sevenSegment3DigitComplex\SevenSegment3DigitComplex.c" 1
  90  002B  2000     E  	CALL __DELAYX3 + 3 -(1000 MOD 4)
  90  002C              	ENDIF
  90  002C              ;# 90 "c:\users\tech\desktop\codetector\sevenSegment3DigitComplex\SevenSegment3DigitComplex.c" 1
  90  002C              	IF (1000< 0x40B) AND (1000> 0403h)
  90  002C              ;# 90 "c:\users\tech\desktop\codetector\sevenSegment3DigitComplex\SevenSegment3DigitComplex.c" 1
  90  002C              	MOV A,0 
  90  002C              ;# 90 "c:\users\tech\desktop\codetector\sevenSegment3DigitComplex\SevenSegment3DigitComplex.c" 1
  90  002C              	CALL __DELAYX6 + 0x40a -1000
  90  002C              	ENDIF
  90  002C              ;# 90 "c:\users\tech\desktop\codetector\sevenSegment3DigitComplex\SevenSegment3DigitComplex.c" 1
  90  002C              	IF (1000 >= 0x40b) AND ((((1000-9)%0402h)/4+1)>256)
  90  002C              ;# 90 "c:\users\tech\desktop\codetector\sevenSegment3DigitComplex\SevenSegment3DigitComplex.c" 1
  90  002C              	MOV A,(1000-9)/0402h
  90  002C              ;# 90 "c:\users\tech\desktop\codetector\sevenSegment3DigitComplex\SevenSegment3DigitComplex.c" 1
  90  002C              	MOV _builtin_holtek_delay_2,A
  90  002C              ;# 90 "c:\users\tech\desktop\codetector\sevenSegment3DigitComplex\SevenSegment3DigitComplex.c" 1
  90  002C              	MOV A,0
  90  002C              ;# 90 "c:\users\tech\desktop\codetector\sevenSegment3DigitComplex\SevenSegment3DigitComplex.c" 1
  90  002C              	CALL __DELAYY5 +5- (((1000-9)%0402h)%6)
  90  002C              	ENDIF
  90  002C              ;# 90 "c:\users\tech\desktop\codetector\sevenSegment3DigitComplex\SevenSegment3DigitComplex.c" 1
  90  002C              	IF (1000 >= 0x40b) AND ((((1000-9)%0402h)/4+1)<=256)
  90  002C              ;# 90 "c:\users\tech\desktop\codetector\sevenSegment3DigitComplex\SevenSegment3DigitComplex.c" 1
  90  002C              	MOV A,(1000-9)/0402h
  90  002C              ;# 90 "c:\users\tech\desktop\codetector\sevenSegment3DigitComplex\SevenSegment3DigitComplex.c" 1
  90  002C              	MOV _builtin_holtek_delay_2,A
  90  002C              ;# 90 "c:\users\tech\desktop\codetector\sevenSegment3DigitComplex\SevenSegment3DigitComplex.c" 1
  90  002C              	MOV A,((1000-9)%0402h)/4+1
  90  002C              ;# 90 "c:\users\tech\desktop\codetector\sevenSegment3DigitComplex\SevenSegment3DigitComplex.c" 1
  90  002C              	CALL __DELAYY3 +3-(((1000-9)%0402h)%4)
  90  002C              	ENDIF
  90  002C  0003        	ret
  90  002D              _error1Seg endp
  90  002D              #line 90 "c:\users\tech\desktop\codetector\sevenSegment3DigitComplex\SevenSegment3DigitComplex.c"
  90  002D              #pragma debug scope 1 1
  90  002D              public _ziroDigit1
  90  002D              #pragma debug scope 11 1
  94  002D              #line 94 "c:\users\tech\desktop\codetector\sevenSegment3DigitComplex\SevenSegment3DigitComplex.c"
  94  0000              _ziroDigit1 .section 'code'
  94  0000              _ziroDigit1 proc
 100  0000              #line 100 "c:\users\tech\desktop\codetector\sevenSegment3DigitComplex\SevenSegment3DigitComplex.c"
 100  0000              ;# 100 "c:\users\tech\desktop\codetector\sevenSegment3DigitComplex\SevenSegment3DigitComplex.c" 1
 100  0000              	IF 1000>263690
 100  0000              ;# 100 "c:\users\tech\desktop\codetector\sevenSegment3DigitComplex\SevenSegment3DigitComplex.c" 1
 100  0000              	ERRMESSAGE 'the value 1000of the argument exceeds the maxinum 263690'
 100  0000              	ENDIF
 100  0000              ;# 100 "c:\users\tech\desktop\codetector\sevenSegment3DigitComplex\SevenSegment3DigitComplex.c" 1
"File: SevenSegment3DigitComplex.c  Assembler  Version HGASM0202      Page 26

 100  0000              	IF 1000<0
 100  0000              ;# 100 "c:\users\tech\desktop\codetector\sevenSegment3DigitComplex\SevenSegment3DigitComplex.c" 1
 100  0000              	ERRMESSAGE 'the value 1000 of the argument exceeds the mininum 0'
 100  0000              	ENDIF
 100  0000              ;# 100 "c:\users\tech\desktop\codetector\sevenSegment3DigitComplex\SevenSegment3DigitComplex.c" 1
 100  0000              	IF 1000==0
 100  0000              ;# 100 "c:\users\tech\desktop\codetector\sevenSegment3DigitComplex\SevenSegment3DigitComplex.c" 1
 100  0000              	JMP $
 100  0000              	ENDIF
 100  0000              ;# 100 "c:\users\tech\desktop\codetector\sevenSegment3DigitComplex\SevenSegment3DigitComplex.c" 1
 100  0000              	IF 1000==1
 100  0000              ;# 100 "c:\users\tech\desktop\codetector\sevenSegment3DigitComplex\SevenSegment3DigitComplex.c" 1
 100  0000              	NOP
 100  0000              	ENDIF
 100  0000              ;# 100 "c:\users\tech\desktop\codetector\sevenSegment3DigitComplex\SevenSegment3DigitComplex.c" 1
 100  0000              	IF 1000==2
 100  0000              ;# 100 "c:\users\tech\desktop\codetector\sevenSegment3DigitComplex\SevenSegment3DigitComplex.c" 1
 100  0000              	NOP
 100  0000              ;# 100 "c:\users\tech\desktop\codetector\sevenSegment3DigitComplex\SevenSegment3DigitComplex.c" 1
 100  0000              	NOP
 100  0000              	ENDIF
 100  0000              ;# 100 "c:\users\tech\desktop\codetector\sevenSegment3DigitComplex\SevenSegment3DigitComplex.c" 1
 100  0000              	IF 1000==3
 100  0000              ;# 100 "c:\users\tech\desktop\codetector\sevenSegment3DigitComplex\SevenSegment3DigitComplex.c" 1
 100  0000              	NOP
 100  0000              ;# 100 "c:\users\tech\desktop\codetector\sevenSegment3DigitComplex\SevenSegment3DigitComplex.c" 1
 100  0000              	NOP
 100  0000              ;# 100 "c:\users\tech\desktop\codetector\sevenSegment3DigitComplex\SevenSegment3DigitComplex.c" 1
 100  0000              	NOP
 100  0000              	ENDIF
 100  0000              ;# 100 "c:\users\tech\desktop\codetector\sevenSegment3DigitComplex\SevenSegment3DigitComplex.c" 1
 100  0000              	IF (1000<8) AND (1000>3)
 100  0000              ;# 100 "c:\users\tech\desktop\codetector\sevenSegment3DigitComplex\SevenSegment3DigitComplex.c" 1
 100  0000              	CALL __DELAY3 + 7 -1000
 100  0000              	ENDIF
 100  0000              ;# 100 "c:\users\tech\desktop\codetector\sevenSegment3DigitComplex\SevenSegment3DigitComplex.c" 1
 100  0000              	IF (1000< 0404h) AND (1000>7)
 100  0000              ;# 100 "c:\users\tech\desktop\codetector\sevenSegment3DigitComplex\SevenSegment3DigitComplex.c" 1
 100  0000  0FF9        	MOV A,1000/4-1
 100  0001              ;# 100 "c:\users\tech\desktop\codetector\sevenSegment3DigitComplex\SevenSegment3DigitComplex.c" 1
 100  0001  2000     E  	CALL __DELAYX3 + 3 -(1000 MOD 4)
 100  0002              	ENDIF
 100  0002              ;# 100 "c:\users\tech\desktop\codetector\sevenSegment3DigitComplex\SevenSegment3DigitComplex.c" 1
 100  0002              	IF (1000< 0x40B) AND (1000> 0403h)
 100  0002              ;# 100 "c:\users\tech\desktop\codetector\sevenSegment3DigitComplex\SevenSegment3DigitComplex.c" 1
 100  0002              	MOV A,0 
 100  0002              ;# 100 "c:\users\tech\desktop\codetector\sevenSegment3DigitComplex\SevenSegment3DigitComplex.c" 1
 100  0002              	CALL __DELAYX6 + 0x40a -1000
 100  0002              	ENDIF
 100  0002              ;# 100 "c:\users\tech\desktop\codetector\sevenSegment3DigitComplex\SevenSegment3DigitComplex.c" 1
 100  0002              	IF (1000 >= 0x40b) AND ((((1000-9)%0402h)/4+1)>256)
 100  0002              ;# 100 "c:\users\tech\desktop\codetector\sevenSegment3DigitComplex\SevenSegment3DigitComplex.c" 1
 100  0002              	MOV A,(1000-9)/0402h
 100  0002              ;# 100 "c:\users\tech\desktop\codetector\sevenSegment3DigitComplex\SevenSegment3DigitComplex.c" 1
 100  0002              	MOV _builtin_holtek_delay_2,A
 100  0002              ;# 100 "c:\users\tech\desktop\codetector\sevenSegment3DigitComplex\SevenSegment3DigitComplex.c" 1
 100  0002              	MOV A,0
 100  0002              ;# 100 "c:\users\tech\desktop\codetector\sevenSegment3DigitComplex\SevenSegment3DigitComplex.c" 1
 100  0002              	CALL __DELAYY5 +5- (((1000-9)%0402h)%6)
 100  0002              	ENDIF
"File: SevenSegment3DigitComplex.c  Assembler  Version HGASM0202      Page 27

 100  0002              ;# 100 "c:\users\tech\desktop\codetector\sevenSegment3DigitComplex\SevenSegment3DigitComplex.c" 1
 100  0002              	IF (1000 >= 0x40b) AND ((((1000-9)%0402h)/4+1)<=256)
 100  0002              ;# 100 "c:\users\tech\desktop\codetector\sevenSegment3DigitComplex\SevenSegment3DigitComplex.c" 1
 100  0002              	MOV A,(1000-9)/0402h
 100  0002              ;# 100 "c:\users\tech\desktop\codetector\sevenSegment3DigitComplex\SevenSegment3DigitComplex.c" 1
 100  0002              	MOV _builtin_holtek_delay_2,A
 100  0002              ;# 100 "c:\users\tech\desktop\codetector\sevenSegment3DigitComplex\SevenSegment3DigitComplex.c" 1
 100  0002              	MOV A,((1000-9)%0402h)/4+1
 100  0002              ;# 100 "c:\users\tech\desktop\codetector\sevenSegment3DigitComplex\SevenSegment3DigitComplex.c" 1
 100  0002              	CALL __DELAYY3 +3-(((1000-9)%0402h)%4)
 100  0002              	ENDIF
 101  0002              #line 101 "c:\users\tech\desktop\codetector\sevenSegment3DigitComplex\SevenSegment3DigitComplex.c"
 101  0002  3519        	clr [25].2
 102  0003              #line 102 "c:\users\tech\desktop\codetector\sevenSegment3DigitComplex\SevenSegment3DigitComplex.c"
 102  0003  3499        	clr [25].1
 103  0004              #line 103 "c:\users\tech\desktop\codetector\sevenSegment3DigitComplex\SevenSegment3DigitComplex.c"
 103  0004  3615        	clr [21].4
 104  0005              #line 104 "c:\users\tech\desktop\codetector\sevenSegment3DigitComplex\SevenSegment3DigitComplex.c"
 104  0005  3415        	clr [21].0
 105  0006              #line 105 "c:\users\tech\desktop\codetector\sevenSegment3DigitComplex\SevenSegment3DigitComplex.c"
 105  0006  3515        	clr [21].2
 106  0007              #line 106 "c:\users\tech\desktop\codetector\sevenSegment3DigitComplex\SevenSegment3DigitComplex.c"
 106  0007  3599        	clr [25].3
 107  0008              #line 107 "c:\users\tech\desktop\codetector\sevenSegment3DigitComplex\SevenSegment3DigitComplex.c"
 107  0008  3518        	clr [24].2
 108  0009              #line 108 "c:\users\tech\desktop\codetector\sevenSegment3DigitComplex\SevenSegment3DigitComplex.c"
 108  0009  3098        	set [24].1
 109  000A              #line 109 "c:\users\tech\desktop\codetector\sevenSegment3DigitComplex\SevenSegment3DigitComplex.c"
 109  000A  3214        	set [20].4
 110  000B              #line 110 "c:\users\tech\desktop\codetector\sevenSegment3DigitComplex\SevenSegment3DigitComplex.c"
 110  000B  3014        	set [20].0
 111  000C              #line 111 "c:\users\tech\desktop\codetector\sevenSegment3DigitComplex\SevenSegment3DigitComplex.c"
 111  000C  3114        	set [20].2
 112  000D              #line 112 "c:\users\tech\desktop\codetector\sevenSegment3DigitComplex\SevenSegment3DigitComplex.c"
 112  000D  3198        	set [24].3
 114  000E              #line 114 "c:\users\tech\desktop\codetector\sevenSegment3DigitComplex\SevenSegment3DigitComplex.c"
 114  000E              ;# 114 "c:\users\tech\desktop\codetector\sevenSegment3DigitComplex\SevenSegment3DigitComplex.c" 1
 114  000E              	IF 1000>263690
 114  000E              ;# 114 "c:\users\tech\desktop\codetector\sevenSegment3DigitComplex\SevenSegment3DigitComplex.c" 1
 114  000E              	ERRMESSAGE 'the value 1000of the argument exceeds the maxinum 263690'
 114  000E              	ENDIF
 114  000E              ;# 114 "c:\users\tech\desktop\codetector\sevenSegment3DigitComplex\SevenSegment3DigitComplex.c" 1
 114  000E              	IF 1000<0
 114  000E              ;# 114 "c:\users\tech\desktop\codetector\sevenSegment3DigitComplex\SevenSegment3DigitComplex.c" 1
 114  000E              	ERRMESSAGE 'the value 1000 of the argument exceeds the mininum 0'
 114  000E              	ENDIF
 114  000E              ;# 114 "c:\users\tech\desktop\codetector\sevenSegment3DigitComplex\SevenSegment3DigitComplex.c" 1
 114  000E              	IF 1000==0
 114  000E              ;# 114 "c:\users\tech\desktop\codetector\sevenSegment3DigitComplex\SevenSegment3DigitComplex.c" 1
 114  000E              	JMP $
 114  000E              	ENDIF
 114  000E              ;# 114 "c:\users\tech\desktop\codetector\sevenSegment3DigitComplex\SevenSegment3DigitComplex.c" 1
 114  000E              	IF 1000==1
 114  000E              ;# 114 "c:\users\tech\desktop\codetector\sevenSegment3DigitComplex\SevenSegment3DigitComplex.c" 1
 114  000E              	NOP
 114  000E              	ENDIF
 114  000E              ;# 114 "c:\users\tech\desktop\codetector\sevenSegment3DigitComplex\SevenSegment3DigitComplex.c" 1
 114  000E              	IF 1000==2
 114  000E              ;# 114 "c:\users\tech\desktop\codetector\sevenSegment3DigitComplex\SevenSegment3DigitComplex.c" 1
 114  000E              	NOP
"File: SevenSegment3DigitComplex.c  Assembler  Version HGASM0202      Page 28

 114  000E              ;# 114 "c:\users\tech\desktop\codetector\sevenSegment3DigitComplex\SevenSegment3DigitComplex.c" 1
 114  000E              	NOP
 114  000E              	ENDIF
 114  000E              ;# 114 "c:\users\tech\desktop\codetector\sevenSegment3DigitComplex\SevenSegment3DigitComplex.c" 1
 114  000E              	IF 1000==3
 114  000E              ;# 114 "c:\users\tech\desktop\codetector\sevenSegment3DigitComplex\SevenSegment3DigitComplex.c" 1
 114  000E              	NOP
 114  000E              ;# 114 "c:\users\tech\desktop\codetector\sevenSegment3DigitComplex\SevenSegment3DigitComplex.c" 1
 114  000E              	NOP
 114  000E              ;# 114 "c:\users\tech\desktop\codetector\sevenSegment3DigitComplex\SevenSegment3DigitComplex.c" 1
 114  000E              	NOP
 114  000E              	ENDIF
 114  000E              ;# 114 "c:\users\tech\desktop\codetector\sevenSegment3DigitComplex\SevenSegment3DigitComplex.c" 1
 114  000E              	IF (1000<8) AND (1000>3)
 114  000E              ;# 114 "c:\users\tech\desktop\codetector\sevenSegment3DigitComplex\SevenSegment3DigitComplex.c" 1
 114  000E              	CALL __DELAY3 + 7 -1000
 114  000E              	ENDIF
 114  000E              ;# 114 "c:\users\tech\desktop\codetector\sevenSegment3DigitComplex\SevenSegment3DigitComplex.c" 1
 114  000E              	IF (1000< 0404h) AND (1000>7)
 114  000E              ;# 114 "c:\users\tech\desktop\codetector\sevenSegment3DigitComplex\SevenSegment3DigitComplex.c" 1
 114  000E  0FF9        	MOV A,1000/4-1
 114  000F              ;# 114 "c:\users\tech\desktop\codetector\sevenSegment3DigitComplex\SevenSegment3DigitComplex.c" 1
 114  000F  2000     E  	CALL __DELAYX3 + 3 -(1000 MOD 4)
 114  0010              	ENDIF
 114  0010              ;# 114 "c:\users\tech\desktop\codetector\sevenSegment3DigitComplex\SevenSegment3DigitComplex.c" 1
 114  0010              	IF (1000< 0x40B) AND (1000> 0403h)
 114  0010              ;# 114 "c:\users\tech\desktop\codetector\sevenSegment3DigitComplex\SevenSegment3DigitComplex.c" 1
 114  0010              	MOV A,0 
 114  0010              ;# 114 "c:\users\tech\desktop\codetector\sevenSegment3DigitComplex\SevenSegment3DigitComplex.c" 1
 114  0010              	CALL __DELAYX6 + 0x40a -1000
 114  0010              	ENDIF
 114  0010              ;# 114 "c:\users\tech\desktop\codetector\sevenSegment3DigitComplex\SevenSegment3DigitComplex.c" 1
 114  0010              	IF (1000 >= 0x40b) AND ((((1000-9)%0402h)/4+1)>256)
 114  0010              ;# 114 "c:\users\tech\desktop\codetector\sevenSegment3DigitComplex\SevenSegment3DigitComplex.c" 1
 114  0010              	MOV A,(1000-9)/0402h
 114  0010              ;# 114 "c:\users\tech\desktop\codetector\sevenSegment3DigitComplex\SevenSegment3DigitComplex.c" 1
 114  0010              	MOV _builtin_holtek_delay_2,A
 114  0010              ;# 114 "c:\users\tech\desktop\codetector\sevenSegment3DigitComplex\SevenSegment3DigitComplex.c" 1
 114  0010              	MOV A,0
 114  0010              ;# 114 "c:\users\tech\desktop\codetector\sevenSegment3DigitComplex\SevenSegment3DigitComplex.c" 1
 114  0010              	CALL __DELAYY5 +5- (((1000-9)%0402h)%6)
 114  0010              	ENDIF
 114  0010              ;# 114 "c:\users\tech\desktop\codetector\sevenSegment3DigitComplex\SevenSegment3DigitComplex.c" 1
 114  0010              	IF (1000 >= 0x40b) AND ((((1000-9)%0402h)/4+1)<=256)
 114  0010              ;# 114 "c:\users\tech\desktop\codetector\sevenSegment3DigitComplex\SevenSegment3DigitComplex.c" 1
 114  0010              	MOV A,(1000-9)/0402h
 114  0010              ;# 114 "c:\users\tech\desktop\codetector\sevenSegment3DigitComplex\SevenSegment3DigitComplex.c" 1
 114  0010              	MOV _builtin_holtek_delay_2,A
 114  0010              ;# 114 "c:\users\tech\desktop\codetector\sevenSegment3DigitComplex\SevenSegment3DigitComplex.c" 1
 114  0010              	MOV A,((1000-9)%0402h)/4+1
 114  0010              ;# 114 "c:\users\tech\desktop\codetector\sevenSegment3DigitComplex\SevenSegment3DigitComplex.c" 1
 114  0010              	CALL __DELAYY3 +3-(((1000-9)%0402h)%4)
 114  0010              	ENDIF
 115  0010              #line 115 "c:\users\tech\desktop\codetector\sevenSegment3DigitComplex\SevenSegment3DigitComplex.c"
 115  0010  2000     R  	call _clearSegment
 116  0011              #line 116 "c:\users\tech\desktop\codetector\sevenSegment3DigitComplex\SevenSegment3DigitComplex.c"
 116  0011  3415        	clr [21].0
 117  0012              #line 117 "c:\users\tech\desktop\codetector\sevenSegment3DigitComplex\SevenSegment3DigitComplex.c"
 117  0012  3499        	clr [25].1
 118  0013              #line 118 "c:\users\tech\desktop\codetector\sevenSegment3DigitComplex\SevenSegment3DigitComplex.c"
"File: SevenSegment3DigitComplex.c  Assembler  Version HGASM0202      Page 29

 118  0013  3414        	clr [20].0
 119  0014              #line 119 "c:\users\tech\desktop\codetector\sevenSegment3DigitComplex\SevenSegment3DigitComplex.c"
 119  0014  3498        	clr [24].1
 120  0015              #line 120 "c:\users\tech\desktop\codetector\sevenSegment3DigitComplex\SevenSegment3DigitComplex.c"
 120  0015              ;# 120 "c:\users\tech\desktop\codetector\sevenSegment3DigitComplex\SevenSegment3DigitComplex.c" 1
 120  0015              	IF 1000>263690
 120  0015              ;# 120 "c:\users\tech\desktop\codetector\sevenSegment3DigitComplex\SevenSegment3DigitComplex.c" 1
 120  0015              	ERRMESSAGE 'the value 1000of the argument exceeds the maxinum 263690'
 120  0015              	ENDIF
 120  0015              ;# 120 "c:\users\tech\desktop\codetector\sevenSegment3DigitComplex\SevenSegment3DigitComplex.c" 1
 120  0015              	IF 1000<0
 120  0015              ;# 120 "c:\users\tech\desktop\codetector\sevenSegment3DigitComplex\SevenSegment3DigitComplex.c" 1
 120  0015              	ERRMESSAGE 'the value 1000 of the argument exceeds the mininum 0'
 120  0015              	ENDIF
 120  0015              ;# 120 "c:\users\tech\desktop\codetector\sevenSegment3DigitComplex\SevenSegment3DigitComplex.c" 1
 120  0015              	IF 1000==0
 120  0015              ;# 120 "c:\users\tech\desktop\codetector\sevenSegment3DigitComplex\SevenSegment3DigitComplex.c" 1
 120  0015              	JMP $
 120  0015              	ENDIF
 120  0015              ;# 120 "c:\users\tech\desktop\codetector\sevenSegment3DigitComplex\SevenSegment3DigitComplex.c" 1
 120  0015              	IF 1000==1
 120  0015              ;# 120 "c:\users\tech\desktop\codetector\sevenSegment3DigitComplex\SevenSegment3DigitComplex.c" 1
 120  0015              	NOP
 120  0015              	ENDIF
 120  0015              ;# 120 "c:\users\tech\desktop\codetector\sevenSegment3DigitComplex\SevenSegment3DigitComplex.c" 1
 120  0015              	IF 1000==2
 120  0015              ;# 120 "c:\users\tech\desktop\codetector\sevenSegment3DigitComplex\SevenSegment3DigitComplex.c" 1
 120  0015              	NOP
 120  0015              ;# 120 "c:\users\tech\desktop\codetector\sevenSegment3DigitComplex\SevenSegment3DigitComplex.c" 1
 120  0015              	NOP
 120  0015              	ENDIF
 120  0015              ;# 120 "c:\users\tech\desktop\codetector\sevenSegment3DigitComplex\SevenSegment3DigitComplex.c" 1
 120  0015              	IF 1000==3
 120  0015              ;# 120 "c:\users\tech\desktop\codetector\sevenSegment3DigitComplex\SevenSegment3DigitComplex.c" 1
 120  0015              	NOP
 120  0015              ;# 120 "c:\users\tech\desktop\codetector\sevenSegment3DigitComplex\SevenSegment3DigitComplex.c" 1
 120  0015              	NOP
 120  0015              ;# 120 "c:\users\tech\desktop\codetector\sevenSegment3DigitComplex\SevenSegment3DigitComplex.c" 1
 120  0015              	NOP
 120  0015              	ENDIF
 120  0015              ;# 120 "c:\users\tech\desktop\codetector\sevenSegment3DigitComplex\SevenSegment3DigitComplex.c" 1
 120  0015              	IF (1000<8) AND (1000>3)
 120  0015              ;# 120 "c:\users\tech\desktop\codetector\sevenSegment3DigitComplex\SevenSegment3DigitComplex.c" 1
 120  0015              	CALL __DELAY3 + 7 -1000
 120  0015              	ENDIF
 120  0015              ;# 120 "c:\users\tech\desktop\codetector\sevenSegment3DigitComplex\SevenSegment3DigitComplex.c" 1
 120  0015              	IF (1000< 0404h) AND (1000>7)
 120  0015              ;# 120 "c:\users\tech\desktop\codetector\sevenSegment3DigitComplex\SevenSegment3DigitComplex.c" 1
 120  0015  0FF9        	MOV A,1000/4-1
 120  0016              ;# 120 "c:\users\tech\desktop\codetector\sevenSegment3DigitComplex\SevenSegment3DigitComplex.c" 1
 120  0016  2000     E  	CALL __DELAYX3 + 3 -(1000 MOD 4)
 120  0017              	ENDIF
 120  0017              ;# 120 "c:\users\tech\desktop\codetector\sevenSegment3DigitComplex\SevenSegment3DigitComplex.c" 1
 120  0017              	IF (1000< 0x40B) AND (1000> 0403h)
 120  0017              ;# 120 "c:\users\tech\desktop\codetector\sevenSegment3DigitComplex\SevenSegment3DigitComplex.c" 1
 120  0017              	MOV A,0 
 120  0017              ;# 120 "c:\users\tech\desktop\codetector\sevenSegment3DigitComplex\SevenSegment3DigitComplex.c" 1
 120  0017              	CALL __DELAYX6 + 0x40a -1000
 120  0017              	ENDIF
 120  0017              ;# 120 "c:\users\tech\desktop\codetector\sevenSegment3DigitComplex\SevenSegment3DigitComplex.c" 1
"File: SevenSegment3DigitComplex.c  Assembler  Version HGASM0202      Page 30

 120  0017              	IF (1000 >= 0x40b) AND ((((1000-9)%0402h)/4+1)>256)
 120  0017              ;# 120 "c:\users\tech\desktop\codetector\sevenSegment3DigitComplex\SevenSegment3DigitComplex.c" 1
 120  0017              	MOV A,(1000-9)/0402h
 120  0017              ;# 120 "c:\users\tech\desktop\codetector\sevenSegment3DigitComplex\SevenSegment3DigitComplex.c" 1
 120  0017              	MOV _builtin_holtek_delay_2,A
 120  0017              ;# 120 "c:\users\tech\desktop\codetector\sevenSegment3DigitComplex\SevenSegment3DigitComplex.c" 1
 120  0017              	MOV A,0
 120  0017              ;# 120 "c:\users\tech\desktop\codetector\sevenSegment3DigitComplex\SevenSegment3DigitComplex.c" 1
 120  0017              	CALL __DELAYY5 +5- (((1000-9)%0402h)%6)
 120  0017              	ENDIF
 120  0017              ;# 120 "c:\users\tech\desktop\codetector\sevenSegment3DigitComplex\SevenSegment3DigitComplex.c" 1
 120  0017              	IF (1000 >= 0x40b) AND ((((1000-9)%0402h)/4+1)<=256)
 120  0017              ;# 120 "c:\users\tech\desktop\codetector\sevenSegment3DigitComplex\SevenSegment3DigitComplex.c" 1
 120  0017              	MOV A,(1000-9)/0402h
 120  0017              ;# 120 "c:\users\tech\desktop\codetector\sevenSegment3DigitComplex\SevenSegment3DigitComplex.c" 1
 120  0017              	MOV _builtin_holtek_delay_2,A
 120  0017              ;# 120 "c:\users\tech\desktop\codetector\sevenSegment3DigitComplex\SevenSegment3DigitComplex.c" 1
 120  0017              	MOV A,((1000-9)%0402h)/4+1
 120  0017              ;# 120 "c:\users\tech\desktop\codetector\sevenSegment3DigitComplex\SevenSegment3DigitComplex.c" 1
 120  0017              	CALL __DELAYY3 +3-(((1000-9)%0402h)%4)
 120  0017              	ENDIF
 122  0017              #line 122 "c:\users\tech\desktop\codetector\sevenSegment3DigitComplex\SevenSegment3DigitComplex.c"
 122  0017  2000     R  	call _clearSegment
 123  0018              #line 123 "c:\users\tech\desktop\codetector\sevenSegment3DigitComplex\SevenSegment3DigitComplex.c"
 123  0018  3499        	clr [25].1
 124  0019              #line 124 "c:\users\tech\desktop\codetector\sevenSegment3DigitComplex\SevenSegment3DigitComplex.c"
 124  0019  3615        	clr [21].4
 125  001A              #line 125 "c:\users\tech\desktop\codetector\sevenSegment3DigitComplex\SevenSegment3DigitComplex.c"
 125  001A  3498        	clr [24].1
 126  001B              #line 126 "c:\users\tech\desktop\codetector\sevenSegment3DigitComplex\SevenSegment3DigitComplex.c"
 126  001B  3214        	set [20].4
 127  001C              #line 127 "c:\users\tech\desktop\codetector\sevenSegment3DigitComplex\SevenSegment3DigitComplex.c"
 127  001C              ;# 127 "c:\users\tech\desktop\codetector\sevenSegment3DigitComplex\SevenSegment3DigitComplex.c" 1
 127  001C              	IF 1000>263690
 127  001C              ;# 127 "c:\users\tech\desktop\codetector\sevenSegment3DigitComplex\SevenSegment3DigitComplex.c" 1
 127  001C              	ERRMESSAGE 'the value 1000of the argument exceeds the maxinum 263690'
 127  001C              	ENDIF
 127  001C              ;# 127 "c:\users\tech\desktop\codetector\sevenSegment3DigitComplex\SevenSegment3DigitComplex.c" 1
 127  001C              	IF 1000<0
 127  001C              ;# 127 "c:\users\tech\desktop\codetector\sevenSegment3DigitComplex\SevenSegment3DigitComplex.c" 1
 127  001C              	ERRMESSAGE 'the value 1000 of the argument exceeds the mininum 0'
 127  001C              	ENDIF
 127  001C              ;# 127 "c:\users\tech\desktop\codetector\sevenSegment3DigitComplex\SevenSegment3DigitComplex.c" 1
 127  001C              	IF 1000==0
 127  001C              ;# 127 "c:\users\tech\desktop\codetector\sevenSegment3DigitComplex\SevenSegment3DigitComplex.c" 1
 127  001C              	JMP $
 127  001C              	ENDIF
 127  001C              ;# 127 "c:\users\tech\desktop\codetector\sevenSegment3DigitComplex\SevenSegment3DigitComplex.c" 1
 127  001C              	IF 1000==1
 127  001C              ;# 127 "c:\users\tech\desktop\codetector\sevenSegment3DigitComplex\SevenSegment3DigitComplex.c" 1
 127  001C              	NOP
 127  001C              	ENDIF
 127  001C              ;# 127 "c:\users\tech\desktop\codetector\sevenSegment3DigitComplex\SevenSegment3DigitComplex.c" 1
 127  001C              	IF 1000==2
 127  001C              ;# 127 "c:\users\tech\desktop\codetector\sevenSegment3DigitComplex\SevenSegment3DigitComplex.c" 1
 127  001C              	NOP
 127  001C              ;# 127 "c:\users\tech\desktop\codetector\sevenSegment3DigitComplex\SevenSegment3DigitComplex.c" 1
 127  001C              	NOP
 127  001C              	ENDIF
 127  001C              ;# 127 "c:\users\tech\desktop\codetector\sevenSegment3DigitComplex\SevenSegment3DigitComplex.c" 1
"File: SevenSegment3DigitComplex.c  Assembler  Version HGASM0202      Page 31

 127  001C              	IF 1000==3
 127  001C              ;# 127 "c:\users\tech\desktop\codetector\sevenSegment3DigitComplex\SevenSegment3DigitComplex.c" 1
 127  001C              	NOP
 127  001C              ;# 127 "c:\users\tech\desktop\codetector\sevenSegment3DigitComplex\SevenSegment3DigitComplex.c" 1
 127  001C              	NOP
 127  001C              ;# 127 "c:\users\tech\desktop\codetector\sevenSegment3DigitComplex\SevenSegment3DigitComplex.c" 1
 127  001C              	NOP
 127  001C              	ENDIF
 127  001C              ;# 127 "c:\users\tech\desktop\codetector\sevenSegment3DigitComplex\SevenSegment3DigitComplex.c" 1
 127  001C              	IF (1000<8) AND (1000>3)
 127  001C              ;# 127 "c:\users\tech\desktop\codetector\sevenSegment3DigitComplex\SevenSegment3DigitComplex.c" 1
 127  001C              	CALL __DELAY3 + 7 -1000
 127  001C              	ENDIF
 127  001C              ;# 127 "c:\users\tech\desktop\codetector\sevenSegment3DigitComplex\SevenSegment3DigitComplex.c" 1
 127  001C              	IF (1000< 0404h) AND (1000>7)
 127  001C              ;# 127 "c:\users\tech\desktop\codetector\sevenSegment3DigitComplex\SevenSegment3DigitComplex.c" 1
 127  001C  0FF9        	MOV A,1000/4-1
 127  001D              ;# 127 "c:\users\tech\desktop\codetector\sevenSegment3DigitComplex\SevenSegment3DigitComplex.c" 1
 127  001D  2000     E  	CALL __DELAYX3 + 3 -(1000 MOD 4)
 127  001E              	ENDIF
 127  001E              ;# 127 "c:\users\tech\desktop\codetector\sevenSegment3DigitComplex\SevenSegment3DigitComplex.c" 1
 127  001E              	IF (1000< 0x40B) AND (1000> 0403h)
 127  001E              ;# 127 "c:\users\tech\desktop\codetector\sevenSegment3DigitComplex\SevenSegment3DigitComplex.c" 1
 127  001E              	MOV A,0 
 127  001E              ;# 127 "c:\users\tech\desktop\codetector\sevenSegment3DigitComplex\SevenSegment3DigitComplex.c" 1
 127  001E              	CALL __DELAYX6 + 0x40a -1000
 127  001E              	ENDIF
 127  001E              ;# 127 "c:\users\tech\desktop\codetector\sevenSegment3DigitComplex\SevenSegment3DigitComplex.c" 1
 127  001E              	IF (1000 >= 0x40b) AND ((((1000-9)%0402h)/4+1)>256)
 127  001E              ;# 127 "c:\users\tech\desktop\codetector\sevenSegment3DigitComplex\SevenSegment3DigitComplex.c" 1
 127  001E              	MOV A,(1000-9)/0402h
 127  001E              ;# 127 "c:\users\tech\desktop\codetector\sevenSegment3DigitComplex\SevenSegment3DigitComplex.c" 1
 127  001E              	MOV _builtin_holtek_delay_2,A
 127  001E              ;# 127 "c:\users\tech\desktop\codetector\sevenSegment3DigitComplex\SevenSegment3DigitComplex.c" 1
 127  001E              	MOV A,0
 127  001E              ;# 127 "c:\users\tech\desktop\codetector\sevenSegment3DigitComplex\SevenSegment3DigitComplex.c" 1
 127  001E              	CALL __DELAYY5 +5- (((1000-9)%0402h)%6)
 127  001E              	ENDIF
 127  001E              ;# 127 "c:\users\tech\desktop\codetector\sevenSegment3DigitComplex\SevenSegment3DigitComplex.c" 1
 127  001E              	IF (1000 >= 0x40b) AND ((((1000-9)%0402h)/4+1)<=256)
 127  001E              ;# 127 "c:\users\tech\desktop\codetector\sevenSegment3DigitComplex\SevenSegment3DigitComplex.c" 1
 127  001E              	MOV A,(1000-9)/0402h
 127  001E              ;# 127 "c:\users\tech\desktop\codetector\sevenSegment3DigitComplex\SevenSegment3DigitComplex.c" 1
 127  001E              	MOV _builtin_holtek_delay_2,A
 127  001E              ;# 127 "c:\users\tech\desktop\codetector\sevenSegment3DigitComplex\SevenSegment3DigitComplex.c" 1
 127  001E              	MOV A,((1000-9)%0402h)/4+1
 127  001E              ;# 127 "c:\users\tech\desktop\codetector\sevenSegment3DigitComplex\SevenSegment3DigitComplex.c" 1
 127  001E              	CALL __DELAYY3 +3-(((1000-9)%0402h)%4)
 127  001E              	ENDIF
 127  001E  0003        	ret
 127  001F              _ziroDigit1 endp
 127  001F              #line 127 "c:\users\tech\desktop\codetector\sevenSegment3DigitComplex\SevenSegment3DigitComplex.c"
 127  001F              #pragma debug scope 1 1
 127  001F              public _ziroDigit2
 127  001F              #pragma debug scope 12 1
 130  001F              #line 130 "c:\users\tech\desktop\codetector\sevenSegment3DigitComplex\SevenSegment3DigitComplex.c"
 130  0000              _ziroDigit2 .section 'code'
 130  0000              _ziroDigit2 proc
 135  0000              #line 135 "c:\users\tech\desktop\codetector\sevenSegment3DigitComplex\SevenSegment3DigitComplex.c"
 135  0000  3519        	clr [25].2
"File: SevenSegment3DigitComplex.c  Assembler  Version HGASM0202      Page 32

 136  0001              #line 136 "c:\users\tech\desktop\codetector\sevenSegment3DigitComplex\SevenSegment3DigitComplex.c"
 136  0001  3499        	clr [25].1
 137  0002              #line 137 "c:\users\tech\desktop\codetector\sevenSegment3DigitComplex\SevenSegment3DigitComplex.c"
 137  0002  3615        	clr [21].4
 138  0003              #line 138 "c:\users\tech\desktop\codetector\sevenSegment3DigitComplex\SevenSegment3DigitComplex.c"
 138  0003  3415        	clr [21].0
 139  0004              #line 139 "c:\users\tech\desktop\codetector\sevenSegment3DigitComplex\SevenSegment3DigitComplex.c"
 139  0004  3515        	clr [21].2
 140  0005              #line 140 "c:\users\tech\desktop\codetector\sevenSegment3DigitComplex\SevenSegment3DigitComplex.c"
 140  0005  3599        	clr [25].3
 141  0006              #line 141 "c:\users\tech\desktop\codetector\sevenSegment3DigitComplex\SevenSegment3DigitComplex.c"
 141  0006  3118        	set [24].2
 142  0007              #line 142 "c:\users\tech\desktop\codetector\sevenSegment3DigitComplex\SevenSegment3DigitComplex.c"
 142  0007  3498        	clr [24].1
 143  0008              #line 143 "c:\users\tech\desktop\codetector\sevenSegment3DigitComplex\SevenSegment3DigitComplex.c"
 143  0008  3614        	clr [20].4
 144  0009              #line 144 "c:\users\tech\desktop\codetector\sevenSegment3DigitComplex\SevenSegment3DigitComplex.c"
 144  0009  3414        	clr [20].0
 145  000A              #line 145 "c:\users\tech\desktop\codetector\sevenSegment3DigitComplex\SevenSegment3DigitComplex.c"
 145  000A  3514        	clr [20].2
 146  000B              #line 146 "c:\users\tech\desktop\codetector\sevenSegment3DigitComplex\SevenSegment3DigitComplex.c"
 146  000B  3598        	clr [24].3
 147  000C              #line 147 "c:\users\tech\desktop\codetector\sevenSegment3DigitComplex\SevenSegment3DigitComplex.c"
 147  000C              ;# 147 "c:\users\tech\desktop\codetector\sevenSegment3DigitComplex\SevenSegment3DigitComplex.c" 1
 147  000C              	IF 1000>263690
 147  000C              ;# 147 "c:\users\tech\desktop\codetector\sevenSegment3DigitComplex\SevenSegment3DigitComplex.c" 1
 147  000C              	ERRMESSAGE 'the value 1000of the argument exceeds the maxinum 263690'
 147  000C              	ENDIF
 147  000C              ;# 147 "c:\users\tech\desktop\codetector\sevenSegment3DigitComplex\SevenSegment3DigitComplex.c" 1
 147  000C              	IF 1000<0
 147  000C              ;# 147 "c:\users\tech\desktop\codetector\sevenSegment3DigitComplex\SevenSegment3DigitComplex.c" 1
 147  000C              	ERRMESSAGE 'the value 1000 of the argument exceeds the mininum 0'
 147  000C              	ENDIF
 147  000C              ;# 147 "c:\users\tech\desktop\codetector\sevenSegment3DigitComplex\SevenSegment3DigitComplex.c" 1
 147  000C              	IF 1000==0
 147  000C              ;# 147 "c:\users\tech\desktop\codetector\sevenSegment3DigitComplex\SevenSegment3DigitComplex.c" 1
 147  000C              	JMP $
 147  000C              	ENDIF
 147  000C              ;# 147 "c:\users\tech\desktop\codetector\sevenSegment3DigitComplex\SevenSegment3DigitComplex.c" 1
 147  000C              	IF 1000==1
 147  000C              ;# 147 "c:\users\tech\desktop\codetector\sevenSegment3DigitComplex\SevenSegment3DigitComplex.c" 1
 147  000C              	NOP
 147  000C              	ENDIF
 147  000C              ;# 147 "c:\users\tech\desktop\codetector\sevenSegment3DigitComplex\SevenSegment3DigitComplex.c" 1
 147  000C              	IF 1000==2
 147  000C              ;# 147 "c:\users\tech\desktop\codetector\sevenSegment3DigitComplex\SevenSegment3DigitComplex.c" 1
 147  000C              	NOP
 147  000C              ;# 147 "c:\users\tech\desktop\codetector\sevenSegment3DigitComplex\SevenSegment3DigitComplex.c" 1
 147  000C              	NOP
 147  000C              	ENDIF
 147  000C              ;# 147 "c:\users\tech\desktop\codetector\sevenSegment3DigitComplex\SevenSegment3DigitComplex.c" 1
 147  000C              	IF 1000==3
 147  000C              ;# 147 "c:\users\tech\desktop\codetector\sevenSegment3DigitComplex\SevenSegment3DigitComplex.c" 1
 147  000C              	NOP
 147  000C              ;# 147 "c:\users\tech\desktop\codetector\sevenSegment3DigitComplex\SevenSegment3DigitComplex.c" 1
 147  000C              	NOP
 147  000C              ;# 147 "c:\users\tech\desktop\codetector\sevenSegment3DigitComplex\SevenSegment3DigitComplex.c" 1
 147  000C              	NOP
 147  000C              	ENDIF
 147  000C              ;# 147 "c:\users\tech\desktop\codetector\sevenSegment3DigitComplex\SevenSegment3DigitComplex.c" 1
"File: SevenSegment3DigitComplex.c  Assembler  Version HGASM0202      Page 33

 147  000C              	IF (1000<8) AND (1000>3)
 147  000C              ;# 147 "c:\users\tech\desktop\codetector\sevenSegment3DigitComplex\SevenSegment3DigitComplex.c" 1
 147  000C              	CALL __DELAY3 + 7 -1000
 147  000C              	ENDIF
 147  000C              ;# 147 "c:\users\tech\desktop\codetector\sevenSegment3DigitComplex\SevenSegment3DigitComplex.c" 1
 147  000C              	IF (1000< 0404h) AND (1000>7)
 147  000C              ;# 147 "c:\users\tech\desktop\codetector\sevenSegment3DigitComplex\SevenSegment3DigitComplex.c" 1
 147  000C  0FF9        	MOV A,1000/4-1
 147  000D              ;# 147 "c:\users\tech\desktop\codetector\sevenSegment3DigitComplex\SevenSegment3DigitComplex.c" 1
 147  000D  2000     E  	CALL __DELAYX3 + 3 -(1000 MOD 4)
 147  000E              	ENDIF
 147  000E              ;# 147 "c:\users\tech\desktop\codetector\sevenSegment3DigitComplex\SevenSegment3DigitComplex.c" 1
 147  000E              	IF (1000< 0x40B) AND (1000> 0403h)
 147  000E              ;# 147 "c:\users\tech\desktop\codetector\sevenSegment3DigitComplex\SevenSegment3DigitComplex.c" 1
 147  000E              	MOV A,0 
 147  000E              ;# 147 "c:\users\tech\desktop\codetector\sevenSegment3DigitComplex\SevenSegment3DigitComplex.c" 1
 147  000E              	CALL __DELAYX6 + 0x40a -1000
 147  000E              	ENDIF
 147  000E              ;# 147 "c:\users\tech\desktop\codetector\sevenSegment3DigitComplex\SevenSegment3DigitComplex.c" 1
 147  000E              	IF (1000 >= 0x40b) AND ((((1000-9)%0402h)/4+1)>256)
 147  000E              ;# 147 "c:\users\tech\desktop\codetector\sevenSegment3DigitComplex\SevenSegment3DigitComplex.c" 1
 147  000E              	MOV A,(1000-9)/0402h
 147  000E              ;# 147 "c:\users\tech\desktop\codetector\sevenSegment3DigitComplex\SevenSegment3DigitComplex.c" 1
 147  000E              	MOV _builtin_holtek_delay_2,A
 147  000E              ;# 147 "c:\users\tech\desktop\codetector\sevenSegment3DigitComplex\SevenSegment3DigitComplex.c" 1
 147  000E              	MOV A,0
 147  000E              ;# 147 "c:\users\tech\desktop\codetector\sevenSegment3DigitComplex\SevenSegment3DigitComplex.c" 1
 147  000E              	CALL __DELAYY5 +5- (((1000-9)%0402h)%6)
 147  000E              	ENDIF
 147  000E              ;# 147 "c:\users\tech\desktop\codetector\sevenSegment3DigitComplex\SevenSegment3DigitComplex.c" 1
 147  000E              	IF (1000 >= 0x40b) AND ((((1000-9)%0402h)/4+1)<=256)
 147  000E              ;# 147 "c:\users\tech\desktop\codetector\sevenSegment3DigitComplex\SevenSegment3DigitComplex.c" 1
 147  000E              	MOV A,(1000-9)/0402h
 147  000E              ;# 147 "c:\users\tech\desktop\codetector\sevenSegment3DigitComplex\SevenSegment3DigitComplex.c" 1
 147  000E              	MOV _builtin_holtek_delay_2,A
 147  000E              ;# 147 "c:\users\tech\desktop\codetector\sevenSegment3DigitComplex\SevenSegment3DigitComplex.c" 1
 147  000E              	MOV A,((1000-9)%0402h)/4+1
 147  000E              ;# 147 "c:\users\tech\desktop\codetector\sevenSegment3DigitComplex\SevenSegment3DigitComplex.c" 1
 147  000E              	CALL __DELAYY3 +3-(((1000-9)%0402h)%4)
 147  000E              	ENDIF
 148  000E              #line 148 "c:\users\tech\desktop\codetector\sevenSegment3DigitComplex\SevenSegment3DigitComplex.c"
 148  000E  2000     R  	call _clearSegment
 149  000F              #line 149 "c:\users\tech\desktop\codetector\sevenSegment3DigitComplex\SevenSegment3DigitComplex.c"
 149  000F  3599        	clr [25].3
 150  0010              #line 150 "c:\users\tech\desktop\codetector\sevenSegment3DigitComplex\SevenSegment3DigitComplex.c"
 150  0010  3499        	clr [25].1
 151  0011              #line 151 "c:\users\tech\desktop\codetector\sevenSegment3DigitComplex\SevenSegment3DigitComplex.c"
 151  0011  3598        	clr [24].3
 152  0012              #line 152 "c:\users\tech\desktop\codetector\sevenSegment3DigitComplex\SevenSegment3DigitComplex.c"
 152  0012  3498        	clr [24].1
 153  0013              #line 153 "c:\users\tech\desktop\codetector\sevenSegment3DigitComplex\SevenSegment3DigitComplex.c"
 153  0013              ;# 153 "c:\users\tech\desktop\codetector\sevenSegment3DigitComplex\SevenSegment3DigitComplex.c" 1
 153  0013              	IF 1000>263690
 153  0013              ;# 153 "c:\users\tech\desktop\codetector\sevenSegment3DigitComplex\SevenSegment3DigitComplex.c" 1
 153  0013              	ERRMESSAGE 'the value 1000of the argument exceeds the maxinum 263690'
 153  0013              	ENDIF
 153  0013              ;# 153 "c:\users\tech\desktop\codetector\sevenSegment3DigitComplex\SevenSegment3DigitComplex.c" 1
 153  0013              	IF 1000<0
 153  0013              ;# 153 "c:\users\tech\desktop\codetector\sevenSegment3DigitComplex\SevenSegment3DigitComplex.c" 1
 153  0013              	ERRMESSAGE 'the value 1000 of the argument exceeds the mininum 0'
"File: SevenSegment3DigitComplex.c  Assembler  Version HGASM0202      Page 34

 153  0013              	ENDIF
 153  0013              ;# 153 "c:\users\tech\desktop\codetector\sevenSegment3DigitComplex\SevenSegment3DigitComplex.c" 1
 153  0013              	IF 1000==0
 153  0013              ;# 153 "c:\users\tech\desktop\codetector\sevenSegment3DigitComplex\SevenSegment3DigitComplex.c" 1
 153  0013              	JMP $
 153  0013              	ENDIF
 153  0013              ;# 153 "c:\users\tech\desktop\codetector\sevenSegment3DigitComplex\SevenSegment3DigitComplex.c" 1
 153  0013              	IF 1000==1
 153  0013              ;# 153 "c:\users\tech\desktop\codetector\sevenSegment3DigitComplex\SevenSegment3DigitComplex.c" 1
 153  0013              	NOP
 153  0013              	ENDIF
 153  0013              ;# 153 "c:\users\tech\desktop\codetector\sevenSegment3DigitComplex\SevenSegment3DigitComplex.c" 1
 153  0013              	IF 1000==2
 153  0013              ;# 153 "c:\users\tech\desktop\codetector\sevenSegment3DigitComplex\SevenSegment3DigitComplex.c" 1
 153  0013              	NOP
 153  0013              ;# 153 "c:\users\tech\desktop\codetector\sevenSegment3DigitComplex\SevenSegment3DigitComplex.c" 1
 153  0013              	NOP
 153  0013              	ENDIF
 153  0013              ;# 153 "c:\users\tech\desktop\codetector\sevenSegment3DigitComplex\SevenSegment3DigitComplex.c" 1
 153  0013              	IF 1000==3
 153  0013              ;# 153 "c:\users\tech\desktop\codetector\sevenSegment3DigitComplex\SevenSegment3DigitComplex.c" 1
 153  0013              	NOP
 153  0013              ;# 153 "c:\users\tech\desktop\codetector\sevenSegment3DigitComplex\SevenSegment3DigitComplex.c" 1
 153  0013              	NOP
 153  0013              ;# 153 "c:\users\tech\desktop\codetector\sevenSegment3DigitComplex\SevenSegment3DigitComplex.c" 1
 153  0013              	NOP
 153  0013              	ENDIF
 153  0013              ;# 153 "c:\users\tech\desktop\codetector\sevenSegment3DigitComplex\SevenSegment3DigitComplex.c" 1
 153  0013              	IF (1000<8) AND (1000>3)
 153  0013              ;# 153 "c:\users\tech\desktop\codetector\sevenSegment3DigitComplex\SevenSegment3DigitComplex.c" 1
 153  0013              	CALL __DELAY3 + 7 -1000
 153  0013              	ENDIF
 153  0013              ;# 153 "c:\users\tech\desktop\codetector\sevenSegment3DigitComplex\SevenSegment3DigitComplex.c" 1
 153  0013              	IF (1000< 0404h) AND (1000>7)
 153  0013              ;# 153 "c:\users\tech\desktop\codetector\sevenSegment3DigitComplex\SevenSegment3DigitComplex.c" 1
 153  0013  0FF9        	MOV A,1000/4-1
 153  0014              ;# 153 "c:\users\tech\desktop\codetector\sevenSegment3DigitComplex\SevenSegment3DigitComplex.c" 1
 153  0014  2000     E  	CALL __DELAYX3 + 3 -(1000 MOD 4)
 153  0015              	ENDIF
 153  0015              ;# 153 "c:\users\tech\desktop\codetector\sevenSegment3DigitComplex\SevenSegment3DigitComplex.c" 1
 153  0015              	IF (1000< 0x40B) AND (1000> 0403h)
 153  0015              ;# 153 "c:\users\tech\desktop\codetector\sevenSegment3DigitComplex\SevenSegment3DigitComplex.c" 1
 153  0015              	MOV A,0 
 153  0015              ;# 153 "c:\users\tech\desktop\codetector\sevenSegment3DigitComplex\SevenSegment3DigitComplex.c" 1
 153  0015              	CALL __DELAYX6 + 0x40a -1000
 153  0015              	ENDIF
 153  0015              ;# 153 "c:\users\tech\desktop\codetector\sevenSegment3DigitComplex\SevenSegment3DigitComplex.c" 1
 153  0015              	IF (1000 >= 0x40b) AND ((((1000-9)%0402h)/4+1)>256)
 153  0015              ;# 153 "c:\users\tech\desktop\codetector\sevenSegment3DigitComplex\SevenSegment3DigitComplex.c" 1
 153  0015              	MOV A,(1000-9)/0402h
 153  0015              ;# 153 "c:\users\tech\desktop\codetector\sevenSegment3DigitComplex\SevenSegment3DigitComplex.c" 1
 153  0015              	MOV _builtin_holtek_delay_2,A
 153  0015              ;# 153 "c:\users\tech\desktop\codetector\sevenSegment3DigitComplex\SevenSegment3DigitComplex.c" 1
 153  0015              	MOV A,0
 153  0015              ;# 153 "c:\users\tech\desktop\codetector\sevenSegment3DigitComplex\SevenSegment3DigitComplex.c" 1
 153  0015              	CALL __DELAYY5 +5- (((1000-9)%0402h)%6)
 153  0015              	ENDIF
 153  0015              ;# 153 "c:\users\tech\desktop\codetector\sevenSegment3DigitComplex\SevenSegment3DigitComplex.c" 1
 153  0015              	IF (1000 >= 0x40b) AND ((((1000-9)%0402h)/4+1)<=256)
 153  0015              ;# 153 "c:\users\tech\desktop\codetector\sevenSegment3DigitComplex\SevenSegment3DigitComplex.c" 1
"File: SevenSegment3DigitComplex.c  Assembler  Version HGASM0202      Page 35

 153  0015              	MOV A,(1000-9)/0402h
 153  0015              ;# 153 "c:\users\tech\desktop\codetector\sevenSegment3DigitComplex\SevenSegment3DigitComplex.c" 1
 153  0015              	MOV _builtin_holtek_delay_2,A
 153  0015              ;# 153 "c:\users\tech\desktop\codetector\sevenSegment3DigitComplex\SevenSegment3DigitComplex.c" 1
 153  0015              	MOV A,((1000-9)%0402h)/4+1
 153  0015              ;# 153 "c:\users\tech\desktop\codetector\sevenSegment3DigitComplex\SevenSegment3DigitComplex.c" 1
 153  0015              	CALL __DELAYY3 +3-(((1000-9)%0402h)%4)
 153  0015              	ENDIF
 155  0015              #line 155 "c:\users\tech\desktop\codetector\sevenSegment3DigitComplex\SevenSegment3DigitComplex.c"
 155  0015  2000     R  	call _clearSegment
 156  0016              #line 156 "c:\users\tech\desktop\codetector\sevenSegment3DigitComplex\SevenSegment3DigitComplex.c"
 156  0016  3515        	clr [21].2
 157  0017              #line 157 "c:\users\tech\desktop\codetector\sevenSegment3DigitComplex\SevenSegment3DigitComplex.c"
 157  0017  3499        	clr [25].1
 158  0018              #line 158 "c:\users\tech\desktop\codetector\sevenSegment3DigitComplex\SevenSegment3DigitComplex.c"
 158  0018  3498        	clr [24].1
 159  0019              #line 159 "c:\users\tech\desktop\codetector\sevenSegment3DigitComplex\SevenSegment3DigitComplex.c"
 159  0019  3114        	set [20].2
 160  001A              #line 160 "c:\users\tech\desktop\codetector\sevenSegment3DigitComplex\SevenSegment3DigitComplex.c"
 160  001A              ;# 160 "c:\users\tech\desktop\codetector\sevenSegment3DigitComplex\SevenSegment3DigitComplex.c" 1
 160  001A              	IF 1000>263690
 160  001A              ;# 160 "c:\users\tech\desktop\codetector\sevenSegment3DigitComplex\SevenSegment3DigitComplex.c" 1
 160  001A              	ERRMESSAGE 'the value 1000of the argument exceeds the maxinum 263690'
 160  001A              	ENDIF
 160  001A              ;# 160 "c:\users\tech\desktop\codetector\sevenSegment3DigitComplex\SevenSegment3DigitComplex.c" 1
 160  001A              	IF 1000<0
 160  001A              ;# 160 "c:\users\tech\desktop\codetector\sevenSegment3DigitComplex\SevenSegment3DigitComplex.c" 1
 160  001A              	ERRMESSAGE 'the value 1000 of the argument exceeds the mininum 0'
 160  001A              	ENDIF
 160  001A              ;# 160 "c:\users\tech\desktop\codetector\sevenSegment3DigitComplex\SevenSegment3DigitComplex.c" 1
 160  001A              	IF 1000==0
 160  001A              ;# 160 "c:\users\tech\desktop\codetector\sevenSegment3DigitComplex\SevenSegment3DigitComplex.c" 1
 160  001A              	JMP $
 160  001A              	ENDIF
 160  001A              ;# 160 "c:\users\tech\desktop\codetector\sevenSegment3DigitComplex\SevenSegment3DigitComplex.c" 1
 160  001A              	IF 1000==1
 160  001A              ;# 160 "c:\users\tech\desktop\codetector\sevenSegment3DigitComplex\SevenSegment3DigitComplex.c" 1
 160  001A              	NOP
 160  001A              	ENDIF
 160  001A              ;# 160 "c:\users\tech\desktop\codetector\sevenSegment3DigitComplex\SevenSegment3DigitComplex.c" 1
 160  001A              	IF 1000==2
 160  001A              ;# 160 "c:\users\tech\desktop\codetector\sevenSegment3DigitComplex\SevenSegment3DigitComplex.c" 1
 160  001A              	NOP
 160  001A              ;# 160 "c:\users\tech\desktop\codetector\sevenSegment3DigitComplex\SevenSegment3DigitComplex.c" 1
 160  001A              	NOP
 160  001A              	ENDIF
 160  001A              ;# 160 "c:\users\tech\desktop\codetector\sevenSegment3DigitComplex\SevenSegment3DigitComplex.c" 1
 160  001A              	IF 1000==3
 160  001A              ;# 160 "c:\users\tech\desktop\codetector\sevenSegment3DigitComplex\SevenSegment3DigitComplex.c" 1
 160  001A              	NOP
 160  001A              ;# 160 "c:\users\tech\desktop\codetector\sevenSegment3DigitComplex\SevenSegment3DigitComplex.c" 1
 160  001A              	NOP
 160  001A              ;# 160 "c:\users\tech\desktop\codetector\sevenSegment3DigitComplex\SevenSegment3DigitComplex.c" 1
 160  001A              	NOP
 160  001A              	ENDIF
 160  001A              ;# 160 "c:\users\tech\desktop\codetector\sevenSegment3DigitComplex\SevenSegment3DigitComplex.c" 1
 160  001A              	IF (1000<8) AND (1000>3)
 160  001A              ;# 160 "c:\users\tech\desktop\codetector\sevenSegment3DigitComplex\SevenSegment3DigitComplex.c" 1
 160  001A              	CALL __DELAY3 + 7 -1000
 160  001A              	ENDIF
"File: SevenSegment3DigitComplex.c  Assembler  Version HGASM0202      Page 36

 160  001A              ;# 160 "c:\users\tech\desktop\codetector\sevenSegment3DigitComplex\SevenSegment3DigitComplex.c" 1
 160  001A              	IF (1000< 0404h) AND (1000>7)
 160  001A              ;# 160 "c:\users\tech\desktop\codetector\sevenSegment3DigitComplex\SevenSegment3DigitComplex.c" 1
 160  001A  0FF9        	MOV A,1000/4-1
 160  001B              ;# 160 "c:\users\tech\desktop\codetector\sevenSegment3DigitComplex\SevenSegment3DigitComplex.c" 1
 160  001B  2000     E  	CALL __DELAYX3 + 3 -(1000 MOD 4)
 160  001C              	ENDIF
 160  001C              ;# 160 "c:\users\tech\desktop\codetector\sevenSegment3DigitComplex\SevenSegment3DigitComplex.c" 1
 160  001C              	IF (1000< 0x40B) AND (1000> 0403h)
 160  001C              ;# 160 "c:\users\tech\desktop\codetector\sevenSegment3DigitComplex\SevenSegment3DigitComplex.c" 1
 160  001C              	MOV A,0 
 160  001C              ;# 160 "c:\users\tech\desktop\codetector\sevenSegment3DigitComplex\SevenSegment3DigitComplex.c" 1
 160  001C              	CALL __DELAYX6 + 0x40a -1000
 160  001C              	ENDIF
 160  001C              ;# 160 "c:\users\tech\desktop\codetector\sevenSegment3DigitComplex\SevenSegment3DigitComplex.c" 1
 160  001C              	IF (1000 >= 0x40b) AND ((((1000-9)%0402h)/4+1)>256)
 160  001C              ;# 160 "c:\users\tech\desktop\codetector\sevenSegment3DigitComplex\SevenSegment3DigitComplex.c" 1
 160  001C              	MOV A,(1000-9)/0402h
 160  001C              ;# 160 "c:\users\tech\desktop\codetector\sevenSegment3DigitComplex\SevenSegment3DigitComplex.c" 1
 160  001C              	MOV _builtin_holtek_delay_2,A
 160  001C              ;# 160 "c:\users\tech\desktop\codetector\sevenSegment3DigitComplex\SevenSegment3DigitComplex.c" 1
 160  001C              	MOV A,0
 160  001C              ;# 160 "c:\users\tech\desktop\codetector\sevenSegment3DigitComplex\SevenSegment3DigitComplex.c" 1
 160  001C              	CALL __DELAYY5 +5- (((1000-9)%0402h)%6)
 160  001C              	ENDIF
 160  001C              ;# 160 "c:\users\tech\desktop\codetector\sevenSegment3DigitComplex\SevenSegment3DigitComplex.c" 1
 160  001C              	IF (1000 >= 0x40b) AND ((((1000-9)%0402h)/4+1)<=256)
 160  001C              ;# 160 "c:\users\tech\desktop\codetector\sevenSegment3DigitComplex\SevenSegment3DigitComplex.c" 1
 160  001C              	MOV A,(1000-9)/0402h
 160  001C              ;# 160 "c:\users\tech\desktop\codetector\sevenSegment3DigitComplex\SevenSegment3DigitComplex.c" 1
 160  001C              	MOV _builtin_holtek_delay_2,A
 160  001C              ;# 160 "c:\users\tech\desktop\codetector\sevenSegment3DigitComplex\SevenSegment3DigitComplex.c" 1
 160  001C              	MOV A,((1000-9)%0402h)/4+1
 160  001C              ;# 160 "c:\users\tech\desktop\codetector\sevenSegment3DigitComplex\SevenSegment3DigitComplex.c" 1
 160  001C              	CALL __DELAYY3 +3-(((1000-9)%0402h)%4)
 160  001C              	ENDIF
 160  001C  0003        	ret
 160  001D              _ziroDigit2 endp
 160  001D              #line 160 "c:\users\tech\desktop\codetector\sevenSegment3DigitComplex\SevenSegment3DigitComplex.c"
 160  001D              #pragma debug scope 1 1
 160  001D              public _ziroDigit3
 160  001D              #pragma debug scope 13 1
 167  001D              #line 167 "c:\users\tech\desktop\codetector\sevenSegment3DigitComplex\SevenSegment3DigitComplex.c"
 167  0000              _ziroDigit3 .section 'code'
 167  0000              _ziroDigit3 proc
 171  0000              #line 171 "c:\users\tech\desktop\codetector\sevenSegment3DigitComplex\SevenSegment3DigitComplex.c"
 171  0000  3499        	clr [25].1
 172  0001              #line 172 "c:\users\tech\desktop\codetector\sevenSegment3DigitComplex\SevenSegment3DigitComplex.c"
 172  0001  3615        	clr [21].4
 173  0002              #line 173 "c:\users\tech\desktop\codetector\sevenSegment3DigitComplex\SevenSegment3DigitComplex.c"
 173  0002  3415        	clr [21].0
 174  0003              #line 174 "c:\users\tech\desktop\codetector\sevenSegment3DigitComplex\SevenSegment3DigitComplex.c"
 174  0003  3515        	clr [21].2
 175  0004              #line 175 "c:\users\tech\desktop\codetector\sevenSegment3DigitComplex\SevenSegment3DigitComplex.c"
 175  0004  3599        	clr [25].3
 176  0005              #line 176 "c:\users\tech\desktop\codetector\sevenSegment3DigitComplex\SevenSegment3DigitComplex.c"
 176  0005  3098        	set [24].1
 177  0006              #line 177 "c:\users\tech\desktop\codetector\sevenSegment3DigitComplex\SevenSegment3DigitComplex.c"
 177  0006  3614        	clr [20].4
 178  0007              #line 178 "c:\users\tech\desktop\codetector\sevenSegment3DigitComplex\SevenSegment3DigitComplex.c"
"File: SevenSegment3DigitComplex.c  Assembler  Version HGASM0202      Page 37

 178  0007  3414        	clr [20].0
 179  0008              #line 179 "c:\users\tech\desktop\codetector\sevenSegment3DigitComplex\SevenSegment3DigitComplex.c"
 179  0008  3514        	clr [20].2
 180  0009              #line 180 "c:\users\tech\desktop\codetector\sevenSegment3DigitComplex\SevenSegment3DigitComplex.c"
 180  0009  3598        	clr [24].3
 181  000A              #line 181 "c:\users\tech\desktop\codetector\sevenSegment3DigitComplex\SevenSegment3DigitComplex.c"
 181  000A              ;# 181 "c:\users\tech\desktop\codetector\sevenSegment3DigitComplex\SevenSegment3DigitComplex.c" 1
 181  000A              	IF 1000>263690
 181  000A              ;# 181 "c:\users\tech\desktop\codetector\sevenSegment3DigitComplex\SevenSegment3DigitComplex.c" 1
 181  000A              	ERRMESSAGE 'the value 1000of the argument exceeds the maxinum 263690'
 181  000A              	ENDIF
 181  000A              ;# 181 "c:\users\tech\desktop\codetector\sevenSegment3DigitComplex\SevenSegment3DigitComplex.c" 1
 181  000A              	IF 1000<0
 181  000A              ;# 181 "c:\users\tech\desktop\codetector\sevenSegment3DigitComplex\SevenSegment3DigitComplex.c" 1
 181  000A              	ERRMESSAGE 'the value 1000 of the argument exceeds the mininum 0'
 181  000A              	ENDIF
 181  000A              ;# 181 "c:\users\tech\desktop\codetector\sevenSegment3DigitComplex\SevenSegment3DigitComplex.c" 1
 181  000A              	IF 1000==0
 181  000A              ;# 181 "c:\users\tech\desktop\codetector\sevenSegment3DigitComplex\SevenSegment3DigitComplex.c" 1
 181  000A              	JMP $
 181  000A              	ENDIF
 181  000A              ;# 181 "c:\users\tech\desktop\codetector\sevenSegment3DigitComplex\SevenSegment3DigitComplex.c" 1
 181  000A              	IF 1000==1
 181  000A              ;# 181 "c:\users\tech\desktop\codetector\sevenSegment3DigitComplex\SevenSegment3DigitComplex.c" 1
 181  000A              	NOP
 181  000A              	ENDIF
 181  000A              ;# 181 "c:\users\tech\desktop\codetector\sevenSegment3DigitComplex\SevenSegment3DigitComplex.c" 1
 181  000A              	IF 1000==2
 181  000A              ;# 181 "c:\users\tech\desktop\codetector\sevenSegment3DigitComplex\SevenSegment3DigitComplex.c" 1
 181  000A              	NOP
 181  000A              ;# 181 "c:\users\tech\desktop\codetector\sevenSegment3DigitComplex\SevenSegment3DigitComplex.c" 1
 181  000A              	NOP
 181  000A              	ENDIF
 181  000A              ;# 181 "c:\users\tech\desktop\codetector\sevenSegment3DigitComplex\SevenSegment3DigitComplex.c" 1
 181  000A              	IF 1000==3
 181  000A              ;# 181 "c:\users\tech\desktop\codetector\sevenSegment3DigitComplex\SevenSegment3DigitComplex.c" 1
 181  000A              	NOP
 181  000A              ;# 181 "c:\users\tech\desktop\codetector\sevenSegment3DigitComplex\SevenSegment3DigitComplex.c" 1
 181  000A              	NOP
 181  000A              ;# 181 "c:\users\tech\desktop\codetector\sevenSegment3DigitComplex\SevenSegment3DigitComplex.c" 1
 181  000A              	NOP
 181  000A              	ENDIF
 181  000A              ;# 181 "c:\users\tech\desktop\codetector\sevenSegment3DigitComplex\SevenSegment3DigitComplex.c" 1
 181  000A              	IF (1000<8) AND (1000>3)
 181  000A              ;# 181 "c:\users\tech\desktop\codetector\sevenSegment3DigitComplex\SevenSegment3DigitComplex.c" 1
 181  000A              	CALL __DELAY3 + 7 -1000
 181  000A              	ENDIF
 181  000A              ;# 181 "c:\users\tech\desktop\codetector\sevenSegment3DigitComplex\SevenSegment3DigitComplex.c" 1
 181  000A              	IF (1000< 0404h) AND (1000>7)
 181  000A              ;# 181 "c:\users\tech\desktop\codetector\sevenSegment3DigitComplex\SevenSegment3DigitComplex.c" 1
 181  000A  0FF9        	MOV A,1000/4-1
 181  000B              ;# 181 "c:\users\tech\desktop\codetector\sevenSegment3DigitComplex\SevenSegment3DigitComplex.c" 1
 181  000B  2000     E  	CALL __DELAYX3 + 3 -(1000 MOD 4)
 181  000C              	ENDIF
 181  000C              ;# 181 "c:\users\tech\desktop\codetector\sevenSegment3DigitComplex\SevenSegment3DigitComplex.c" 1
 181  000C              	IF (1000< 0x40B) AND (1000> 0403h)
 181  000C              ;# 181 "c:\users\tech\desktop\codetector\sevenSegment3DigitComplex\SevenSegment3DigitComplex.c" 1
 181  000C              	MOV A,0 
 181  000C              ;# 181 "c:\users\tech\desktop\codetector\sevenSegment3DigitComplex\SevenSegment3DigitComplex.c" 1
 181  000C              	CALL __DELAYX6 + 0x40a -1000
"File: SevenSegment3DigitComplex.c  Assembler  Version HGASM0202      Page 38

 181  000C              	ENDIF
 181  000C              ;# 181 "c:\users\tech\desktop\codetector\sevenSegment3DigitComplex\SevenSegment3DigitComplex.c" 1
 181  000C              	IF (1000 >= 0x40b) AND ((((1000-9)%0402h)/4+1)>256)
 181  000C              ;# 181 "c:\users\tech\desktop\codetector\sevenSegment3DigitComplex\SevenSegment3DigitComplex.c" 1
 181  000C              	MOV A,(1000-9)/0402h
 181  000C              ;# 181 "c:\users\tech\desktop\codetector\sevenSegment3DigitComplex\SevenSegment3DigitComplex.c" 1
 181  000C              	MOV _builtin_holtek_delay_2,A
 181  000C              ;# 181 "c:\users\tech\desktop\codetector\sevenSegment3DigitComplex\SevenSegment3DigitComplex.c" 1
 181  000C              	MOV A,0
 181  000C              ;# 181 "c:\users\tech\desktop\codetector\sevenSegment3DigitComplex\SevenSegment3DigitComplex.c" 1
 181  000C              	CALL __DELAYY5 +5- (((1000-9)%0402h)%6)
 181  000C              	ENDIF
 181  000C              ;# 181 "c:\users\tech\desktop\codetector\sevenSegment3DigitComplex\SevenSegment3DigitComplex.c" 1
 181  000C              	IF (1000 >= 0x40b) AND ((((1000-9)%0402h)/4+1)<=256)
 181  000C              ;# 181 "c:\users\tech\desktop\codetector\sevenSegment3DigitComplex\SevenSegment3DigitComplex.c" 1
 181  000C              	MOV A,(1000-9)/0402h
 181  000C              ;# 181 "c:\users\tech\desktop\codetector\sevenSegment3DigitComplex\SevenSegment3DigitComplex.c" 1
 181  000C              	MOV _builtin_holtek_delay_2,A
 181  000C              ;# 181 "c:\users\tech\desktop\codetector\sevenSegment3DigitComplex\SevenSegment3DigitComplex.c" 1
 181  000C              	MOV A,((1000-9)%0402h)/4+1
 181  000C              ;# 181 "c:\users\tech\desktop\codetector\sevenSegment3DigitComplex\SevenSegment3DigitComplex.c" 1
 181  000C              	CALL __DELAYY3 +3-(((1000-9)%0402h)%4)
 181  000C              	ENDIF
 182  000C              #line 182 "c:\users\tech\desktop\codetector\sevenSegment3DigitComplex\SevenSegment3DigitComplex.c"
 182  000C  2000     R  	call _clearSegment
 183  000D              #line 183 "c:\users\tech\desktop\codetector\sevenSegment3DigitComplex\SevenSegment3DigitComplex.c"
 183  000D  3615        	clr [21].4
 184  000E              #line 184 "c:\users\tech\desktop\codetector\sevenSegment3DigitComplex\SevenSegment3DigitComplex.c"
 184  000E  3415        	clr [21].0
 185  000F              #line 185 "c:\users\tech\desktop\codetector\sevenSegment3DigitComplex\SevenSegment3DigitComplex.c"
 185  000F  3515        	clr [21].2
 186  0010              #line 186 "c:\users\tech\desktop\codetector\sevenSegment3DigitComplex\SevenSegment3DigitComplex.c"
 186  0010  3214        	set [20].4
 187  0011              #line 187 "c:\users\tech\desktop\codetector\sevenSegment3DigitComplex\SevenSegment3DigitComplex.c"
 187  0011  3414        	clr [20].0
 188  0012              #line 188 "c:\users\tech\desktop\codetector\sevenSegment3DigitComplex\SevenSegment3DigitComplex.c"
 188  0012  3514        	clr [20].2
 189  0013              #line 189 "c:\users\tech\desktop\codetector\sevenSegment3DigitComplex\SevenSegment3DigitComplex.c"
 189  0013              ;# 189 "c:\users\tech\desktop\codetector\sevenSegment3DigitComplex\SevenSegment3DigitComplex.c" 1
 189  0013              	IF 1000>263690
 189  0013              ;# 189 "c:\users\tech\desktop\codetector\sevenSegment3DigitComplex\SevenSegment3DigitComplex.c" 1
 189  0013              	ERRMESSAGE 'the value 1000of the argument exceeds the maxinum 263690'
 189  0013              	ENDIF
 189  0013              ;# 189 "c:\users\tech\desktop\codetector\sevenSegment3DigitComplex\SevenSegment3DigitComplex.c" 1
 189  0013              	IF 1000<0
 189  0013              ;# 189 "c:\users\tech\desktop\codetector\sevenSegment3DigitComplex\SevenSegment3DigitComplex.c" 1
 189  0013              	ERRMESSAGE 'the value 1000 of the argument exceeds the mininum 0'
 189  0013              	ENDIF
 189  0013              ;# 189 "c:\users\tech\desktop\codetector\sevenSegment3DigitComplex\SevenSegment3DigitComplex.c" 1
 189  0013              	IF 1000==0
 189  0013              ;# 189 "c:\users\tech\desktop\codetector\sevenSegment3DigitComplex\SevenSegment3DigitComplex.c" 1
 189  0013              	JMP $
 189  0013              	ENDIF
 189  0013              ;# 189 "c:\users\tech\desktop\codetector\sevenSegment3DigitComplex\SevenSegment3DigitComplex.c" 1
 189  0013              	IF 1000==1
 189  0013              ;# 189 "c:\users\tech\desktop\codetector\sevenSegment3DigitComplex\SevenSegment3DigitComplex.c" 1
 189  0013              	NOP
 189  0013              	ENDIF
 189  0013              ;# 189 "c:\users\tech\desktop\codetector\sevenSegment3DigitComplex\SevenSegment3DigitComplex.c" 1
 189  0013              	IF 1000==2
"File: SevenSegment3DigitComplex.c  Assembler  Version HGASM0202      Page 39

 189  0013              ;# 189 "c:\users\tech\desktop\codetector\sevenSegment3DigitComplex\SevenSegment3DigitComplex.c" 1
 189  0013              	NOP
 189  0013              ;# 189 "c:\users\tech\desktop\codetector\sevenSegment3DigitComplex\SevenSegment3DigitComplex.c" 1
 189  0013              	NOP
 189  0013              	ENDIF
 189  0013              ;# 189 "c:\users\tech\desktop\codetector\sevenSegment3DigitComplex\SevenSegment3DigitComplex.c" 1
 189  0013              	IF 1000==3
 189  0013              ;# 189 "c:\users\tech\desktop\codetector\sevenSegment3DigitComplex\SevenSegment3DigitComplex.c" 1
 189  0013              	NOP
 189  0013              ;# 189 "c:\users\tech\desktop\codetector\sevenSegment3DigitComplex\SevenSegment3DigitComplex.c" 1
 189  0013              	NOP
 189  0013              ;# 189 "c:\users\tech\desktop\codetector\sevenSegment3DigitComplex\SevenSegment3DigitComplex.c" 1
 189  0013              	NOP
 189  0013              	ENDIF
 189  0013              ;# 189 "c:\users\tech\desktop\codetector\sevenSegment3DigitComplex\SevenSegment3DigitComplex.c" 1
 189  0013              	IF (1000<8) AND (1000>3)
 189  0013              ;# 189 "c:\users\tech\desktop\codetector\sevenSegment3DigitComplex\SevenSegment3DigitComplex.c" 1
 189  0013              	CALL __DELAY3 + 7 -1000
 189  0013              	ENDIF
 189  0013              ;# 189 "c:\users\tech\desktop\codetector\sevenSegment3DigitComplex\SevenSegment3DigitComplex.c" 1
 189  0013              	IF (1000< 0404h) AND (1000>7)
 189  0013              ;# 189 "c:\users\tech\desktop\codetector\sevenSegment3DigitComplex\SevenSegment3DigitComplex.c" 1
 189  0013  0FF9        	MOV A,1000/4-1
 189  0014              ;# 189 "c:\users\tech\desktop\codetector\sevenSegment3DigitComplex\SevenSegment3DigitComplex.c" 1
 189  0014  2000     E  	CALL __DELAYX3 + 3 -(1000 MOD 4)
 189  0015              	ENDIF
 189  0015              ;# 189 "c:\users\tech\desktop\codetector\sevenSegment3DigitComplex\SevenSegment3DigitComplex.c" 1
 189  0015              	IF (1000< 0x40B) AND (1000> 0403h)
 189  0015              ;# 189 "c:\users\tech\desktop\codetector\sevenSegment3DigitComplex\SevenSegment3DigitComplex.c" 1
 189  0015              	MOV A,0 
 189  0015              ;# 189 "c:\users\tech\desktop\codetector\sevenSegment3DigitComplex\SevenSegment3DigitComplex.c" 1
 189  0015              	CALL __DELAYX6 + 0x40a -1000
 189  0015              	ENDIF
 189  0015              ;# 189 "c:\users\tech\desktop\codetector\sevenSegment3DigitComplex\SevenSegment3DigitComplex.c" 1
 189  0015              	IF (1000 >= 0x40b) AND ((((1000-9)%0402h)/4+1)>256)
 189  0015              ;# 189 "c:\users\tech\desktop\codetector\sevenSegment3DigitComplex\SevenSegment3DigitComplex.c" 1
 189  0015              	MOV A,(1000-9)/0402h
 189  0015              ;# 189 "c:\users\tech\desktop\codetector\sevenSegment3DigitComplex\SevenSegment3DigitComplex.c" 1
 189  0015              	MOV _builtin_holtek_delay_2,A
 189  0015              ;# 189 "c:\users\tech\desktop\codetector\sevenSegment3DigitComplex\SevenSegment3DigitComplex.c" 1
 189  0015              	MOV A,0
 189  0015              ;# 189 "c:\users\tech\desktop\codetector\sevenSegment3DigitComplex\SevenSegment3DigitComplex.c" 1
 189  0015              	CALL __DELAYY5 +5- (((1000-9)%0402h)%6)
 189  0015              	ENDIF
 189  0015              ;# 189 "c:\users\tech\desktop\codetector\sevenSegment3DigitComplex\SevenSegment3DigitComplex.c" 1
 189  0015              	IF (1000 >= 0x40b) AND ((((1000-9)%0402h)/4+1)<=256)
 189  0015              ;# 189 "c:\users\tech\desktop\codetector\sevenSegment3DigitComplex\SevenSegment3DigitComplex.c" 1
 189  0015              	MOV A,(1000-9)/0402h
 189  0015              ;# 189 "c:\users\tech\desktop\codetector\sevenSegment3DigitComplex\SevenSegment3DigitComplex.c" 1
 189  0015              	MOV _builtin_holtek_delay_2,A
 189  0015              ;# 189 "c:\users\tech\desktop\codetector\sevenSegment3DigitComplex\SevenSegment3DigitComplex.c" 1
 189  0015              	MOV A,((1000-9)%0402h)/4+1
 189  0015              ;# 189 "c:\users\tech\desktop\codetector\sevenSegment3DigitComplex\SevenSegment3DigitComplex.c" 1
 189  0015              	CALL __DELAYY3 +3-(((1000-9)%0402h)%4)
 189  0015              	ENDIF
 190  0015              #line 190 "c:\users\tech\desktop\codetector\sevenSegment3DigitComplex\SevenSegment3DigitComplex.c"
 190  0015  2000     R  	call _clearSegment
 191  0016              #line 191 "c:\users\tech\desktop\codetector\sevenSegment3DigitComplex\SevenSegment3DigitComplex.c"
 191  0016  3615        	clr [21].4
 192  0017              #line 192 "c:\users\tech\desktop\codetector\sevenSegment3DigitComplex\SevenSegment3DigitComplex.c"
"File: SevenSegment3DigitComplex.c  Assembler  Version HGASM0202      Page 40

 192  0017  3599        	clr [25].3
 193  0018              #line 193 "c:\users\tech\desktop\codetector\sevenSegment3DigitComplex\SevenSegment3DigitComplex.c"
 193  0018  3614        	clr [20].4
 194  0019              #line 194 "c:\users\tech\desktop\codetector\sevenSegment3DigitComplex\SevenSegment3DigitComplex.c"
 194  0019  3598        	clr [24].3
 195  001A              #line 195 "c:\users\tech\desktop\codetector\sevenSegment3DigitComplex\SevenSegment3DigitComplex.c"
 195  001A              ;# 195 "c:\users\tech\desktop\codetector\sevenSegment3DigitComplex\SevenSegment3DigitComplex.c" 1
 195  001A              	IF 1000>263690
 195  001A              ;# 195 "c:\users\tech\desktop\codetector\sevenSegment3DigitComplex\SevenSegment3DigitComplex.c" 1
 195  001A              	ERRMESSAGE 'the value 1000of the argument exceeds the maxinum 263690'
 195  001A              	ENDIF
 195  001A              ;# 195 "c:\users\tech\desktop\codetector\sevenSegment3DigitComplex\SevenSegment3DigitComplex.c" 1
 195  001A              	IF 1000<0
 195  001A              ;# 195 "c:\users\tech\desktop\codetector\sevenSegment3DigitComplex\SevenSegment3DigitComplex.c" 1
 195  001A              	ERRMESSAGE 'the value 1000 of the argument exceeds the mininum 0'
 195  001A              	ENDIF
 195  001A              ;# 195 "c:\users\tech\desktop\codetector\sevenSegment3DigitComplex\SevenSegment3DigitComplex.c" 1
 195  001A              	IF 1000==0
 195  001A              ;# 195 "c:\users\tech\desktop\codetector\sevenSegment3DigitComplex\SevenSegment3DigitComplex.c" 1
 195  001A              	JMP $
 195  001A              	ENDIF
 195  001A              ;# 195 "c:\users\tech\desktop\codetector\sevenSegment3DigitComplex\SevenSegment3DigitComplex.c" 1
 195  001A              	IF 1000==1
 195  001A              ;# 195 "c:\users\tech\desktop\codetector\sevenSegment3DigitComplex\SevenSegment3DigitComplex.c" 1
 195  001A              	NOP
 195  001A              	ENDIF
 195  001A              ;# 195 "c:\users\tech\desktop\codetector\sevenSegment3DigitComplex\SevenSegment3DigitComplex.c" 1
 195  001A              	IF 1000==2
 195  001A              ;# 195 "c:\users\tech\desktop\codetector\sevenSegment3DigitComplex\SevenSegment3DigitComplex.c" 1
 195  001A              	NOP
 195  001A              ;# 195 "c:\users\tech\desktop\codetector\sevenSegment3DigitComplex\SevenSegment3DigitComplex.c" 1
 195  001A              	NOP
 195  001A              	ENDIF
 195  001A              ;# 195 "c:\users\tech\desktop\codetector\sevenSegment3DigitComplex\SevenSegment3DigitComplex.c" 1
 195  001A              	IF 1000==3
 195  001A              ;# 195 "c:\users\tech\desktop\codetector\sevenSegment3DigitComplex\SevenSegment3DigitComplex.c" 1
 195  001A              	NOP
 195  001A              ;# 195 "c:\users\tech\desktop\codetector\sevenSegment3DigitComplex\SevenSegment3DigitComplex.c" 1
 195  001A              	NOP
 195  001A              ;# 195 "c:\users\tech\desktop\codetector\sevenSegment3DigitComplex\SevenSegment3DigitComplex.c" 1
 195  001A              	NOP
 195  001A              	ENDIF
 195  001A              ;# 195 "c:\users\tech\desktop\codetector\sevenSegment3DigitComplex\SevenSegment3DigitComplex.c" 1
 195  001A              	IF (1000<8) AND (1000>3)
 195  001A              ;# 195 "c:\users\tech\desktop\codetector\sevenSegment3DigitComplex\SevenSegment3DigitComplex.c" 1
 195  001A              	CALL __DELAY3 + 7 -1000
 195  001A              	ENDIF
 195  001A              ;# 195 "c:\users\tech\desktop\codetector\sevenSegment3DigitComplex\SevenSegment3DigitComplex.c" 1
 195  001A              	IF (1000< 0404h) AND (1000>7)
 195  001A              ;# 195 "c:\users\tech\desktop\codetector\sevenSegment3DigitComplex\SevenSegment3DigitComplex.c" 1
 195  001A  0FF9        	MOV A,1000/4-1
 195  001B              ;# 195 "c:\users\tech\desktop\codetector\sevenSegment3DigitComplex\SevenSegment3DigitComplex.c" 1
 195  001B  2000     E  	CALL __DELAYX3 + 3 -(1000 MOD 4)
 195  001C              	ENDIF
 195  001C              ;# 195 "c:\users\tech\desktop\codetector\sevenSegment3DigitComplex\SevenSegment3DigitComplex.c" 1
 195  001C              	IF (1000< 0x40B) AND (1000> 0403h)
 195  001C              ;# 195 "c:\users\tech\desktop\codetector\sevenSegment3DigitComplex\SevenSegment3DigitComplex.c" 1
 195  001C              	MOV A,0 
 195  001C              ;# 195 "c:\users\tech\desktop\codetector\sevenSegment3DigitComplex\SevenSegment3DigitComplex.c" 1
 195  001C              	CALL __DELAYX6 + 0x40a -1000
"File: SevenSegment3DigitComplex.c  Assembler  Version HGASM0202      Page 41

 195  001C              	ENDIF
 195  001C              ;# 195 "c:\users\tech\desktop\codetector\sevenSegment3DigitComplex\SevenSegment3DigitComplex.c" 1
 195  001C              	IF (1000 >= 0x40b) AND ((((1000-9)%0402h)/4+1)>256)
 195  001C              ;# 195 "c:\users\tech\desktop\codetector\sevenSegment3DigitComplex\SevenSegment3DigitComplex.c" 1
 195  001C              	MOV A,(1000-9)/0402h
 195  001C              ;# 195 "c:\users\tech\desktop\codetector\sevenSegment3DigitComplex\SevenSegment3DigitComplex.c" 1
 195  001C              	MOV _builtin_holtek_delay_2,A
 195  001C              ;# 195 "c:\users\tech\desktop\codetector\sevenSegment3DigitComplex\SevenSegment3DigitComplex.c" 1
 195  001C              	MOV A,0
 195  001C              ;# 195 "c:\users\tech\desktop\codetector\sevenSegment3DigitComplex\SevenSegment3DigitComplex.c" 1
 195  001C              	CALL __DELAYY5 +5- (((1000-9)%0402h)%6)
 195  001C              	ENDIF
 195  001C              ;# 195 "c:\users\tech\desktop\codetector\sevenSegment3DigitComplex\SevenSegment3DigitComplex.c" 1
 195  001C              	IF (1000 >= 0x40b) AND ((((1000-9)%0402h)/4+1)<=256)
 195  001C              ;# 195 "c:\users\tech\desktop\codetector\sevenSegment3DigitComplex\SevenSegment3DigitComplex.c" 1
 195  001C              	MOV A,(1000-9)/0402h
 195  001C              ;# 195 "c:\users\tech\desktop\codetector\sevenSegment3DigitComplex\SevenSegment3DigitComplex.c" 1
 195  001C              	MOV _builtin_holtek_delay_2,A
 195  001C              ;# 195 "c:\users\tech\desktop\codetector\sevenSegment3DigitComplex\SevenSegment3DigitComplex.c" 1
 195  001C              	MOV A,((1000-9)%0402h)/4+1
 195  001C              ;# 195 "c:\users\tech\desktop\codetector\sevenSegment3DigitComplex\SevenSegment3DigitComplex.c" 1
 195  001C              	CALL __DELAYY3 +3-(((1000-9)%0402h)%4)
 195  001C              	ENDIF
 195  001C  0003        	ret
 195  001D              _ziroDigit3 endp
 195  001D              #line 195 "c:\users\tech\desktop\codetector\sevenSegment3DigitComplex\SevenSegment3DigitComplex.c"
 195  001D              #pragma debug scope 1 1
 195  001D              public _oneDigit3
 195  001D              #pragma debug scope 14 1
 225  001D              #line 225 "c:\users\tech\desktop\codetector\sevenSegment3DigitComplex\SevenSegment3DigitComplex.c"
 225  0000              _oneDigit3 .section 'code'
 225  0000              _oneDigit3 proc
 229  0000              #line 229 "c:\users\tech\desktop\codetector\sevenSegment3DigitComplex\SevenSegment3DigitComplex.c"
 229  0000  3499        	clr [25].1
 230  0001              #line 230 "c:\users\tech\desktop\codetector\sevenSegment3DigitComplex\SevenSegment3DigitComplex.c"
 230  0001  3415        	clr [21].0
 231  0002              #line 231 "c:\users\tech\desktop\codetector\sevenSegment3DigitComplex\SevenSegment3DigitComplex.c"
 231  0002  3515        	clr [21].2
 232  0003              #line 232 "c:\users\tech\desktop\codetector\sevenSegment3DigitComplex\SevenSegment3DigitComplex.c"
 232  0003  3098        	set [24].1
 233  0004              #line 233 "c:\users\tech\desktop\codetector\sevenSegment3DigitComplex\SevenSegment3DigitComplex.c"
 233  0004  3414        	clr [20].0
 234  0005              #line 234 "c:\users\tech\desktop\codetector\sevenSegment3DigitComplex\SevenSegment3DigitComplex.c"
 234  0005  3514        	clr [20].2
 235  0006              #line 235 "c:\users\tech\desktop\codetector\sevenSegment3DigitComplex\SevenSegment3DigitComplex.c"
 235  0006              ;# 235 "c:\users\tech\desktop\codetector\sevenSegment3DigitComplex\SevenSegment3DigitComplex.c" 1
 235  0006              	IF 1000>263690
 235  0006              ;# 235 "c:\users\tech\desktop\codetector\sevenSegment3DigitComplex\SevenSegment3DigitComplex.c" 1
 235  0006              	ERRMESSAGE 'the value 1000of the argument exceeds the maxinum 263690'
 235  0006              	ENDIF
 235  0006              ;# 235 "c:\users\tech\desktop\codetector\sevenSegment3DigitComplex\SevenSegment3DigitComplex.c" 1
 235  0006              	IF 1000<0
 235  0006              ;# 235 "c:\users\tech\desktop\codetector\sevenSegment3DigitComplex\SevenSegment3DigitComplex.c" 1
 235  0006              	ERRMESSAGE 'the value 1000 of the argument exceeds the mininum 0'
 235  0006              	ENDIF
 235  0006              ;# 235 "c:\users\tech\desktop\codetector\sevenSegment3DigitComplex\SevenSegment3DigitComplex.c" 1
 235  0006              	IF 1000==0
 235  0006              ;# 235 "c:\users\tech\desktop\codetector\sevenSegment3DigitComplex\SevenSegment3DigitComplex.c" 1
 235  0006              	JMP $
 235  0006              	ENDIF
"File: SevenSegment3DigitComplex.c  Assembler  Version HGASM0202      Page 42

 235  0006              ;# 235 "c:\users\tech\desktop\codetector\sevenSegment3DigitComplex\SevenSegment3DigitComplex.c" 1
 235  0006              	IF 1000==1
 235  0006              ;# 235 "c:\users\tech\desktop\codetector\sevenSegment3DigitComplex\SevenSegment3DigitComplex.c" 1
 235  0006              	NOP
 235  0006              	ENDIF
 235  0006              ;# 235 "c:\users\tech\desktop\codetector\sevenSegment3DigitComplex\SevenSegment3DigitComplex.c" 1
 235  0006              	IF 1000==2
 235  0006              ;# 235 "c:\users\tech\desktop\codetector\sevenSegment3DigitComplex\SevenSegment3DigitComplex.c" 1
 235  0006              	NOP
 235  0006              ;# 235 "c:\users\tech\desktop\codetector\sevenSegment3DigitComplex\SevenSegment3DigitComplex.c" 1
 235  0006              	NOP
 235  0006              	ENDIF
 235  0006              ;# 235 "c:\users\tech\desktop\codetector\sevenSegment3DigitComplex\SevenSegment3DigitComplex.c" 1
 235  0006              	IF 1000==3
 235  0006              ;# 235 "c:\users\tech\desktop\codetector\sevenSegment3DigitComplex\SevenSegment3DigitComplex.c" 1
 235  0006              	NOP
 235  0006              ;# 235 "c:\users\tech\desktop\codetector\sevenSegment3DigitComplex\SevenSegment3DigitComplex.c" 1
 235  0006              	NOP
 235  0006              ;# 235 "c:\users\tech\desktop\codetector\sevenSegment3DigitComplex\SevenSegment3DigitComplex.c" 1
 235  0006              	NOP
 235  0006              	ENDIF
 235  0006              ;# 235 "c:\users\tech\desktop\codetector\sevenSegment3DigitComplex\SevenSegment3DigitComplex.c" 1
 235  0006              	IF (1000<8) AND (1000>3)
 235  0006              ;# 235 "c:\users\tech\desktop\codetector\sevenSegment3DigitComplex\SevenSegment3DigitComplex.c" 1
 235  0006              	CALL __DELAY3 + 7 -1000
 235  0006              	ENDIF
 235  0006              ;# 235 "c:\users\tech\desktop\codetector\sevenSegment3DigitComplex\SevenSegment3DigitComplex.c" 1
 235  0006              	IF (1000< 0404h) AND (1000>7)
 235  0006              ;# 235 "c:\users\tech\desktop\codetector\sevenSegment3DigitComplex\SevenSegment3DigitComplex.c" 1
 235  0006  0FF9        	MOV A,1000/4-1
 235  0007              ;# 235 "c:\users\tech\desktop\codetector\sevenSegment3DigitComplex\SevenSegment3DigitComplex.c" 1
 235  0007  2000     E  	CALL __DELAYX3 + 3 -(1000 MOD 4)
 235  0008              	ENDIF
 235  0008              ;# 235 "c:\users\tech\desktop\codetector\sevenSegment3DigitComplex\SevenSegment3DigitComplex.c" 1
 235  0008              	IF (1000< 0x40B) AND (1000> 0403h)
 235  0008              ;# 235 "c:\users\tech\desktop\codetector\sevenSegment3DigitComplex\SevenSegment3DigitComplex.c" 1
 235  0008              	MOV A,0 
 235  0008              ;# 235 "c:\users\tech\desktop\codetector\sevenSegment3DigitComplex\SevenSegment3DigitComplex.c" 1
 235  0008              	CALL __DELAYX6 + 0x40a -1000
 235  0008              	ENDIF
 235  0008              ;# 235 "c:\users\tech\desktop\codetector\sevenSegment3DigitComplex\SevenSegment3DigitComplex.c" 1
 235  0008              	IF (1000 >= 0x40b) AND ((((1000-9)%0402h)/4+1)>256)
 235  0008              ;# 235 "c:\users\tech\desktop\codetector\sevenSegment3DigitComplex\SevenSegment3DigitComplex.c" 1
 235  0008              	MOV A,(1000-9)/0402h
 235  0008              ;# 235 "c:\users\tech\desktop\codetector\sevenSegment3DigitComplex\SevenSegment3DigitComplex.c" 1
 235  0008              	MOV _builtin_holtek_delay_2,A
 235  0008              ;# 235 "c:\users\tech\desktop\codetector\sevenSegment3DigitComplex\SevenSegment3DigitComplex.c" 1
 235  0008              	MOV A,0
 235  0008              ;# 235 "c:\users\tech\desktop\codetector\sevenSegment3DigitComplex\SevenSegment3DigitComplex.c" 1
 235  0008              	CALL __DELAYY5 +5- (((1000-9)%0402h)%6)
 235  0008              	ENDIF
 235  0008              ;# 235 "c:\users\tech\desktop\codetector\sevenSegment3DigitComplex\SevenSegment3DigitComplex.c" 1
 235  0008              	IF (1000 >= 0x40b) AND ((((1000-9)%0402h)/4+1)<=256)
 235  0008              ;# 235 "c:\users\tech\desktop\codetector\sevenSegment3DigitComplex\SevenSegment3DigitComplex.c" 1
 235  0008              	MOV A,(1000-9)/0402h
 235  0008              ;# 235 "c:\users\tech\desktop\codetector\sevenSegment3DigitComplex\SevenSegment3DigitComplex.c" 1
 235  0008              	MOV _builtin_holtek_delay_2,A
 235  0008              ;# 235 "c:\users\tech\desktop\codetector\sevenSegment3DigitComplex\SevenSegment3DigitComplex.c" 1
 235  0008              	MOV A,((1000-9)%0402h)/4+1
 235  0008              ;# 235 "c:\users\tech\desktop\codetector\sevenSegment3DigitComplex\SevenSegment3DigitComplex.c" 1
"File: SevenSegment3DigitComplex.c  Assembler  Version HGASM0202      Page 43

 235  0008              	CALL __DELAYY3 +3-(((1000-9)%0402h)%4)
 235  0008              	ENDIF
 238  0008              #line 238 "c:\users\tech\desktop\codetector\sevenSegment3DigitComplex\SevenSegment3DigitComplex.c"
 238  0008  2000     R  	call _clearSegment
 238  0009  0003        	ret
 238  000A              _oneDigit3 endp
 238  000A              #line 238 "c:\users\tech\desktop\codetector\sevenSegment3DigitComplex\SevenSegment3DigitComplex.c"
 238  000A              #pragma debug scope 1 1
 238  000A              public _towDigit1
 238  000A              #pragma debug scope 15 1
 243  000A              #line 243 "c:\users\tech\desktop\codetector\sevenSegment3DigitComplex\SevenSegment3DigitComplex.c"
 243  0000              _towDigit1 .section 'code'
 243  0000              _towDigit1 proc
 247  0000              #line 247 "c:\users\tech\desktop\codetector\sevenSegment3DigitComplex\SevenSegment3DigitComplex.c"
 247  0000  3519        	clr [25].2
 248  0001              #line 248 "c:\users\tech\desktop\codetector\sevenSegment3DigitComplex\SevenSegment3DigitComplex.c"
 248  0001  3499        	clr [25].1
 249  0002              #line 249 "c:\users\tech\desktop\codetector\sevenSegment3DigitComplex\SevenSegment3DigitComplex.c"
 249  0002  3615        	clr [21].4
 250  0003              #line 250 "c:\users\tech\desktop\codetector\sevenSegment3DigitComplex\SevenSegment3DigitComplex.c"
 250  0003  3515        	clr [21].2
 251  0004              #line 251 "c:\users\tech\desktop\codetector\sevenSegment3DigitComplex\SevenSegment3DigitComplex.c"
 251  0004  3599        	clr [25].3
 252  0005              #line 252 "c:\users\tech\desktop\codetector\sevenSegment3DigitComplex\SevenSegment3DigitComplex.c"
 252  0005  3518        	clr [24].2
 253  0006              #line 253 "c:\users\tech\desktop\codetector\sevenSegment3DigitComplex\SevenSegment3DigitComplex.c"
 253  0006  3098        	set [24].1
 254  0007              #line 254 "c:\users\tech\desktop\codetector\sevenSegment3DigitComplex\SevenSegment3DigitComplex.c"
 254  0007  3214        	set [20].4
 255  0008              #line 255 "c:\users\tech\desktop\codetector\sevenSegment3DigitComplex\SevenSegment3DigitComplex.c"
 255  0008  3114        	set [20].2
 256  0009              #line 256 "c:\users\tech\desktop\codetector\sevenSegment3DigitComplex\SevenSegment3DigitComplex.c"
 256  0009  3198        	set [24].3
 258  000A              #line 258 "c:\users\tech\desktop\codetector\sevenSegment3DigitComplex\SevenSegment3DigitComplex.c"
 258  000A              ;# 258 "c:\users\tech\desktop\codetector\sevenSegment3DigitComplex\SevenSegment3DigitComplex.c" 1
 258  000A              	IF 1000>263690
 258  000A              ;# 258 "c:\users\tech\desktop\codetector\sevenSegment3DigitComplex\SevenSegment3DigitComplex.c" 1
 258  000A              	ERRMESSAGE 'the value 1000of the argument exceeds the maxinum 263690'
 258  000A              	ENDIF
 258  000A              ;# 258 "c:\users\tech\desktop\codetector\sevenSegment3DigitComplex\SevenSegment3DigitComplex.c" 1
 258  000A              	IF 1000<0
 258  000A              ;# 258 "c:\users\tech\desktop\codetector\sevenSegment3DigitComplex\SevenSegment3DigitComplex.c" 1
 258  000A              	ERRMESSAGE 'the value 1000 of the argument exceeds the mininum 0'
 258  000A              	ENDIF
 258  000A              ;# 258 "c:\users\tech\desktop\codetector\sevenSegment3DigitComplex\SevenSegment3DigitComplex.c" 1
 258  000A              	IF 1000==0
 258  000A              ;# 258 "c:\users\tech\desktop\codetector\sevenSegment3DigitComplex\SevenSegment3DigitComplex.c" 1
 258  000A              	JMP $
 258  000A              	ENDIF
 258  000A              ;# 258 "c:\users\tech\desktop\codetector\sevenSegment3DigitComplex\SevenSegment3DigitComplex.c" 1
 258  000A              	IF 1000==1
 258  000A              ;# 258 "c:\users\tech\desktop\codetector\sevenSegment3DigitComplex\SevenSegment3DigitComplex.c" 1
 258  000A              	NOP
 258  000A              	ENDIF
 258  000A              ;# 258 "c:\users\tech\desktop\codetector\sevenSegment3DigitComplex\SevenSegment3DigitComplex.c" 1
 258  000A              	IF 1000==2
 258  000A              ;# 258 "c:\users\tech\desktop\codetector\sevenSegment3DigitComplex\SevenSegment3DigitComplex.c" 1
 258  000A              	NOP
 258  000A              ;# 258 "c:\users\tech\desktop\codetector\sevenSegment3DigitComplex\SevenSegment3DigitComplex.c" 1
 258  000A              	NOP
"File: SevenSegment3DigitComplex.c  Assembler  Version HGASM0202      Page 44

 258  000A              	ENDIF
 258  000A              ;# 258 "c:\users\tech\desktop\codetector\sevenSegment3DigitComplex\SevenSegment3DigitComplex.c" 1
 258  000A              	IF 1000==3
 258  000A              ;# 258 "c:\users\tech\desktop\codetector\sevenSegment3DigitComplex\SevenSegment3DigitComplex.c" 1
 258  000A              	NOP
 258  000A              ;# 258 "c:\users\tech\desktop\codetector\sevenSegment3DigitComplex\SevenSegment3DigitComplex.c" 1
 258  000A              	NOP
 258  000A              ;# 258 "c:\users\tech\desktop\codetector\sevenSegment3DigitComplex\SevenSegment3DigitComplex.c" 1
 258  000A              	NOP
 258  000A              	ENDIF
 258  000A              ;# 258 "c:\users\tech\desktop\codetector\sevenSegment3DigitComplex\SevenSegment3DigitComplex.c" 1
 258  000A              	IF (1000<8) AND (1000>3)
 258  000A              ;# 258 "c:\users\tech\desktop\codetector\sevenSegment3DigitComplex\SevenSegment3DigitComplex.c" 1
 258  000A              	CALL __DELAY3 + 7 -1000
 258  000A              	ENDIF
 258  000A              ;# 258 "c:\users\tech\desktop\codetector\sevenSegment3DigitComplex\SevenSegment3DigitComplex.c" 1
 258  000A              	IF (1000< 0404h) AND (1000>7)
 258  000A              ;# 258 "c:\users\tech\desktop\codetector\sevenSegment3DigitComplex\SevenSegment3DigitComplex.c" 1
 258  000A  0FF9        	MOV A,1000/4-1
 258  000B              ;# 258 "c:\users\tech\desktop\codetector\sevenSegment3DigitComplex\SevenSegment3DigitComplex.c" 1
 258  000B  2000     E  	CALL __DELAYX3 + 3 -(1000 MOD 4)
 258  000C              	ENDIF
 258  000C              ;# 258 "c:\users\tech\desktop\codetector\sevenSegment3DigitComplex\SevenSegment3DigitComplex.c" 1
 258  000C              	IF (1000< 0x40B) AND (1000> 0403h)
 258  000C              ;# 258 "c:\users\tech\desktop\codetector\sevenSegment3DigitComplex\SevenSegment3DigitComplex.c" 1
 258  000C              	MOV A,0 
 258  000C              ;# 258 "c:\users\tech\desktop\codetector\sevenSegment3DigitComplex\SevenSegment3DigitComplex.c" 1
 258  000C              	CALL __DELAYX6 + 0x40a -1000
 258  000C              	ENDIF
 258  000C              ;# 258 "c:\users\tech\desktop\codetector\sevenSegment3DigitComplex\SevenSegment3DigitComplex.c" 1
 258  000C              	IF (1000 >= 0x40b) AND ((((1000-9)%0402h)/4+1)>256)
 258  000C              ;# 258 "c:\users\tech\desktop\codetector\sevenSegment3DigitComplex\SevenSegment3DigitComplex.c" 1
 258  000C              	MOV A,(1000-9)/0402h
 258  000C              ;# 258 "c:\users\tech\desktop\codetector\sevenSegment3DigitComplex\SevenSegment3DigitComplex.c" 1
 258  000C              	MOV _builtin_holtek_delay_2,A
 258  000C              ;# 258 "c:\users\tech\desktop\codetector\sevenSegment3DigitComplex\SevenSegment3DigitComplex.c" 1
 258  000C              	MOV A,0
 258  000C              ;# 258 "c:\users\tech\desktop\codetector\sevenSegment3DigitComplex\SevenSegment3DigitComplex.c" 1
 258  000C              	CALL __DELAYY5 +5- (((1000-9)%0402h)%6)
 258  000C              	ENDIF
 258  000C              ;# 258 "c:\users\tech\desktop\codetector\sevenSegment3DigitComplex\SevenSegment3DigitComplex.c" 1
 258  000C              	IF (1000 >= 0x40b) AND ((((1000-9)%0402h)/4+1)<=256)
 258  000C              ;# 258 "c:\users\tech\desktop\codetector\sevenSegment3DigitComplex\SevenSegment3DigitComplex.c" 1
 258  000C              	MOV A,(1000-9)/0402h
 258  000C              ;# 258 "c:\users\tech\desktop\codetector\sevenSegment3DigitComplex\SevenSegment3DigitComplex.c" 1
 258  000C              	MOV _builtin_holtek_delay_2,A
 258  000C              ;# 258 "c:\users\tech\desktop\codetector\sevenSegment3DigitComplex\SevenSegment3DigitComplex.c" 1
 258  000C              	MOV A,((1000-9)%0402h)/4+1
 258  000C              ;# 258 "c:\users\tech\desktop\codetector\sevenSegment3DigitComplex\SevenSegment3DigitComplex.c" 1
 258  000C              	CALL __DELAYY3 +3-(((1000-9)%0402h)%4)
 258  000C              	ENDIF
 260  000C              #line 260 "c:\users\tech\desktop\codetector\sevenSegment3DigitComplex\SevenSegment3DigitComplex.c"
 260  000C  2000     R  	call _clearSegment
 262  000D              #line 262 "c:\users\tech\desktop\codetector\sevenSegment3DigitComplex\SevenSegment3DigitComplex.c"
 262  000D  3499        	clr [25].1
 263  000E              #line 263 "c:\users\tech\desktop\codetector\sevenSegment3DigitComplex\SevenSegment3DigitComplex.c"
 263  000E  3415        	clr [21].0
 264  000F              #line 264 "c:\users\tech\desktop\codetector\sevenSegment3DigitComplex\SevenSegment3DigitComplex.c"
 264  000F  3498        	clr [24].1
 265  0010              #line 265 "c:\users\tech\desktop\codetector\sevenSegment3DigitComplex\SevenSegment3DigitComplex.c"
"File: SevenSegment3DigitComplex.c  Assembler  Version HGASM0202      Page 45

 265  0010  3014        	set [20].0
 267  0011              #line 267 "c:\users\tech\desktop\codetector\sevenSegment3DigitComplex\SevenSegment3DigitComplex.c"
 267  0011              ;# 267 "c:\users\tech\desktop\codetector\sevenSegment3DigitComplex\SevenSegment3DigitComplex.c" 1
 267  0011              	IF 1000>263690
 267  0011              ;# 267 "c:\users\tech\desktop\codetector\sevenSegment3DigitComplex\SevenSegment3DigitComplex.c" 1
 267  0011              	ERRMESSAGE 'the value 1000of the argument exceeds the maxinum 263690'
 267  0011              	ENDIF
 267  0011              ;# 267 "c:\users\tech\desktop\codetector\sevenSegment3DigitComplex\SevenSegment3DigitComplex.c" 1
 267  0011              	IF 1000<0
 267  0011              ;# 267 "c:\users\tech\desktop\codetector\sevenSegment3DigitComplex\SevenSegment3DigitComplex.c" 1
 267  0011              	ERRMESSAGE 'the value 1000 of the argument exceeds the mininum 0'
 267  0011              	ENDIF
 267  0011              ;# 267 "c:\users\tech\desktop\codetector\sevenSegment3DigitComplex\SevenSegment3DigitComplex.c" 1
 267  0011              	IF 1000==0
 267  0011              ;# 267 "c:\users\tech\desktop\codetector\sevenSegment3DigitComplex\SevenSegment3DigitComplex.c" 1
 267  0011              	JMP $
 267  0011              	ENDIF
 267  0011              ;# 267 "c:\users\tech\desktop\codetector\sevenSegment3DigitComplex\SevenSegment3DigitComplex.c" 1
 267  0011              	IF 1000==1
 267  0011              ;# 267 "c:\users\tech\desktop\codetector\sevenSegment3DigitComplex\SevenSegment3DigitComplex.c" 1
 267  0011              	NOP
 267  0011              	ENDIF
 267  0011              ;# 267 "c:\users\tech\desktop\codetector\sevenSegment3DigitComplex\SevenSegment3DigitComplex.c" 1
 267  0011              	IF 1000==2
 267  0011              ;# 267 "c:\users\tech\desktop\codetector\sevenSegment3DigitComplex\SevenSegment3DigitComplex.c" 1
 267  0011              	NOP
 267  0011              ;# 267 "c:\users\tech\desktop\codetector\sevenSegment3DigitComplex\SevenSegment3DigitComplex.c" 1
 267  0011              	NOP
 267  0011              	ENDIF
 267  0011              ;# 267 "c:\users\tech\desktop\codetector\sevenSegment3DigitComplex\SevenSegment3DigitComplex.c" 1
 267  0011              	IF 1000==3
 267  0011              ;# 267 "c:\users\tech\desktop\codetector\sevenSegment3DigitComplex\SevenSegment3DigitComplex.c" 1
 267  0011              	NOP
 267  0011              ;# 267 "c:\users\tech\desktop\codetector\sevenSegment3DigitComplex\SevenSegment3DigitComplex.c" 1
 267  0011              	NOP
 267  0011              ;# 267 "c:\users\tech\desktop\codetector\sevenSegment3DigitComplex\SevenSegment3DigitComplex.c" 1
 267  0011              	NOP
 267  0011              	ENDIF
 267  0011              ;# 267 "c:\users\tech\desktop\codetector\sevenSegment3DigitComplex\SevenSegment3DigitComplex.c" 1
 267  0011              	IF (1000<8) AND (1000>3)
 267  0011              ;# 267 "c:\users\tech\desktop\codetector\sevenSegment3DigitComplex\SevenSegment3DigitComplex.c" 1
 267  0011              	CALL __DELAY3 + 7 -1000
 267  0011              	ENDIF
 267  0011              ;# 267 "c:\users\tech\desktop\codetector\sevenSegment3DigitComplex\SevenSegment3DigitComplex.c" 1
 267  0011              	IF (1000< 0404h) AND (1000>7)
 267  0011              ;# 267 "c:\users\tech\desktop\codetector\sevenSegment3DigitComplex\SevenSegment3DigitComplex.c" 1
 267  0011  0FF9        	MOV A,1000/4-1
 267  0012              ;# 267 "c:\users\tech\desktop\codetector\sevenSegment3DigitComplex\SevenSegment3DigitComplex.c" 1
 267  0012  2000     E  	CALL __DELAYX3 + 3 -(1000 MOD 4)
 267  0013              	ENDIF
 267  0013              ;# 267 "c:\users\tech\desktop\codetector\sevenSegment3DigitComplex\SevenSegment3DigitComplex.c" 1
 267  0013              	IF (1000< 0x40B) AND (1000> 0403h)
 267  0013              ;# 267 "c:\users\tech\desktop\codetector\sevenSegment3DigitComplex\SevenSegment3DigitComplex.c" 1
 267  0013              	MOV A,0 
 267  0013              ;# 267 "c:\users\tech\desktop\codetector\sevenSegment3DigitComplex\SevenSegment3DigitComplex.c" 1
 267  0013              	CALL __DELAYX6 + 0x40a -1000
 267  0013              	ENDIF
 267  0013              ;# 267 "c:\users\tech\desktop\codetector\sevenSegment3DigitComplex\SevenSegment3DigitComplex.c" 1
 267  0013              	IF (1000 >= 0x40b) AND ((((1000-9)%0402h)/4+1)>256)
 267  0013              ;# 267 "c:\users\tech\desktop\codetector\sevenSegment3DigitComplex\SevenSegment3DigitComplex.c" 1
"File: SevenSegment3DigitComplex.c  Assembler  Version HGASM0202      Page 46

 267  0013              	MOV A,(1000-9)/0402h
 267  0013              ;# 267 "c:\users\tech\desktop\codetector\sevenSegment3DigitComplex\SevenSegment3DigitComplex.c" 1
 267  0013              	MOV _builtin_holtek_delay_2,A
 267  0013              ;# 267 "c:\users\tech\desktop\codetector\sevenSegment3DigitComplex\SevenSegment3DigitComplex.c" 1
 267  0013              	MOV A,0
 267  0013              ;# 267 "c:\users\tech\desktop\codetector\sevenSegment3DigitComplex\SevenSegment3DigitComplex.c" 1
 267  0013              	CALL __DELAYY5 +5- (((1000-9)%0402h)%6)
 267  0013              	ENDIF
 267  0013              ;# 267 "c:\users\tech\desktop\codetector\sevenSegment3DigitComplex\SevenSegment3DigitComplex.c" 1
 267  0013              	IF (1000 >= 0x40b) AND ((((1000-9)%0402h)/4+1)<=256)
 267  0013              ;# 267 "c:\users\tech\desktop\codetector\sevenSegment3DigitComplex\SevenSegment3DigitComplex.c" 1
 267  0013              	MOV A,(1000-9)/0402h
 267  0013              ;# 267 "c:\users\tech\desktop\codetector\sevenSegment3DigitComplex\SevenSegment3DigitComplex.c" 1
 267  0013              	MOV _builtin_holtek_delay_2,A
 267  0013              ;# 267 "c:\users\tech\desktop\codetector\sevenSegment3DigitComplex\SevenSegment3DigitComplex.c" 1
 267  0013              	MOV A,((1000-9)%0402h)/4+1
 267  0013              ;# 267 "c:\users\tech\desktop\codetector\sevenSegment3DigitComplex\SevenSegment3DigitComplex.c" 1
 267  0013              	CALL __DELAYY3 +3-(((1000-9)%0402h)%4)
 267  0013              	ENDIF
 267  0013  0003        	ret
 267  0014              _towDigit1 endp
 267  0014              #line 267 "c:\users\tech\desktop\codetector\sevenSegment3DigitComplex\SevenSegment3DigitComplex.c"
 267  0014              #pragma debug scope 1 1
 267  0014              public _towDigit2
 267  0014              #pragma debug scope 16 1
 270  0014              #line 270 "c:\users\tech\desktop\codetector\sevenSegment3DigitComplex\SevenSegment3DigitComplex.c"
 270  0000              _towDigit2 .section 'code'
 270  0000              _towDigit2 proc
 273  0000              #line 273 "c:\users\tech\desktop\codetector\sevenSegment3DigitComplex\SevenSegment3DigitComplex.c"
 273  0000  3519        	clr [25].2
 274  0001              #line 274 "c:\users\tech\desktop\codetector\sevenSegment3DigitComplex\SevenSegment3DigitComplex.c"
 274  0001  3499        	clr [25].1
 275  0002              #line 275 "c:\users\tech\desktop\codetector\sevenSegment3DigitComplex\SevenSegment3DigitComplex.c"
 275  0002  3615        	clr [21].4
 276  0003              #line 276 "c:\users\tech\desktop\codetector\sevenSegment3DigitComplex\SevenSegment3DigitComplex.c"
 276  0003  3515        	clr [21].2
 277  0004              #line 277 "c:\users\tech\desktop\codetector\sevenSegment3DigitComplex\SevenSegment3DigitComplex.c"
 277  0004  3599        	clr [25].3
 279  0005              #line 279 "c:\users\tech\desktop\codetector\sevenSegment3DigitComplex\SevenSegment3DigitComplex.c"
 279  0005  3118        	set [24].2
 280  0006              #line 280 "c:\users\tech\desktop\codetector\sevenSegment3DigitComplex\SevenSegment3DigitComplex.c"
 280  0006  3498        	clr [24].1
 281  0007              #line 281 "c:\users\tech\desktop\codetector\sevenSegment3DigitComplex\SevenSegment3DigitComplex.c"
 281  0007  3614        	clr [20].4
 282  0008              #line 282 "c:\users\tech\desktop\codetector\sevenSegment3DigitComplex\SevenSegment3DigitComplex.c"
 282  0008  3514        	clr [20].2
 283  0009              #line 283 "c:\users\tech\desktop\codetector\sevenSegment3DigitComplex\SevenSegment3DigitComplex.c"
 283  0009  3598        	clr [24].3
 285  000A              #line 285 "c:\users\tech\desktop\codetector\sevenSegment3DigitComplex\SevenSegment3DigitComplex.c"
 285  000A              ;# 285 "c:\users\tech\desktop\codetector\sevenSegment3DigitComplex\SevenSegment3DigitComplex.c" 1
 285  000A              	IF 1000>263690
 285  000A              ;# 285 "c:\users\tech\desktop\codetector\sevenSegment3DigitComplex\SevenSegment3DigitComplex.c" 1
 285  000A              	ERRMESSAGE 'the value 1000of the argument exceeds the maxinum 263690'
 285  000A              	ENDIF
 285  000A              ;# 285 "c:\users\tech\desktop\codetector\sevenSegment3DigitComplex\SevenSegment3DigitComplex.c" 1
 285  000A              	IF 1000<0
 285  000A              ;# 285 "c:\users\tech\desktop\codetector\sevenSegment3DigitComplex\SevenSegment3DigitComplex.c" 1
 285  000A              	ERRMESSAGE 'the value 1000 of the argument exceeds the mininum 0'
 285  000A              	ENDIF
 285  000A              ;# 285 "c:\users\tech\desktop\codetector\sevenSegment3DigitComplex\SevenSegment3DigitComplex.c" 1
"File: SevenSegment3DigitComplex.c  Assembler  Version HGASM0202      Page 47

 285  000A              	IF 1000==0
 285  000A              ;# 285 "c:\users\tech\desktop\codetector\sevenSegment3DigitComplex\SevenSegment3DigitComplex.c" 1
 285  000A              	JMP $
 285  000A              	ENDIF
 285  000A              ;# 285 "c:\users\tech\desktop\codetector\sevenSegment3DigitComplex\SevenSegment3DigitComplex.c" 1
 285  000A              	IF 1000==1
 285  000A              ;# 285 "c:\users\tech\desktop\codetector\sevenSegment3DigitComplex\SevenSegment3DigitComplex.c" 1
 285  000A              	NOP
 285  000A              	ENDIF
 285  000A              ;# 285 "c:\users\tech\desktop\codetector\sevenSegment3DigitComplex\SevenSegment3DigitComplex.c" 1
 285  000A              	IF 1000==2
 285  000A              ;# 285 "c:\users\tech\desktop\codetector\sevenSegment3DigitComplex\SevenSegment3DigitComplex.c" 1
 285  000A              	NOP
 285  000A              ;# 285 "c:\users\tech\desktop\codetector\sevenSegment3DigitComplex\SevenSegment3DigitComplex.c" 1
 285  000A              	NOP
 285  000A              	ENDIF
 285  000A              ;# 285 "c:\users\tech\desktop\codetector\sevenSegment3DigitComplex\SevenSegment3DigitComplex.c" 1
 285  000A              	IF 1000==3
 285  000A              ;# 285 "c:\users\tech\desktop\codetector\sevenSegment3DigitComplex\SevenSegment3DigitComplex.c" 1
 285  000A              	NOP
 285  000A              ;# 285 "c:\users\tech\desktop\codetector\sevenSegment3DigitComplex\SevenSegment3DigitComplex.c" 1
 285  000A              	NOP
 285  000A              ;# 285 "c:\users\tech\desktop\codetector\sevenSegment3DigitComplex\SevenSegment3DigitComplex.c" 1
 285  000A              	NOP
 285  000A              	ENDIF
 285  000A              ;# 285 "c:\users\tech\desktop\codetector\sevenSegment3DigitComplex\SevenSegment3DigitComplex.c" 1
 285  000A              	IF (1000<8) AND (1000>3)
 285  000A              ;# 285 "c:\users\tech\desktop\codetector\sevenSegment3DigitComplex\SevenSegment3DigitComplex.c" 1
 285  000A              	CALL __DELAY3 + 7 -1000
 285  000A              	ENDIF
 285  000A              ;# 285 "c:\users\tech\desktop\codetector\sevenSegment3DigitComplex\SevenSegment3DigitComplex.c" 1
 285  000A              	IF (1000< 0404h) AND (1000>7)
 285  000A              ;# 285 "c:\users\tech\desktop\codetector\sevenSegment3DigitComplex\SevenSegment3DigitComplex.c" 1
 285  000A  0FF9        	MOV A,1000/4-1
 285  000B              ;# 285 "c:\users\tech\desktop\codetector\sevenSegment3DigitComplex\SevenSegment3DigitComplex.c" 1
 285  000B  2000     E  	CALL __DELAYX3 + 3 -(1000 MOD 4)
 285  000C              	ENDIF
 285  000C              ;# 285 "c:\users\tech\desktop\codetector\sevenSegment3DigitComplex\SevenSegment3DigitComplex.c" 1
 285  000C              	IF (1000< 0x40B) AND (1000> 0403h)
 285  000C              ;# 285 "c:\users\tech\desktop\codetector\sevenSegment3DigitComplex\SevenSegment3DigitComplex.c" 1
 285  000C              	MOV A,0 
 285  000C              ;# 285 "c:\users\tech\desktop\codetector\sevenSegment3DigitComplex\SevenSegment3DigitComplex.c" 1
 285  000C              	CALL __DELAYX6 + 0x40a -1000
 285  000C              	ENDIF
 285  000C              ;# 285 "c:\users\tech\desktop\codetector\sevenSegment3DigitComplex\SevenSegment3DigitComplex.c" 1
 285  000C              	IF (1000 >= 0x40b) AND ((((1000-9)%0402h)/4+1)>256)
 285  000C              ;# 285 "c:\users\tech\desktop\codetector\sevenSegment3DigitComplex\SevenSegment3DigitComplex.c" 1
 285  000C              	MOV A,(1000-9)/0402h
 285  000C              ;# 285 "c:\users\tech\desktop\codetector\sevenSegment3DigitComplex\SevenSegment3DigitComplex.c" 1
 285  000C              	MOV _builtin_holtek_delay_2,A
 285  000C              ;# 285 "c:\users\tech\desktop\codetector\sevenSegment3DigitComplex\SevenSegment3DigitComplex.c" 1
 285  000C              	MOV A,0
 285  000C              ;# 285 "c:\users\tech\desktop\codetector\sevenSegment3DigitComplex\SevenSegment3DigitComplex.c" 1
 285  000C              	CALL __DELAYY5 +5- (((1000-9)%0402h)%6)
 285  000C              	ENDIF
 285  000C              ;# 285 "c:\users\tech\desktop\codetector\sevenSegment3DigitComplex\SevenSegment3DigitComplex.c" 1
 285  000C              	IF (1000 >= 0x40b) AND ((((1000-9)%0402h)/4+1)<=256)
 285  000C              ;# 285 "c:\users\tech\desktop\codetector\sevenSegment3DigitComplex\SevenSegment3DigitComplex.c" 1
 285  000C              	MOV A,(1000-9)/0402h
 285  000C              ;# 285 "c:\users\tech\desktop\codetector\sevenSegment3DigitComplex\SevenSegment3DigitComplex.c" 1
"File: SevenSegment3DigitComplex.c  Assembler  Version HGASM0202      Page 48

 285  000C              	MOV _builtin_holtek_delay_2,A
 285  000C              ;# 285 "c:\users\tech\desktop\codetector\sevenSegment3DigitComplex\SevenSegment3DigitComplex.c" 1
 285  000C              	MOV A,((1000-9)%0402h)/4+1
 285  000C              ;# 285 "c:\users\tech\desktop\codetector\sevenSegment3DigitComplex\SevenSegment3DigitComplex.c" 1
 285  000C              	CALL __DELAYY3 +3-(((1000-9)%0402h)%4)
 285  000C              	ENDIF
 287  000C              #line 287 "c:\users\tech\desktop\codetector\sevenSegment3DigitComplex\SevenSegment3DigitComplex.c"
 287  000C  2000     R  	call _clearSegment
 289  000D              #line 289 "c:\users\tech\desktop\codetector\sevenSegment3DigitComplex\SevenSegment3DigitComplex.c"
 289  000D  3499        	clr [25].1
 290  000E              #line 290 "c:\users\tech\desktop\codetector\sevenSegment3DigitComplex\SevenSegment3DigitComplex.c"
 290  000E  3599        	clr [25].3
 291  000F              #line 291 "c:\users\tech\desktop\codetector\sevenSegment3DigitComplex\SevenSegment3DigitComplex.c"
 291  000F  3498        	clr [24].1
 292  0010              #line 292 "c:\users\tech\desktop\codetector\sevenSegment3DigitComplex\SevenSegment3DigitComplex.c"
 292  0010  3198        	set [24].3
 294  0011              #line 294 "c:\users\tech\desktop\codetector\sevenSegment3DigitComplex\SevenSegment3DigitComplex.c"
 294  0011              ;# 294 "c:\users\tech\desktop\codetector\sevenSegment3DigitComplex\SevenSegment3DigitComplex.c" 1
 294  0011              	IF 1000>263690
 294  0011              ;# 294 "c:\users\tech\desktop\codetector\sevenSegment3DigitComplex\SevenSegment3DigitComplex.c" 1
 294  0011              	ERRMESSAGE 'the value 1000of the argument exceeds the maxinum 263690'
 294  0011              	ENDIF
 294  0011              ;# 294 "c:\users\tech\desktop\codetector\sevenSegment3DigitComplex\SevenSegment3DigitComplex.c" 1
 294  0011              	IF 1000<0
 294  0011              ;# 294 "c:\users\tech\desktop\codetector\sevenSegment3DigitComplex\SevenSegment3DigitComplex.c" 1
 294  0011              	ERRMESSAGE 'the value 1000 of the argument exceeds the mininum 0'
 294  0011              	ENDIF
 294  0011              ;# 294 "c:\users\tech\desktop\codetector\sevenSegment3DigitComplex\SevenSegment3DigitComplex.c" 1
 294  0011              	IF 1000==0
 294  0011              ;# 294 "c:\users\tech\desktop\codetector\sevenSegment3DigitComplex\SevenSegment3DigitComplex.c" 1
 294  0011              	JMP $
 294  0011              	ENDIF
 294  0011              ;# 294 "c:\users\tech\desktop\codetector\sevenSegment3DigitComplex\SevenSegment3DigitComplex.c" 1
 294  0011              	IF 1000==1
 294  0011              ;# 294 "c:\users\tech\desktop\codetector\sevenSegment3DigitComplex\SevenSegment3DigitComplex.c" 1
 294  0011              	NOP
 294  0011              	ENDIF
 294  0011              ;# 294 "c:\users\tech\desktop\codetector\sevenSegment3DigitComplex\SevenSegment3DigitComplex.c" 1
 294  0011              	IF 1000==2
 294  0011              ;# 294 "c:\users\tech\desktop\codetector\sevenSegment3DigitComplex\SevenSegment3DigitComplex.c" 1
 294  0011              	NOP
 294  0011              ;# 294 "c:\users\tech\desktop\codetector\sevenSegment3DigitComplex\SevenSegment3DigitComplex.c" 1
 294  0011              	NOP
 294  0011              	ENDIF
 294  0011              ;# 294 "c:\users\tech\desktop\codetector\sevenSegment3DigitComplex\SevenSegment3DigitComplex.c" 1
 294  0011              	IF 1000==3
 294  0011              ;# 294 "c:\users\tech\desktop\codetector\sevenSegment3DigitComplex\SevenSegment3DigitComplex.c" 1
 294  0011              	NOP
 294  0011              ;# 294 "c:\users\tech\desktop\codetector\sevenSegment3DigitComplex\SevenSegment3DigitComplex.c" 1
 294  0011              	NOP
 294  0011              ;# 294 "c:\users\tech\desktop\codetector\sevenSegment3DigitComplex\SevenSegment3DigitComplex.c" 1
 294  0011              	NOP
 294  0011              	ENDIF
 294  0011              ;# 294 "c:\users\tech\desktop\codetector\sevenSegment3DigitComplex\SevenSegment3DigitComplex.c" 1
 294  0011              	IF (1000<8) AND (1000>3)
 294  0011              ;# 294 "c:\users\tech\desktop\codetector\sevenSegment3DigitComplex\SevenSegment3DigitComplex.c" 1
 294  0011              	CALL __DELAY3 + 7 -1000
 294  0011              	ENDIF
 294  0011              ;# 294 "c:\users\tech\desktop\codetector\sevenSegment3DigitComplex\SevenSegment3DigitComplex.c" 1
 294  0011              	IF (1000< 0404h) AND (1000>7)
"File: SevenSegment3DigitComplex.c  Assembler  Version HGASM0202      Page 49

 294  0011              ;# 294 "c:\users\tech\desktop\codetector\sevenSegment3DigitComplex\SevenSegment3DigitComplex.c" 1
 294  0011  0FF9        	MOV A,1000/4-1
 294  0012              ;# 294 "c:\users\tech\desktop\codetector\sevenSegment3DigitComplex\SevenSegment3DigitComplex.c" 1
 294  0012  2000     E  	CALL __DELAYX3 + 3 -(1000 MOD 4)
 294  0013              	ENDIF
 294  0013              ;# 294 "c:\users\tech\desktop\codetector\sevenSegment3DigitComplex\SevenSegment3DigitComplex.c" 1
 294  0013              	IF (1000< 0x40B) AND (1000> 0403h)
 294  0013              ;# 294 "c:\users\tech\desktop\codetector\sevenSegment3DigitComplex\SevenSegment3DigitComplex.c" 1
 294  0013              	MOV A,0 
 294  0013              ;# 294 "c:\users\tech\desktop\codetector\sevenSegment3DigitComplex\SevenSegment3DigitComplex.c" 1
 294  0013              	CALL __DELAYX6 + 0x40a -1000
 294  0013              	ENDIF
 294  0013              ;# 294 "c:\users\tech\desktop\codetector\sevenSegment3DigitComplex\SevenSegment3DigitComplex.c" 1
 294  0013              	IF (1000 >= 0x40b) AND ((((1000-9)%0402h)/4+1)>256)
 294  0013              ;# 294 "c:\users\tech\desktop\codetector\sevenSegment3DigitComplex\SevenSegment3DigitComplex.c" 1
 294  0013              	MOV A,(1000-9)/0402h
 294  0013              ;# 294 "c:\users\tech\desktop\codetector\sevenSegment3DigitComplex\SevenSegment3DigitComplex.c" 1
 294  0013              	MOV _builtin_holtek_delay_2,A
 294  0013              ;# 294 "c:\users\tech\desktop\codetector\sevenSegment3DigitComplex\SevenSegment3DigitComplex.c" 1
 294  0013              	MOV A,0
 294  0013              ;# 294 "c:\users\tech\desktop\codetector\sevenSegment3DigitComplex\SevenSegment3DigitComplex.c" 1
 294  0013              	CALL __DELAYY5 +5- (((1000-9)%0402h)%6)
 294  0013              	ENDIF
 294  0013              ;# 294 "c:\users\tech\desktop\codetector\sevenSegment3DigitComplex\SevenSegment3DigitComplex.c" 1
 294  0013              	IF (1000 >= 0x40b) AND ((((1000-9)%0402h)/4+1)<=256)
 294  0013              ;# 294 "c:\users\tech\desktop\codetector\sevenSegment3DigitComplex\SevenSegment3DigitComplex.c" 1
 294  0013              	MOV A,(1000-9)/0402h
 294  0013              ;# 294 "c:\users\tech\desktop\codetector\sevenSegment3DigitComplex\SevenSegment3DigitComplex.c" 1
 294  0013              	MOV _builtin_holtek_delay_2,A
 294  0013              ;# 294 "c:\users\tech\desktop\codetector\sevenSegment3DigitComplex\SevenSegment3DigitComplex.c" 1
 294  0013              	MOV A,((1000-9)%0402h)/4+1
 294  0013              ;# 294 "c:\users\tech\desktop\codetector\sevenSegment3DigitComplex\SevenSegment3DigitComplex.c" 1
 294  0013              	CALL __DELAYY3 +3-(((1000-9)%0402h)%4)
 294  0013              	ENDIF
 294  0013  0003        	ret
 294  0014              _towDigit2 endp
 294  0014              #line 294 "c:\users\tech\desktop\codetector\sevenSegment3DigitComplex\SevenSegment3DigitComplex.c"
 294  0014              #pragma debug scope 1 1
 294  0014              public _towDigit3
 294  0014              #pragma debug scope 17 1
 297  0014              #line 297 "c:\users\tech\desktop\codetector\sevenSegment3DigitComplex\SevenSegment3DigitComplex.c"
 297  0000              _towDigit3 .section 'code'
 297  0000              _towDigit3 proc
 302  0000              #line 302 "c:\users\tech\desktop\codetector\sevenSegment3DigitComplex\SevenSegment3DigitComplex.c"
 302  0000  3499        	clr [25].1
 303  0001              #line 303 "c:\users\tech\desktop\codetector\sevenSegment3DigitComplex\SevenSegment3DigitComplex.c"
 303  0001  3615        	clr [21].4
 304  0002              #line 304 "c:\users\tech\desktop\codetector\sevenSegment3DigitComplex\SevenSegment3DigitComplex.c"
 304  0002  3415        	clr [21].0
 305  0003              #line 305 "c:\users\tech\desktop\codetector\sevenSegment3DigitComplex\SevenSegment3DigitComplex.c"
 305  0003  3599        	clr [25].3
 306  0004              #line 306 "c:\users\tech\desktop\codetector\sevenSegment3DigitComplex\SevenSegment3DigitComplex.c"
 306  0004  3098        	set [24].1
 307  0005              #line 307 "c:\users\tech\desktop\codetector\sevenSegment3DigitComplex\SevenSegment3DigitComplex.c"
 307  0005  3614        	clr [20].4
 308  0006              #line 308 "c:\users\tech\desktop\codetector\sevenSegment3DigitComplex\SevenSegment3DigitComplex.c"
 308  0006  3414        	clr [20].0
 309  0007              #line 309 "c:\users\tech\desktop\codetector\sevenSegment3DigitComplex\SevenSegment3DigitComplex.c"
 309  0007  3514        	clr [20].2
 310  0008              #line 310 "c:\users\tech\desktop\codetector\sevenSegment3DigitComplex\SevenSegment3DigitComplex.c"
"File: SevenSegment3DigitComplex.c  Assembler  Version HGASM0202      Page 50

 310  0008  3598        	clr [24].3
 312  0009              #line 312 "c:\users\tech\desktop\codetector\sevenSegment3DigitComplex\SevenSegment3DigitComplex.c"
 312  0009              ;# 312 "c:\users\tech\desktop\codetector\sevenSegment3DigitComplex\SevenSegment3DigitComplex.c" 1
 312  0009              	IF 1000>263690
 312  0009              ;# 312 "c:\users\tech\desktop\codetector\sevenSegment3DigitComplex\SevenSegment3DigitComplex.c" 1
 312  0009              	ERRMESSAGE 'the value 1000of the argument exceeds the maxinum 263690'
 312  0009              	ENDIF
 312  0009              ;# 312 "c:\users\tech\desktop\codetector\sevenSegment3DigitComplex\SevenSegment3DigitComplex.c" 1
 312  0009              	IF 1000<0
 312  0009              ;# 312 "c:\users\tech\desktop\codetector\sevenSegment3DigitComplex\SevenSegment3DigitComplex.c" 1
 312  0009              	ERRMESSAGE 'the value 1000 of the argument exceeds the mininum 0'
 312  0009              	ENDIF
 312  0009              ;# 312 "c:\users\tech\desktop\codetector\sevenSegment3DigitComplex\SevenSegment3DigitComplex.c" 1
 312  0009              	IF 1000==0
 312  0009              ;# 312 "c:\users\tech\desktop\codetector\sevenSegment3DigitComplex\SevenSegment3DigitComplex.c" 1
 312  0009              	JMP $
 312  0009              	ENDIF
 312  0009              ;# 312 "c:\users\tech\desktop\codetector\sevenSegment3DigitComplex\SevenSegment3DigitComplex.c" 1
 312  0009              	IF 1000==1
 312  0009              ;# 312 "c:\users\tech\desktop\codetector\sevenSegment3DigitComplex\SevenSegment3DigitComplex.c" 1
 312  0009              	NOP
 312  0009              	ENDIF
 312  0009              ;# 312 "c:\users\tech\desktop\codetector\sevenSegment3DigitComplex\SevenSegment3DigitComplex.c" 1
 312  0009              	IF 1000==2
 312  0009              ;# 312 "c:\users\tech\desktop\codetector\sevenSegment3DigitComplex\SevenSegment3DigitComplex.c" 1
 312  0009              	NOP
 312  0009              ;# 312 "c:\users\tech\desktop\codetector\sevenSegment3DigitComplex\SevenSegment3DigitComplex.c" 1
 312  0009              	NOP
 312  0009              	ENDIF
 312  0009              ;# 312 "c:\users\tech\desktop\codetector\sevenSegment3DigitComplex\SevenSegment3DigitComplex.c" 1
 312  0009              	IF 1000==3
 312  0009              ;# 312 "c:\users\tech\desktop\codetector\sevenSegment3DigitComplex\SevenSegment3DigitComplex.c" 1
 312  0009              	NOP
 312  0009              ;# 312 "c:\users\tech\desktop\codetector\sevenSegment3DigitComplex\SevenSegment3DigitComplex.c" 1
 312  0009              	NOP
 312  0009              ;# 312 "c:\users\tech\desktop\codetector\sevenSegment3DigitComplex\SevenSegment3DigitComplex.c" 1
 312  0009              	NOP
 312  0009              	ENDIF
 312  0009              ;# 312 "c:\users\tech\desktop\codetector\sevenSegment3DigitComplex\SevenSegment3DigitComplex.c" 1
 312  0009              	IF (1000<8) AND (1000>3)
 312  0009              ;# 312 "c:\users\tech\desktop\codetector\sevenSegment3DigitComplex\SevenSegment3DigitComplex.c" 1
 312  0009              	CALL __DELAY3 + 7 -1000
 312  0009              	ENDIF
 312  0009              ;# 312 "c:\users\tech\desktop\codetector\sevenSegment3DigitComplex\SevenSegment3DigitComplex.c" 1
 312  0009              	IF (1000< 0404h) AND (1000>7)
 312  0009              ;# 312 "c:\users\tech\desktop\codetector\sevenSegment3DigitComplex\SevenSegment3DigitComplex.c" 1
 312  0009  0FF9        	MOV A,1000/4-1
 312  000A              ;# 312 "c:\users\tech\desktop\codetector\sevenSegment3DigitComplex\SevenSegment3DigitComplex.c" 1
 312  000A  2000     E  	CALL __DELAYX3 + 3 -(1000 MOD 4)
 312  000B              	ENDIF
 312  000B              ;# 312 "c:\users\tech\desktop\codetector\sevenSegment3DigitComplex\SevenSegment3DigitComplex.c" 1
 312  000B              	IF (1000< 0x40B) AND (1000> 0403h)
 312  000B              ;# 312 "c:\users\tech\desktop\codetector\sevenSegment3DigitComplex\SevenSegment3DigitComplex.c" 1
 312  000B              	MOV A,0 
 312  000B              ;# 312 "c:\users\tech\desktop\codetector\sevenSegment3DigitComplex\SevenSegment3DigitComplex.c" 1
 312  000B              	CALL __DELAYX6 + 0x40a -1000
 312  000B              	ENDIF
 312  000B              ;# 312 "c:\users\tech\desktop\codetector\sevenSegment3DigitComplex\SevenSegment3DigitComplex.c" 1
 312  000B              	IF (1000 >= 0x40b) AND ((((1000-9)%0402h)/4+1)>256)
 312  000B              ;# 312 "c:\users\tech\desktop\codetector\sevenSegment3DigitComplex\SevenSegment3DigitComplex.c" 1
"File: SevenSegment3DigitComplex.c  Assembler  Version HGASM0202      Page 51

 312  000B              	MOV A,(1000-9)/0402h
 312  000B              ;# 312 "c:\users\tech\desktop\codetector\sevenSegment3DigitComplex\SevenSegment3DigitComplex.c" 1
 312  000B              	MOV _builtin_holtek_delay_2,A
 312  000B              ;# 312 "c:\users\tech\desktop\codetector\sevenSegment3DigitComplex\SevenSegment3DigitComplex.c" 1
 312  000B              	MOV A,0
 312  000B              ;# 312 "c:\users\tech\desktop\codetector\sevenSegment3DigitComplex\SevenSegment3DigitComplex.c" 1
 312  000B              	CALL __DELAYY5 +5- (((1000-9)%0402h)%6)
 312  000B              	ENDIF
 312  000B              ;# 312 "c:\users\tech\desktop\codetector\sevenSegment3DigitComplex\SevenSegment3DigitComplex.c" 1
 312  000B              	IF (1000 >= 0x40b) AND ((((1000-9)%0402h)/4+1)<=256)
 312  000B              ;# 312 "c:\users\tech\desktop\codetector\sevenSegment3DigitComplex\SevenSegment3DigitComplex.c" 1
 312  000B              	MOV A,(1000-9)/0402h
 312  000B              ;# 312 "c:\users\tech\desktop\codetector\sevenSegment3DigitComplex\SevenSegment3DigitComplex.c" 1
 312  000B              	MOV _builtin_holtek_delay_2,A
 312  000B              ;# 312 "c:\users\tech\desktop\codetector\sevenSegment3DigitComplex\SevenSegment3DigitComplex.c" 1
 312  000B              	MOV A,((1000-9)%0402h)/4+1
 312  000B              ;# 312 "c:\users\tech\desktop\codetector\sevenSegment3DigitComplex\SevenSegment3DigitComplex.c" 1
 312  000B              	CALL __DELAYY3 +3-(((1000-9)%0402h)%4)
 312  000B              	ENDIF
 314  000B              #line 314 "c:\users\tech\desktop\codetector\sevenSegment3DigitComplex\SevenSegment3DigitComplex.c"
 314  000B  2000     R  	call _clearSegment
 316  000C              #line 316 "c:\users\tech\desktop\codetector\sevenSegment3DigitComplex\SevenSegment3DigitComplex.c"
 316  000C  3615        	clr [21].4
 317  000D              #line 317 "c:\users\tech\desktop\codetector\sevenSegment3DigitComplex\SevenSegment3DigitComplex.c"
 317  000D  3415        	clr [21].0
 318  000E              #line 318 "c:\users\tech\desktop\codetector\sevenSegment3DigitComplex\SevenSegment3DigitComplex.c"
 318  000E  3599        	clr [25].3
 320  000F              #line 320 "c:\users\tech\desktop\codetector\sevenSegment3DigitComplex\SevenSegment3DigitComplex.c"
 320  000F  3214        	set [20].4
 321  0010              #line 321 "c:\users\tech\desktop\codetector\sevenSegment3DigitComplex\SevenSegment3DigitComplex.c"
 321  0010  3414        	clr [20].0
 322  0011              #line 322 "c:\users\tech\desktop\codetector\sevenSegment3DigitComplex\SevenSegment3DigitComplex.c"
 322  0011  3598        	clr [24].3
 324  0012              #line 324 "c:\users\tech\desktop\codetector\sevenSegment3DigitComplex\SevenSegment3DigitComplex.c"
 324  0012              ;# 324 "c:\users\tech\desktop\codetector\sevenSegment3DigitComplex\SevenSegment3DigitComplex.c" 1
 324  0012              	IF 1000>263690
 324  0012              ;# 324 "c:\users\tech\desktop\codetector\sevenSegment3DigitComplex\SevenSegment3DigitComplex.c" 1
 324  0012              	ERRMESSAGE 'the value 1000of the argument exceeds the maxinum 263690'
 324  0012              	ENDIF
 324  0012              ;# 324 "c:\users\tech\desktop\codetector\sevenSegment3DigitComplex\SevenSegment3DigitComplex.c" 1
 324  0012              	IF 1000<0
 324  0012              ;# 324 "c:\users\tech\desktop\codetector\sevenSegment3DigitComplex\SevenSegment3DigitComplex.c" 1
 324  0012              	ERRMESSAGE 'the value 1000 of the argument exceeds the mininum 0'
 324  0012              	ENDIF
 324  0012              ;# 324 "c:\users\tech\desktop\codetector\sevenSegment3DigitComplex\SevenSegment3DigitComplex.c" 1
 324  0012              	IF 1000==0
 324  0012              ;# 324 "c:\users\tech\desktop\codetector\sevenSegment3DigitComplex\SevenSegment3DigitComplex.c" 1
 324  0012              	JMP $
 324  0012              	ENDIF
 324  0012              ;# 324 "c:\users\tech\desktop\codetector\sevenSegment3DigitComplex\SevenSegment3DigitComplex.c" 1
 324  0012              	IF 1000==1
 324  0012              ;# 324 "c:\users\tech\desktop\codetector\sevenSegment3DigitComplex\SevenSegment3DigitComplex.c" 1
 324  0012              	NOP
 324  0012              	ENDIF
 324  0012              ;# 324 "c:\users\tech\desktop\codetector\sevenSegment3DigitComplex\SevenSegment3DigitComplex.c" 1
 324  0012              	IF 1000==2
 324  0012              ;# 324 "c:\users\tech\desktop\codetector\sevenSegment3DigitComplex\SevenSegment3DigitComplex.c" 1
 324  0012              	NOP
 324  0012              ;# 324 "c:\users\tech\desktop\codetector\sevenSegment3DigitComplex\SevenSegment3DigitComplex.c" 1
 324  0012              	NOP
"File: SevenSegment3DigitComplex.c  Assembler  Version HGASM0202      Page 52

 324  0012              	ENDIF
 324  0012              ;# 324 "c:\users\tech\desktop\codetector\sevenSegment3DigitComplex\SevenSegment3DigitComplex.c" 1
 324  0012              	IF 1000==3
 324  0012              ;# 324 "c:\users\tech\desktop\codetector\sevenSegment3DigitComplex\SevenSegment3DigitComplex.c" 1
 324  0012              	NOP
 324  0012              ;# 324 "c:\users\tech\desktop\codetector\sevenSegment3DigitComplex\SevenSegment3DigitComplex.c" 1
 324  0012              	NOP
 324  0012              ;# 324 "c:\users\tech\desktop\codetector\sevenSegment3DigitComplex\SevenSegment3DigitComplex.c" 1
 324  0012              	NOP
 324  0012              	ENDIF
 324  0012              ;# 324 "c:\users\tech\desktop\codetector\sevenSegment3DigitComplex\SevenSegment3DigitComplex.c" 1
 324  0012              	IF (1000<8) AND (1000>3)
 324  0012              ;# 324 "c:\users\tech\desktop\codetector\sevenSegment3DigitComplex\SevenSegment3DigitComplex.c" 1
 324  0012              	CALL __DELAY3 + 7 -1000
 324  0012              	ENDIF
 324  0012              ;# 324 "c:\users\tech\desktop\codetector\sevenSegment3DigitComplex\SevenSegment3DigitComplex.c" 1
 324  0012              	IF (1000< 0404h) AND (1000>7)
 324  0012              ;# 324 "c:\users\tech\desktop\codetector\sevenSegment3DigitComplex\SevenSegment3DigitComplex.c" 1
 324  0012  0FF9        	MOV A,1000/4-1
 324  0013              ;# 324 "c:\users\tech\desktop\codetector\sevenSegment3DigitComplex\SevenSegment3DigitComplex.c" 1
 324  0013  2000     E  	CALL __DELAYX3 + 3 -(1000 MOD 4)
 324  0014              	ENDIF
 324  0014              ;# 324 "c:\users\tech\desktop\codetector\sevenSegment3DigitComplex\SevenSegment3DigitComplex.c" 1
 324  0014              	IF (1000< 0x40B) AND (1000> 0403h)
 324  0014              ;# 324 "c:\users\tech\desktop\codetector\sevenSegment3DigitComplex\SevenSegment3DigitComplex.c" 1
 324  0014              	MOV A,0 
 324  0014              ;# 324 "c:\users\tech\desktop\codetector\sevenSegment3DigitComplex\SevenSegment3DigitComplex.c" 1
 324  0014              	CALL __DELAYX6 + 0x40a -1000
 324  0014              	ENDIF
 324  0014              ;# 324 "c:\users\tech\desktop\codetector\sevenSegment3DigitComplex\SevenSegment3DigitComplex.c" 1
 324  0014              	IF (1000 >= 0x40b) AND ((((1000-9)%0402h)/4+1)>256)
 324  0014              ;# 324 "c:\users\tech\desktop\codetector\sevenSegment3DigitComplex\SevenSegment3DigitComplex.c" 1
 324  0014              	MOV A,(1000-9)/0402h
 324  0014              ;# 324 "c:\users\tech\desktop\codetector\sevenSegment3DigitComplex\SevenSegment3DigitComplex.c" 1
 324  0014              	MOV _builtin_holtek_delay_2,A
 324  0014              ;# 324 "c:\users\tech\desktop\codetector\sevenSegment3DigitComplex\SevenSegment3DigitComplex.c" 1
 324  0014              	MOV A,0
 324  0014              ;# 324 "c:\users\tech\desktop\codetector\sevenSegment3DigitComplex\SevenSegment3DigitComplex.c" 1
 324  0014              	CALL __DELAYY5 +5- (((1000-9)%0402h)%6)
 324  0014              	ENDIF
 324  0014              ;# 324 "c:\users\tech\desktop\codetector\sevenSegment3DigitComplex\SevenSegment3DigitComplex.c" 1
 324  0014              	IF (1000 >= 0x40b) AND ((((1000-9)%0402h)/4+1)<=256)
 324  0014              ;# 324 "c:\users\tech\desktop\codetector\sevenSegment3DigitComplex\SevenSegment3DigitComplex.c" 1
 324  0014              	MOV A,(1000-9)/0402h
 324  0014              ;# 324 "c:\users\tech\desktop\codetector\sevenSegment3DigitComplex\SevenSegment3DigitComplex.c" 1
 324  0014              	MOV _builtin_holtek_delay_2,A
 324  0014              ;# 324 "c:\users\tech\desktop\codetector\sevenSegment3DigitComplex\SevenSegment3DigitComplex.c" 1
 324  0014              	MOV A,((1000-9)%0402h)/4+1
 324  0014              ;# 324 "c:\users\tech\desktop\codetector\sevenSegment3DigitComplex\SevenSegment3DigitComplex.c" 1
 324  0014              	CALL __DELAYY3 +3-(((1000-9)%0402h)%4)
 324  0014              	ENDIF
 324  0014  0003        	ret
 324  0015              _towDigit3 endp
 324  0015              #line 324 "c:\users\tech\desktop\codetector\sevenSegment3DigitComplex\SevenSegment3DigitComplex.c"
 324  0015              #pragma debug scope 1 1
 324  0015              public _threeDigit1
 324  0015              #pragma debug scope 18 1
 328  0015              #line 328 "c:\users\tech\desktop\codetector\sevenSegment3DigitComplex\SevenSegment3DigitComplex.c"
 328  0000              _threeDigit1 .section 'code'
 328  0000              _threeDigit1 proc
"File: SevenSegment3DigitComplex.c  Assembler  Version HGASM0202      Page 53

 332  0000              #line 332 "c:\users\tech\desktop\codetector\sevenSegment3DigitComplex\SevenSegment3DigitComplex.c"
 332  0000  3499        	clr [25].1
 333  0001              #line 333 "c:\users\tech\desktop\codetector\sevenSegment3DigitComplex\SevenSegment3DigitComplex.c"
 333  0001  3519        	clr [25].2
 334  0002              #line 334 "c:\users\tech\desktop\codetector\sevenSegment3DigitComplex\SevenSegment3DigitComplex.c"
 334  0002  3615        	clr [21].4
 335  0003              #line 335 "c:\users\tech\desktop\codetector\sevenSegment3DigitComplex\SevenSegment3DigitComplex.c"
 335  0003  3415        	clr [21].0
 336  0004              #line 336 "c:\users\tech\desktop\codetector\sevenSegment3DigitComplex\SevenSegment3DigitComplex.c"
 336  0004  3515        	clr [21].2
 337  0005              #line 337 "c:\users\tech\desktop\codetector\sevenSegment3DigitComplex\SevenSegment3DigitComplex.c"
 337  0005  3518        	clr [24].2
 338  0006              #line 338 "c:\users\tech\desktop\codetector\sevenSegment3DigitComplex\SevenSegment3DigitComplex.c"
 338  0006  3098        	set [24].1
 339  0007              #line 339 "c:\users\tech\desktop\codetector\sevenSegment3DigitComplex\SevenSegment3DigitComplex.c"
 339  0007  3214        	set [20].4
 340  0008              #line 340 "c:\users\tech\desktop\codetector\sevenSegment3DigitComplex\SevenSegment3DigitComplex.c"
 340  0008  3014        	set [20].0
 341  0009              #line 341 "c:\users\tech\desktop\codetector\sevenSegment3DigitComplex\SevenSegment3DigitComplex.c"
 341  0009  3114        	set [20].2
 343  000A              #line 343 "c:\users\tech\desktop\codetector\sevenSegment3DigitComplex\SevenSegment3DigitComplex.c"
 343  000A              ;# 343 "c:\users\tech\desktop\codetector\sevenSegment3DigitComplex\SevenSegment3DigitComplex.c" 1
 343  000A              	IF 1000>263690
 343  000A              ;# 343 "c:\users\tech\desktop\codetector\sevenSegment3DigitComplex\SevenSegment3DigitComplex.c" 1
 343  000A              	ERRMESSAGE 'the value 1000of the argument exceeds the maxinum 263690'
 343  000A              	ENDIF
 343  000A              ;# 343 "c:\users\tech\desktop\codetector\sevenSegment3DigitComplex\SevenSegment3DigitComplex.c" 1
 343  000A              	IF 1000<0
 343  000A              ;# 343 "c:\users\tech\desktop\codetector\sevenSegment3DigitComplex\SevenSegment3DigitComplex.c" 1
 343  000A              	ERRMESSAGE 'the value 1000 of the argument exceeds the mininum 0'
 343  000A              	ENDIF
 343  000A              ;# 343 "c:\users\tech\desktop\codetector\sevenSegment3DigitComplex\SevenSegment3DigitComplex.c" 1
 343  000A              	IF 1000==0
 343  000A              ;# 343 "c:\users\tech\desktop\codetector\sevenSegment3DigitComplex\SevenSegment3DigitComplex.c" 1
 343  000A              	JMP $
 343  000A              	ENDIF
 343  000A              ;# 343 "c:\users\tech\desktop\codetector\sevenSegment3DigitComplex\SevenSegment3DigitComplex.c" 1
 343  000A              	IF 1000==1
 343  000A              ;# 343 "c:\users\tech\desktop\codetector\sevenSegment3DigitComplex\SevenSegment3DigitComplex.c" 1
 343  000A              	NOP
 343  000A              	ENDIF
 343  000A              ;# 343 "c:\users\tech\desktop\codetector\sevenSegment3DigitComplex\SevenSegment3DigitComplex.c" 1
 343  000A              	IF 1000==2
 343  000A              ;# 343 "c:\users\tech\desktop\codetector\sevenSegment3DigitComplex\SevenSegment3DigitComplex.c" 1
 343  000A              	NOP
 343  000A              ;# 343 "c:\users\tech\desktop\codetector\sevenSegment3DigitComplex\SevenSegment3DigitComplex.c" 1
 343  000A              	NOP
 343  000A              	ENDIF
 343  000A              ;# 343 "c:\users\tech\desktop\codetector\sevenSegment3DigitComplex\SevenSegment3DigitComplex.c" 1
 343  000A              	IF 1000==3
 343  000A              ;# 343 "c:\users\tech\desktop\codetector\sevenSegment3DigitComplex\SevenSegment3DigitComplex.c" 1
 343  000A              	NOP
 343  000A              ;# 343 "c:\users\tech\desktop\codetector\sevenSegment3DigitComplex\SevenSegment3DigitComplex.c" 1
 343  000A              	NOP
 343  000A              ;# 343 "c:\users\tech\desktop\codetector\sevenSegment3DigitComplex\SevenSegment3DigitComplex.c" 1
 343  000A              	NOP
 343  000A              	ENDIF
 343  000A              ;# 343 "c:\users\tech\desktop\codetector\sevenSegment3DigitComplex\SevenSegment3DigitComplex.c" 1
 343  000A              	IF (1000<8) AND (1000>3)
 343  000A              ;# 343 "c:\users\tech\desktop\codetector\sevenSegment3DigitComplex\SevenSegment3DigitComplex.c" 1
"File: SevenSegment3DigitComplex.c  Assembler  Version HGASM0202      Page 54

 343  000A              	CALL __DELAY3 + 7 -1000
 343  000A              	ENDIF
 343  000A              ;# 343 "c:\users\tech\desktop\codetector\sevenSegment3DigitComplex\SevenSegment3DigitComplex.c" 1
 343  000A              	IF (1000< 0404h) AND (1000>7)
 343  000A              ;# 343 "c:\users\tech\desktop\codetector\sevenSegment3DigitComplex\SevenSegment3DigitComplex.c" 1
 343  000A  0FF9        	MOV A,1000/4-1
 343  000B              ;# 343 "c:\users\tech\desktop\codetector\sevenSegment3DigitComplex\SevenSegment3DigitComplex.c" 1
 343  000B  2000     E  	CALL __DELAYX3 + 3 -(1000 MOD 4)
 343  000C              	ENDIF
 343  000C              ;# 343 "c:\users\tech\desktop\codetector\sevenSegment3DigitComplex\SevenSegment3DigitComplex.c" 1
 343  000C              	IF (1000< 0x40B) AND (1000> 0403h)
 343  000C              ;# 343 "c:\users\tech\desktop\codetector\sevenSegment3DigitComplex\SevenSegment3DigitComplex.c" 1
 343  000C              	MOV A,0 
 343  000C              ;# 343 "c:\users\tech\desktop\codetector\sevenSegment3DigitComplex\SevenSegment3DigitComplex.c" 1
 343  000C              	CALL __DELAYX6 + 0x40a -1000
 343  000C              	ENDIF
 343  000C              ;# 343 "c:\users\tech\desktop\codetector\sevenSegment3DigitComplex\SevenSegment3DigitComplex.c" 1
 343  000C              	IF (1000 >= 0x40b) AND ((((1000-9)%0402h)/4+1)>256)
 343  000C              ;# 343 "c:\users\tech\desktop\codetector\sevenSegment3DigitComplex\SevenSegment3DigitComplex.c" 1
 343  000C              	MOV A,(1000-9)/0402h
 343  000C              ;# 343 "c:\users\tech\desktop\codetector\sevenSegment3DigitComplex\SevenSegment3DigitComplex.c" 1
 343  000C              	MOV _builtin_holtek_delay_2,A
 343  000C              ;# 343 "c:\users\tech\desktop\codetector\sevenSegment3DigitComplex\SevenSegment3DigitComplex.c" 1
 343  000C              	MOV A,0
 343  000C              ;# 343 "c:\users\tech\desktop\codetector\sevenSegment3DigitComplex\SevenSegment3DigitComplex.c" 1
 343  000C              	CALL __DELAYY5 +5- (((1000-9)%0402h)%6)
 343  000C              	ENDIF
 343  000C              ;# 343 "c:\users\tech\desktop\codetector\sevenSegment3DigitComplex\SevenSegment3DigitComplex.c" 1
 343  000C              	IF (1000 >= 0x40b) AND ((((1000-9)%0402h)/4+1)<=256)
 343  000C              ;# 343 "c:\users\tech\desktop\codetector\sevenSegment3DigitComplex\SevenSegment3DigitComplex.c" 1
 343  000C              	MOV A,(1000-9)/0402h
 343  000C              ;# 343 "c:\users\tech\desktop\codetector\sevenSegment3DigitComplex\SevenSegment3DigitComplex.c" 1
 343  000C              	MOV _builtin_holtek_delay_2,A
 343  000C              ;# 343 "c:\users\tech\desktop\codetector\sevenSegment3DigitComplex\SevenSegment3DigitComplex.c" 1
 343  000C              	MOV A,((1000-9)%0402h)/4+1
 343  000C              ;# 343 "c:\users\tech\desktop\codetector\sevenSegment3DigitComplex\SevenSegment3DigitComplex.c" 1
 343  000C              	CALL __DELAYY3 +3-(((1000-9)%0402h)%4)
 343  000C              	ENDIF
 344  000C              #line 344 "c:\users\tech\desktop\codetector\sevenSegment3DigitComplex\SevenSegment3DigitComplex.c"
 344  000C  2000     R  	call _clearSegment
 346  000D              #line 346 "c:\users\tech\desktop\codetector\sevenSegment3DigitComplex\SevenSegment3DigitComplex.c"
 346  000D  3119        	set [25].2
 347  000E              #line 347 "c:\users\tech\desktop\codetector\sevenSegment3DigitComplex\SevenSegment3DigitComplex.c"
 347  000E  3499        	clr [25].1
 348  000F              #line 348 "c:\users\tech\desktop\codetector\sevenSegment3DigitComplex\SevenSegment3DigitComplex.c"
 348  000F  3215        	set [21].4
 349  0010              #line 349 "c:\users\tech\desktop\codetector\sevenSegment3DigitComplex\SevenSegment3DigitComplex.c"
 349  0010  3415        	clr [21].0
 350  0011              #line 350 "c:\users\tech\desktop\codetector\sevenSegment3DigitComplex\SevenSegment3DigitComplex.c"
 350  0011  3115        	set [21].2
 351  0012              #line 351 "c:\users\tech\desktop\codetector\sevenSegment3DigitComplex\SevenSegment3DigitComplex.c"
 351  0012  3199        	set [25].3
 352  0013              #line 352 "c:\users\tech\desktop\codetector\sevenSegment3DigitComplex\SevenSegment3DigitComplex.c"
 352  0013  3014        	set [20].0
 353  0014              #line 353 "c:\users\tech\desktop\codetector\sevenSegment3DigitComplex\SevenSegment3DigitComplex.c"
 353  0014  3498        	clr [24].1
 354  0015              #line 354 "c:\users\tech\desktop\codetector\sevenSegment3DigitComplex\SevenSegment3DigitComplex.c"
 354  0015              ;# 354 "c:\users\tech\desktop\codetector\sevenSegment3DigitComplex\SevenSegment3DigitComplex.c" 1
 354  0015              	IF 1000>263690
 354  0015              ;# 354 "c:\users\tech\desktop\codetector\sevenSegment3DigitComplex\SevenSegment3DigitComplex.c" 1
"File: SevenSegment3DigitComplex.c  Assembler  Version HGASM0202      Page 55

 354  0015              	ERRMESSAGE 'the value 1000of the argument exceeds the maxinum 263690'
 354  0015              	ENDIF
 354  0015              ;# 354 "c:\users\tech\desktop\codetector\sevenSegment3DigitComplex\SevenSegment3DigitComplex.c" 1
 354  0015              	IF 1000<0
 354  0015              ;# 354 "c:\users\tech\desktop\codetector\sevenSegment3DigitComplex\SevenSegment3DigitComplex.c" 1
 354  0015              	ERRMESSAGE 'the value 1000 of the argument exceeds the mininum 0'
 354  0015              	ENDIF
 354  0015              ;# 354 "c:\users\tech\desktop\codetector\sevenSegment3DigitComplex\SevenSegment3DigitComplex.c" 1
 354  0015              	IF 1000==0
 354  0015              ;# 354 "c:\users\tech\desktop\codetector\sevenSegment3DigitComplex\SevenSegment3DigitComplex.c" 1
 354  0015              	JMP $
 354  0015              	ENDIF
 354  0015              ;# 354 "c:\users\tech\desktop\codetector\sevenSegment3DigitComplex\SevenSegment3DigitComplex.c" 1
 354  0015              	IF 1000==1
 354  0015              ;# 354 "c:\users\tech\desktop\codetector\sevenSegment3DigitComplex\SevenSegment3DigitComplex.c" 1
 354  0015              	NOP
 354  0015              	ENDIF
 354  0015              ;# 354 "c:\users\tech\desktop\codetector\sevenSegment3DigitComplex\SevenSegment3DigitComplex.c" 1
 354  0015              	IF 1000==2
 354  0015              ;# 354 "c:\users\tech\desktop\codetector\sevenSegment3DigitComplex\SevenSegment3DigitComplex.c" 1
 354  0015              	NOP
 354  0015              ;# 354 "c:\users\tech\desktop\codetector\sevenSegment3DigitComplex\SevenSegment3DigitComplex.c" 1
 354  0015              	NOP
 354  0015              	ENDIF
 354  0015              ;# 354 "c:\users\tech\desktop\codetector\sevenSegment3DigitComplex\SevenSegment3DigitComplex.c" 1
 354  0015              	IF 1000==3
 354  0015              ;# 354 "c:\users\tech\desktop\codetector\sevenSegment3DigitComplex\SevenSegment3DigitComplex.c" 1
 354  0015              	NOP
 354  0015              ;# 354 "c:\users\tech\desktop\codetector\sevenSegment3DigitComplex\SevenSegment3DigitComplex.c" 1
 354  0015              	NOP
 354  0015              ;# 354 "c:\users\tech\desktop\codetector\sevenSegment3DigitComplex\SevenSegment3DigitComplex.c" 1
 354  0015              	NOP
 354  0015              	ENDIF
 354  0015              ;# 354 "c:\users\tech\desktop\codetector\sevenSegment3DigitComplex\SevenSegment3DigitComplex.c" 1
 354  0015              	IF (1000<8) AND (1000>3)
 354  0015              ;# 354 "c:\users\tech\desktop\codetector\sevenSegment3DigitComplex\SevenSegment3DigitComplex.c" 1
 354  0015              	CALL __DELAY3 + 7 -1000
 354  0015              	ENDIF
 354  0015              ;# 354 "c:\users\tech\desktop\codetector\sevenSegment3DigitComplex\SevenSegment3DigitComplex.c" 1
 354  0015              	IF (1000< 0404h) AND (1000>7)
 354  0015              ;# 354 "c:\users\tech\desktop\codetector\sevenSegment3DigitComplex\SevenSegment3DigitComplex.c" 1
 354  0015  0FF9        	MOV A,1000/4-1
 354  0016              ;# 354 "c:\users\tech\desktop\codetector\sevenSegment3DigitComplex\SevenSegment3DigitComplex.c" 1
 354  0016  2000     E  	CALL __DELAYX3 + 3 -(1000 MOD 4)
 354  0017              	ENDIF
 354  0017              ;# 354 "c:\users\tech\desktop\codetector\sevenSegment3DigitComplex\SevenSegment3DigitComplex.c" 1
 354  0017              	IF (1000< 0x40B) AND (1000> 0403h)
 354  0017              ;# 354 "c:\users\tech\desktop\codetector\sevenSegment3DigitComplex\SevenSegment3DigitComplex.c" 1
 354  0017              	MOV A,0 
 354  0017              ;# 354 "c:\users\tech\desktop\codetector\sevenSegment3DigitComplex\SevenSegment3DigitComplex.c" 1
 354  0017              	CALL __DELAYX6 + 0x40a -1000
 354  0017              	ENDIF
 354  0017              ;# 354 "c:\users\tech\desktop\codetector\sevenSegment3DigitComplex\SevenSegment3DigitComplex.c" 1
 354  0017              	IF (1000 >= 0x40b) AND ((((1000-9)%0402h)/4+1)>256)
 354  0017              ;# 354 "c:\users\tech\desktop\codetector\sevenSegment3DigitComplex\SevenSegment3DigitComplex.c" 1
 354  0017              	MOV A,(1000-9)/0402h
 354  0017              ;# 354 "c:\users\tech\desktop\codetector\sevenSegment3DigitComplex\SevenSegment3DigitComplex.c" 1
 354  0017              	MOV _builtin_holtek_delay_2,A
 354  0017              ;# 354 "c:\users\tech\desktop\codetector\sevenSegment3DigitComplex\SevenSegment3DigitComplex.c" 1
 354  0017              	MOV A,0
"File: SevenSegment3DigitComplex.c  Assembler  Version HGASM0202      Page 56

 354  0017              ;# 354 "c:\users\tech\desktop\codetector\sevenSegment3DigitComplex\SevenSegment3DigitComplex.c" 1
 354  0017              	CALL __DELAYY5 +5- (((1000-9)%0402h)%6)
 354  0017              	ENDIF
 354  0017              ;# 354 "c:\users\tech\desktop\codetector\sevenSegment3DigitComplex\SevenSegment3DigitComplex.c" 1
 354  0017              	IF (1000 >= 0x40b) AND ((((1000-9)%0402h)/4+1)<=256)
 354  0017              ;# 354 "c:\users\tech\desktop\codetector\sevenSegment3DigitComplex\SevenSegment3DigitComplex.c" 1
 354  0017              	MOV A,(1000-9)/0402h
 354  0017              ;# 354 "c:\users\tech\desktop\codetector\sevenSegment3DigitComplex\SevenSegment3DigitComplex.c" 1
 354  0017              	MOV _builtin_holtek_delay_2,A
 354  0017              ;# 354 "c:\users\tech\desktop\codetector\sevenSegment3DigitComplex\SevenSegment3DigitComplex.c" 1
 354  0017              	MOV A,((1000-9)%0402h)/4+1
 354  0017              ;# 354 "c:\users\tech\desktop\codetector\sevenSegment3DigitComplex\SevenSegment3DigitComplex.c" 1
 354  0017              	CALL __DELAYY3 +3-(((1000-9)%0402h)%4)
 354  0017              	ENDIF
 354  0017  0003        	ret
 354  0018              _threeDigit1 endp
 354  0018              #line 354 "c:\users\tech\desktop\codetector\sevenSegment3DigitComplex\SevenSegment3DigitComplex.c"
 354  0018              #pragma debug scope 1 1
 354  0018              public _threeDigit2
 354  0018              #pragma debug scope 19 1
 356  0018              #line 356 "c:\users\tech\desktop\codetector\sevenSegment3DigitComplex\SevenSegment3DigitComplex.c"
 356  0000              _threeDigit2 .section 'code'
 356  0000              _threeDigit2 proc
 360  0000              #line 360 "c:\users\tech\desktop\codetector\sevenSegment3DigitComplex\SevenSegment3DigitComplex.c"
 360  0000  3519        	clr [25].2
 361  0001              #line 361 "c:\users\tech\desktop\codetector\sevenSegment3DigitComplex\SevenSegment3DigitComplex.c"
 361  0001  3499        	clr [25].1
 362  0002              #line 362 "c:\users\tech\desktop\codetector\sevenSegment3DigitComplex\SevenSegment3DigitComplex.c"
 362  0002  3615        	clr [21].4
 363  0003              #line 363 "c:\users\tech\desktop\codetector\sevenSegment3DigitComplex\SevenSegment3DigitComplex.c"
 363  0003  3415        	clr [21].0
 364  0004              #line 364 "c:\users\tech\desktop\codetector\sevenSegment3DigitComplex\SevenSegment3DigitComplex.c"
 364  0004  3515        	clr [21].2
 365  0005              #line 365 "c:\users\tech\desktop\codetector\sevenSegment3DigitComplex\SevenSegment3DigitComplex.c"
 365  0005  3118        	set [24].2
 366  0006              #line 366 "c:\users\tech\desktop\codetector\sevenSegment3DigitComplex\SevenSegment3DigitComplex.c"
 366  0006  3498        	clr [24].1
 367  0007              #line 367 "c:\users\tech\desktop\codetector\sevenSegment3DigitComplex\SevenSegment3DigitComplex.c"
 367  0007  3614        	clr [20].4
 368  0008              #line 368 "c:\users\tech\desktop\codetector\sevenSegment3DigitComplex\SevenSegment3DigitComplex.c"
 368  0008  3414        	clr [20].0
 369  0009              #line 369 "c:\users\tech\desktop\codetector\sevenSegment3DigitComplex\SevenSegment3DigitComplex.c"
 369  0009  3514        	clr [20].2
 370  000A              #line 370 "c:\users\tech\desktop\codetector\sevenSegment3DigitComplex\SevenSegment3DigitComplex.c"
 370  000A              ;# 370 "c:\users\tech\desktop\codetector\sevenSegment3DigitComplex\SevenSegment3DigitComplex.c" 1
 370  000A              	IF 1000>263690
 370  000A              ;# 370 "c:\users\tech\desktop\codetector\sevenSegment3DigitComplex\SevenSegment3DigitComplex.c" 1
 370  000A              	ERRMESSAGE 'the value 1000of the argument exceeds the maxinum 263690'
 370  000A              	ENDIF
 370  000A              ;# 370 "c:\users\tech\desktop\codetector\sevenSegment3DigitComplex\SevenSegment3DigitComplex.c" 1
 370  000A              	IF 1000<0
 370  000A              ;# 370 "c:\users\tech\desktop\codetector\sevenSegment3DigitComplex\SevenSegment3DigitComplex.c" 1
 370  000A              	ERRMESSAGE 'the value 1000 of the argument exceeds the mininum 0'
 370  000A              	ENDIF
 370  000A              ;# 370 "c:\users\tech\desktop\codetector\sevenSegment3DigitComplex\SevenSegment3DigitComplex.c" 1
 370  000A              	IF 1000==0
 370  000A              ;# 370 "c:\users\tech\desktop\codetector\sevenSegment3DigitComplex\SevenSegment3DigitComplex.c" 1
 370  000A              	JMP $
 370  000A              	ENDIF
 370  000A              ;# 370 "c:\users\tech\desktop\codetector\sevenSegment3DigitComplex\SevenSegment3DigitComplex.c" 1
"File: SevenSegment3DigitComplex.c  Assembler  Version HGASM0202      Page 57

 370  000A              	IF 1000==1
 370  000A              ;# 370 "c:\users\tech\desktop\codetector\sevenSegment3DigitComplex\SevenSegment3DigitComplex.c" 1
 370  000A              	NOP
 370  000A              	ENDIF
 370  000A              ;# 370 "c:\users\tech\desktop\codetector\sevenSegment3DigitComplex\SevenSegment3DigitComplex.c" 1
 370  000A              	IF 1000==2
 370  000A              ;# 370 "c:\users\tech\desktop\codetector\sevenSegment3DigitComplex\SevenSegment3DigitComplex.c" 1
 370  000A              	NOP
 370  000A              ;# 370 "c:\users\tech\desktop\codetector\sevenSegment3DigitComplex\SevenSegment3DigitComplex.c" 1
 370  000A              	NOP
 370  000A              	ENDIF
 370  000A              ;# 370 "c:\users\tech\desktop\codetector\sevenSegment3DigitComplex\SevenSegment3DigitComplex.c" 1
 370  000A              	IF 1000==3
 370  000A              ;# 370 "c:\users\tech\desktop\codetector\sevenSegment3DigitComplex\SevenSegment3DigitComplex.c" 1
 370  000A              	NOP
 370  000A              ;# 370 "c:\users\tech\desktop\codetector\sevenSegment3DigitComplex\SevenSegment3DigitComplex.c" 1
 370  000A              	NOP
 370  000A              ;# 370 "c:\users\tech\desktop\codetector\sevenSegment3DigitComplex\SevenSegment3DigitComplex.c" 1
 370  000A              	NOP
 370  000A              	ENDIF
 370  000A              ;# 370 "c:\users\tech\desktop\codetector\sevenSegment3DigitComplex\SevenSegment3DigitComplex.c" 1
 370  000A              	IF (1000<8) AND (1000>3)
 370  000A              ;# 370 "c:\users\tech\desktop\codetector\sevenSegment3DigitComplex\SevenSegment3DigitComplex.c" 1
 370  000A              	CALL __DELAY3 + 7 -1000
 370  000A              	ENDIF
 370  000A              ;# 370 "c:\users\tech\desktop\codetector\sevenSegment3DigitComplex\SevenSegment3DigitComplex.c" 1
 370  000A              	IF (1000< 0404h) AND (1000>7)
 370  000A              ;# 370 "c:\users\tech\desktop\codetector\sevenSegment3DigitComplex\SevenSegment3DigitComplex.c" 1
 370  000A  0FF9        	MOV A,1000/4-1
 370  000B              ;# 370 "c:\users\tech\desktop\codetector\sevenSegment3DigitComplex\SevenSegment3DigitComplex.c" 1
 370  000B  2000     E  	CALL __DELAYX3 + 3 -(1000 MOD 4)
 370  000C              	ENDIF
 370  000C              ;# 370 "c:\users\tech\desktop\codetector\sevenSegment3DigitComplex\SevenSegment3DigitComplex.c" 1
 370  000C              	IF (1000< 0x40B) AND (1000> 0403h)
 370  000C              ;# 370 "c:\users\tech\desktop\codetector\sevenSegment3DigitComplex\SevenSegment3DigitComplex.c" 1
 370  000C              	MOV A,0 
 370  000C              ;# 370 "c:\users\tech\desktop\codetector\sevenSegment3DigitComplex\SevenSegment3DigitComplex.c" 1
 370  000C              	CALL __DELAYX6 + 0x40a -1000
 370  000C              	ENDIF
 370  000C              ;# 370 "c:\users\tech\desktop\codetector\sevenSegment3DigitComplex\SevenSegment3DigitComplex.c" 1
 370  000C              	IF (1000 >= 0x40b) AND ((((1000-9)%0402h)/4+1)>256)
 370  000C              ;# 370 "c:\users\tech\desktop\codetector\sevenSegment3DigitComplex\SevenSegment3DigitComplex.c" 1
 370  000C              	MOV A,(1000-9)/0402h
 370  000C              ;# 370 "c:\users\tech\desktop\codetector\sevenSegment3DigitComplex\SevenSegment3DigitComplex.c" 1
 370  000C              	MOV _builtin_holtek_delay_2,A
 370  000C              ;# 370 "c:\users\tech\desktop\codetector\sevenSegment3DigitComplex\SevenSegment3DigitComplex.c" 1
 370  000C              	MOV A,0
 370  000C              ;# 370 "c:\users\tech\desktop\codetector\sevenSegment3DigitComplex\SevenSegment3DigitComplex.c" 1
 370  000C              	CALL __DELAYY5 +5- (((1000-9)%0402h)%6)
 370  000C              	ENDIF
 370  000C              ;# 370 "c:\users\tech\desktop\codetector\sevenSegment3DigitComplex\SevenSegment3DigitComplex.c" 1
 370  000C              	IF (1000 >= 0x40b) AND ((((1000-9)%0402h)/4+1)<=256)
 370  000C              ;# 370 "c:\users\tech\desktop\codetector\sevenSegment3DigitComplex\SevenSegment3DigitComplex.c" 1
 370  000C              	MOV A,(1000-9)/0402h
 370  000C              ;# 370 "c:\users\tech\desktop\codetector\sevenSegment3DigitComplex\SevenSegment3DigitComplex.c" 1
 370  000C              	MOV _builtin_holtek_delay_2,A
 370  000C              ;# 370 "c:\users\tech\desktop\codetector\sevenSegment3DigitComplex\SevenSegment3DigitComplex.c" 1
 370  000C              	MOV A,((1000-9)%0402h)/4+1
 370  000C              ;# 370 "c:\users\tech\desktop\codetector\sevenSegment3DigitComplex\SevenSegment3DigitComplex.c" 1
 370  000C              	CALL __DELAYY3 +3-(((1000-9)%0402h)%4)
"File: SevenSegment3DigitComplex.c  Assembler  Version HGASM0202      Page 58

 370  000C              	ENDIF
 371  000C              #line 371 "c:\users\tech\desktop\codetector\sevenSegment3DigitComplex\SevenSegment3DigitComplex.c"
 371  000C  2000     R  	call _clearSegment
 374  000D              #line 374 "c:\users\tech\desktop\codetector\sevenSegment3DigitComplex\SevenSegment3DigitComplex.c"
 374  000D  3499        	clr [25].1
 375  000E              #line 375 "c:\users\tech\desktop\codetector\sevenSegment3DigitComplex\SevenSegment3DigitComplex.c"
 375  000E  3599        	clr [25].3
 376  000F              #line 376 "c:\users\tech\desktop\codetector\sevenSegment3DigitComplex\SevenSegment3DigitComplex.c"
 376  000F  3498        	clr [24].1
 377  0010              #line 377 "c:\users\tech\desktop\codetector\sevenSegment3DigitComplex\SevenSegment3DigitComplex.c"
 377  0010  3198        	set [24].3
 378  0011              #line 378 "c:\users\tech\desktop\codetector\sevenSegment3DigitComplex\SevenSegment3DigitComplex.c"
 378  0011              ;# 378 "c:\users\tech\desktop\codetector\sevenSegment3DigitComplex\SevenSegment3DigitComplex.c" 1
 378  0011              	IF 1000>263690
 378  0011              ;# 378 "c:\users\tech\desktop\codetector\sevenSegment3DigitComplex\SevenSegment3DigitComplex.c" 1
 378  0011              	ERRMESSAGE 'the value 1000of the argument exceeds the maxinum 263690'
 378  0011              	ENDIF
 378  0011              ;# 378 "c:\users\tech\desktop\codetector\sevenSegment3DigitComplex\SevenSegment3DigitComplex.c" 1
 378  0011              	IF 1000<0
 378  0011              ;# 378 "c:\users\tech\desktop\codetector\sevenSegment3DigitComplex\SevenSegment3DigitComplex.c" 1
 378  0011              	ERRMESSAGE 'the value 1000 of the argument exceeds the mininum 0'
 378  0011              	ENDIF
 378  0011              ;# 378 "c:\users\tech\desktop\codetector\sevenSegment3DigitComplex\SevenSegment3DigitComplex.c" 1
 378  0011              	IF 1000==0
 378  0011              ;# 378 "c:\users\tech\desktop\codetector\sevenSegment3DigitComplex\SevenSegment3DigitComplex.c" 1
 378  0011              	JMP $
 378  0011              	ENDIF
 378  0011              ;# 378 "c:\users\tech\desktop\codetector\sevenSegment3DigitComplex\SevenSegment3DigitComplex.c" 1
 378  0011              	IF 1000==1
 378  0011              ;# 378 "c:\users\tech\desktop\codetector\sevenSegment3DigitComplex\SevenSegment3DigitComplex.c" 1
 378  0011              	NOP
 378  0011              	ENDIF
 378  0011              ;# 378 "c:\users\tech\desktop\codetector\sevenSegment3DigitComplex\SevenSegment3DigitComplex.c" 1
 378  0011              	IF 1000==2
 378  0011              ;# 378 "c:\users\tech\desktop\codetector\sevenSegment3DigitComplex\SevenSegment3DigitComplex.c" 1
 378  0011              	NOP
 378  0011              ;# 378 "c:\users\tech\desktop\codetector\sevenSegment3DigitComplex\SevenSegment3DigitComplex.c" 1
 378  0011              	NOP
 378  0011              	ENDIF
 378  0011              ;# 378 "c:\users\tech\desktop\codetector\sevenSegment3DigitComplex\SevenSegment3DigitComplex.c" 1
 378  0011              	IF 1000==3
 378  0011              ;# 378 "c:\users\tech\desktop\codetector\sevenSegment3DigitComplex\SevenSegment3DigitComplex.c" 1
 378  0011              	NOP
 378  0011              ;# 378 "c:\users\tech\desktop\codetector\sevenSegment3DigitComplex\SevenSegment3DigitComplex.c" 1
 378  0011              	NOP
 378  0011              ;# 378 "c:\users\tech\desktop\codetector\sevenSegment3DigitComplex\SevenSegment3DigitComplex.c" 1
 378  0011              	NOP
 378  0011              	ENDIF
 378  0011              ;# 378 "c:\users\tech\desktop\codetector\sevenSegment3DigitComplex\SevenSegment3DigitComplex.c" 1
 378  0011              	IF (1000<8) AND (1000>3)
 378  0011              ;# 378 "c:\users\tech\desktop\codetector\sevenSegment3DigitComplex\SevenSegment3DigitComplex.c" 1
 378  0011              	CALL __DELAY3 + 7 -1000
 378  0011              	ENDIF
 378  0011              ;# 378 "c:\users\tech\desktop\codetector\sevenSegment3DigitComplex\SevenSegment3DigitComplex.c" 1
 378  0011              	IF (1000< 0404h) AND (1000>7)
 378  0011              ;# 378 "c:\users\tech\desktop\codetector\sevenSegment3DigitComplex\SevenSegment3DigitComplex.c" 1
 378  0011  0FF9        	MOV A,1000/4-1
 378  0012              ;# 378 "c:\users\tech\desktop\codetector\sevenSegment3DigitComplex\SevenSegment3DigitComplex.c" 1
 378  0012  2000     E  	CALL __DELAYX3 + 3 -(1000 MOD 4)
 378  0013              	ENDIF
"File: SevenSegment3DigitComplex.c  Assembler  Version HGASM0202      Page 59

 378  0013              ;# 378 "c:\users\tech\desktop\codetector\sevenSegment3DigitComplex\SevenSegment3DigitComplex.c" 1
 378  0013              	IF (1000< 0x40B) AND (1000> 0403h)
 378  0013              ;# 378 "c:\users\tech\desktop\codetector\sevenSegment3DigitComplex\SevenSegment3DigitComplex.c" 1
 378  0013              	MOV A,0 
 378  0013              ;# 378 "c:\users\tech\desktop\codetector\sevenSegment3DigitComplex\SevenSegment3DigitComplex.c" 1
 378  0013              	CALL __DELAYX6 + 0x40a -1000
 378  0013              	ENDIF
 378  0013              ;# 378 "c:\users\tech\desktop\codetector\sevenSegment3DigitComplex\SevenSegment3DigitComplex.c" 1
 378  0013              	IF (1000 >= 0x40b) AND ((((1000-9)%0402h)/4+1)>256)
 378  0013              ;# 378 "c:\users\tech\desktop\codetector\sevenSegment3DigitComplex\SevenSegment3DigitComplex.c" 1
 378  0013              	MOV A,(1000-9)/0402h
 378  0013              ;# 378 "c:\users\tech\desktop\codetector\sevenSegment3DigitComplex\SevenSegment3DigitComplex.c" 1
 378  0013              	MOV _builtin_holtek_delay_2,A
 378  0013              ;# 378 "c:\users\tech\desktop\codetector\sevenSegment3DigitComplex\SevenSegment3DigitComplex.c" 1
 378  0013              	MOV A,0
 378  0013              ;# 378 "c:\users\tech\desktop\codetector\sevenSegment3DigitComplex\SevenSegment3DigitComplex.c" 1
 378  0013              	CALL __DELAYY5 +5- (((1000-9)%0402h)%6)
 378  0013              	ENDIF
 378  0013              ;# 378 "c:\users\tech\desktop\codetector\sevenSegment3DigitComplex\SevenSegment3DigitComplex.c" 1
 378  0013              	IF (1000 >= 0x40b) AND ((((1000-9)%0402h)/4+1)<=256)
 378  0013              ;# 378 "c:\users\tech\desktop\codetector\sevenSegment3DigitComplex\SevenSegment3DigitComplex.c" 1
 378  0013              	MOV A,(1000-9)/0402h
 378  0013              ;# 378 "c:\users\tech\desktop\codetector\sevenSegment3DigitComplex\SevenSegment3DigitComplex.c" 1
 378  0013              	MOV _builtin_holtek_delay_2,A
 378  0013              ;# 378 "c:\users\tech\desktop\codetector\sevenSegment3DigitComplex\SevenSegment3DigitComplex.c" 1
 378  0013              	MOV A,((1000-9)%0402h)/4+1
 378  0013              ;# 378 "c:\users\tech\desktop\codetector\sevenSegment3DigitComplex\SevenSegment3DigitComplex.c" 1
 378  0013              	CALL __DELAYY3 +3-(((1000-9)%0402h)%4)
 378  0013              	ENDIF
 378  0013  0003        	ret
 378  0014              _threeDigit2 endp
 378  0014              #line 378 "c:\users\tech\desktop\codetector\sevenSegment3DigitComplex\SevenSegment3DigitComplex.c"
 378  0014              #pragma debug scope 1 1
 378  0014              public _threeDigit3
 378  0014              #pragma debug scope 20 1
 381  0014              #line 381 "c:\users\tech\desktop\codetector\sevenSegment3DigitComplex\SevenSegment3DigitComplex.c"
 381  0000              _threeDigit3 .section 'code'
 381  0000              _threeDigit3 proc
 386  0000              #line 386 "c:\users\tech\desktop\codetector\sevenSegment3DigitComplex\SevenSegment3DigitComplex.c"
 386  0000  3499        	clr [25].1
 387  0001              #line 387 "c:\users\tech\desktop\codetector\sevenSegment3DigitComplex\SevenSegment3DigitComplex.c"
 387  0001  3615        	clr [21].4
 388  0002              #line 388 "c:\users\tech\desktop\codetector\sevenSegment3DigitComplex\SevenSegment3DigitComplex.c"
 388  0002  3415        	clr [21].0
 389  0003              #line 389 "c:\users\tech\desktop\codetector\sevenSegment3DigitComplex\SevenSegment3DigitComplex.c"
 389  0003  3515        	clr [21].2
 390  0004              #line 390 "c:\users\tech\desktop\codetector\sevenSegment3DigitComplex\SevenSegment3DigitComplex.c"
 390  0004  3599        	clr [25].3
 391  0005              #line 391 "c:\users\tech\desktop\codetector\sevenSegment3DigitComplex\SevenSegment3DigitComplex.c"
 391  0005  3098        	set [24].1
 392  0006              #line 392 "c:\users\tech\desktop\codetector\sevenSegment3DigitComplex\SevenSegment3DigitComplex.c"
 392  0006  3614        	clr [20].4
 393  0007              #line 393 "c:\users\tech\desktop\codetector\sevenSegment3DigitComplex\SevenSegment3DigitComplex.c"
 393  0007  3414        	clr [20].0
 394  0008              #line 394 "c:\users\tech\desktop\codetector\sevenSegment3DigitComplex\SevenSegment3DigitComplex.c"
 394  0008  3514        	clr [20].2
 395  0009              #line 395 "c:\users\tech\desktop\codetector\sevenSegment3DigitComplex\SevenSegment3DigitComplex.c"
 395  0009  3598        	clr [24].3
 396  000A              #line 396 "c:\users\tech\desktop\codetector\sevenSegment3DigitComplex\SevenSegment3DigitComplex.c"
 396  000A              ;# 396 "c:\users\tech\desktop\codetector\sevenSegment3DigitComplex\SevenSegment3DigitComplex.c" 1
"File: SevenSegment3DigitComplex.c  Assembler  Version HGASM0202      Page 60

 396  000A              	IF 1000>263690
 396  000A              ;# 396 "c:\users\tech\desktop\codetector\sevenSegment3DigitComplex\SevenSegment3DigitComplex.c" 1
 396  000A              	ERRMESSAGE 'the value 1000of the argument exceeds the maxinum 263690'
 396  000A              	ENDIF
 396  000A              ;# 396 "c:\users\tech\desktop\codetector\sevenSegment3DigitComplex\SevenSegment3DigitComplex.c" 1
 396  000A              	IF 1000<0
 396  000A              ;# 396 "c:\users\tech\desktop\codetector\sevenSegment3DigitComplex\SevenSegment3DigitComplex.c" 1
 396  000A              	ERRMESSAGE 'the value 1000 of the argument exceeds the mininum 0'
 396  000A              	ENDIF
 396  000A              ;# 396 "c:\users\tech\desktop\codetector\sevenSegment3DigitComplex\SevenSegment3DigitComplex.c" 1
 396  000A              	IF 1000==0
 396  000A              ;# 396 "c:\users\tech\desktop\codetector\sevenSegment3DigitComplex\SevenSegment3DigitComplex.c" 1
 396  000A              	JMP $
 396  000A              	ENDIF
 396  000A              ;# 396 "c:\users\tech\desktop\codetector\sevenSegment3DigitComplex\SevenSegment3DigitComplex.c" 1
 396  000A              	IF 1000==1
 396  000A              ;# 396 "c:\users\tech\desktop\codetector\sevenSegment3DigitComplex\SevenSegment3DigitComplex.c" 1
 396  000A              	NOP
 396  000A              	ENDIF
 396  000A              ;# 396 "c:\users\tech\desktop\codetector\sevenSegment3DigitComplex\SevenSegment3DigitComplex.c" 1
 396  000A              	IF 1000==2
 396  000A              ;# 396 "c:\users\tech\desktop\codetector\sevenSegment3DigitComplex\SevenSegment3DigitComplex.c" 1
 396  000A              	NOP
 396  000A              ;# 396 "c:\users\tech\desktop\codetector\sevenSegment3DigitComplex\SevenSegment3DigitComplex.c" 1
 396  000A              	NOP
 396  000A              	ENDIF
 396  000A              ;# 396 "c:\users\tech\desktop\codetector\sevenSegment3DigitComplex\SevenSegment3DigitComplex.c" 1
 396  000A              	IF 1000==3
 396  000A              ;# 396 "c:\users\tech\desktop\codetector\sevenSegment3DigitComplex\SevenSegment3DigitComplex.c" 1
 396  000A              	NOP
 396  000A              ;# 396 "c:\users\tech\desktop\codetector\sevenSegment3DigitComplex\SevenSegment3DigitComplex.c" 1
 396  000A              	NOP
 396  000A              ;# 396 "c:\users\tech\desktop\codetector\sevenSegment3DigitComplex\SevenSegment3DigitComplex.c" 1
 396  000A              	NOP
 396  000A              	ENDIF
 396  000A              ;# 396 "c:\users\tech\desktop\codetector\sevenSegment3DigitComplex\SevenSegment3DigitComplex.c" 1
 396  000A              	IF (1000<8) AND (1000>3)
 396  000A              ;# 396 "c:\users\tech\desktop\codetector\sevenSegment3DigitComplex\SevenSegment3DigitComplex.c" 1
 396  000A              	CALL __DELAY3 + 7 -1000
 396  000A              	ENDIF
 396  000A              ;# 396 "c:\users\tech\desktop\codetector\sevenSegment3DigitComplex\SevenSegment3DigitComplex.c" 1
 396  000A              	IF (1000< 0404h) AND (1000>7)
 396  000A              ;# 396 "c:\users\tech\desktop\codetector\sevenSegment3DigitComplex\SevenSegment3DigitComplex.c" 1
 396  000A  0FF9        	MOV A,1000/4-1
 396  000B              ;# 396 "c:\users\tech\desktop\codetector\sevenSegment3DigitComplex\SevenSegment3DigitComplex.c" 1
 396  000B  2000     E  	CALL __DELAYX3 + 3 -(1000 MOD 4)
 396  000C              	ENDIF
 396  000C              ;# 396 "c:\users\tech\desktop\codetector\sevenSegment3DigitComplex\SevenSegment3DigitComplex.c" 1
 396  000C              	IF (1000< 0x40B) AND (1000> 0403h)
 396  000C              ;# 396 "c:\users\tech\desktop\codetector\sevenSegment3DigitComplex\SevenSegment3DigitComplex.c" 1
 396  000C              	MOV A,0 
 396  000C              ;# 396 "c:\users\tech\desktop\codetector\sevenSegment3DigitComplex\SevenSegment3DigitComplex.c" 1
 396  000C              	CALL __DELAYX6 + 0x40a -1000
 396  000C              	ENDIF
 396  000C              ;# 396 "c:\users\tech\desktop\codetector\sevenSegment3DigitComplex\SevenSegment3DigitComplex.c" 1
 396  000C              	IF (1000 >= 0x40b) AND ((((1000-9)%0402h)/4+1)>256)
 396  000C              ;# 396 "c:\users\tech\desktop\codetector\sevenSegment3DigitComplex\SevenSegment3DigitComplex.c" 1
 396  000C              	MOV A,(1000-9)/0402h
 396  000C              ;# 396 "c:\users\tech\desktop\codetector\sevenSegment3DigitComplex\SevenSegment3DigitComplex.c" 1
 396  000C              	MOV _builtin_holtek_delay_2,A
"File: SevenSegment3DigitComplex.c  Assembler  Version HGASM0202      Page 61

 396  000C              ;# 396 "c:\users\tech\desktop\codetector\sevenSegment3DigitComplex\SevenSegment3DigitComplex.c" 1
 396  000C              	MOV A,0
 396  000C              ;# 396 "c:\users\tech\desktop\codetector\sevenSegment3DigitComplex\SevenSegment3DigitComplex.c" 1
 396  000C              	CALL __DELAYY5 +5- (((1000-9)%0402h)%6)
 396  000C              	ENDIF
 396  000C              ;# 396 "c:\users\tech\desktop\codetector\sevenSegment3DigitComplex\SevenSegment3DigitComplex.c" 1
 396  000C              	IF (1000 >= 0x40b) AND ((((1000-9)%0402h)/4+1)<=256)
 396  000C              ;# 396 "c:\users\tech\desktop\codetector\sevenSegment3DigitComplex\SevenSegment3DigitComplex.c" 1
 396  000C              	MOV A,(1000-9)/0402h
 396  000C              ;# 396 "c:\users\tech\desktop\codetector\sevenSegment3DigitComplex\SevenSegment3DigitComplex.c" 1
 396  000C              	MOV _builtin_holtek_delay_2,A
 396  000C              ;# 396 "c:\users\tech\desktop\codetector\sevenSegment3DigitComplex\SevenSegment3DigitComplex.c" 1
 396  000C              	MOV A,((1000-9)%0402h)/4+1
 396  000C              ;# 396 "c:\users\tech\desktop\codetector\sevenSegment3DigitComplex\SevenSegment3DigitComplex.c" 1
 396  000C              	CALL __DELAYY3 +3-(((1000-9)%0402h)%4)
 396  000C              	ENDIF
 397  000C              #line 397 "c:\users\tech\desktop\codetector\sevenSegment3DigitComplex\SevenSegment3DigitComplex.c"
 397  000C  2000     R  	call _clearSegment
 398  000D              #line 398 "c:\users\tech\desktop\codetector\sevenSegment3DigitComplex\SevenSegment3DigitComplex.c"
 398  000D  3615        	clr [21].4
 399  000E              #line 399 "c:\users\tech\desktop\codetector\sevenSegment3DigitComplex\SevenSegment3DigitComplex.c"
 399  000E  3599        	clr [25].3
 400  000F              #line 400 "c:\users\tech\desktop\codetector\sevenSegment3DigitComplex\SevenSegment3DigitComplex.c"
 400  000F  3214        	set [20].4
 401  0010              #line 401 "c:\users\tech\desktop\codetector\sevenSegment3DigitComplex\SevenSegment3DigitComplex.c"
 401  0010  3598        	clr [24].3
 402  0011              #line 402 "c:\users\tech\desktop\codetector\sevenSegment3DigitComplex\SevenSegment3DigitComplex.c"
 402  0011              ;# 402 "c:\users\tech\desktop\codetector\sevenSegment3DigitComplex\SevenSegment3DigitComplex.c" 1
 402  0011              	IF 1000>263690
 402  0011              ;# 402 "c:\users\tech\desktop\codetector\sevenSegment3DigitComplex\SevenSegment3DigitComplex.c" 1
 402  0011              	ERRMESSAGE 'the value 1000of the argument exceeds the maxinum 263690'
 402  0011              	ENDIF
 402  0011              ;# 402 "c:\users\tech\desktop\codetector\sevenSegment3DigitComplex\SevenSegment3DigitComplex.c" 1
 402  0011              	IF 1000<0
 402  0011              ;# 402 "c:\users\tech\desktop\codetector\sevenSegment3DigitComplex\SevenSegment3DigitComplex.c" 1
 402  0011              	ERRMESSAGE 'the value 1000 of the argument exceeds the mininum 0'
 402  0011              	ENDIF
 402  0011              ;# 402 "c:\users\tech\desktop\codetector\sevenSegment3DigitComplex\SevenSegment3DigitComplex.c" 1
 402  0011              	IF 1000==0
 402  0011              ;# 402 "c:\users\tech\desktop\codetector\sevenSegment3DigitComplex\SevenSegment3DigitComplex.c" 1
 402  0011              	JMP $
 402  0011              	ENDIF
 402  0011              ;# 402 "c:\users\tech\desktop\codetector\sevenSegment3DigitComplex\SevenSegment3DigitComplex.c" 1
 402  0011              	IF 1000==1
 402  0011              ;# 402 "c:\users\tech\desktop\codetector\sevenSegment3DigitComplex\SevenSegment3DigitComplex.c" 1
 402  0011              	NOP
 402  0011              	ENDIF
 402  0011              ;# 402 "c:\users\tech\desktop\codetector\sevenSegment3DigitComplex\SevenSegment3DigitComplex.c" 1
 402  0011              	IF 1000==2
 402  0011              ;# 402 "c:\users\tech\desktop\codetector\sevenSegment3DigitComplex\SevenSegment3DigitComplex.c" 1
 402  0011              	NOP
 402  0011              ;# 402 "c:\users\tech\desktop\codetector\sevenSegment3DigitComplex\SevenSegment3DigitComplex.c" 1
 402  0011              	NOP
 402  0011              	ENDIF
 402  0011              ;# 402 "c:\users\tech\desktop\codetector\sevenSegment3DigitComplex\SevenSegment3DigitComplex.c" 1
 402  0011              	IF 1000==3
 402  0011              ;# 402 "c:\users\tech\desktop\codetector\sevenSegment3DigitComplex\SevenSegment3DigitComplex.c" 1
 402  0011              	NOP
 402  0011              ;# 402 "c:\users\tech\desktop\codetector\sevenSegment3DigitComplex\SevenSegment3DigitComplex.c" 1
 402  0011              	NOP
"File: SevenSegment3DigitComplex.c  Assembler  Version HGASM0202      Page 62

 402  0011              ;# 402 "c:\users\tech\desktop\codetector\sevenSegment3DigitComplex\SevenSegment3DigitComplex.c" 1
 402  0011              	NOP
 402  0011              	ENDIF
 402  0011              ;# 402 "c:\users\tech\desktop\codetector\sevenSegment3DigitComplex\SevenSegment3DigitComplex.c" 1
 402  0011              	IF (1000<8) AND (1000>3)
 402  0011              ;# 402 "c:\users\tech\desktop\codetector\sevenSegment3DigitComplex\SevenSegment3DigitComplex.c" 1
 402  0011              	CALL __DELAY3 + 7 -1000
 402  0011              	ENDIF
 402  0011              ;# 402 "c:\users\tech\desktop\codetector\sevenSegment3DigitComplex\SevenSegment3DigitComplex.c" 1
 402  0011              	IF (1000< 0404h) AND (1000>7)
 402  0011              ;# 402 "c:\users\tech\desktop\codetector\sevenSegment3DigitComplex\SevenSegment3DigitComplex.c" 1
 402  0011  0FF9        	MOV A,1000/4-1
 402  0012              ;# 402 "c:\users\tech\desktop\codetector\sevenSegment3DigitComplex\SevenSegment3DigitComplex.c" 1
 402  0012  2000     E  	CALL __DELAYX3 + 3 -(1000 MOD 4)
 402  0013              	ENDIF
 402  0013              ;# 402 "c:\users\tech\desktop\codetector\sevenSegment3DigitComplex\SevenSegment3DigitComplex.c" 1
 402  0013              	IF (1000< 0x40B) AND (1000> 0403h)
 402  0013              ;# 402 "c:\users\tech\desktop\codetector\sevenSegment3DigitComplex\SevenSegment3DigitComplex.c" 1
 402  0013              	MOV A,0 
 402  0013              ;# 402 "c:\users\tech\desktop\codetector\sevenSegment3DigitComplex\SevenSegment3DigitComplex.c" 1
 402  0013              	CALL __DELAYX6 + 0x40a -1000
 402  0013              	ENDIF
 402  0013              ;# 402 "c:\users\tech\desktop\codetector\sevenSegment3DigitComplex\SevenSegment3DigitComplex.c" 1
 402  0013              	IF (1000 >= 0x40b) AND ((((1000-9)%0402h)/4+1)>256)
 402  0013              ;# 402 "c:\users\tech\desktop\codetector\sevenSegment3DigitComplex\SevenSegment3DigitComplex.c" 1
 402  0013              	MOV A,(1000-9)/0402h
 402  0013              ;# 402 "c:\users\tech\desktop\codetector\sevenSegment3DigitComplex\SevenSegment3DigitComplex.c" 1
 402  0013              	MOV _builtin_holtek_delay_2,A
 402  0013              ;# 402 "c:\users\tech\desktop\codetector\sevenSegment3DigitComplex\SevenSegment3DigitComplex.c" 1
 402  0013              	MOV A,0
 402  0013              ;# 402 "c:\users\tech\desktop\codetector\sevenSegment3DigitComplex\SevenSegment3DigitComplex.c" 1
 402  0013              	CALL __DELAYY5 +5- (((1000-9)%0402h)%6)
 402  0013              	ENDIF
 402  0013              ;# 402 "c:\users\tech\desktop\codetector\sevenSegment3DigitComplex\SevenSegment3DigitComplex.c" 1
 402  0013              	IF (1000 >= 0x40b) AND ((((1000-9)%0402h)/4+1)<=256)
 402  0013              ;# 402 "c:\users\tech\desktop\codetector\sevenSegment3DigitComplex\SevenSegment3DigitComplex.c" 1
 402  0013              	MOV A,(1000-9)/0402h
 402  0013              ;# 402 "c:\users\tech\desktop\codetector\sevenSegment3DigitComplex\SevenSegment3DigitComplex.c" 1
 402  0013              	MOV _builtin_holtek_delay_2,A
 402  0013              ;# 402 "c:\users\tech\desktop\codetector\sevenSegment3DigitComplex\SevenSegment3DigitComplex.c" 1
 402  0013              	MOV A,((1000-9)%0402h)/4+1
 402  0013              ;# 402 "c:\users\tech\desktop\codetector\sevenSegment3DigitComplex\SevenSegment3DigitComplex.c" 1
 402  0013              	CALL __DELAYY3 +3-(((1000-9)%0402h)%4)
 402  0013              	ENDIF
 402  0013  0003        	ret
 402  0014              _threeDigit3 endp
 402  0014              #line 402 "c:\users\tech\desktop\codetector\sevenSegment3DigitComplex\SevenSegment3DigitComplex.c"
 402  0014              #pragma debug scope 1 1
 402  0014              public _fourDigit1
 402  0014              #pragma debug scope 21 1
 406  0014              #line 406 "c:\users\tech\desktop\codetector\sevenSegment3DigitComplex\SevenSegment3DigitComplex.c"
 406  0000              _fourDigit1 .section 'code'
 406  0000              _fourDigit1 proc
 410  0000              #line 410 "c:\users\tech\desktop\codetector\sevenSegment3DigitComplex\SevenSegment3DigitComplex.c"
 410  0000  3519        	clr [25].2
 411  0001              #line 411 "c:\users\tech\desktop\codetector\sevenSegment3DigitComplex\SevenSegment3DigitComplex.c"
 411  0001  3615        	clr [21].4
 412  0002              #line 412 "c:\users\tech\desktop\codetector\sevenSegment3DigitComplex\SevenSegment3DigitComplex.c"
 412  0002  3415        	clr [21].0
 413  0003              #line 413 "c:\users\tech\desktop\codetector\sevenSegment3DigitComplex\SevenSegment3DigitComplex.c"
"File: SevenSegment3DigitComplex.c  Assembler  Version HGASM0202      Page 63

 413  0003  3518        	clr [24].2
 414  0004              #line 414 "c:\users\tech\desktop\codetector\sevenSegment3DigitComplex\SevenSegment3DigitComplex.c"
 414  0004  3214        	set [20].4
 415  0005              #line 415 "c:\users\tech\desktop\codetector\sevenSegment3DigitComplex\SevenSegment3DigitComplex.c"
 415  0005  3014        	set [20].0
 417  0006              #line 417 "c:\users\tech\desktop\codetector\sevenSegment3DigitComplex\SevenSegment3DigitComplex.c"
 417  0006              ;# 417 "c:\users\tech\desktop\codetector\sevenSegment3DigitComplex\SevenSegment3DigitComplex.c" 1
 417  0006              	IF 1000>263690
 417  0006              ;# 417 "c:\users\tech\desktop\codetector\sevenSegment3DigitComplex\SevenSegment3DigitComplex.c" 1
 417  0006              	ERRMESSAGE 'the value 1000of the argument exceeds the maxinum 263690'
 417  0006              	ENDIF
 417  0006              ;# 417 "c:\users\tech\desktop\codetector\sevenSegment3DigitComplex\SevenSegment3DigitComplex.c" 1
 417  0006              	IF 1000<0
 417  0006              ;# 417 "c:\users\tech\desktop\codetector\sevenSegment3DigitComplex\SevenSegment3DigitComplex.c" 1
 417  0006              	ERRMESSAGE 'the value 1000 of the argument exceeds the mininum 0'
 417  0006              	ENDIF
 417  0006              ;# 417 "c:\users\tech\desktop\codetector\sevenSegment3DigitComplex\SevenSegment3DigitComplex.c" 1
 417  0006              	IF 1000==0
 417  0006              ;# 417 "c:\users\tech\desktop\codetector\sevenSegment3DigitComplex\SevenSegment3DigitComplex.c" 1
 417  0006              	JMP $
 417  0006              	ENDIF
 417  0006              ;# 417 "c:\users\tech\desktop\codetector\sevenSegment3DigitComplex\SevenSegment3DigitComplex.c" 1
 417  0006              	IF 1000==1
 417  0006              ;# 417 "c:\users\tech\desktop\codetector\sevenSegment3DigitComplex\SevenSegment3DigitComplex.c" 1
 417  0006              	NOP
 417  0006              	ENDIF
 417  0006              ;# 417 "c:\users\tech\desktop\codetector\sevenSegment3DigitComplex\SevenSegment3DigitComplex.c" 1
 417  0006              	IF 1000==2
 417  0006              ;# 417 "c:\users\tech\desktop\codetector\sevenSegment3DigitComplex\SevenSegment3DigitComplex.c" 1
 417  0006              	NOP
 417  0006              ;# 417 "c:\users\tech\desktop\codetector\sevenSegment3DigitComplex\SevenSegment3DigitComplex.c" 1
 417  0006              	NOP
 417  0006              	ENDIF
 417  0006              ;# 417 "c:\users\tech\desktop\codetector\sevenSegment3DigitComplex\SevenSegment3DigitComplex.c" 1
 417  0006              	IF 1000==3
 417  0006              ;# 417 "c:\users\tech\desktop\codetector\sevenSegment3DigitComplex\SevenSegment3DigitComplex.c" 1
 417  0006              	NOP
 417  0006              ;# 417 "c:\users\tech\desktop\codetector\sevenSegment3DigitComplex\SevenSegment3DigitComplex.c" 1
 417  0006              	NOP
 417  0006              ;# 417 "c:\users\tech\desktop\codetector\sevenSegment3DigitComplex\SevenSegment3DigitComplex.c" 1
 417  0006              	NOP
 417  0006              	ENDIF
 417  0006              ;# 417 "c:\users\tech\desktop\codetector\sevenSegment3DigitComplex\SevenSegment3DigitComplex.c" 1
 417  0006              	IF (1000<8) AND (1000>3)
 417  0006              ;# 417 "c:\users\tech\desktop\codetector\sevenSegment3DigitComplex\SevenSegment3DigitComplex.c" 1
 417  0006              	CALL __DELAY3 + 7 -1000
 417  0006              	ENDIF
 417  0006              ;# 417 "c:\users\tech\desktop\codetector\sevenSegment3DigitComplex\SevenSegment3DigitComplex.c" 1
 417  0006              	IF (1000< 0404h) AND (1000>7)
 417  0006              ;# 417 "c:\users\tech\desktop\codetector\sevenSegment3DigitComplex\SevenSegment3DigitComplex.c" 1
 417  0006  0FF9        	MOV A,1000/4-1
 417  0007              ;# 417 "c:\users\tech\desktop\codetector\sevenSegment3DigitComplex\SevenSegment3DigitComplex.c" 1
 417  0007  2000     E  	CALL __DELAYX3 + 3 -(1000 MOD 4)
 417  0008              	ENDIF
 417  0008              ;# 417 "c:\users\tech\desktop\codetector\sevenSegment3DigitComplex\SevenSegment3DigitComplex.c" 1
 417  0008              	IF (1000< 0x40B) AND (1000> 0403h)
 417  0008              ;# 417 "c:\users\tech\desktop\codetector\sevenSegment3DigitComplex\SevenSegment3DigitComplex.c" 1
 417  0008              	MOV A,0 
 417  0008              ;# 417 "c:\users\tech\desktop\codetector\sevenSegment3DigitComplex\SevenSegment3DigitComplex.c" 1
 417  0008              	CALL __DELAYX6 + 0x40a -1000
"File: SevenSegment3DigitComplex.c  Assembler  Version HGASM0202      Page 64

 417  0008              	ENDIF
 417  0008              ;# 417 "c:\users\tech\desktop\codetector\sevenSegment3DigitComplex\SevenSegment3DigitComplex.c" 1
 417  0008              	IF (1000 >= 0x40b) AND ((((1000-9)%0402h)/4+1)>256)
 417  0008              ;# 417 "c:\users\tech\desktop\codetector\sevenSegment3DigitComplex\SevenSegment3DigitComplex.c" 1
 417  0008              	MOV A,(1000-9)/0402h
 417  0008              ;# 417 "c:\users\tech\desktop\codetector\sevenSegment3DigitComplex\SevenSegment3DigitComplex.c" 1
 417  0008              	MOV _builtin_holtek_delay_2,A
 417  0008              ;# 417 "c:\users\tech\desktop\codetector\sevenSegment3DigitComplex\SevenSegment3DigitComplex.c" 1
 417  0008              	MOV A,0
 417  0008              ;# 417 "c:\users\tech\desktop\codetector\sevenSegment3DigitComplex\SevenSegment3DigitComplex.c" 1
 417  0008              	CALL __DELAYY5 +5- (((1000-9)%0402h)%6)
 417  0008              	ENDIF
 417  0008              ;# 417 "c:\users\tech\desktop\codetector\sevenSegment3DigitComplex\SevenSegment3DigitComplex.c" 1
 417  0008              	IF (1000 >= 0x40b) AND ((((1000-9)%0402h)/4+1)<=256)
 417  0008              ;# 417 "c:\users\tech\desktop\codetector\sevenSegment3DigitComplex\SevenSegment3DigitComplex.c" 1
 417  0008              	MOV A,(1000-9)/0402h
 417  0008              ;# 417 "c:\users\tech\desktop\codetector\sevenSegment3DigitComplex\SevenSegment3DigitComplex.c" 1
 417  0008              	MOV _builtin_holtek_delay_2,A
 417  0008              ;# 417 "c:\users\tech\desktop\codetector\sevenSegment3DigitComplex\SevenSegment3DigitComplex.c" 1
 417  0008              	MOV A,((1000-9)%0402h)/4+1
 417  0008              ;# 417 "c:\users\tech\desktop\codetector\sevenSegment3DigitComplex\SevenSegment3DigitComplex.c" 1
 417  0008              	CALL __DELAYY3 +3-(((1000-9)%0402h)%4)
 417  0008              	ENDIF
 418  0008              #line 418 "c:\users\tech\desktop\codetector\sevenSegment3DigitComplex\SevenSegment3DigitComplex.c"
 418  0008  2000     R  	call _clearSegment
 420  0009              #line 420 "c:\users\tech\desktop\codetector\sevenSegment3DigitComplex\SevenSegment3DigitComplex.c"
 420  0009  3499        	clr [25].1
 421  000A              #line 421 "c:\users\tech\desktop\codetector\sevenSegment3DigitComplex\SevenSegment3DigitComplex.c"
 421  000A  3615        	clr [21].4
 422  000B              #line 422 "c:\users\tech\desktop\codetector\sevenSegment3DigitComplex\SevenSegment3DigitComplex.c"
 422  000B  3415        	clr [21].0
 423  000C              #line 423 "c:\users\tech\desktop\codetector\sevenSegment3DigitComplex\SevenSegment3DigitComplex.c"
 423  000C  3498        	clr [24].1
 424  000D              #line 424 "c:\users\tech\desktop\codetector\sevenSegment3DigitComplex\SevenSegment3DigitComplex.c"
 424  000D  3214        	set [20].4
 425  000E              #line 425 "c:\users\tech\desktop\codetector\sevenSegment3DigitComplex\SevenSegment3DigitComplex.c"
 425  000E  3014        	set [20].0
 426  000F              #line 426 "c:\users\tech\desktop\codetector\sevenSegment3DigitComplex\SevenSegment3DigitComplex.c"
 426  000F              ;# 426 "c:\users\tech\desktop\codetector\sevenSegment3DigitComplex\SevenSegment3DigitComplex.c" 1
 426  000F              	IF 1000>263690
 426  000F              ;# 426 "c:\users\tech\desktop\codetector\sevenSegment3DigitComplex\SevenSegment3DigitComplex.c" 1
 426  000F              	ERRMESSAGE 'the value 1000of the argument exceeds the maxinum 263690'
 426  000F              	ENDIF
 426  000F              ;# 426 "c:\users\tech\desktop\codetector\sevenSegment3DigitComplex\SevenSegment3DigitComplex.c" 1
 426  000F              	IF 1000<0
 426  000F              ;# 426 "c:\users\tech\desktop\codetector\sevenSegment3DigitComplex\SevenSegment3DigitComplex.c" 1
 426  000F              	ERRMESSAGE 'the value 1000 of the argument exceeds the mininum 0'
 426  000F              	ENDIF
 426  000F              ;# 426 "c:\users\tech\desktop\codetector\sevenSegment3DigitComplex\SevenSegment3DigitComplex.c" 1
 426  000F              	IF 1000==0
 426  000F              ;# 426 "c:\users\tech\desktop\codetector\sevenSegment3DigitComplex\SevenSegment3DigitComplex.c" 1
 426  000F              	JMP $
 426  000F              	ENDIF
 426  000F              ;# 426 "c:\users\tech\desktop\codetector\sevenSegment3DigitComplex\SevenSegment3DigitComplex.c" 1
 426  000F              	IF 1000==1
 426  000F              ;# 426 "c:\users\tech\desktop\codetector\sevenSegment3DigitComplex\SevenSegment3DigitComplex.c" 1
 426  000F              	NOP
 426  000F              	ENDIF
 426  000F              ;# 426 "c:\users\tech\desktop\codetector\sevenSegment3DigitComplex\SevenSegment3DigitComplex.c" 1
 426  000F              	IF 1000==2
"File: SevenSegment3DigitComplex.c  Assembler  Version HGASM0202      Page 65

 426  000F              ;# 426 "c:\users\tech\desktop\codetector\sevenSegment3DigitComplex\SevenSegment3DigitComplex.c" 1
 426  000F              	NOP
 426  000F              ;# 426 "c:\users\tech\desktop\codetector\sevenSegment3DigitComplex\SevenSegment3DigitComplex.c" 1
 426  000F              	NOP
 426  000F              	ENDIF
 426  000F              ;# 426 "c:\users\tech\desktop\codetector\sevenSegment3DigitComplex\SevenSegment3DigitComplex.c" 1
 426  000F              	IF 1000==3
 426  000F              ;# 426 "c:\users\tech\desktop\codetector\sevenSegment3DigitComplex\SevenSegment3DigitComplex.c" 1
 426  000F              	NOP
 426  000F              ;# 426 "c:\users\tech\desktop\codetector\sevenSegment3DigitComplex\SevenSegment3DigitComplex.c" 1
 426  000F              	NOP
 426  000F              ;# 426 "c:\users\tech\desktop\codetector\sevenSegment3DigitComplex\SevenSegment3DigitComplex.c" 1
 426  000F              	NOP
 426  000F              	ENDIF
 426  000F              ;# 426 "c:\users\tech\desktop\codetector\sevenSegment3DigitComplex\SevenSegment3DigitComplex.c" 1
 426  000F              	IF (1000<8) AND (1000>3)
 426  000F              ;# 426 "c:\users\tech\desktop\codetector\sevenSegment3DigitComplex\SevenSegment3DigitComplex.c" 1
 426  000F              	CALL __DELAY3 + 7 -1000
 426  000F              	ENDIF
 426  000F              ;# 426 "c:\users\tech\desktop\codetector\sevenSegment3DigitComplex\SevenSegment3DigitComplex.c" 1
 426  000F              	IF (1000< 0404h) AND (1000>7)
 426  000F              ;# 426 "c:\users\tech\desktop\codetector\sevenSegment3DigitComplex\SevenSegment3DigitComplex.c" 1
 426  000F  0FF9        	MOV A,1000/4-1
 426  0010              ;# 426 "c:\users\tech\desktop\codetector\sevenSegment3DigitComplex\SevenSegment3DigitComplex.c" 1
 426  0010  2000     E  	CALL __DELAYX3 + 3 -(1000 MOD 4)
 426  0011              	ENDIF
 426  0011              ;# 426 "c:\users\tech\desktop\codetector\sevenSegment3DigitComplex\SevenSegment3DigitComplex.c" 1
 426  0011              	IF (1000< 0x40B) AND (1000> 0403h)
 426  0011              ;# 426 "c:\users\tech\desktop\codetector\sevenSegment3DigitComplex\SevenSegment3DigitComplex.c" 1
 426  0011              	MOV A,0 
 426  0011              ;# 426 "c:\users\tech\desktop\codetector\sevenSegment3DigitComplex\SevenSegment3DigitComplex.c" 1
 426  0011              	CALL __DELAYX6 + 0x40a -1000
 426  0011              	ENDIF
 426  0011              ;# 426 "c:\users\tech\desktop\codetector\sevenSegment3DigitComplex\SevenSegment3DigitComplex.c" 1
 426  0011              	IF (1000 >= 0x40b) AND ((((1000-9)%0402h)/4+1)>256)
 426  0011              ;# 426 "c:\users\tech\desktop\codetector\sevenSegment3DigitComplex\SevenSegment3DigitComplex.c" 1
 426  0011              	MOV A,(1000-9)/0402h
 426  0011              ;# 426 "c:\users\tech\desktop\codetector\sevenSegment3DigitComplex\SevenSegment3DigitComplex.c" 1
 426  0011              	MOV _builtin_holtek_delay_2,A
 426  0011              ;# 426 "c:\users\tech\desktop\codetector\sevenSegment3DigitComplex\SevenSegment3DigitComplex.c" 1
 426  0011              	MOV A,0
 426  0011              ;# 426 "c:\users\tech\desktop\codetector\sevenSegment3DigitComplex\SevenSegment3DigitComplex.c" 1
 426  0011              	CALL __DELAYY5 +5- (((1000-9)%0402h)%6)
 426  0011              	ENDIF
 426  0011              ;# 426 "c:\users\tech\desktop\codetector\sevenSegment3DigitComplex\SevenSegment3DigitComplex.c" 1
 426  0011              	IF (1000 >= 0x40b) AND ((((1000-9)%0402h)/4+1)<=256)
 426  0011              ;# 426 "c:\users\tech\desktop\codetector\sevenSegment3DigitComplex\SevenSegment3DigitComplex.c" 1
 426  0011              	MOV A,(1000-9)/0402h
 426  0011              ;# 426 "c:\users\tech\desktop\codetector\sevenSegment3DigitComplex\SevenSegment3DigitComplex.c" 1
 426  0011              	MOV _builtin_holtek_delay_2,A
 426  0011              ;# 426 "c:\users\tech\desktop\codetector\sevenSegment3DigitComplex\SevenSegment3DigitComplex.c" 1
 426  0011              	MOV A,((1000-9)%0402h)/4+1
 426  0011              ;# 426 "c:\users\tech\desktop\codetector\sevenSegment3DigitComplex\SevenSegment3DigitComplex.c" 1
 426  0011              	CALL __DELAYY3 +3-(((1000-9)%0402h)%4)
 426  0011              	ENDIF
 426  0011  0003        	ret
 426  0012              _fourDigit1 endp
 426  0012              #line 426 "c:\users\tech\desktop\codetector\sevenSegment3DigitComplex\SevenSegment3DigitComplex.c"
 426  0012              #pragma debug scope 1 1
 426  0012              public _fourDigit2
"File: SevenSegment3DigitComplex.c  Assembler  Version HGASM0202      Page 66

 426  0012              #pragma debug scope 22 1
 429  0012              #line 429 "c:\users\tech\desktop\codetector\sevenSegment3DigitComplex\SevenSegment3DigitComplex.c"
 429  0000              _fourDigit2 .section 'code'
 429  0000              _fourDigit2 proc
 433  0000              #line 433 "c:\users\tech\desktop\codetector\sevenSegment3DigitComplex\SevenSegment3DigitComplex.c"
 433  0000  3519        	clr [25].2
 434  0001              #line 434 "c:\users\tech\desktop\codetector\sevenSegment3DigitComplex\SevenSegment3DigitComplex.c"
 434  0001  3615        	clr [21].4
 435  0002              #line 435 "c:\users\tech\desktop\codetector\sevenSegment3DigitComplex\SevenSegment3DigitComplex.c"
 435  0002  3415        	clr [21].0
 436  0003              #line 436 "c:\users\tech\desktop\codetector\sevenSegment3DigitComplex\SevenSegment3DigitComplex.c"
 436  0003  3118        	set [24].2
 437  0004              #line 437 "c:\users\tech\desktop\codetector\sevenSegment3DigitComplex\SevenSegment3DigitComplex.c"
 437  0004  3614        	clr [20].4
 438  0005              #line 438 "c:\users\tech\desktop\codetector\sevenSegment3DigitComplex\SevenSegment3DigitComplex.c"
 438  0005  3414        	clr [20].0
 440  0006              #line 440 "c:\users\tech\desktop\codetector\sevenSegment3DigitComplex\SevenSegment3DigitComplex.c"
 440  0006              ;# 440 "c:\users\tech\desktop\codetector\sevenSegment3DigitComplex\SevenSegment3DigitComplex.c" 1
 440  0006              	IF 1000>263690
 440  0006              ;# 440 "c:\users\tech\desktop\codetector\sevenSegment3DigitComplex\SevenSegment3DigitComplex.c" 1
 440  0006              	ERRMESSAGE 'the value 1000of the argument exceeds the maxinum 263690'
 440  0006              	ENDIF
 440  0006              ;# 440 "c:\users\tech\desktop\codetector\sevenSegment3DigitComplex\SevenSegment3DigitComplex.c" 1
 440  0006              	IF 1000<0
 440  0006              ;# 440 "c:\users\tech\desktop\codetector\sevenSegment3DigitComplex\SevenSegment3DigitComplex.c" 1
 440  0006              	ERRMESSAGE 'the value 1000 of the argument exceeds the mininum 0'
 440  0006              	ENDIF
 440  0006              ;# 440 "c:\users\tech\desktop\codetector\sevenSegment3DigitComplex\SevenSegment3DigitComplex.c" 1
 440  0006              	IF 1000==0
 440  0006              ;# 440 "c:\users\tech\desktop\codetector\sevenSegment3DigitComplex\SevenSegment3DigitComplex.c" 1
 440  0006              	JMP $
 440  0006              	ENDIF
 440  0006              ;# 440 "c:\users\tech\desktop\codetector\sevenSegment3DigitComplex\SevenSegment3DigitComplex.c" 1
 440  0006              	IF 1000==1
 440  0006              ;# 440 "c:\users\tech\desktop\codetector\sevenSegment3DigitComplex\SevenSegment3DigitComplex.c" 1
 440  0006              	NOP
 440  0006              	ENDIF
 440  0006              ;# 440 "c:\users\tech\desktop\codetector\sevenSegment3DigitComplex\SevenSegment3DigitComplex.c" 1
 440  0006              	IF 1000==2
 440  0006              ;# 440 "c:\users\tech\desktop\codetector\sevenSegment3DigitComplex\SevenSegment3DigitComplex.c" 1
 440  0006              	NOP
 440  0006              ;# 440 "c:\users\tech\desktop\codetector\sevenSegment3DigitComplex\SevenSegment3DigitComplex.c" 1
 440  0006              	NOP
 440  0006              	ENDIF
 440  0006              ;# 440 "c:\users\tech\desktop\codetector\sevenSegment3DigitComplex\SevenSegment3DigitComplex.c" 1
 440  0006              	IF 1000==3
 440  0006              ;# 440 "c:\users\tech\desktop\codetector\sevenSegment3DigitComplex\SevenSegment3DigitComplex.c" 1
 440  0006              	NOP
 440  0006              ;# 440 "c:\users\tech\desktop\codetector\sevenSegment3DigitComplex\SevenSegment3DigitComplex.c" 1
 440  0006              	NOP
 440  0006              ;# 440 "c:\users\tech\desktop\codetector\sevenSegment3DigitComplex\SevenSegment3DigitComplex.c" 1
 440  0006              	NOP
 440  0006              	ENDIF
 440  0006              ;# 440 "c:\users\tech\desktop\codetector\sevenSegment3DigitComplex\SevenSegment3DigitComplex.c" 1
 440  0006              	IF (1000<8) AND (1000>3)
 440  0006              ;# 440 "c:\users\tech\desktop\codetector\sevenSegment3DigitComplex\SevenSegment3DigitComplex.c" 1
 440  0006              	CALL __DELAY3 + 7 -1000
 440  0006              	ENDIF
 440  0006              ;# 440 "c:\users\tech\desktop\codetector\sevenSegment3DigitComplex\SevenSegment3DigitComplex.c" 1
 440  0006              	IF (1000< 0404h) AND (1000>7)
"File: SevenSegment3DigitComplex.c  Assembler  Version HGASM0202      Page 67

 440  0006              ;# 440 "c:\users\tech\desktop\codetector\sevenSegment3DigitComplex\SevenSegment3DigitComplex.c" 1
 440  0006  0FF9        	MOV A,1000/4-1
 440  0007              ;# 440 "c:\users\tech\desktop\codetector\sevenSegment3DigitComplex\SevenSegment3DigitComplex.c" 1
 440  0007  2000     E  	CALL __DELAYX3 + 3 -(1000 MOD 4)
 440  0008              	ENDIF
 440  0008              ;# 440 "c:\users\tech\desktop\codetector\sevenSegment3DigitComplex\SevenSegment3DigitComplex.c" 1
 440  0008              	IF (1000< 0x40B) AND (1000> 0403h)
 440  0008              ;# 440 "c:\users\tech\desktop\codetector\sevenSegment3DigitComplex\SevenSegment3DigitComplex.c" 1
 440  0008              	MOV A,0 
 440  0008              ;# 440 "c:\users\tech\desktop\codetector\sevenSegment3DigitComplex\SevenSegment3DigitComplex.c" 1
 440  0008              	CALL __DELAYX6 + 0x40a -1000
 440  0008              	ENDIF
 440  0008              ;# 440 "c:\users\tech\desktop\codetector\sevenSegment3DigitComplex\SevenSegment3DigitComplex.c" 1
 440  0008              	IF (1000 >= 0x40b) AND ((((1000-9)%0402h)/4+1)>256)
 440  0008              ;# 440 "c:\users\tech\desktop\codetector\sevenSegment3DigitComplex\SevenSegment3DigitComplex.c" 1
 440  0008              	MOV A,(1000-9)/0402h
 440  0008              ;# 440 "c:\users\tech\desktop\codetector\sevenSegment3DigitComplex\SevenSegment3DigitComplex.c" 1
 440  0008              	MOV _builtin_holtek_delay_2,A
 440  0008              ;# 440 "c:\users\tech\desktop\codetector\sevenSegment3DigitComplex\SevenSegment3DigitComplex.c" 1
 440  0008              	MOV A,0
 440  0008              ;# 440 "c:\users\tech\desktop\codetector\sevenSegment3DigitComplex\SevenSegment3DigitComplex.c" 1
 440  0008              	CALL __DELAYY5 +5- (((1000-9)%0402h)%6)
 440  0008              	ENDIF
 440  0008              ;# 440 "c:\users\tech\desktop\codetector\sevenSegment3DigitComplex\SevenSegment3DigitComplex.c" 1
 440  0008              	IF (1000 >= 0x40b) AND ((((1000-9)%0402h)/4+1)<=256)
 440  0008              ;# 440 "c:\users\tech\desktop\codetector\sevenSegment3DigitComplex\SevenSegment3DigitComplex.c" 1
 440  0008              	MOV A,(1000-9)/0402h
 440  0008              ;# 440 "c:\users\tech\desktop\codetector\sevenSegment3DigitComplex\SevenSegment3DigitComplex.c" 1
 440  0008              	MOV _builtin_holtek_delay_2,A
 440  0008              ;# 440 "c:\users\tech\desktop\codetector\sevenSegment3DigitComplex\SevenSegment3DigitComplex.c" 1
 440  0008              	MOV A,((1000-9)%0402h)/4+1
 440  0008              ;# 440 "c:\users\tech\desktop\codetector\sevenSegment3DigitComplex\SevenSegment3DigitComplex.c" 1
 440  0008              	CALL __DELAYY3 +3-(((1000-9)%0402h)%4)
 440  0008              	ENDIF
 441  0008              #line 441 "c:\users\tech\desktop\codetector\sevenSegment3DigitComplex\SevenSegment3DigitComplex.c"
 441  0008  2000     R  	call _clearSegment
 443  0009              #line 443 "c:\users\tech\desktop\codetector\sevenSegment3DigitComplex\SevenSegment3DigitComplex.c"
 443  0009  3499        	clr [25].1
 444  000A              #line 444 "c:\users\tech\desktop\codetector\sevenSegment3DigitComplex\SevenSegment3DigitComplex.c"
 444  000A  3515        	clr [21].2
 445  000B              #line 445 "c:\users\tech\desktop\codetector\sevenSegment3DigitComplex\SevenSegment3DigitComplex.c"
 445  000B  3599        	clr [25].3
 446  000C              #line 446 "c:\users\tech\desktop\codetector\sevenSegment3DigitComplex\SevenSegment3DigitComplex.c"
 446  000C  3498        	clr [24].1
 447  000D              #line 447 "c:\users\tech\desktop\codetector\sevenSegment3DigitComplex\SevenSegment3DigitComplex.c"
 447  000D  3114        	set [20].2
 448  000E              #line 448 "c:\users\tech\desktop\codetector\sevenSegment3DigitComplex\SevenSegment3DigitComplex.c"
 448  000E  3198        	set [24].3
 449  000F              #line 449 "c:\users\tech\desktop\codetector\sevenSegment3DigitComplex\SevenSegment3DigitComplex.c"
 449  000F              ;# 449 "c:\users\tech\desktop\codetector\sevenSegment3DigitComplex\SevenSegment3DigitComplex.c" 1
 449  000F              	IF 1000>263690
 449  000F              ;# 449 "c:\users\tech\desktop\codetector\sevenSegment3DigitComplex\SevenSegment3DigitComplex.c" 1
 449  000F              	ERRMESSAGE 'the value 1000of the argument exceeds the maxinum 263690'
 449  000F              	ENDIF
 449  000F              ;# 449 "c:\users\tech\desktop\codetector\sevenSegment3DigitComplex\SevenSegment3DigitComplex.c" 1
 449  000F              	IF 1000<0
 449  000F              ;# 449 "c:\users\tech\desktop\codetector\sevenSegment3DigitComplex\SevenSegment3DigitComplex.c" 1
 449  000F              	ERRMESSAGE 'the value 1000 of the argument exceeds the mininum 0'
 449  000F              	ENDIF
 449  000F              ;# 449 "c:\users\tech\desktop\codetector\sevenSegment3DigitComplex\SevenSegment3DigitComplex.c" 1
"File: SevenSegment3DigitComplex.c  Assembler  Version HGASM0202      Page 68

 449  000F              	IF 1000==0
 449  000F              ;# 449 "c:\users\tech\desktop\codetector\sevenSegment3DigitComplex\SevenSegment3DigitComplex.c" 1
 449  000F              	JMP $
 449  000F              	ENDIF
 449  000F              ;# 449 "c:\users\tech\desktop\codetector\sevenSegment3DigitComplex\SevenSegment3DigitComplex.c" 1
 449  000F              	IF 1000==1
 449  000F              ;# 449 "c:\users\tech\desktop\codetector\sevenSegment3DigitComplex\SevenSegment3DigitComplex.c" 1
 449  000F              	NOP
 449  000F              	ENDIF
 449  000F              ;# 449 "c:\users\tech\desktop\codetector\sevenSegment3DigitComplex\SevenSegment3DigitComplex.c" 1
 449  000F              	IF 1000==2
 449  000F              ;# 449 "c:\users\tech\desktop\codetector\sevenSegment3DigitComplex\SevenSegment3DigitComplex.c" 1
 449  000F              	NOP
 449  000F              ;# 449 "c:\users\tech\desktop\codetector\sevenSegment3DigitComplex\SevenSegment3DigitComplex.c" 1
 449  000F              	NOP
 449  000F              	ENDIF
 449  000F              ;# 449 "c:\users\tech\desktop\codetector\sevenSegment3DigitComplex\SevenSegment3DigitComplex.c" 1
 449  000F              	IF 1000==3
 449  000F              ;# 449 "c:\users\tech\desktop\codetector\sevenSegment3DigitComplex\SevenSegment3DigitComplex.c" 1
 449  000F              	NOP
 449  000F              ;# 449 "c:\users\tech\desktop\codetector\sevenSegment3DigitComplex\SevenSegment3DigitComplex.c" 1
 449  000F              	NOP
 449  000F              ;# 449 "c:\users\tech\desktop\codetector\sevenSegment3DigitComplex\SevenSegment3DigitComplex.c" 1
 449  000F              	NOP
 449  000F              	ENDIF
 449  000F              ;# 449 "c:\users\tech\desktop\codetector\sevenSegment3DigitComplex\SevenSegment3DigitComplex.c" 1
 449  000F              	IF (1000<8) AND (1000>3)
 449  000F              ;# 449 "c:\users\tech\desktop\codetector\sevenSegment3DigitComplex\SevenSegment3DigitComplex.c" 1
 449  000F              	CALL __DELAY3 + 7 -1000
 449  000F              	ENDIF
 449  000F              ;# 449 "c:\users\tech\desktop\codetector\sevenSegment3DigitComplex\SevenSegment3DigitComplex.c" 1
 449  000F              	IF (1000< 0404h) AND (1000>7)
 449  000F              ;# 449 "c:\users\tech\desktop\codetector\sevenSegment3DigitComplex\SevenSegment3DigitComplex.c" 1
 449  000F  0FF9        	MOV A,1000/4-1
 449  0010              ;# 449 "c:\users\tech\desktop\codetector\sevenSegment3DigitComplex\SevenSegment3DigitComplex.c" 1
 449  0010  2000     E  	CALL __DELAYX3 + 3 -(1000 MOD 4)
 449  0011              	ENDIF
 449  0011              ;# 449 "c:\users\tech\desktop\codetector\sevenSegment3DigitComplex\SevenSegment3DigitComplex.c" 1
 449  0011              	IF (1000< 0x40B) AND (1000> 0403h)
 449  0011              ;# 449 "c:\users\tech\desktop\codetector\sevenSegment3DigitComplex\SevenSegment3DigitComplex.c" 1
 449  0011              	MOV A,0 
 449  0011              ;# 449 "c:\users\tech\desktop\codetector\sevenSegment3DigitComplex\SevenSegment3DigitComplex.c" 1
 449  0011              	CALL __DELAYX6 + 0x40a -1000
 449  0011              	ENDIF
 449  0011              ;# 449 "c:\users\tech\desktop\codetector\sevenSegment3DigitComplex\SevenSegment3DigitComplex.c" 1
 449  0011              	IF (1000 >= 0x40b) AND ((((1000-9)%0402h)/4+1)>256)
 449  0011              ;# 449 "c:\users\tech\desktop\codetector\sevenSegment3DigitComplex\SevenSegment3DigitComplex.c" 1
 449  0011              	MOV A,(1000-9)/0402h
 449  0011              ;# 449 "c:\users\tech\desktop\codetector\sevenSegment3DigitComplex\SevenSegment3DigitComplex.c" 1
 449  0011              	MOV _builtin_holtek_delay_2,A
 449  0011              ;# 449 "c:\users\tech\desktop\codetector\sevenSegment3DigitComplex\SevenSegment3DigitComplex.c" 1
 449  0011              	MOV A,0
 449  0011              ;# 449 "c:\users\tech\desktop\codetector\sevenSegment3DigitComplex\SevenSegment3DigitComplex.c" 1
 449  0011              	CALL __DELAYY5 +5- (((1000-9)%0402h)%6)
 449  0011              	ENDIF
 449  0011              ;# 449 "c:\users\tech\desktop\codetector\sevenSegment3DigitComplex\SevenSegment3DigitComplex.c" 1
 449  0011              	IF (1000 >= 0x40b) AND ((((1000-9)%0402h)/4+1)<=256)
 449  0011              ;# 449 "c:\users\tech\desktop\codetector\sevenSegment3DigitComplex\SevenSegment3DigitComplex.c" 1
 449  0011              	MOV A,(1000-9)/0402h
 449  0011              ;# 449 "c:\users\tech\desktop\codetector\sevenSegment3DigitComplex\SevenSegment3DigitComplex.c" 1
"File: SevenSegment3DigitComplex.c  Assembler  Version HGASM0202      Page 69

 449  0011              	MOV _builtin_holtek_delay_2,A
 449  0011              ;# 449 "c:\users\tech\desktop\codetector\sevenSegment3DigitComplex\SevenSegment3DigitComplex.c" 1
 449  0011              	MOV A,((1000-9)%0402h)/4+1
 449  0011              ;# 449 "c:\users\tech\desktop\codetector\sevenSegment3DigitComplex\SevenSegment3DigitComplex.c" 1
 449  0011              	CALL __DELAYY3 +3-(((1000-9)%0402h)%4)
 449  0011              	ENDIF
 449  0011  0003        	ret
 449  0012              _fourDigit2 endp
 449  0012              #line 449 "c:\users\tech\desktop\codetector\sevenSegment3DigitComplex\SevenSegment3DigitComplex.c"
 449  0012              #pragma debug scope 1 1
 449  0012              public _fourDigit3
 449  0012              #pragma debug scope 23 1
 452  0012              #line 452 "c:\users\tech\desktop\codetector\sevenSegment3DigitComplex\SevenSegment3DigitComplex.c"
 452  0000              _fourDigit3 .section 'code'
 452  0000              _fourDigit3 proc
 456  0000              #line 456 "c:\users\tech\desktop\codetector\sevenSegment3DigitComplex\SevenSegment3DigitComplex.c"
 456  0000  3499        	clr [25].1
 457  0001              #line 457 "c:\users\tech\desktop\codetector\sevenSegment3DigitComplex\SevenSegment3DigitComplex.c"
 457  0001  3415        	clr [21].0
 458  0002              #line 458 "c:\users\tech\desktop\codetector\sevenSegment3DigitComplex\SevenSegment3DigitComplex.c"
 458  0002  3515        	clr [21].2
 459  0003              #line 459 "c:\users\tech\desktop\codetector\sevenSegment3DigitComplex\SevenSegment3DigitComplex.c"
 459  0003  3098        	set [24].1
 460  0004              #line 460 "c:\users\tech\desktop\codetector\sevenSegment3DigitComplex\SevenSegment3DigitComplex.c"
 460  0004  3414        	clr [20].0
 461  0005              #line 461 "c:\users\tech\desktop\codetector\sevenSegment3DigitComplex\SevenSegment3DigitComplex.c"
 461  0005  3514        	clr [20].2
 462  0006              #line 462 "c:\users\tech\desktop\codetector\sevenSegment3DigitComplex\SevenSegment3DigitComplex.c"
 462  0006              ;# 462 "c:\users\tech\desktop\codetector\sevenSegment3DigitComplex\SevenSegment3DigitComplex.c" 1
 462  0006              	IF 1000>263690
 462  0006              ;# 462 "c:\users\tech\desktop\codetector\sevenSegment3DigitComplex\SevenSegment3DigitComplex.c" 1
 462  0006              	ERRMESSAGE 'the value 1000of the argument exceeds the maxinum 263690'
 462  0006              	ENDIF
 462  0006              ;# 462 "c:\users\tech\desktop\codetector\sevenSegment3DigitComplex\SevenSegment3DigitComplex.c" 1
 462  0006              	IF 1000<0
 462  0006              ;# 462 "c:\users\tech\desktop\codetector\sevenSegment3DigitComplex\SevenSegment3DigitComplex.c" 1
 462  0006              	ERRMESSAGE 'the value 1000 of the argument exceeds the mininum 0'
 462  0006              	ENDIF
 462  0006              ;# 462 "c:\users\tech\desktop\codetector\sevenSegment3DigitComplex\SevenSegment3DigitComplex.c" 1
 462  0006              	IF 1000==0
 462  0006              ;# 462 "c:\users\tech\desktop\codetector\sevenSegment3DigitComplex\SevenSegment3DigitComplex.c" 1
 462  0006              	JMP $
 462  0006              	ENDIF
 462  0006              ;# 462 "c:\users\tech\desktop\codetector\sevenSegment3DigitComplex\SevenSegment3DigitComplex.c" 1
 462  0006              	IF 1000==1
 462  0006              ;# 462 "c:\users\tech\desktop\codetector\sevenSegment3DigitComplex\SevenSegment3DigitComplex.c" 1
 462  0006              	NOP
 462  0006              	ENDIF
 462  0006              ;# 462 "c:\users\tech\desktop\codetector\sevenSegment3DigitComplex\SevenSegment3DigitComplex.c" 1
 462  0006              	IF 1000==2
 462  0006              ;# 462 "c:\users\tech\desktop\codetector\sevenSegment3DigitComplex\SevenSegment3DigitComplex.c" 1
 462  0006              	NOP
 462  0006              ;# 462 "c:\users\tech\desktop\codetector\sevenSegment3DigitComplex\SevenSegment3DigitComplex.c" 1
 462  0006              	NOP
 462  0006              	ENDIF
 462  0006              ;# 462 "c:\users\tech\desktop\codetector\sevenSegment3DigitComplex\SevenSegment3DigitComplex.c" 1
 462  0006              	IF 1000==3
 462  0006              ;# 462 "c:\users\tech\desktop\codetector\sevenSegment3DigitComplex\SevenSegment3DigitComplex.c" 1
 462  0006              	NOP
 462  0006              ;# 462 "c:\users\tech\desktop\codetector\sevenSegment3DigitComplex\SevenSegment3DigitComplex.c" 1
"File: SevenSegment3DigitComplex.c  Assembler  Version HGASM0202      Page 70

 462  0006              	NOP
 462  0006              ;# 462 "c:\users\tech\desktop\codetector\sevenSegment3DigitComplex\SevenSegment3DigitComplex.c" 1
 462  0006              	NOP
 462  0006              	ENDIF
 462  0006              ;# 462 "c:\users\tech\desktop\codetector\sevenSegment3DigitComplex\SevenSegment3DigitComplex.c" 1
 462  0006              	IF (1000<8) AND (1000>3)
 462  0006              ;# 462 "c:\users\tech\desktop\codetector\sevenSegment3DigitComplex\SevenSegment3DigitComplex.c" 1
 462  0006              	CALL __DELAY3 + 7 -1000
 462  0006              	ENDIF
 462  0006              ;# 462 "c:\users\tech\desktop\codetector\sevenSegment3DigitComplex\SevenSegment3DigitComplex.c" 1
 462  0006              	IF (1000< 0404h) AND (1000>7)
 462  0006              ;# 462 "c:\users\tech\desktop\codetector\sevenSegment3DigitComplex\SevenSegment3DigitComplex.c" 1
 462  0006  0FF9        	MOV A,1000/4-1
 462  0007              ;# 462 "c:\users\tech\desktop\codetector\sevenSegment3DigitComplex\SevenSegment3DigitComplex.c" 1
 462  0007  2000     E  	CALL __DELAYX3 + 3 -(1000 MOD 4)
 462  0008              	ENDIF
 462  0008              ;# 462 "c:\users\tech\desktop\codetector\sevenSegment3DigitComplex\SevenSegment3DigitComplex.c" 1
 462  0008              	IF (1000< 0x40B) AND (1000> 0403h)
 462  0008              ;# 462 "c:\users\tech\desktop\codetector\sevenSegment3DigitComplex\SevenSegment3DigitComplex.c" 1
 462  0008              	MOV A,0 
 462  0008              ;# 462 "c:\users\tech\desktop\codetector\sevenSegment3DigitComplex\SevenSegment3DigitComplex.c" 1
 462  0008              	CALL __DELAYX6 + 0x40a -1000
 462  0008              	ENDIF
 462  0008              ;# 462 "c:\users\tech\desktop\codetector\sevenSegment3DigitComplex\SevenSegment3DigitComplex.c" 1
 462  0008              	IF (1000 >= 0x40b) AND ((((1000-9)%0402h)/4+1)>256)
 462  0008              ;# 462 "c:\users\tech\desktop\codetector\sevenSegment3DigitComplex\SevenSegment3DigitComplex.c" 1
 462  0008              	MOV A,(1000-9)/0402h
 462  0008              ;# 462 "c:\users\tech\desktop\codetector\sevenSegment3DigitComplex\SevenSegment3DigitComplex.c" 1
 462  0008              	MOV _builtin_holtek_delay_2,A
 462  0008              ;# 462 "c:\users\tech\desktop\codetector\sevenSegment3DigitComplex\SevenSegment3DigitComplex.c" 1
 462  0008              	MOV A,0
 462  0008              ;# 462 "c:\users\tech\desktop\codetector\sevenSegment3DigitComplex\SevenSegment3DigitComplex.c" 1
 462  0008              	CALL __DELAYY5 +5- (((1000-9)%0402h)%6)
 462  0008              	ENDIF
 462  0008              ;# 462 "c:\users\tech\desktop\codetector\sevenSegment3DigitComplex\SevenSegment3DigitComplex.c" 1
 462  0008              	IF (1000 >= 0x40b) AND ((((1000-9)%0402h)/4+1)<=256)
 462  0008              ;# 462 "c:\users\tech\desktop\codetector\sevenSegment3DigitComplex\SevenSegment3DigitComplex.c" 1
 462  0008              	MOV A,(1000-9)/0402h
 462  0008              ;# 462 "c:\users\tech\desktop\codetector\sevenSegment3DigitComplex\SevenSegment3DigitComplex.c" 1
 462  0008              	MOV _builtin_holtek_delay_2,A
 462  0008              ;# 462 "c:\users\tech\desktop\codetector\sevenSegment3DigitComplex\SevenSegment3DigitComplex.c" 1
 462  0008              	MOV A,((1000-9)%0402h)/4+1
 462  0008              ;# 462 "c:\users\tech\desktop\codetector\sevenSegment3DigitComplex\SevenSegment3DigitComplex.c" 1
 462  0008              	CALL __DELAYY3 +3-(((1000-9)%0402h)%4)
 462  0008              	ENDIF
 463  0008              #line 463 "c:\users\tech\desktop\codetector\sevenSegment3DigitComplex\SevenSegment3DigitComplex.c"
 463  0008  2000     R  	call _clearSegment
 465  0009              #line 465 "c:\users\tech\desktop\codetector\sevenSegment3DigitComplex\SevenSegment3DigitComplex.c"
 465  0009  3615        	clr [21].4
 466  000A              #line 466 "c:\users\tech\desktop\codetector\sevenSegment3DigitComplex\SevenSegment3DigitComplex.c"
 466  000A  3515        	clr [21].2
 467  000B              #line 467 "c:\users\tech\desktop\codetector\sevenSegment3DigitComplex\SevenSegment3DigitComplex.c"
 467  000B  3599        	clr [25].3
 468  000C              #line 468 "c:\users\tech\desktop\codetector\sevenSegment3DigitComplex\SevenSegment3DigitComplex.c"
 468  000C  3214        	set [20].4
 469  000D              #line 469 "c:\users\tech\desktop\codetector\sevenSegment3DigitComplex\SevenSegment3DigitComplex.c"
 469  000D  3514        	clr [20].2
 470  000E              #line 470 "c:\users\tech\desktop\codetector\sevenSegment3DigitComplex\SevenSegment3DigitComplex.c"
 470  000E  3598        	clr [24].3
 471  000F              #line 471 "c:\users\tech\desktop\codetector\sevenSegment3DigitComplex\SevenSegment3DigitComplex.c"
"File: SevenSegment3DigitComplex.c  Assembler  Version HGASM0202      Page 71

 471  000F              ;# 471 "c:\users\tech\desktop\codetector\sevenSegment3DigitComplex\SevenSegment3DigitComplex.c" 1
 471  000F              	IF 1000>263690
 471  000F              ;# 471 "c:\users\tech\desktop\codetector\sevenSegment3DigitComplex\SevenSegment3DigitComplex.c" 1
 471  000F              	ERRMESSAGE 'the value 1000of the argument exceeds the maxinum 263690'
 471  000F              	ENDIF
 471  000F              ;# 471 "c:\users\tech\desktop\codetector\sevenSegment3DigitComplex\SevenSegment3DigitComplex.c" 1
 471  000F              	IF 1000<0
 471  000F              ;# 471 "c:\users\tech\desktop\codetector\sevenSegment3DigitComplex\SevenSegment3DigitComplex.c" 1
 471  000F              	ERRMESSAGE 'the value 1000 of the argument exceeds the mininum 0'
 471  000F              	ENDIF
 471  000F              ;# 471 "c:\users\tech\desktop\codetector\sevenSegment3DigitComplex\SevenSegment3DigitComplex.c" 1
 471  000F              	IF 1000==0
 471  000F              ;# 471 "c:\users\tech\desktop\codetector\sevenSegment3DigitComplex\SevenSegment3DigitComplex.c" 1
 471  000F              	JMP $
 471  000F              	ENDIF
 471  000F              ;# 471 "c:\users\tech\desktop\codetector\sevenSegment3DigitComplex\SevenSegment3DigitComplex.c" 1
 471  000F              	IF 1000==1
 471  000F              ;# 471 "c:\users\tech\desktop\codetector\sevenSegment3DigitComplex\SevenSegment3DigitComplex.c" 1
 471  000F              	NOP
 471  000F              	ENDIF
 471  000F              ;# 471 "c:\users\tech\desktop\codetector\sevenSegment3DigitComplex\SevenSegment3DigitComplex.c" 1
 471  000F              	IF 1000==2
 471  000F              ;# 471 "c:\users\tech\desktop\codetector\sevenSegment3DigitComplex\SevenSegment3DigitComplex.c" 1
 471  000F              	NOP
 471  000F              ;# 471 "c:\users\tech\desktop\codetector\sevenSegment3DigitComplex\SevenSegment3DigitComplex.c" 1
 471  000F              	NOP
 471  000F              	ENDIF
 471  000F              ;# 471 "c:\users\tech\desktop\codetector\sevenSegment3DigitComplex\SevenSegment3DigitComplex.c" 1
 471  000F              	IF 1000==3
 471  000F              ;# 471 "c:\users\tech\desktop\codetector\sevenSegment3DigitComplex\SevenSegment3DigitComplex.c" 1
 471  000F              	NOP
 471  000F              ;# 471 "c:\users\tech\desktop\codetector\sevenSegment3DigitComplex\SevenSegment3DigitComplex.c" 1
 471  000F              	NOP
 471  000F              ;# 471 "c:\users\tech\desktop\codetector\sevenSegment3DigitComplex\SevenSegment3DigitComplex.c" 1
 471  000F              	NOP
 471  000F              	ENDIF
 471  000F              ;# 471 "c:\users\tech\desktop\codetector\sevenSegment3DigitComplex\SevenSegment3DigitComplex.c" 1
 471  000F              	IF (1000<8) AND (1000>3)
 471  000F              ;# 471 "c:\users\tech\desktop\codetector\sevenSegment3DigitComplex\SevenSegment3DigitComplex.c" 1
 471  000F              	CALL __DELAY3 + 7 -1000
 471  000F              	ENDIF
 471  000F              ;# 471 "c:\users\tech\desktop\codetector\sevenSegment3DigitComplex\SevenSegment3DigitComplex.c" 1
 471  000F              	IF (1000< 0404h) AND (1000>7)
 471  000F              ;# 471 "c:\users\tech\desktop\codetector\sevenSegment3DigitComplex\SevenSegment3DigitComplex.c" 1
 471  000F  0FF9        	MOV A,1000/4-1
 471  0010              ;# 471 "c:\users\tech\desktop\codetector\sevenSegment3DigitComplex\SevenSegment3DigitComplex.c" 1
 471  0010  2000     E  	CALL __DELAYX3 + 3 -(1000 MOD 4)
 471  0011              	ENDIF
 471  0011              ;# 471 "c:\users\tech\desktop\codetector\sevenSegment3DigitComplex\SevenSegment3DigitComplex.c" 1
 471  0011              	IF (1000< 0x40B) AND (1000> 0403h)
 471  0011              ;# 471 "c:\users\tech\desktop\codetector\sevenSegment3DigitComplex\SevenSegment3DigitComplex.c" 1
 471  0011              	MOV A,0 
 471  0011              ;# 471 "c:\users\tech\desktop\codetector\sevenSegment3DigitComplex\SevenSegment3DigitComplex.c" 1
 471  0011              	CALL __DELAYX6 + 0x40a -1000
 471  0011              	ENDIF
 471  0011              ;# 471 "c:\users\tech\desktop\codetector\sevenSegment3DigitComplex\SevenSegment3DigitComplex.c" 1
 471  0011              	IF (1000 >= 0x40b) AND ((((1000-9)%0402h)/4+1)>256)
 471  0011              ;# 471 "c:\users\tech\desktop\codetector\sevenSegment3DigitComplex\SevenSegment3DigitComplex.c" 1
 471  0011              	MOV A,(1000-9)/0402h
 471  0011              ;# 471 "c:\users\tech\desktop\codetector\sevenSegment3DigitComplex\SevenSegment3DigitComplex.c" 1
"File: SevenSegment3DigitComplex.c  Assembler  Version HGASM0202      Page 72

 471  0011              	MOV _builtin_holtek_delay_2,A
 471  0011              ;# 471 "c:\users\tech\desktop\codetector\sevenSegment3DigitComplex\SevenSegment3DigitComplex.c" 1
 471  0011              	MOV A,0
 471  0011              ;# 471 "c:\users\tech\desktop\codetector\sevenSegment3DigitComplex\SevenSegment3DigitComplex.c" 1
 471  0011              	CALL __DELAYY5 +5- (((1000-9)%0402h)%6)
 471  0011              	ENDIF
 471  0011              ;# 471 "c:\users\tech\desktop\codetector\sevenSegment3DigitComplex\SevenSegment3DigitComplex.c" 1
 471  0011              	IF (1000 >= 0x40b) AND ((((1000-9)%0402h)/4+1)<=256)
 471  0011              ;# 471 "c:\users\tech\desktop\codetector\sevenSegment3DigitComplex\SevenSegment3DigitComplex.c" 1
 471  0011              	MOV A,(1000-9)/0402h
 471  0011              ;# 471 "c:\users\tech\desktop\codetector\sevenSegment3DigitComplex\SevenSegment3DigitComplex.c" 1
 471  0011              	MOV _builtin_holtek_delay_2,A
 471  0011              ;# 471 "c:\users\tech\desktop\codetector\sevenSegment3DigitComplex\SevenSegment3DigitComplex.c" 1
 471  0011              	MOV A,((1000-9)%0402h)/4+1
 471  0011              ;# 471 "c:\users\tech\desktop\codetector\sevenSegment3DigitComplex\SevenSegment3DigitComplex.c" 1
 471  0011              	CALL __DELAYY3 +3-(((1000-9)%0402h)%4)
 471  0011              	ENDIF
 471  0011  0003        	ret
 471  0012              _fourDigit3 endp
 471  0012              #line 471 "c:\users\tech\desktop\codetector\sevenSegment3DigitComplex\SevenSegment3DigitComplex.c"
 471  0012              #pragma debug scope 1 1
 471  0012              public _fiveDigit1
 471  0012              #pragma debug scope 24 1
 474  0012              #line 474 "c:\users\tech\desktop\codetector\sevenSegment3DigitComplex\SevenSegment3DigitComplex.c"
 474  0000              _fiveDigit1 .section 'code'
 474  0000              _fiveDigit1 proc
 478  0000              #line 478 "c:\users\tech\desktop\codetector\sevenSegment3DigitComplex\SevenSegment3DigitComplex.c"
 478  0000  3519        	clr [25].2
 479  0001              #line 479 "c:\users\tech\desktop\codetector\sevenSegment3DigitComplex\SevenSegment3DigitComplex.c"
 479  0001  3499        	clr [25].1
 480  0002              #line 480 "c:\users\tech\desktop\codetector\sevenSegment3DigitComplex\SevenSegment3DigitComplex.c"
 480  0002  3415        	clr [21].0
 481  0003              #line 481 "c:\users\tech\desktop\codetector\sevenSegment3DigitComplex\SevenSegment3DigitComplex.c"
 481  0003  3515        	clr [21].2
 482  0004              #line 482 "c:\users\tech\desktop\codetector\sevenSegment3DigitComplex\SevenSegment3DigitComplex.c"
 482  0004  3518        	clr [24].2
 483  0005              #line 483 "c:\users\tech\desktop\codetector\sevenSegment3DigitComplex\SevenSegment3DigitComplex.c"
 483  0005  3098        	set [24].1
 484  0006              #line 484 "c:\users\tech\desktop\codetector\sevenSegment3DigitComplex\SevenSegment3DigitComplex.c"
 484  0006  3014        	set [20].0
 485  0007              #line 485 "c:\users\tech\desktop\codetector\sevenSegment3DigitComplex\SevenSegment3DigitComplex.c"
 485  0007  3114        	set [20].2
 486  0008              #line 486 "c:\users\tech\desktop\codetector\sevenSegment3DigitComplex\SevenSegment3DigitComplex.c"
 486  0008              ;# 486 "c:\users\tech\desktop\codetector\sevenSegment3DigitComplex\SevenSegment3DigitComplex.c" 1
 486  0008              	IF 1000>263690
 486  0008              ;# 486 "c:\users\tech\desktop\codetector\sevenSegment3DigitComplex\SevenSegment3DigitComplex.c" 1
 486  0008              	ERRMESSAGE 'the value 1000of the argument exceeds the maxinum 263690'
 486  0008              	ENDIF
 486  0008              ;# 486 "c:\users\tech\desktop\codetector\sevenSegment3DigitComplex\SevenSegment3DigitComplex.c" 1
 486  0008              	IF 1000<0
 486  0008              ;# 486 "c:\users\tech\desktop\codetector\sevenSegment3DigitComplex\SevenSegment3DigitComplex.c" 1
 486  0008              	ERRMESSAGE 'the value 1000 of the argument exceeds the mininum 0'
 486  0008              	ENDIF
 486  0008              ;# 486 "c:\users\tech\desktop\codetector\sevenSegment3DigitComplex\SevenSegment3DigitComplex.c" 1
 486  0008              	IF 1000==0
 486  0008              ;# 486 "c:\users\tech\desktop\codetector\sevenSegment3DigitComplex\SevenSegment3DigitComplex.c" 1
 486  0008              	JMP $
 486  0008              	ENDIF
 486  0008              ;# 486 "c:\users\tech\desktop\codetector\sevenSegment3DigitComplex\SevenSegment3DigitComplex.c" 1
 486  0008              	IF 1000==1
"File: SevenSegment3DigitComplex.c  Assembler  Version HGASM0202      Page 73

 486  0008              ;# 486 "c:\users\tech\desktop\codetector\sevenSegment3DigitComplex\SevenSegment3DigitComplex.c" 1
 486  0008              	NOP
 486  0008              	ENDIF
 486  0008              ;# 486 "c:\users\tech\desktop\codetector\sevenSegment3DigitComplex\SevenSegment3DigitComplex.c" 1
 486  0008              	IF 1000==2
 486  0008              ;# 486 "c:\users\tech\desktop\codetector\sevenSegment3DigitComplex\SevenSegment3DigitComplex.c" 1
 486  0008              	NOP
 486  0008              ;# 486 "c:\users\tech\desktop\codetector\sevenSegment3DigitComplex\SevenSegment3DigitComplex.c" 1
 486  0008              	NOP
 486  0008              	ENDIF
 486  0008              ;# 486 "c:\users\tech\desktop\codetector\sevenSegment3DigitComplex\SevenSegment3DigitComplex.c" 1
 486  0008              	IF 1000==3
 486  0008              ;# 486 "c:\users\tech\desktop\codetector\sevenSegment3DigitComplex\SevenSegment3DigitComplex.c" 1
 486  0008              	NOP
 486  0008              ;# 486 "c:\users\tech\desktop\codetector\sevenSegment3DigitComplex\SevenSegment3DigitComplex.c" 1
 486  0008              	NOP
 486  0008              ;# 486 "c:\users\tech\desktop\codetector\sevenSegment3DigitComplex\SevenSegment3DigitComplex.c" 1
 486  0008              	NOP
 486  0008              	ENDIF
 486  0008              ;# 486 "c:\users\tech\desktop\codetector\sevenSegment3DigitComplex\SevenSegment3DigitComplex.c" 1
 486  0008              	IF (1000<8) AND (1000>3)
 486  0008              ;# 486 "c:\users\tech\desktop\codetector\sevenSegment3DigitComplex\SevenSegment3DigitComplex.c" 1
 486  0008              	CALL __DELAY3 + 7 -1000
 486  0008              	ENDIF
 486  0008              ;# 486 "c:\users\tech\desktop\codetector\sevenSegment3DigitComplex\SevenSegment3DigitComplex.c" 1
 486  0008              	IF (1000< 0404h) AND (1000>7)
 486  0008              ;# 486 "c:\users\tech\desktop\codetector\sevenSegment3DigitComplex\SevenSegment3DigitComplex.c" 1
 486  0008  0FF9        	MOV A,1000/4-1
 486  0009              ;# 486 "c:\users\tech\desktop\codetector\sevenSegment3DigitComplex\SevenSegment3DigitComplex.c" 1
 486  0009  2000     E  	CALL __DELAYX3 + 3 -(1000 MOD 4)
 486  000A              	ENDIF
 486  000A              ;# 486 "c:\users\tech\desktop\codetector\sevenSegment3DigitComplex\SevenSegment3DigitComplex.c" 1
 486  000A              	IF (1000< 0x40B) AND (1000> 0403h)
 486  000A              ;# 486 "c:\users\tech\desktop\codetector\sevenSegment3DigitComplex\SevenSegment3DigitComplex.c" 1
 486  000A              	MOV A,0 
 486  000A              ;# 486 "c:\users\tech\desktop\codetector\sevenSegment3DigitComplex\SevenSegment3DigitComplex.c" 1
 486  000A              	CALL __DELAYX6 + 0x40a -1000
 486  000A              	ENDIF
 486  000A              ;# 486 "c:\users\tech\desktop\codetector\sevenSegment3DigitComplex\SevenSegment3DigitComplex.c" 1
 486  000A              	IF (1000 >= 0x40b) AND ((((1000-9)%0402h)/4+1)>256)
 486  000A              ;# 486 "c:\users\tech\desktop\codetector\sevenSegment3DigitComplex\SevenSegment3DigitComplex.c" 1
 486  000A              	MOV A,(1000-9)/0402h
 486  000A              ;# 486 "c:\users\tech\desktop\codetector\sevenSegment3DigitComplex\SevenSegment3DigitComplex.c" 1
 486  000A              	MOV _builtin_holtek_delay_2,A
 486  000A              ;# 486 "c:\users\tech\desktop\codetector\sevenSegment3DigitComplex\SevenSegment3DigitComplex.c" 1
 486  000A              	MOV A,0
 486  000A              ;# 486 "c:\users\tech\desktop\codetector\sevenSegment3DigitComplex\SevenSegment3DigitComplex.c" 1
 486  000A              	CALL __DELAYY5 +5- (((1000-9)%0402h)%6)
 486  000A              	ENDIF
 486  000A              ;# 486 "c:\users\tech\desktop\codetector\sevenSegment3DigitComplex\SevenSegment3DigitComplex.c" 1
 486  000A              	IF (1000 >= 0x40b) AND ((((1000-9)%0402h)/4+1)<=256)
 486  000A              ;# 486 "c:\users\tech\desktop\codetector\sevenSegment3DigitComplex\SevenSegment3DigitComplex.c" 1
 486  000A              	MOV A,(1000-9)/0402h
 486  000A              ;# 486 "c:\users\tech\desktop\codetector\sevenSegment3DigitComplex\SevenSegment3DigitComplex.c" 1
 486  000A              	MOV _builtin_holtek_delay_2,A
 486  000A              ;# 486 "c:\users\tech\desktop\codetector\sevenSegment3DigitComplex\SevenSegment3DigitComplex.c" 1
 486  000A              	MOV A,((1000-9)%0402h)/4+1
 486  000A              ;# 486 "c:\users\tech\desktop\codetector\sevenSegment3DigitComplex\SevenSegment3DigitComplex.c" 1
 486  000A              	CALL __DELAYY3 +3-(((1000-9)%0402h)%4)
 486  000A              	ENDIF
"File: SevenSegment3DigitComplex.c  Assembler  Version HGASM0202      Page 74

 487  000A              #line 487 "c:\users\tech\desktop\codetector\sevenSegment3DigitComplex\SevenSegment3DigitComplex.c"
 487  000A  2000     R  	call _clearSegment
 488  000B              #line 488 "c:\users\tech\desktop\codetector\sevenSegment3DigitComplex\SevenSegment3DigitComplex.c"
 488  000B  3499        	clr [25].1
 489  000C              #line 489 "c:\users\tech\desktop\codetector\sevenSegment3DigitComplex\SevenSegment3DigitComplex.c"
 489  000C  3615        	clr [21].4
 490  000D              #line 490 "c:\users\tech\desktop\codetector\sevenSegment3DigitComplex\SevenSegment3DigitComplex.c"
 490  000D  3415        	clr [21].0
 491  000E              #line 491 "c:\users\tech\desktop\codetector\sevenSegment3DigitComplex\SevenSegment3DigitComplex.c"
 491  000E  3498        	clr [24].1
 492  000F              #line 492 "c:\users\tech\desktop\codetector\sevenSegment3DigitComplex\SevenSegment3DigitComplex.c"
 492  000F  3214        	set [20].4
 493  0010              #line 493 "c:\users\tech\desktop\codetector\sevenSegment3DigitComplex\SevenSegment3DigitComplex.c"
 493  0010  3014        	set [20].0
 494  0011              #line 494 "c:\users\tech\desktop\codetector\sevenSegment3DigitComplex\SevenSegment3DigitComplex.c"
 494  0011              ;# 494 "c:\users\tech\desktop\codetector\sevenSegment3DigitComplex\SevenSegment3DigitComplex.c" 1
 494  0011              	IF 1000>263690
 494  0011              ;# 494 "c:\users\tech\desktop\codetector\sevenSegment3DigitComplex\SevenSegment3DigitComplex.c" 1
 494  0011              	ERRMESSAGE 'the value 1000of the argument exceeds the maxinum 263690'
 494  0011              	ENDIF
 494  0011              ;# 494 "c:\users\tech\desktop\codetector\sevenSegment3DigitComplex\SevenSegment3DigitComplex.c" 1
 494  0011              	IF 1000<0
 494  0011              ;# 494 "c:\users\tech\desktop\codetector\sevenSegment3DigitComplex\SevenSegment3DigitComplex.c" 1
 494  0011              	ERRMESSAGE 'the value 1000 of the argument exceeds the mininum 0'
 494  0011              	ENDIF
 494  0011              ;# 494 "c:\users\tech\desktop\codetector\sevenSegment3DigitComplex\SevenSegment3DigitComplex.c" 1
 494  0011              	IF 1000==0
 494  0011              ;# 494 "c:\users\tech\desktop\codetector\sevenSegment3DigitComplex\SevenSegment3DigitComplex.c" 1
 494  0011              	JMP $
 494  0011              	ENDIF
 494  0011              ;# 494 "c:\users\tech\desktop\codetector\sevenSegment3DigitComplex\SevenSegment3DigitComplex.c" 1
 494  0011              	IF 1000==1
 494  0011              ;# 494 "c:\users\tech\desktop\codetector\sevenSegment3DigitComplex\SevenSegment3DigitComplex.c" 1
 494  0011              	NOP
 494  0011              	ENDIF
 494  0011              ;# 494 "c:\users\tech\desktop\codetector\sevenSegment3DigitComplex\SevenSegment3DigitComplex.c" 1
 494  0011              	IF 1000==2
 494  0011              ;# 494 "c:\users\tech\desktop\codetector\sevenSegment3DigitComplex\SevenSegment3DigitComplex.c" 1
 494  0011              	NOP
 494  0011              ;# 494 "c:\users\tech\desktop\codetector\sevenSegment3DigitComplex\SevenSegment3DigitComplex.c" 1
 494  0011              	NOP
 494  0011              	ENDIF
 494  0011              ;# 494 "c:\users\tech\desktop\codetector\sevenSegment3DigitComplex\SevenSegment3DigitComplex.c" 1
 494  0011              	IF 1000==3
 494  0011              ;# 494 "c:\users\tech\desktop\codetector\sevenSegment3DigitComplex\SevenSegment3DigitComplex.c" 1
 494  0011              	NOP
 494  0011              ;# 494 "c:\users\tech\desktop\codetector\sevenSegment3DigitComplex\SevenSegment3DigitComplex.c" 1
 494  0011              	NOP
 494  0011              ;# 494 "c:\users\tech\desktop\codetector\sevenSegment3DigitComplex\SevenSegment3DigitComplex.c" 1
 494  0011              	NOP
 494  0011              	ENDIF
 494  0011              ;# 494 "c:\users\tech\desktop\codetector\sevenSegment3DigitComplex\SevenSegment3DigitComplex.c" 1
 494  0011              	IF (1000<8) AND (1000>3)
 494  0011              ;# 494 "c:\users\tech\desktop\codetector\sevenSegment3DigitComplex\SevenSegment3DigitComplex.c" 1
 494  0011              	CALL __DELAY3 + 7 -1000
 494  0011              	ENDIF
 494  0011              ;# 494 "c:\users\tech\desktop\codetector\sevenSegment3DigitComplex\SevenSegment3DigitComplex.c" 1
 494  0011              	IF (1000< 0404h) AND (1000>7)
 494  0011              ;# 494 "c:\users\tech\desktop\codetector\sevenSegment3DigitComplex\SevenSegment3DigitComplex.c" 1
 494  0011  0FF9        	MOV A,1000/4-1
"File: SevenSegment3DigitComplex.c  Assembler  Version HGASM0202      Page 75

 494  0012              ;# 494 "c:\users\tech\desktop\codetector\sevenSegment3DigitComplex\SevenSegment3DigitComplex.c" 1
 494  0012  2000     E  	CALL __DELAYX3 + 3 -(1000 MOD 4)
 494  0013              	ENDIF
 494  0013              ;# 494 "c:\users\tech\desktop\codetector\sevenSegment3DigitComplex\SevenSegment3DigitComplex.c" 1
 494  0013              	IF (1000< 0x40B) AND (1000> 0403h)
 494  0013              ;# 494 "c:\users\tech\desktop\codetector\sevenSegment3DigitComplex\SevenSegment3DigitComplex.c" 1
 494  0013              	MOV A,0 
 494  0013              ;# 494 "c:\users\tech\desktop\codetector\sevenSegment3DigitComplex\SevenSegment3DigitComplex.c" 1
 494  0013              	CALL __DELAYX6 + 0x40a -1000
 494  0013              	ENDIF
 494  0013              ;# 494 "c:\users\tech\desktop\codetector\sevenSegment3DigitComplex\SevenSegment3DigitComplex.c" 1
 494  0013              	IF (1000 >= 0x40b) AND ((((1000-9)%0402h)/4+1)>256)
 494  0013              ;# 494 "c:\users\tech\desktop\codetector\sevenSegment3DigitComplex\SevenSegment3DigitComplex.c" 1
 494  0013              	MOV A,(1000-9)/0402h
 494  0013              ;# 494 "c:\users\tech\desktop\codetector\sevenSegment3DigitComplex\SevenSegment3DigitComplex.c" 1
 494  0013              	MOV _builtin_holtek_delay_2,A
 494  0013              ;# 494 "c:\users\tech\desktop\codetector\sevenSegment3DigitComplex\SevenSegment3DigitComplex.c" 1
 494  0013              	MOV A,0
 494  0013              ;# 494 "c:\users\tech\desktop\codetector\sevenSegment3DigitComplex\SevenSegment3DigitComplex.c" 1
 494  0013              	CALL __DELAYY5 +5- (((1000-9)%0402h)%6)
 494  0013              	ENDIF
 494  0013              ;# 494 "c:\users\tech\desktop\codetector\sevenSegment3DigitComplex\SevenSegment3DigitComplex.c" 1
 494  0013              	IF (1000 >= 0x40b) AND ((((1000-9)%0402h)/4+1)<=256)
 494  0013              ;# 494 "c:\users\tech\desktop\codetector\sevenSegment3DigitComplex\SevenSegment3DigitComplex.c" 1
 494  0013              	MOV A,(1000-9)/0402h
 494  0013              ;# 494 "c:\users\tech\desktop\codetector\sevenSegment3DigitComplex\SevenSegment3DigitComplex.c" 1
 494  0013              	MOV _builtin_holtek_delay_2,A
 494  0013              ;# 494 "c:\users\tech\desktop\codetector\sevenSegment3DigitComplex\SevenSegment3DigitComplex.c" 1
 494  0013              	MOV A,((1000-9)%0402h)/4+1
 494  0013              ;# 494 "c:\users\tech\desktop\codetector\sevenSegment3DigitComplex\SevenSegment3DigitComplex.c" 1
 494  0013              	CALL __DELAYY3 +3-(((1000-9)%0402h)%4)
 494  0013              	ENDIF
 494  0013  0003        	ret
 494  0014              _fiveDigit1 endp
 494  0014              #line 494 "c:\users\tech\desktop\codetector\sevenSegment3DigitComplex\SevenSegment3DigitComplex.c"
 494  0014              #pragma debug scope 1 1
 494  0014              public _fiveDigit2
 494  0014              #pragma debug scope 25 1
 498  0014              #line 498 "c:\users\tech\desktop\codetector\sevenSegment3DigitComplex\SevenSegment3DigitComplex.c"
 498  0000              _fiveDigit2 .section 'code'
 498  0000              _fiveDigit2 proc
 502  0000              #line 502 "c:\users\tech\desktop\codetector\sevenSegment3DigitComplex\SevenSegment3DigitComplex.c"
 502  0000  3519        	clr [25].2
 503  0001              #line 503 "c:\users\tech\desktop\codetector\sevenSegment3DigitComplex\SevenSegment3DigitComplex.c"
 503  0001  3499        	clr [25].1
 504  0002              #line 504 "c:\users\tech\desktop\codetector\sevenSegment3DigitComplex\SevenSegment3DigitComplex.c"
 504  0002  3415        	clr [21].0
 505  0003              #line 505 "c:\users\tech\desktop\codetector\sevenSegment3DigitComplex\SevenSegment3DigitComplex.c"
 505  0003  3515        	clr [21].2
 506  0004              #line 506 "c:\users\tech\desktop\codetector\sevenSegment3DigitComplex\SevenSegment3DigitComplex.c"
 506  0004  3118        	set [24].2
 507  0005              #line 507 "c:\users\tech\desktop\codetector\sevenSegment3DigitComplex\SevenSegment3DigitComplex.c"
 507  0005  3498        	clr [24].1
 508  0006              #line 508 "c:\users\tech\desktop\codetector\sevenSegment3DigitComplex\SevenSegment3DigitComplex.c"
 508  0006  3414        	clr [20].0
 509  0007              #line 509 "c:\users\tech\desktop\codetector\sevenSegment3DigitComplex\SevenSegment3DigitComplex.c"
 509  0007  3514        	clr [20].2
 510  0008              #line 510 "c:\users\tech\desktop\codetector\sevenSegment3DigitComplex\SevenSegment3DigitComplex.c"
 510  0008              ;# 510 "c:\users\tech\desktop\codetector\sevenSegment3DigitComplex\SevenSegment3DigitComplex.c" 1
 510  0008              	IF 1000>263690
"File: SevenSegment3DigitComplex.c  Assembler  Version HGASM0202      Page 76

 510  0008              ;# 510 "c:\users\tech\desktop\codetector\sevenSegment3DigitComplex\SevenSegment3DigitComplex.c" 1
 510  0008              	ERRMESSAGE 'the value 1000of the argument exceeds the maxinum 263690'
 510  0008              	ENDIF
 510  0008              ;# 510 "c:\users\tech\desktop\codetector\sevenSegment3DigitComplex\SevenSegment3DigitComplex.c" 1
 510  0008              	IF 1000<0
 510  0008              ;# 510 "c:\users\tech\desktop\codetector\sevenSegment3DigitComplex\SevenSegment3DigitComplex.c" 1
 510  0008              	ERRMESSAGE 'the value 1000 of the argument exceeds the mininum 0'
 510  0008              	ENDIF
 510  0008              ;# 510 "c:\users\tech\desktop\codetector\sevenSegment3DigitComplex\SevenSegment3DigitComplex.c" 1
 510  0008              	IF 1000==0
 510  0008              ;# 510 "c:\users\tech\desktop\codetector\sevenSegment3DigitComplex\SevenSegment3DigitComplex.c" 1
 510  0008              	JMP $
 510  0008              	ENDIF
 510  0008              ;# 510 "c:\users\tech\desktop\codetector\sevenSegment3DigitComplex\SevenSegment3DigitComplex.c" 1
 510  0008              	IF 1000==1
 510  0008              ;# 510 "c:\users\tech\desktop\codetector\sevenSegment3DigitComplex\SevenSegment3DigitComplex.c" 1
 510  0008              	NOP
 510  0008              	ENDIF
 510  0008              ;# 510 "c:\users\tech\desktop\codetector\sevenSegment3DigitComplex\SevenSegment3DigitComplex.c" 1
 510  0008              	IF 1000==2
 510  0008              ;# 510 "c:\users\tech\desktop\codetector\sevenSegment3DigitComplex\SevenSegment3DigitComplex.c" 1
 510  0008              	NOP
 510  0008              ;# 510 "c:\users\tech\desktop\codetector\sevenSegment3DigitComplex\SevenSegment3DigitComplex.c" 1
 510  0008              	NOP
 510  0008              	ENDIF
 510  0008              ;# 510 "c:\users\tech\desktop\codetector\sevenSegment3DigitComplex\SevenSegment3DigitComplex.c" 1
 510  0008              	IF 1000==3
 510  0008              ;# 510 "c:\users\tech\desktop\codetector\sevenSegment3DigitComplex\SevenSegment3DigitComplex.c" 1
 510  0008              	NOP
 510  0008              ;# 510 "c:\users\tech\desktop\codetector\sevenSegment3DigitComplex\SevenSegment3DigitComplex.c" 1
 510  0008              	NOP
 510  0008              ;# 510 "c:\users\tech\desktop\codetector\sevenSegment3DigitComplex\SevenSegment3DigitComplex.c" 1
 510  0008              	NOP
 510  0008              	ENDIF
 510  0008              ;# 510 "c:\users\tech\desktop\codetector\sevenSegment3DigitComplex\SevenSegment3DigitComplex.c" 1
 510  0008              	IF (1000<8) AND (1000>3)
 510  0008              ;# 510 "c:\users\tech\desktop\codetector\sevenSegment3DigitComplex\SevenSegment3DigitComplex.c" 1
 510  0008              	CALL __DELAY3 + 7 -1000
 510  0008              	ENDIF
 510  0008              ;# 510 "c:\users\tech\desktop\codetector\sevenSegment3DigitComplex\SevenSegment3DigitComplex.c" 1
 510  0008              	IF (1000< 0404h) AND (1000>7)
 510  0008              ;# 510 "c:\users\tech\desktop\codetector\sevenSegment3DigitComplex\SevenSegment3DigitComplex.c" 1
 510  0008  0FF9        	MOV A,1000/4-1
 510  0009              ;# 510 "c:\users\tech\desktop\codetector\sevenSegment3DigitComplex\SevenSegment3DigitComplex.c" 1
 510  0009  2000     E  	CALL __DELAYX3 + 3 -(1000 MOD 4)
 510  000A              	ENDIF
 510  000A              ;# 510 "c:\users\tech\desktop\codetector\sevenSegment3DigitComplex\SevenSegment3DigitComplex.c" 1
 510  000A              	IF (1000< 0x40B) AND (1000> 0403h)
 510  000A              ;# 510 "c:\users\tech\desktop\codetector\sevenSegment3DigitComplex\SevenSegment3DigitComplex.c" 1
 510  000A              	MOV A,0 
 510  000A              ;# 510 "c:\users\tech\desktop\codetector\sevenSegment3DigitComplex\SevenSegment3DigitComplex.c" 1
 510  000A              	CALL __DELAYX6 + 0x40a -1000
 510  000A              	ENDIF
 510  000A              ;# 510 "c:\users\tech\desktop\codetector\sevenSegment3DigitComplex\SevenSegment3DigitComplex.c" 1
 510  000A              	IF (1000 >= 0x40b) AND ((((1000-9)%0402h)/4+1)>256)
 510  000A              ;# 510 "c:\users\tech\desktop\codetector\sevenSegment3DigitComplex\SevenSegment3DigitComplex.c" 1
 510  000A              	MOV A,(1000-9)/0402h
 510  000A              ;# 510 "c:\users\tech\desktop\codetector\sevenSegment3DigitComplex\SevenSegment3DigitComplex.c" 1
 510  000A              	MOV _builtin_holtek_delay_2,A
 510  000A              ;# 510 "c:\users\tech\desktop\codetector\sevenSegment3DigitComplex\SevenSegment3DigitComplex.c" 1
"File: SevenSegment3DigitComplex.c  Assembler  Version HGASM0202      Page 77

 510  000A              	MOV A,0
 510  000A              ;# 510 "c:\users\tech\desktop\codetector\sevenSegment3DigitComplex\SevenSegment3DigitComplex.c" 1
 510  000A              	CALL __DELAYY5 +5- (((1000-9)%0402h)%6)
 510  000A              	ENDIF
 510  000A              ;# 510 "c:\users\tech\desktop\codetector\sevenSegment3DigitComplex\SevenSegment3DigitComplex.c" 1
 510  000A              	IF (1000 >= 0x40b) AND ((((1000-9)%0402h)/4+1)<=256)
 510  000A              ;# 510 "c:\users\tech\desktop\codetector\sevenSegment3DigitComplex\SevenSegment3DigitComplex.c" 1
 510  000A              	MOV A,(1000-9)/0402h
 510  000A              ;# 510 "c:\users\tech\desktop\codetector\sevenSegment3DigitComplex\SevenSegment3DigitComplex.c" 1
 510  000A              	MOV _builtin_holtek_delay_2,A
 510  000A              ;# 510 "c:\users\tech\desktop\codetector\sevenSegment3DigitComplex\SevenSegment3DigitComplex.c" 1
 510  000A              	MOV A,((1000-9)%0402h)/4+1
 510  000A              ;# 510 "c:\users\tech\desktop\codetector\sevenSegment3DigitComplex\SevenSegment3DigitComplex.c" 1
 510  000A              	CALL __DELAYY3 +3-(((1000-9)%0402h)%4)
 510  000A              	ENDIF
 511  000A              #line 511 "c:\users\tech\desktop\codetector\sevenSegment3DigitComplex\SevenSegment3DigitComplex.c"
 511  000A  2000     R  	call _clearSegment
 513  000B              #line 513 "c:\users\tech\desktop\codetector\sevenSegment3DigitComplex\SevenSegment3DigitComplex.c"
 513  000B  3499        	clr [25].1
 514  000C              #line 514 "c:\users\tech\desktop\codetector\sevenSegment3DigitComplex\SevenSegment3DigitComplex.c"
 514  000C  3515        	clr [21].2
 515  000D              #line 515 "c:\users\tech\desktop\codetector\sevenSegment3DigitComplex\SevenSegment3DigitComplex.c"
 515  000D  3599        	clr [25].3
 516  000E              #line 516 "c:\users\tech\desktop\codetector\sevenSegment3DigitComplex\SevenSegment3DigitComplex.c"
 516  000E  3498        	clr [24].1
 517  000F              #line 517 "c:\users\tech\desktop\codetector\sevenSegment3DigitComplex\SevenSegment3DigitComplex.c"
 517  000F  3114        	set [20].2
 518  0010              #line 518 "c:\users\tech\desktop\codetector\sevenSegment3DigitComplex\SevenSegment3DigitComplex.c"
 518  0010  3198        	set [24].3
 519  0011              #line 519 "c:\users\tech\desktop\codetector\sevenSegment3DigitComplex\SevenSegment3DigitComplex.c"
 519  0011              ;# 519 "c:\users\tech\desktop\codetector\sevenSegment3DigitComplex\SevenSegment3DigitComplex.c" 1
 519  0011              	IF 1000>263690
 519  0011              ;# 519 "c:\users\tech\desktop\codetector\sevenSegment3DigitComplex\SevenSegment3DigitComplex.c" 1
 519  0011              	ERRMESSAGE 'the value 1000of the argument exceeds the maxinum 263690'
 519  0011              	ENDIF
 519  0011              ;# 519 "c:\users\tech\desktop\codetector\sevenSegment3DigitComplex\SevenSegment3DigitComplex.c" 1
 519  0011              	IF 1000<0
 519  0011              ;# 519 "c:\users\tech\desktop\codetector\sevenSegment3DigitComplex\SevenSegment3DigitComplex.c" 1
 519  0011              	ERRMESSAGE 'the value 1000 of the argument exceeds the mininum 0'
 519  0011              	ENDIF
 519  0011              ;# 519 "c:\users\tech\desktop\codetector\sevenSegment3DigitComplex\SevenSegment3DigitComplex.c" 1
 519  0011              	IF 1000==0
 519  0011              ;# 519 "c:\users\tech\desktop\codetector\sevenSegment3DigitComplex\SevenSegment3DigitComplex.c" 1
 519  0011              	JMP $
 519  0011              	ENDIF
 519  0011              ;# 519 "c:\users\tech\desktop\codetector\sevenSegment3DigitComplex\SevenSegment3DigitComplex.c" 1
 519  0011              	IF 1000==1
 519  0011              ;# 519 "c:\users\tech\desktop\codetector\sevenSegment3DigitComplex\SevenSegment3DigitComplex.c" 1
 519  0011              	NOP
 519  0011              	ENDIF
 519  0011              ;# 519 "c:\users\tech\desktop\codetector\sevenSegment3DigitComplex\SevenSegment3DigitComplex.c" 1
 519  0011              	IF 1000==2
 519  0011              ;# 519 "c:\users\tech\desktop\codetector\sevenSegment3DigitComplex\SevenSegment3DigitComplex.c" 1
 519  0011              	NOP
 519  0011              ;# 519 "c:\users\tech\desktop\codetector\sevenSegment3DigitComplex\SevenSegment3DigitComplex.c" 1
 519  0011              	NOP
 519  0011              	ENDIF
 519  0011              ;# 519 "c:\users\tech\desktop\codetector\sevenSegment3DigitComplex\SevenSegment3DigitComplex.c" 1
 519  0011              	IF 1000==3
 519  0011              ;# 519 "c:\users\tech\desktop\codetector\sevenSegment3DigitComplex\SevenSegment3DigitComplex.c" 1
"File: SevenSegment3DigitComplex.c  Assembler  Version HGASM0202      Page 78

 519  0011              	NOP
 519  0011              ;# 519 "c:\users\tech\desktop\codetector\sevenSegment3DigitComplex\SevenSegment3DigitComplex.c" 1
 519  0011              	NOP
 519  0011              ;# 519 "c:\users\tech\desktop\codetector\sevenSegment3DigitComplex\SevenSegment3DigitComplex.c" 1
 519  0011              	NOP
 519  0011              	ENDIF
 519  0011              ;# 519 "c:\users\tech\desktop\codetector\sevenSegment3DigitComplex\SevenSegment3DigitComplex.c" 1
 519  0011              	IF (1000<8) AND (1000>3)
 519  0011              ;# 519 "c:\users\tech\desktop\codetector\sevenSegment3DigitComplex\SevenSegment3DigitComplex.c" 1
 519  0011              	CALL __DELAY3 + 7 -1000
 519  0011              	ENDIF
 519  0011              ;# 519 "c:\users\tech\desktop\codetector\sevenSegment3DigitComplex\SevenSegment3DigitComplex.c" 1
 519  0011              	IF (1000< 0404h) AND (1000>7)
 519  0011              ;# 519 "c:\users\tech\desktop\codetector\sevenSegment3DigitComplex\SevenSegment3DigitComplex.c" 1
 519  0011  0FF9        	MOV A,1000/4-1
 519  0012              ;# 519 "c:\users\tech\desktop\codetector\sevenSegment3DigitComplex\SevenSegment3DigitComplex.c" 1
 519  0012  2000     E  	CALL __DELAYX3 + 3 -(1000 MOD 4)
 519  0013              	ENDIF
 519  0013              ;# 519 "c:\users\tech\desktop\codetector\sevenSegment3DigitComplex\SevenSegment3DigitComplex.c" 1
 519  0013              	IF (1000< 0x40B) AND (1000> 0403h)
 519  0013              ;# 519 "c:\users\tech\desktop\codetector\sevenSegment3DigitComplex\SevenSegment3DigitComplex.c" 1
 519  0013              	MOV A,0 
 519  0013              ;# 519 "c:\users\tech\desktop\codetector\sevenSegment3DigitComplex\SevenSegment3DigitComplex.c" 1
 519  0013              	CALL __DELAYX6 + 0x40a -1000
 519  0013              	ENDIF
 519  0013              ;# 519 "c:\users\tech\desktop\codetector\sevenSegment3DigitComplex\SevenSegment3DigitComplex.c" 1
 519  0013              	IF (1000 >= 0x40b) AND ((((1000-9)%0402h)/4+1)>256)
 519  0013              ;# 519 "c:\users\tech\desktop\codetector\sevenSegment3DigitComplex\SevenSegment3DigitComplex.c" 1
 519  0013              	MOV A,(1000-9)/0402h
 519  0013              ;# 519 "c:\users\tech\desktop\codetector\sevenSegment3DigitComplex\SevenSegment3DigitComplex.c" 1
 519  0013              	MOV _builtin_holtek_delay_2,A
 519  0013              ;# 519 "c:\users\tech\desktop\codetector\sevenSegment3DigitComplex\SevenSegment3DigitComplex.c" 1
 519  0013              	MOV A,0
 519  0013              ;# 519 "c:\users\tech\desktop\codetector\sevenSegment3DigitComplex\SevenSegment3DigitComplex.c" 1
 519  0013              	CALL __DELAYY5 +5- (((1000-9)%0402h)%6)
 519  0013              	ENDIF
 519  0013              ;# 519 "c:\users\tech\desktop\codetector\sevenSegment3DigitComplex\SevenSegment3DigitComplex.c" 1
 519  0013              	IF (1000 >= 0x40b) AND ((((1000-9)%0402h)/4+1)<=256)
 519  0013              ;# 519 "c:\users\tech\desktop\codetector\sevenSegment3DigitComplex\SevenSegment3DigitComplex.c" 1
 519  0013              	MOV A,(1000-9)/0402h
 519  0013              ;# 519 "c:\users\tech\desktop\codetector\sevenSegment3DigitComplex\SevenSegment3DigitComplex.c" 1
 519  0013              	MOV _builtin_holtek_delay_2,A
 519  0013              ;# 519 "c:\users\tech\desktop\codetector\sevenSegment3DigitComplex\SevenSegment3DigitComplex.c" 1
 519  0013              	MOV A,((1000-9)%0402h)/4+1
 519  0013              ;# 519 "c:\users\tech\desktop\codetector\sevenSegment3DigitComplex\SevenSegment3DigitComplex.c" 1
 519  0013              	CALL __DELAYY3 +3-(((1000-9)%0402h)%4)
 519  0013              	ENDIF
 519  0013  0003        	ret
 519  0014              _fiveDigit2 endp
 519  0014              #line 519 "c:\users\tech\desktop\codetector\sevenSegment3DigitComplex\SevenSegment3DigitComplex.c"
 519  0014              #pragma debug scope 1 1
 519  0014              public _fiveDigit3
 519  0014              #pragma debug scope 26 1
 523  0014              #line 523 "c:\users\tech\desktop\codetector\sevenSegment3DigitComplex\SevenSegment3DigitComplex.c"
 523  0000              _fiveDigit3 .section 'code'
 523  0000              _fiveDigit3 proc
 526  0000              #line 526 "c:\users\tech\desktop\codetector\sevenSegment3DigitComplex\SevenSegment3DigitComplex.c"
 526  0000  3499        	clr [25].1
 527  0001              #line 527 "c:\users\tech\desktop\codetector\sevenSegment3DigitComplex\SevenSegment3DigitComplex.c"
 527  0001  3615        	clr [21].4
"File: SevenSegment3DigitComplex.c  Assembler  Version HGASM0202      Page 79

 528  0002              #line 528 "c:\users\tech\desktop\codetector\sevenSegment3DigitComplex\SevenSegment3DigitComplex.c"
 528  0002  3515        	clr [21].2
 529  0003              #line 529 "c:\users\tech\desktop\codetector\sevenSegment3DigitComplex\SevenSegment3DigitComplex.c"
 529  0003  3599        	clr [25].3
 530  0004              #line 530 "c:\users\tech\desktop\codetector\sevenSegment3DigitComplex\SevenSegment3DigitComplex.c"
 530  0004  3098        	set [24].1
 531  0005              #line 531 "c:\users\tech\desktop\codetector\sevenSegment3DigitComplex\SevenSegment3DigitComplex.c"
 531  0005  3614        	clr [20].4
 532  0006              #line 532 "c:\users\tech\desktop\codetector\sevenSegment3DigitComplex\SevenSegment3DigitComplex.c"
 532  0006  3514        	clr [20].2
 533  0007              #line 533 "c:\users\tech\desktop\codetector\sevenSegment3DigitComplex\SevenSegment3DigitComplex.c"
 533  0007  3598        	clr [24].3
 534  0008              #line 534 "c:\users\tech\desktop\codetector\sevenSegment3DigitComplex\SevenSegment3DigitComplex.c"
 534  0008              ;# 534 "c:\users\tech\desktop\codetector\sevenSegment3DigitComplex\SevenSegment3DigitComplex.c" 1
 534  0008              	IF 1000>263690
 534  0008              ;# 534 "c:\users\tech\desktop\codetector\sevenSegment3DigitComplex\SevenSegment3DigitComplex.c" 1
 534  0008              	ERRMESSAGE 'the value 1000of the argument exceeds the maxinum 263690'
 534  0008              	ENDIF
 534  0008              ;# 534 "c:\users\tech\desktop\codetector\sevenSegment3DigitComplex\SevenSegment3DigitComplex.c" 1
 534  0008              	IF 1000<0
 534  0008              ;# 534 "c:\users\tech\desktop\codetector\sevenSegment3DigitComplex\SevenSegment3DigitComplex.c" 1
 534  0008              	ERRMESSAGE 'the value 1000 of the argument exceeds the mininum 0'
 534  0008              	ENDIF
 534  0008              ;# 534 "c:\users\tech\desktop\codetector\sevenSegment3DigitComplex\SevenSegment3DigitComplex.c" 1
 534  0008              	IF 1000==0
 534  0008              ;# 534 "c:\users\tech\desktop\codetector\sevenSegment3DigitComplex\SevenSegment3DigitComplex.c" 1
 534  0008              	JMP $
 534  0008              	ENDIF
 534  0008              ;# 534 "c:\users\tech\desktop\codetector\sevenSegment3DigitComplex\SevenSegment3DigitComplex.c" 1
 534  0008              	IF 1000==1
 534  0008              ;# 534 "c:\users\tech\desktop\codetector\sevenSegment3DigitComplex\SevenSegment3DigitComplex.c" 1
 534  0008              	NOP
 534  0008              	ENDIF
 534  0008              ;# 534 "c:\users\tech\desktop\codetector\sevenSegment3DigitComplex\SevenSegment3DigitComplex.c" 1
 534  0008              	IF 1000==2
 534  0008              ;# 534 "c:\users\tech\desktop\codetector\sevenSegment3DigitComplex\SevenSegment3DigitComplex.c" 1
 534  0008              	NOP
 534  0008              ;# 534 "c:\users\tech\desktop\codetector\sevenSegment3DigitComplex\SevenSegment3DigitComplex.c" 1
 534  0008              	NOP
 534  0008              	ENDIF
 534  0008              ;# 534 "c:\users\tech\desktop\codetector\sevenSegment3DigitComplex\SevenSegment3DigitComplex.c" 1
 534  0008              	IF 1000==3
 534  0008              ;# 534 "c:\users\tech\desktop\codetector\sevenSegment3DigitComplex\SevenSegment3DigitComplex.c" 1
 534  0008              	NOP
 534  0008              ;# 534 "c:\users\tech\desktop\codetector\sevenSegment3DigitComplex\SevenSegment3DigitComplex.c" 1
 534  0008              	NOP
 534  0008              ;# 534 "c:\users\tech\desktop\codetector\sevenSegment3DigitComplex\SevenSegment3DigitComplex.c" 1
 534  0008              	NOP
 534  0008              	ENDIF
 534  0008              ;# 534 "c:\users\tech\desktop\codetector\sevenSegment3DigitComplex\SevenSegment3DigitComplex.c" 1
 534  0008              	IF (1000<8) AND (1000>3)
 534  0008              ;# 534 "c:\users\tech\desktop\codetector\sevenSegment3DigitComplex\SevenSegment3DigitComplex.c" 1
 534  0008              	CALL __DELAY3 + 7 -1000
 534  0008              	ENDIF
 534  0008              ;# 534 "c:\users\tech\desktop\codetector\sevenSegment3DigitComplex\SevenSegment3DigitComplex.c" 1
 534  0008              	IF (1000< 0404h) AND (1000>7)
 534  0008              ;# 534 "c:\users\tech\desktop\codetector\sevenSegment3DigitComplex\SevenSegment3DigitComplex.c" 1
 534  0008  0FF9        	MOV A,1000/4-1
 534  0009              ;# 534 "c:\users\tech\desktop\codetector\sevenSegment3DigitComplex\SevenSegment3DigitComplex.c" 1
 534  0009  2000     E  	CALL __DELAYX3 + 3 -(1000 MOD 4)
"File: SevenSegment3DigitComplex.c  Assembler  Version HGASM0202      Page 80

 534  000A              	ENDIF
 534  000A              ;# 534 "c:\users\tech\desktop\codetector\sevenSegment3DigitComplex\SevenSegment3DigitComplex.c" 1
 534  000A              	IF (1000< 0x40B) AND (1000> 0403h)
 534  000A              ;# 534 "c:\users\tech\desktop\codetector\sevenSegment3DigitComplex\SevenSegment3DigitComplex.c" 1
 534  000A              	MOV A,0 
 534  000A              ;# 534 "c:\users\tech\desktop\codetector\sevenSegment3DigitComplex\SevenSegment3DigitComplex.c" 1
 534  000A              	CALL __DELAYX6 + 0x40a -1000
 534  000A              	ENDIF
 534  000A              ;# 534 "c:\users\tech\desktop\codetector\sevenSegment3DigitComplex\SevenSegment3DigitComplex.c" 1
 534  000A              	IF (1000 >= 0x40b) AND ((((1000-9)%0402h)/4+1)>256)
 534  000A              ;# 534 "c:\users\tech\desktop\codetector\sevenSegment3DigitComplex\SevenSegment3DigitComplex.c" 1
 534  000A              	MOV A,(1000-9)/0402h
 534  000A              ;# 534 "c:\users\tech\desktop\codetector\sevenSegment3DigitComplex\SevenSegment3DigitComplex.c" 1
 534  000A              	MOV _builtin_holtek_delay_2,A
 534  000A              ;# 534 "c:\users\tech\desktop\codetector\sevenSegment3DigitComplex\SevenSegment3DigitComplex.c" 1
 534  000A              	MOV A,0
 534  000A              ;# 534 "c:\users\tech\desktop\codetector\sevenSegment3DigitComplex\SevenSegment3DigitComplex.c" 1
 534  000A              	CALL __DELAYY5 +5- (((1000-9)%0402h)%6)
 534  000A              	ENDIF
 534  000A              ;# 534 "c:\users\tech\desktop\codetector\sevenSegment3DigitComplex\SevenSegment3DigitComplex.c" 1
 534  000A              	IF (1000 >= 0x40b) AND ((((1000-9)%0402h)/4+1)<=256)
 534  000A              ;# 534 "c:\users\tech\desktop\codetector\sevenSegment3DigitComplex\SevenSegment3DigitComplex.c" 1
 534  000A              	MOV A,(1000-9)/0402h
 534  000A              ;# 534 "c:\users\tech\desktop\codetector\sevenSegment3DigitComplex\SevenSegment3DigitComplex.c" 1
 534  000A              	MOV _builtin_holtek_delay_2,A
 534  000A              ;# 534 "c:\users\tech\desktop\codetector\sevenSegment3DigitComplex\SevenSegment3DigitComplex.c" 1
 534  000A              	MOV A,((1000-9)%0402h)/4+1
 534  000A              ;# 534 "c:\users\tech\desktop\codetector\sevenSegment3DigitComplex\SevenSegment3DigitComplex.c" 1
 534  000A              	CALL __DELAYY3 +3-(((1000-9)%0402h)%4)
 534  000A              	ENDIF
 535  000A              #line 535 "c:\users\tech\desktop\codetector\sevenSegment3DigitComplex\SevenSegment3DigitComplex.c"
 535  000A  2000     R  	call _clearSegment
 537  000B              #line 537 "c:\users\tech\desktop\codetector\sevenSegment3DigitComplex\SevenSegment3DigitComplex.c"
 537  000B  3615        	clr [21].4
 538  000C              #line 538 "c:\users\tech\desktop\codetector\sevenSegment3DigitComplex\SevenSegment3DigitComplex.c"
 538  000C  3515        	clr [21].2
 539  000D              #line 539 "c:\users\tech\desktop\codetector\sevenSegment3DigitComplex\SevenSegment3DigitComplex.c"
 539  000D  3599        	clr [25].3
 540  000E              #line 540 "c:\users\tech\desktop\codetector\sevenSegment3DigitComplex\SevenSegment3DigitComplex.c"
 540  000E  3214        	set [20].4
 541  000F              #line 541 "c:\users\tech\desktop\codetector\sevenSegment3DigitComplex\SevenSegment3DigitComplex.c"
 541  000F  3514        	clr [20].2
 542  0010              #line 542 "c:\users\tech\desktop\codetector\sevenSegment3DigitComplex\SevenSegment3DigitComplex.c"
 542  0010  3598        	clr [24].3
 543  0011              #line 543 "c:\users\tech\desktop\codetector\sevenSegment3DigitComplex\SevenSegment3DigitComplex.c"
 543  0011              ;# 543 "c:\users\tech\desktop\codetector\sevenSegment3DigitComplex\SevenSegment3DigitComplex.c" 1
 543  0011              	IF 1000>263690
 543  0011              ;# 543 "c:\users\tech\desktop\codetector\sevenSegment3DigitComplex\SevenSegment3DigitComplex.c" 1
 543  0011              	ERRMESSAGE 'the value 1000of the argument exceeds the maxinum 263690'
 543  0011              	ENDIF
 543  0011              ;# 543 "c:\users\tech\desktop\codetector\sevenSegment3DigitComplex\SevenSegment3DigitComplex.c" 1
 543  0011              	IF 1000<0
 543  0011              ;# 543 "c:\users\tech\desktop\codetector\sevenSegment3DigitComplex\SevenSegment3DigitComplex.c" 1
 543  0011              	ERRMESSAGE 'the value 1000 of the argument exceeds the mininum 0'
 543  0011              	ENDIF
 543  0011              ;# 543 "c:\users\tech\desktop\codetector\sevenSegment3DigitComplex\SevenSegment3DigitComplex.c" 1
 543  0011              	IF 1000==0
 543  0011              ;# 543 "c:\users\tech\desktop\codetector\sevenSegment3DigitComplex\SevenSegment3DigitComplex.c" 1
 543  0011              	JMP $
 543  0011              	ENDIF
"File: SevenSegment3DigitComplex.c  Assembler  Version HGASM0202      Page 81

 543  0011              ;# 543 "c:\users\tech\desktop\codetector\sevenSegment3DigitComplex\SevenSegment3DigitComplex.c" 1
 543  0011              	IF 1000==1
 543  0011              ;# 543 "c:\users\tech\desktop\codetector\sevenSegment3DigitComplex\SevenSegment3DigitComplex.c" 1
 543  0011              	NOP
 543  0011              	ENDIF
 543  0011              ;# 543 "c:\users\tech\desktop\codetector\sevenSegment3DigitComplex\SevenSegment3DigitComplex.c" 1
 543  0011              	IF 1000==2
 543  0011              ;# 543 "c:\users\tech\desktop\codetector\sevenSegment3DigitComplex\SevenSegment3DigitComplex.c" 1
 543  0011              	NOP
 543  0011              ;# 543 "c:\users\tech\desktop\codetector\sevenSegment3DigitComplex\SevenSegment3DigitComplex.c" 1
 543  0011              	NOP
 543  0011              	ENDIF
 543  0011              ;# 543 "c:\users\tech\desktop\codetector\sevenSegment3DigitComplex\SevenSegment3DigitComplex.c" 1
 543  0011              	IF 1000==3
 543  0011              ;# 543 "c:\users\tech\desktop\codetector\sevenSegment3DigitComplex\SevenSegment3DigitComplex.c" 1
 543  0011              	NOP
 543  0011              ;# 543 "c:\users\tech\desktop\codetector\sevenSegment3DigitComplex\SevenSegment3DigitComplex.c" 1
 543  0011              	NOP
 543  0011              ;# 543 "c:\users\tech\desktop\codetector\sevenSegment3DigitComplex\SevenSegment3DigitComplex.c" 1
 543  0011              	NOP
 543  0011              	ENDIF
 543  0011              ;# 543 "c:\users\tech\desktop\codetector\sevenSegment3DigitComplex\SevenSegment3DigitComplex.c" 1
 543  0011              	IF (1000<8) AND (1000>3)
 543  0011              ;# 543 "c:\users\tech\desktop\codetector\sevenSegment3DigitComplex\SevenSegment3DigitComplex.c" 1
 543  0011              	CALL __DELAY3 + 7 -1000
 543  0011              	ENDIF
 543  0011              ;# 543 "c:\users\tech\desktop\codetector\sevenSegment3DigitComplex\SevenSegment3DigitComplex.c" 1
 543  0011              	IF (1000< 0404h) AND (1000>7)
 543  0011              ;# 543 "c:\users\tech\desktop\codetector\sevenSegment3DigitComplex\SevenSegment3DigitComplex.c" 1
 543  0011  0FF9        	MOV A,1000/4-1
 543  0012              ;# 543 "c:\users\tech\desktop\codetector\sevenSegment3DigitComplex\SevenSegment3DigitComplex.c" 1
 543  0012  2000     E  	CALL __DELAYX3 + 3 -(1000 MOD 4)
 543  0013              	ENDIF
 543  0013              ;# 543 "c:\users\tech\desktop\codetector\sevenSegment3DigitComplex\SevenSegment3DigitComplex.c" 1
 543  0013              	IF (1000< 0x40B) AND (1000> 0403h)
 543  0013              ;# 543 "c:\users\tech\desktop\codetector\sevenSegment3DigitComplex\SevenSegment3DigitComplex.c" 1
 543  0013              	MOV A,0 
 543  0013              ;# 543 "c:\users\tech\desktop\codetector\sevenSegment3DigitComplex\SevenSegment3DigitComplex.c" 1
 543  0013              	CALL __DELAYX6 + 0x40a -1000
 543  0013              	ENDIF
 543  0013              ;# 543 "c:\users\tech\desktop\codetector\sevenSegment3DigitComplex\SevenSegment3DigitComplex.c" 1
 543  0013              	IF (1000 >= 0x40b) AND ((((1000-9)%0402h)/4+1)>256)
 543  0013              ;# 543 "c:\users\tech\desktop\codetector\sevenSegment3DigitComplex\SevenSegment3DigitComplex.c" 1
 543  0013              	MOV A,(1000-9)/0402h
 543  0013              ;# 543 "c:\users\tech\desktop\codetector\sevenSegment3DigitComplex\SevenSegment3DigitComplex.c" 1
 543  0013              	MOV _builtin_holtek_delay_2,A
 543  0013              ;# 543 "c:\users\tech\desktop\codetector\sevenSegment3DigitComplex\SevenSegment3DigitComplex.c" 1
 543  0013              	MOV A,0
 543  0013              ;# 543 "c:\users\tech\desktop\codetector\sevenSegment3DigitComplex\SevenSegment3DigitComplex.c" 1
 543  0013              	CALL __DELAYY5 +5- (((1000-9)%0402h)%6)
 543  0013              	ENDIF
 543  0013              ;# 543 "c:\users\tech\desktop\codetector\sevenSegment3DigitComplex\SevenSegment3DigitComplex.c" 1
 543  0013              	IF (1000 >= 0x40b) AND ((((1000-9)%0402h)/4+1)<=256)
 543  0013              ;# 543 "c:\users\tech\desktop\codetector\sevenSegment3DigitComplex\SevenSegment3DigitComplex.c" 1
 543  0013              	MOV A,(1000-9)/0402h
 543  0013              ;# 543 "c:\users\tech\desktop\codetector\sevenSegment3DigitComplex\SevenSegment3DigitComplex.c" 1
 543  0013              	MOV _builtin_holtek_delay_2,A
 543  0013              ;# 543 "c:\users\tech\desktop\codetector\sevenSegment3DigitComplex\SevenSegment3DigitComplex.c" 1
 543  0013              	MOV A,((1000-9)%0402h)/4+1
 543  0013              ;# 543 "c:\users\tech\desktop\codetector\sevenSegment3DigitComplex\SevenSegment3DigitComplex.c" 1
"File: SevenSegment3DigitComplex.c  Assembler  Version HGASM0202      Page 82

 543  0013              	CALL __DELAYY3 +3-(((1000-9)%0402h)%4)
 543  0013              	ENDIF
 543  0013  0003        	ret
 543  0014              _fiveDigit3 endp
 543  0014              #line 543 "c:\users\tech\desktop\codetector\sevenSegment3DigitComplex\SevenSegment3DigitComplex.c"
 543  0014              #pragma debug scope 1 1
 543  0014              public _sixDigit1
 543  0014              #pragma debug scope 27 1
 548  0014              #line 548 "c:\users\tech\desktop\codetector\sevenSegment3DigitComplex\SevenSegment3DigitComplex.c"
 548  0000              _sixDigit1 .section 'code'
 548  0000              _sixDigit1 proc
 551  0000              #line 551 "c:\users\tech\desktop\codetector\sevenSegment3DigitComplex\SevenSegment3DigitComplex.c"
 551  0000  3519        	clr [25].2
 552  0001              #line 552 "c:\users\tech\desktop\codetector\sevenSegment3DigitComplex\SevenSegment3DigitComplex.c"
 552  0001  3499        	clr [25].1
 553  0002              #line 553 "c:\users\tech\desktop\codetector\sevenSegment3DigitComplex\SevenSegment3DigitComplex.c"
 553  0002  3415        	clr [21].0
 554  0003              #line 554 "c:\users\tech\desktop\codetector\sevenSegment3DigitComplex\SevenSegment3DigitComplex.c"
 554  0003  3515        	clr [21].2
 555  0004              #line 555 "c:\users\tech\desktop\codetector\sevenSegment3DigitComplex\SevenSegment3DigitComplex.c"
 555  0004  3599        	clr [25].3
 556  0005              #line 556 "c:\users\tech\desktop\codetector\sevenSegment3DigitComplex\SevenSegment3DigitComplex.c"
 556  0005  3518        	clr [24].2
 557  0006              #line 557 "c:\users\tech\desktop\codetector\sevenSegment3DigitComplex\SevenSegment3DigitComplex.c"
 557  0006  3098        	set [24].1
 558  0007              #line 558 "c:\users\tech\desktop\codetector\sevenSegment3DigitComplex\SevenSegment3DigitComplex.c"
 558  0007  3014        	set [20].0
 559  0008              #line 559 "c:\users\tech\desktop\codetector\sevenSegment3DigitComplex\SevenSegment3DigitComplex.c"
 559  0008  3114        	set [20].2
 560  0009              #line 560 "c:\users\tech\desktop\codetector\sevenSegment3DigitComplex\SevenSegment3DigitComplex.c"
 560  0009  3198        	set [24].3
 561  000A              #line 561 "c:\users\tech\desktop\codetector\sevenSegment3DigitComplex\SevenSegment3DigitComplex.c"
 561  000A              ;# 561 "c:\users\tech\desktop\codetector\sevenSegment3DigitComplex\SevenSegment3DigitComplex.c" 1
 561  000A              	IF 1000>263690
 561  000A              ;# 561 "c:\users\tech\desktop\codetector\sevenSegment3DigitComplex\SevenSegment3DigitComplex.c" 1
 561  000A              	ERRMESSAGE 'the value 1000of the argument exceeds the maxinum 263690'
 561  000A              	ENDIF
 561  000A              ;# 561 "c:\users\tech\desktop\codetector\sevenSegment3DigitComplex\SevenSegment3DigitComplex.c" 1
 561  000A              	IF 1000<0
 561  000A              ;# 561 "c:\users\tech\desktop\codetector\sevenSegment3DigitComplex\SevenSegment3DigitComplex.c" 1
 561  000A              	ERRMESSAGE 'the value 1000 of the argument exceeds the mininum 0'
 561  000A              	ENDIF
 561  000A              ;# 561 "c:\users\tech\desktop\codetector\sevenSegment3DigitComplex\SevenSegment3DigitComplex.c" 1
 561  000A              	IF 1000==0
 561  000A              ;# 561 "c:\users\tech\desktop\codetector\sevenSegment3DigitComplex\SevenSegment3DigitComplex.c" 1
 561  000A              	JMP $
 561  000A              	ENDIF
 561  000A              ;# 561 "c:\users\tech\desktop\codetector\sevenSegment3DigitComplex\SevenSegment3DigitComplex.c" 1
 561  000A              	IF 1000==1
 561  000A              ;# 561 "c:\users\tech\desktop\codetector\sevenSegment3DigitComplex\SevenSegment3DigitComplex.c" 1
 561  000A              	NOP
 561  000A              	ENDIF
 561  000A              ;# 561 "c:\users\tech\desktop\codetector\sevenSegment3DigitComplex\SevenSegment3DigitComplex.c" 1
 561  000A              	IF 1000==2
 561  000A              ;# 561 "c:\users\tech\desktop\codetector\sevenSegment3DigitComplex\SevenSegment3DigitComplex.c" 1
 561  000A              	NOP
 561  000A              ;# 561 "c:\users\tech\desktop\codetector\sevenSegment3DigitComplex\SevenSegment3DigitComplex.c" 1
 561  000A              	NOP
 561  000A              	ENDIF
 561  000A              ;# 561 "c:\users\tech\desktop\codetector\sevenSegment3DigitComplex\SevenSegment3DigitComplex.c" 1
"File: SevenSegment3DigitComplex.c  Assembler  Version HGASM0202      Page 83

 561  000A              	IF 1000==3
 561  000A              ;# 561 "c:\users\tech\desktop\codetector\sevenSegment3DigitComplex\SevenSegment3DigitComplex.c" 1
 561  000A              	NOP
 561  000A              ;# 561 "c:\users\tech\desktop\codetector\sevenSegment3DigitComplex\SevenSegment3DigitComplex.c" 1
 561  000A              	NOP
 561  000A              ;# 561 "c:\users\tech\desktop\codetector\sevenSegment3DigitComplex\SevenSegment3DigitComplex.c" 1
 561  000A              	NOP
 561  000A              	ENDIF
 561  000A              ;# 561 "c:\users\tech\desktop\codetector\sevenSegment3DigitComplex\SevenSegment3DigitComplex.c" 1
 561  000A              	IF (1000<8) AND (1000>3)
 561  000A              ;# 561 "c:\users\tech\desktop\codetector\sevenSegment3DigitComplex\SevenSegment3DigitComplex.c" 1
 561  000A              	CALL __DELAY3 + 7 -1000
 561  000A              	ENDIF
 561  000A              ;# 561 "c:\users\tech\desktop\codetector\sevenSegment3DigitComplex\SevenSegment3DigitComplex.c" 1
 561  000A              	IF (1000< 0404h) AND (1000>7)
 561  000A              ;# 561 "c:\users\tech\desktop\codetector\sevenSegment3DigitComplex\SevenSegment3DigitComplex.c" 1
 561  000A  0FF9        	MOV A,1000/4-1
 561  000B              ;# 561 "c:\users\tech\desktop\codetector\sevenSegment3DigitComplex\SevenSegment3DigitComplex.c" 1
 561  000B  2000     E  	CALL __DELAYX3 + 3 -(1000 MOD 4)
 561  000C              	ENDIF
 561  000C              ;# 561 "c:\users\tech\desktop\codetector\sevenSegment3DigitComplex\SevenSegment3DigitComplex.c" 1
 561  000C              	IF (1000< 0x40B) AND (1000> 0403h)
 561  000C              ;# 561 "c:\users\tech\desktop\codetector\sevenSegment3DigitComplex\SevenSegment3DigitComplex.c" 1
 561  000C              	MOV A,0 
 561  000C              ;# 561 "c:\users\tech\desktop\codetector\sevenSegment3DigitComplex\SevenSegment3DigitComplex.c" 1
 561  000C              	CALL __DELAYX6 + 0x40a -1000
 561  000C              	ENDIF
 561  000C              ;# 561 "c:\users\tech\desktop\codetector\sevenSegment3DigitComplex\SevenSegment3DigitComplex.c" 1
 561  000C              	IF (1000 >= 0x40b) AND ((((1000-9)%0402h)/4+1)>256)
 561  000C              ;# 561 "c:\users\tech\desktop\codetector\sevenSegment3DigitComplex\SevenSegment3DigitComplex.c" 1
 561  000C              	MOV A,(1000-9)/0402h
 561  000C              ;# 561 "c:\users\tech\desktop\codetector\sevenSegment3DigitComplex\SevenSegment3DigitComplex.c" 1
 561  000C              	MOV _builtin_holtek_delay_2,A
 561  000C              ;# 561 "c:\users\tech\desktop\codetector\sevenSegment3DigitComplex\SevenSegment3DigitComplex.c" 1
 561  000C              	MOV A,0
 561  000C              ;# 561 "c:\users\tech\desktop\codetector\sevenSegment3DigitComplex\SevenSegment3DigitComplex.c" 1
 561  000C              	CALL __DELAYY5 +5- (((1000-9)%0402h)%6)
 561  000C              	ENDIF
 561  000C              ;# 561 "c:\users\tech\desktop\codetector\sevenSegment3DigitComplex\SevenSegment3DigitComplex.c" 1
 561  000C              	IF (1000 >= 0x40b) AND ((((1000-9)%0402h)/4+1)<=256)
 561  000C              ;# 561 "c:\users\tech\desktop\codetector\sevenSegment3DigitComplex\SevenSegment3DigitComplex.c" 1
 561  000C              	MOV A,(1000-9)/0402h
 561  000C              ;# 561 "c:\users\tech\desktop\codetector\sevenSegment3DigitComplex\SevenSegment3DigitComplex.c" 1
 561  000C              	MOV _builtin_holtek_delay_2,A
 561  000C              ;# 561 "c:\users\tech\desktop\codetector\sevenSegment3DigitComplex\SevenSegment3DigitComplex.c" 1
 561  000C              	MOV A,((1000-9)%0402h)/4+1
 561  000C              ;# 561 "c:\users\tech\desktop\codetector\sevenSegment3DigitComplex\SevenSegment3DigitComplex.c" 1
 561  000C              	CALL __DELAYY3 +3-(((1000-9)%0402h)%4)
 561  000C              	ENDIF
 562  000C              #line 562 "c:\users\tech\desktop\codetector\sevenSegment3DigitComplex\SevenSegment3DigitComplex.c"
 562  000C  2000     R  	call _clearSegment
 563  000D              #line 563 "c:\users\tech\desktop\codetector\sevenSegment3DigitComplex\SevenSegment3DigitComplex.c"
 563  000D  3499        	clr [25].1
 564  000E              #line 564 "c:\users\tech\desktop\codetector\sevenSegment3DigitComplex\SevenSegment3DigitComplex.c"
 564  000E  3615        	clr [21].4
 565  000F              #line 565 "c:\users\tech\desktop\codetector\sevenSegment3DigitComplex\SevenSegment3DigitComplex.c"
 565  000F  3415        	clr [21].0
 566  0010              #line 566 "c:\users\tech\desktop\codetector\sevenSegment3DigitComplex\SevenSegment3DigitComplex.c"
 566  0010  3498        	clr [24].1
 567  0011              #line 567 "c:\users\tech\desktop\codetector\sevenSegment3DigitComplex\SevenSegment3DigitComplex.c"
"File: SevenSegment3DigitComplex.c  Assembler  Version HGASM0202      Page 84

 567  0011  3214        	set [20].4
 568  0012              #line 568 "c:\users\tech\desktop\codetector\sevenSegment3DigitComplex\SevenSegment3DigitComplex.c"
 568  0012  3014        	set [20].0
 569  0013              #line 569 "c:\users\tech\desktop\codetector\sevenSegment3DigitComplex\SevenSegment3DigitComplex.c"
 569  0013              ;# 569 "c:\users\tech\desktop\codetector\sevenSegment3DigitComplex\SevenSegment3DigitComplex.c" 1
 569  0013              	IF 1000>263690
 569  0013              ;# 569 "c:\users\tech\desktop\codetector\sevenSegment3DigitComplex\SevenSegment3DigitComplex.c" 1
 569  0013              	ERRMESSAGE 'the value 1000of the argument exceeds the maxinum 263690'
 569  0013              	ENDIF
 569  0013              ;# 569 "c:\users\tech\desktop\codetector\sevenSegment3DigitComplex\SevenSegment3DigitComplex.c" 1
 569  0013              	IF 1000<0
 569  0013              ;# 569 "c:\users\tech\desktop\codetector\sevenSegment3DigitComplex\SevenSegment3DigitComplex.c" 1
 569  0013              	ERRMESSAGE 'the value 1000 of the argument exceeds the mininum 0'
 569  0013              	ENDIF
 569  0013              ;# 569 "c:\users\tech\desktop\codetector\sevenSegment3DigitComplex\SevenSegment3DigitComplex.c" 1
 569  0013              	IF 1000==0
 569  0013              ;# 569 "c:\users\tech\desktop\codetector\sevenSegment3DigitComplex\SevenSegment3DigitComplex.c" 1
 569  0013              	JMP $
 569  0013              	ENDIF
 569  0013              ;# 569 "c:\users\tech\desktop\codetector\sevenSegment3DigitComplex\SevenSegment3DigitComplex.c" 1
 569  0013              	IF 1000==1
 569  0013              ;# 569 "c:\users\tech\desktop\codetector\sevenSegment3DigitComplex\SevenSegment3DigitComplex.c" 1
 569  0013              	NOP
 569  0013              	ENDIF
 569  0013              ;# 569 "c:\users\tech\desktop\codetector\sevenSegment3DigitComplex\SevenSegment3DigitComplex.c" 1
 569  0013              	IF 1000==2
 569  0013              ;# 569 "c:\users\tech\desktop\codetector\sevenSegment3DigitComplex\SevenSegment3DigitComplex.c" 1
 569  0013              	NOP
 569  0013              ;# 569 "c:\users\tech\desktop\codetector\sevenSegment3DigitComplex\SevenSegment3DigitComplex.c" 1
 569  0013              	NOP
 569  0013              	ENDIF
 569  0013              ;# 569 "c:\users\tech\desktop\codetector\sevenSegment3DigitComplex\SevenSegment3DigitComplex.c" 1
 569  0013              	IF 1000==3
 569  0013              ;# 569 "c:\users\tech\desktop\codetector\sevenSegment3DigitComplex\SevenSegment3DigitComplex.c" 1
 569  0013              	NOP
 569  0013              ;# 569 "c:\users\tech\desktop\codetector\sevenSegment3DigitComplex\SevenSegment3DigitComplex.c" 1
 569  0013              	NOP
 569  0013              ;# 569 "c:\users\tech\desktop\codetector\sevenSegment3DigitComplex\SevenSegment3DigitComplex.c" 1
 569  0013              	NOP
 569  0013              	ENDIF
 569  0013              ;# 569 "c:\users\tech\desktop\codetector\sevenSegment3DigitComplex\SevenSegment3DigitComplex.c" 1
 569  0013              	IF (1000<8) AND (1000>3)
 569  0013              ;# 569 "c:\users\tech\desktop\codetector\sevenSegment3DigitComplex\SevenSegment3DigitComplex.c" 1
 569  0013              	CALL __DELAY3 + 7 -1000
 569  0013              	ENDIF
 569  0013              ;# 569 "c:\users\tech\desktop\codetector\sevenSegment3DigitComplex\SevenSegment3DigitComplex.c" 1
 569  0013              	IF (1000< 0404h) AND (1000>7)
 569  0013              ;# 569 "c:\users\tech\desktop\codetector\sevenSegment3DigitComplex\SevenSegment3DigitComplex.c" 1
 569  0013  0FF9        	MOV A,1000/4-1
 569  0014              ;# 569 "c:\users\tech\desktop\codetector\sevenSegment3DigitComplex\SevenSegment3DigitComplex.c" 1
 569  0014  2000     E  	CALL __DELAYX3 + 3 -(1000 MOD 4)
 569  0015              	ENDIF
 569  0015              ;# 569 "c:\users\tech\desktop\codetector\sevenSegment3DigitComplex\SevenSegment3DigitComplex.c" 1
 569  0015              	IF (1000< 0x40B) AND (1000> 0403h)
 569  0015              ;# 569 "c:\users\tech\desktop\codetector\sevenSegment3DigitComplex\SevenSegment3DigitComplex.c" 1
 569  0015              	MOV A,0 
 569  0015              ;# 569 "c:\users\tech\desktop\codetector\sevenSegment3DigitComplex\SevenSegment3DigitComplex.c" 1
 569  0015              	CALL __DELAYX6 + 0x40a -1000
 569  0015              	ENDIF
 569  0015              ;# 569 "c:\users\tech\desktop\codetector\sevenSegment3DigitComplex\SevenSegment3DigitComplex.c" 1
"File: SevenSegment3DigitComplex.c  Assembler  Version HGASM0202      Page 85

 569  0015              	IF (1000 >= 0x40b) AND ((((1000-9)%0402h)/4+1)>256)
 569  0015              ;# 569 "c:\users\tech\desktop\codetector\sevenSegment3DigitComplex\SevenSegment3DigitComplex.c" 1
 569  0015              	MOV A,(1000-9)/0402h
 569  0015              ;# 569 "c:\users\tech\desktop\codetector\sevenSegment3DigitComplex\SevenSegment3DigitComplex.c" 1
 569  0015              	MOV _builtin_holtek_delay_2,A
 569  0015              ;# 569 "c:\users\tech\desktop\codetector\sevenSegment3DigitComplex\SevenSegment3DigitComplex.c" 1
 569  0015              	MOV A,0
 569  0015              ;# 569 "c:\users\tech\desktop\codetector\sevenSegment3DigitComplex\SevenSegment3DigitComplex.c" 1
 569  0015              	CALL __DELAYY5 +5- (((1000-9)%0402h)%6)
 569  0015              	ENDIF
 569  0015              ;# 569 "c:\users\tech\desktop\codetector\sevenSegment3DigitComplex\SevenSegment3DigitComplex.c" 1
 569  0015              	IF (1000 >= 0x40b) AND ((((1000-9)%0402h)/4+1)<=256)
 569  0015              ;# 569 "c:\users\tech\desktop\codetector\sevenSegment3DigitComplex\SevenSegment3DigitComplex.c" 1
 569  0015              	MOV A,(1000-9)/0402h
 569  0015              ;# 569 "c:\users\tech\desktop\codetector\sevenSegment3DigitComplex\SevenSegment3DigitComplex.c" 1
 569  0015              	MOV _builtin_holtek_delay_2,A
 569  0015              ;# 569 "c:\users\tech\desktop\codetector\sevenSegment3DigitComplex\SevenSegment3DigitComplex.c" 1
 569  0015              	MOV A,((1000-9)%0402h)/4+1
 569  0015              ;# 569 "c:\users\tech\desktop\codetector\sevenSegment3DigitComplex\SevenSegment3DigitComplex.c" 1
 569  0015              	CALL __DELAYY3 +3-(((1000-9)%0402h)%4)
 569  0015              	ENDIF
 569  0015  0003        	ret
 569  0016              _sixDigit1 endp
 569  0016              #line 569 "c:\users\tech\desktop\codetector\sevenSegment3DigitComplex\SevenSegment3DigitComplex.c"
 569  0016              #pragma debug scope 1 1
 569  0016              public _sixDigit2
 569  0016              #pragma debug scope 28 1
 573  0016              #line 573 "c:\users\tech\desktop\codetector\sevenSegment3DigitComplex\SevenSegment3DigitComplex.c"
 573  0000              _sixDigit2 .section 'code'
 573  0000              _sixDigit2 proc
 577  0000              #line 577 "c:\users\tech\desktop\codetector\sevenSegment3DigitComplex\SevenSegment3DigitComplex.c"
 577  0000  3519        	clr [25].2
 578  0001              #line 578 "c:\users\tech\desktop\codetector\sevenSegment3DigitComplex\SevenSegment3DigitComplex.c"
 578  0001  3499        	clr [25].1
 579  0002              #line 579 "c:\users\tech\desktop\codetector\sevenSegment3DigitComplex\SevenSegment3DigitComplex.c"
 579  0002  3415        	clr [21].0
 580  0003              #line 580 "c:\users\tech\desktop\codetector\sevenSegment3DigitComplex\SevenSegment3DigitComplex.c"
 580  0003  3515        	clr [21].2
 581  0004              #line 581 "c:\users\tech\desktop\codetector\sevenSegment3DigitComplex\SevenSegment3DigitComplex.c"
 581  0004  3599        	clr [25].3
 582  0005              #line 582 "c:\users\tech\desktop\codetector\sevenSegment3DigitComplex\SevenSegment3DigitComplex.c"
 582  0005  3118        	set [24].2
 583  0006              #line 583 "c:\users\tech\desktop\codetector\sevenSegment3DigitComplex\SevenSegment3DigitComplex.c"
 583  0006  3498        	clr [24].1
 584  0007              #line 584 "c:\users\tech\desktop\codetector\sevenSegment3DigitComplex\SevenSegment3DigitComplex.c"
 584  0007  3414        	clr [20].0
 585  0008              #line 585 "c:\users\tech\desktop\codetector\sevenSegment3DigitComplex\SevenSegment3DigitComplex.c"
 585  0008  3514        	clr [20].2
 586  0009              #line 586 "c:\users\tech\desktop\codetector\sevenSegment3DigitComplex\SevenSegment3DigitComplex.c"
 586  0009  3598        	clr [24].3
 587  000A              #line 587 "c:\users\tech\desktop\codetector\sevenSegment3DigitComplex\SevenSegment3DigitComplex.c"
 587  000A              ;# 587 "c:\users\tech\desktop\codetector\sevenSegment3DigitComplex\SevenSegment3DigitComplex.c" 1
 587  000A              	IF 1000>263690
 587  000A              ;# 587 "c:\users\tech\desktop\codetector\sevenSegment3DigitComplex\SevenSegment3DigitComplex.c" 1
 587  000A              	ERRMESSAGE 'the value 1000of the argument exceeds the maxinum 263690'
 587  000A              	ENDIF
 587  000A              ;# 587 "c:\users\tech\desktop\codetector\sevenSegment3DigitComplex\SevenSegment3DigitComplex.c" 1
 587  000A              	IF 1000<0
 587  000A              ;# 587 "c:\users\tech\desktop\codetector\sevenSegment3DigitComplex\SevenSegment3DigitComplex.c" 1
 587  000A              	ERRMESSAGE 'the value 1000 of the argument exceeds the mininum 0'
"File: SevenSegment3DigitComplex.c  Assembler  Version HGASM0202      Page 86

 587  000A              	ENDIF
 587  000A              ;# 587 "c:\users\tech\desktop\codetector\sevenSegment3DigitComplex\SevenSegment3DigitComplex.c" 1
 587  000A              	IF 1000==0
 587  000A              ;# 587 "c:\users\tech\desktop\codetector\sevenSegment3DigitComplex\SevenSegment3DigitComplex.c" 1
 587  000A              	JMP $
 587  000A              	ENDIF
 587  000A              ;# 587 "c:\users\tech\desktop\codetector\sevenSegment3DigitComplex\SevenSegment3DigitComplex.c" 1
 587  000A              	IF 1000==1
 587  000A              ;# 587 "c:\users\tech\desktop\codetector\sevenSegment3DigitComplex\SevenSegment3DigitComplex.c" 1
 587  000A              	NOP
 587  000A              	ENDIF
 587  000A              ;# 587 "c:\users\tech\desktop\codetector\sevenSegment3DigitComplex\SevenSegment3DigitComplex.c" 1
 587  000A              	IF 1000==2
 587  000A              ;# 587 "c:\users\tech\desktop\codetector\sevenSegment3DigitComplex\SevenSegment3DigitComplex.c" 1
 587  000A              	NOP
 587  000A              ;# 587 "c:\users\tech\desktop\codetector\sevenSegment3DigitComplex\SevenSegment3DigitComplex.c" 1
 587  000A              	NOP
 587  000A              	ENDIF
 587  000A              ;# 587 "c:\users\tech\desktop\codetector\sevenSegment3DigitComplex\SevenSegment3DigitComplex.c" 1
 587  000A              	IF 1000==3
 587  000A              ;# 587 "c:\users\tech\desktop\codetector\sevenSegment3DigitComplex\SevenSegment3DigitComplex.c" 1
 587  000A              	NOP
 587  000A              ;# 587 "c:\users\tech\desktop\codetector\sevenSegment3DigitComplex\SevenSegment3DigitComplex.c" 1
 587  000A              	NOP
 587  000A              ;# 587 "c:\users\tech\desktop\codetector\sevenSegment3DigitComplex\SevenSegment3DigitComplex.c" 1
 587  000A              	NOP
 587  000A              	ENDIF
 587  000A              ;# 587 "c:\users\tech\desktop\codetector\sevenSegment3DigitComplex\SevenSegment3DigitComplex.c" 1
 587  000A              	IF (1000<8) AND (1000>3)
 587  000A              ;# 587 "c:\users\tech\desktop\codetector\sevenSegment3DigitComplex\SevenSegment3DigitComplex.c" 1
 587  000A              	CALL __DELAY3 + 7 -1000
 587  000A              	ENDIF
 587  000A              ;# 587 "c:\users\tech\desktop\codetector\sevenSegment3DigitComplex\SevenSegment3DigitComplex.c" 1
 587  000A              	IF (1000< 0404h) AND (1000>7)
 587  000A              ;# 587 "c:\users\tech\desktop\codetector\sevenSegment3DigitComplex\SevenSegment3DigitComplex.c" 1
 587  000A  0FF9        	MOV A,1000/4-1
 587  000B              ;# 587 "c:\users\tech\desktop\codetector\sevenSegment3DigitComplex\SevenSegment3DigitComplex.c" 1
 587  000B  2000     E  	CALL __DELAYX3 + 3 -(1000 MOD 4)
 587  000C              	ENDIF
 587  000C              ;# 587 "c:\users\tech\desktop\codetector\sevenSegment3DigitComplex\SevenSegment3DigitComplex.c" 1
 587  000C              	IF (1000< 0x40B) AND (1000> 0403h)
 587  000C              ;# 587 "c:\users\tech\desktop\codetector\sevenSegment3DigitComplex\SevenSegment3DigitComplex.c" 1
 587  000C              	MOV A,0 
 587  000C              ;# 587 "c:\users\tech\desktop\codetector\sevenSegment3DigitComplex\SevenSegment3DigitComplex.c" 1
 587  000C              	CALL __DELAYX6 + 0x40a -1000
 587  000C              	ENDIF
 587  000C              ;# 587 "c:\users\tech\desktop\codetector\sevenSegment3DigitComplex\SevenSegment3DigitComplex.c" 1
 587  000C              	IF (1000 >= 0x40b) AND ((((1000-9)%0402h)/4+1)>256)
 587  000C              ;# 587 "c:\users\tech\desktop\codetector\sevenSegment3DigitComplex\SevenSegment3DigitComplex.c" 1
 587  000C              	MOV A,(1000-9)/0402h
 587  000C              ;# 587 "c:\users\tech\desktop\codetector\sevenSegment3DigitComplex\SevenSegment3DigitComplex.c" 1
 587  000C              	MOV _builtin_holtek_delay_2,A
 587  000C              ;# 587 "c:\users\tech\desktop\codetector\sevenSegment3DigitComplex\SevenSegment3DigitComplex.c" 1
 587  000C              	MOV A,0
 587  000C              ;# 587 "c:\users\tech\desktop\codetector\sevenSegment3DigitComplex\SevenSegment3DigitComplex.c" 1
 587  000C              	CALL __DELAYY5 +5- (((1000-9)%0402h)%6)
 587  000C              	ENDIF
 587  000C              ;# 587 "c:\users\tech\desktop\codetector\sevenSegment3DigitComplex\SevenSegment3DigitComplex.c" 1
 587  000C              	IF (1000 >= 0x40b) AND ((((1000-9)%0402h)/4+1)<=256)
 587  000C              ;# 587 "c:\users\tech\desktop\codetector\sevenSegment3DigitComplex\SevenSegment3DigitComplex.c" 1
"File: SevenSegment3DigitComplex.c  Assembler  Version HGASM0202      Page 87

 587  000C              	MOV A,(1000-9)/0402h
 587  000C              ;# 587 "c:\users\tech\desktop\codetector\sevenSegment3DigitComplex\SevenSegment3DigitComplex.c" 1
 587  000C              	MOV _builtin_holtek_delay_2,A
 587  000C              ;# 587 "c:\users\tech\desktop\codetector\sevenSegment3DigitComplex\SevenSegment3DigitComplex.c" 1
 587  000C              	MOV A,((1000-9)%0402h)/4+1
 587  000C              ;# 587 "c:\users\tech\desktop\codetector\sevenSegment3DigitComplex\SevenSegment3DigitComplex.c" 1
 587  000C              	CALL __DELAYY3 +3-(((1000-9)%0402h)%4)
 587  000C              	ENDIF
 588  000C              #line 588 "c:\users\tech\desktop\codetector\sevenSegment3DigitComplex\SevenSegment3DigitComplex.c"
 588  000C  2000     R  	call _clearSegment
 590  000D              #line 590 "c:\users\tech\desktop\codetector\sevenSegment3DigitComplex\SevenSegment3DigitComplex.c"
 590  000D  3499        	clr [25].1
 591  000E              #line 591 "c:\users\tech\desktop\codetector\sevenSegment3DigitComplex\SevenSegment3DigitComplex.c"
 591  000E  3515        	clr [21].2
 592  000F              #line 592 "c:\users\tech\desktop\codetector\sevenSegment3DigitComplex\SevenSegment3DigitComplex.c"
 592  000F  3599        	clr [25].3
 593  0010              #line 593 "c:\users\tech\desktop\codetector\sevenSegment3DigitComplex\SevenSegment3DigitComplex.c"
 593  0010  3498        	clr [24].1
 594  0011              #line 594 "c:\users\tech\desktop\codetector\sevenSegment3DigitComplex\SevenSegment3DigitComplex.c"
 594  0011  3114        	set [20].2
 595  0012              #line 595 "c:\users\tech\desktop\codetector\sevenSegment3DigitComplex\SevenSegment3DigitComplex.c"
 595  0012  3198        	set [24].3
 596  0013              #line 596 "c:\users\tech\desktop\codetector\sevenSegment3DigitComplex\SevenSegment3DigitComplex.c"
 596  0013              ;# 596 "c:\users\tech\desktop\codetector\sevenSegment3DigitComplex\SevenSegment3DigitComplex.c" 1
 596  0013              	IF 1000>263690
 596  0013              ;# 596 "c:\users\tech\desktop\codetector\sevenSegment3DigitComplex\SevenSegment3DigitComplex.c" 1
 596  0013              	ERRMESSAGE 'the value 1000of the argument exceeds the maxinum 263690'
 596  0013              	ENDIF
 596  0013              ;# 596 "c:\users\tech\desktop\codetector\sevenSegment3DigitComplex\SevenSegment3DigitComplex.c" 1
 596  0013              	IF 1000<0
 596  0013              ;# 596 "c:\users\tech\desktop\codetector\sevenSegment3DigitComplex\SevenSegment3DigitComplex.c" 1
 596  0013              	ERRMESSAGE 'the value 1000 of the argument exceeds the mininum 0'
 596  0013              	ENDIF
 596  0013              ;# 596 "c:\users\tech\desktop\codetector\sevenSegment3DigitComplex\SevenSegment3DigitComplex.c" 1
 596  0013              	IF 1000==0
 596  0013              ;# 596 "c:\users\tech\desktop\codetector\sevenSegment3DigitComplex\SevenSegment3DigitComplex.c" 1
 596  0013              	JMP $
 596  0013              	ENDIF
 596  0013              ;# 596 "c:\users\tech\desktop\codetector\sevenSegment3DigitComplex\SevenSegment3DigitComplex.c" 1
 596  0013              	IF 1000==1
 596  0013              ;# 596 "c:\users\tech\desktop\codetector\sevenSegment3DigitComplex\SevenSegment3DigitComplex.c" 1
 596  0013              	NOP
 596  0013              	ENDIF
 596  0013              ;# 596 "c:\users\tech\desktop\codetector\sevenSegment3DigitComplex\SevenSegment3DigitComplex.c" 1
 596  0013              	IF 1000==2
 596  0013              ;# 596 "c:\users\tech\desktop\codetector\sevenSegment3DigitComplex\SevenSegment3DigitComplex.c" 1
 596  0013              	NOP
 596  0013              ;# 596 "c:\users\tech\desktop\codetector\sevenSegment3DigitComplex\SevenSegment3DigitComplex.c" 1
 596  0013              	NOP
 596  0013              	ENDIF
 596  0013              ;# 596 "c:\users\tech\desktop\codetector\sevenSegment3DigitComplex\SevenSegment3DigitComplex.c" 1
 596  0013              	IF 1000==3
 596  0013              ;# 596 "c:\users\tech\desktop\codetector\sevenSegment3DigitComplex\SevenSegment3DigitComplex.c" 1
 596  0013              	NOP
 596  0013              ;# 596 "c:\users\tech\desktop\codetector\sevenSegment3DigitComplex\SevenSegment3DigitComplex.c" 1
 596  0013              	NOP
 596  0013              ;# 596 "c:\users\tech\desktop\codetector\sevenSegment3DigitComplex\SevenSegment3DigitComplex.c" 1
 596  0013              	NOP
 596  0013              	ENDIF
 596  0013              ;# 596 "c:\users\tech\desktop\codetector\sevenSegment3DigitComplex\SevenSegment3DigitComplex.c" 1
"File: SevenSegment3DigitComplex.c  Assembler  Version HGASM0202      Page 88

 596  0013              	IF (1000<8) AND (1000>3)
 596  0013              ;# 596 "c:\users\tech\desktop\codetector\sevenSegment3DigitComplex\SevenSegment3DigitComplex.c" 1
 596  0013              	CALL __DELAY3 + 7 -1000
 596  0013              	ENDIF
 596  0013              ;# 596 "c:\users\tech\desktop\codetector\sevenSegment3DigitComplex\SevenSegment3DigitComplex.c" 1
 596  0013              	IF (1000< 0404h) AND (1000>7)
 596  0013              ;# 596 "c:\users\tech\desktop\codetector\sevenSegment3DigitComplex\SevenSegment3DigitComplex.c" 1
 596  0013  0FF9        	MOV A,1000/4-1
 596  0014              ;# 596 "c:\users\tech\desktop\codetector\sevenSegment3DigitComplex\SevenSegment3DigitComplex.c" 1
 596  0014  2000     E  	CALL __DELAYX3 + 3 -(1000 MOD 4)
 596  0015              	ENDIF
 596  0015              ;# 596 "c:\users\tech\desktop\codetector\sevenSegment3DigitComplex\SevenSegment3DigitComplex.c" 1
 596  0015              	IF (1000< 0x40B) AND (1000> 0403h)
 596  0015              ;# 596 "c:\users\tech\desktop\codetector\sevenSegment3DigitComplex\SevenSegment3DigitComplex.c" 1
 596  0015              	MOV A,0 
 596  0015              ;# 596 "c:\users\tech\desktop\codetector\sevenSegment3DigitComplex\SevenSegment3DigitComplex.c" 1
 596  0015              	CALL __DELAYX6 + 0x40a -1000
 596  0015              	ENDIF
 596  0015              ;# 596 "c:\users\tech\desktop\codetector\sevenSegment3DigitComplex\SevenSegment3DigitComplex.c" 1
 596  0015              	IF (1000 >= 0x40b) AND ((((1000-9)%0402h)/4+1)>256)
 596  0015              ;# 596 "c:\users\tech\desktop\codetector\sevenSegment3DigitComplex\SevenSegment3DigitComplex.c" 1
 596  0015              	MOV A,(1000-9)/0402h
 596  0015              ;# 596 "c:\users\tech\desktop\codetector\sevenSegment3DigitComplex\SevenSegment3DigitComplex.c" 1
 596  0015              	MOV _builtin_holtek_delay_2,A
 596  0015              ;# 596 "c:\users\tech\desktop\codetector\sevenSegment3DigitComplex\SevenSegment3DigitComplex.c" 1
 596  0015              	MOV A,0
 596  0015              ;# 596 "c:\users\tech\desktop\codetector\sevenSegment3DigitComplex\SevenSegment3DigitComplex.c" 1
 596  0015              	CALL __DELAYY5 +5- (((1000-9)%0402h)%6)
 596  0015              	ENDIF
 596  0015              ;# 596 "c:\users\tech\desktop\codetector\sevenSegment3DigitComplex\SevenSegment3DigitComplex.c" 1
 596  0015              	IF (1000 >= 0x40b) AND ((((1000-9)%0402h)/4+1)<=256)
 596  0015              ;# 596 "c:\users\tech\desktop\codetector\sevenSegment3DigitComplex\SevenSegment3DigitComplex.c" 1
 596  0015              	MOV A,(1000-9)/0402h
 596  0015              ;# 596 "c:\users\tech\desktop\codetector\sevenSegment3DigitComplex\SevenSegment3DigitComplex.c" 1
 596  0015              	MOV _builtin_holtek_delay_2,A
 596  0015              ;# 596 "c:\users\tech\desktop\codetector\sevenSegment3DigitComplex\SevenSegment3DigitComplex.c" 1
 596  0015              	MOV A,((1000-9)%0402h)/4+1
 596  0015              ;# 596 "c:\users\tech\desktop\codetector\sevenSegment3DigitComplex\SevenSegment3DigitComplex.c" 1
 596  0015              	CALL __DELAYY3 +3-(((1000-9)%0402h)%4)
 596  0015              	ENDIF
 596  0015  0003        	ret
 596  0016              _sixDigit2 endp
 596  0016              #line 596 "c:\users\tech\desktop\codetector\sevenSegment3DigitComplex\SevenSegment3DigitComplex.c"
 596  0016              #pragma debug scope 1 1
 596  0016              public _sixDigit3
 596  0016              #pragma debug scope 29 1
 599  0016              #line 599 "c:\users\tech\desktop\codetector\sevenSegment3DigitComplex\SevenSegment3DigitComplex.c"
 599  0000              _sixDigit3 .section 'code'
 599  0000              _sixDigit3 proc
 603  0000              #line 603 "c:\users\tech\desktop\codetector\sevenSegment3DigitComplex\SevenSegment3DigitComplex.c"
 603  0000  3499        	clr [25].1
 604  0001              #line 604 "c:\users\tech\desktop\codetector\sevenSegment3DigitComplex\SevenSegment3DigitComplex.c"
 604  0001  3615        	clr [21].4
 605  0002              #line 605 "c:\users\tech\desktop\codetector\sevenSegment3DigitComplex\SevenSegment3DigitComplex.c"
 605  0002  3515        	clr [21].2
 606  0003              #line 606 "c:\users\tech\desktop\codetector\sevenSegment3DigitComplex\SevenSegment3DigitComplex.c"
 606  0003  3599        	clr [25].3
 607  0004              #line 607 "c:\users\tech\desktop\codetector\sevenSegment3DigitComplex\SevenSegment3DigitComplex.c"
 607  0004  3098        	set [24].1
 608  0005              #line 608 "c:\users\tech\desktop\codetector\sevenSegment3DigitComplex\SevenSegment3DigitComplex.c"
"File: SevenSegment3DigitComplex.c  Assembler  Version HGASM0202      Page 89

 608  0005  3614        	clr [20].4
 609  0006              #line 609 "c:\users\tech\desktop\codetector\sevenSegment3DigitComplex\SevenSegment3DigitComplex.c"
 609  0006  3514        	clr [20].2
 610  0007              #line 610 "c:\users\tech\desktop\codetector\sevenSegment3DigitComplex\SevenSegment3DigitComplex.c"
 610  0007  3598        	clr [24].3
 611  0008              #line 611 "c:\users\tech\desktop\codetector\sevenSegment3DigitComplex\SevenSegment3DigitComplex.c"
 611  0008              ;# 611 "c:\users\tech\desktop\codetector\sevenSegment3DigitComplex\SevenSegment3DigitComplex.c" 1
 611  0008              	IF 1000>263690
 611  0008              ;# 611 "c:\users\tech\desktop\codetector\sevenSegment3DigitComplex\SevenSegment3DigitComplex.c" 1
 611  0008              	ERRMESSAGE 'the value 1000of the argument exceeds the maxinum 263690'
 611  0008              	ENDIF
 611  0008              ;# 611 "c:\users\tech\desktop\codetector\sevenSegment3DigitComplex\SevenSegment3DigitComplex.c" 1
 611  0008              	IF 1000<0
 611  0008              ;# 611 "c:\users\tech\desktop\codetector\sevenSegment3DigitComplex\SevenSegment3DigitComplex.c" 1
 611  0008              	ERRMESSAGE 'the value 1000 of the argument exceeds the mininum 0'
 611  0008              	ENDIF
 611  0008              ;# 611 "c:\users\tech\desktop\codetector\sevenSegment3DigitComplex\SevenSegment3DigitComplex.c" 1
 611  0008              	IF 1000==0
 611  0008              ;# 611 "c:\users\tech\desktop\codetector\sevenSegment3DigitComplex\SevenSegment3DigitComplex.c" 1
 611  0008              	JMP $
 611  0008              	ENDIF
 611  0008              ;# 611 "c:\users\tech\desktop\codetector\sevenSegment3DigitComplex\SevenSegment3DigitComplex.c" 1
 611  0008              	IF 1000==1
 611  0008              ;# 611 "c:\users\tech\desktop\codetector\sevenSegment3DigitComplex\SevenSegment3DigitComplex.c" 1
 611  0008              	NOP
 611  0008              	ENDIF
 611  0008              ;# 611 "c:\users\tech\desktop\codetector\sevenSegment3DigitComplex\SevenSegment3DigitComplex.c" 1
 611  0008              	IF 1000==2
 611  0008              ;# 611 "c:\users\tech\desktop\codetector\sevenSegment3DigitComplex\SevenSegment3DigitComplex.c" 1
 611  0008              	NOP
 611  0008              ;# 611 "c:\users\tech\desktop\codetector\sevenSegment3DigitComplex\SevenSegment3DigitComplex.c" 1
 611  0008              	NOP
 611  0008              	ENDIF
 611  0008              ;# 611 "c:\users\tech\desktop\codetector\sevenSegment3DigitComplex\SevenSegment3DigitComplex.c" 1
 611  0008              	IF 1000==3
 611  0008              ;# 611 "c:\users\tech\desktop\codetector\sevenSegment3DigitComplex\SevenSegment3DigitComplex.c" 1
 611  0008              	NOP
 611  0008              ;# 611 "c:\users\tech\desktop\codetector\sevenSegment3DigitComplex\SevenSegment3DigitComplex.c" 1
 611  0008              	NOP
 611  0008              ;# 611 "c:\users\tech\desktop\codetector\sevenSegment3DigitComplex\SevenSegment3DigitComplex.c" 1
 611  0008              	NOP
 611  0008              	ENDIF
 611  0008              ;# 611 "c:\users\tech\desktop\codetector\sevenSegment3DigitComplex\SevenSegment3DigitComplex.c" 1
 611  0008              	IF (1000<8) AND (1000>3)
 611  0008              ;# 611 "c:\users\tech\desktop\codetector\sevenSegment3DigitComplex\SevenSegment3DigitComplex.c" 1
 611  0008              	CALL __DELAY3 + 7 -1000
 611  0008              	ENDIF
 611  0008              ;# 611 "c:\users\tech\desktop\codetector\sevenSegment3DigitComplex\SevenSegment3DigitComplex.c" 1
 611  0008              	IF (1000< 0404h) AND (1000>7)
 611  0008              ;# 611 "c:\users\tech\desktop\codetector\sevenSegment3DigitComplex\SevenSegment3DigitComplex.c" 1
 611  0008  0FF9        	MOV A,1000/4-1
 611  0009              ;# 611 "c:\users\tech\desktop\codetector\sevenSegment3DigitComplex\SevenSegment3DigitComplex.c" 1
 611  0009  2000     E  	CALL __DELAYX3 + 3 -(1000 MOD 4)
 611  000A              	ENDIF
 611  000A              ;# 611 "c:\users\tech\desktop\codetector\sevenSegment3DigitComplex\SevenSegment3DigitComplex.c" 1
 611  000A              	IF (1000< 0x40B) AND (1000> 0403h)
 611  000A              ;# 611 "c:\users\tech\desktop\codetector\sevenSegment3DigitComplex\SevenSegment3DigitComplex.c" 1
 611  000A              	MOV A,0 
 611  000A              ;# 611 "c:\users\tech\desktop\codetector\sevenSegment3DigitComplex\SevenSegment3DigitComplex.c" 1
 611  000A              	CALL __DELAYX6 + 0x40a -1000
"File: SevenSegment3DigitComplex.c  Assembler  Version HGASM0202      Page 90

 611  000A              	ENDIF
 611  000A              ;# 611 "c:\users\tech\desktop\codetector\sevenSegment3DigitComplex\SevenSegment3DigitComplex.c" 1
 611  000A              	IF (1000 >= 0x40b) AND ((((1000-9)%0402h)/4+1)>256)
 611  000A              ;# 611 "c:\users\tech\desktop\codetector\sevenSegment3DigitComplex\SevenSegment3DigitComplex.c" 1
 611  000A              	MOV A,(1000-9)/0402h
 611  000A              ;# 611 "c:\users\tech\desktop\codetector\sevenSegment3DigitComplex\SevenSegment3DigitComplex.c" 1
 611  000A              	MOV _builtin_holtek_delay_2,A
 611  000A              ;# 611 "c:\users\tech\desktop\codetector\sevenSegment3DigitComplex\SevenSegment3DigitComplex.c" 1
 611  000A              	MOV A,0
 611  000A              ;# 611 "c:\users\tech\desktop\codetector\sevenSegment3DigitComplex\SevenSegment3DigitComplex.c" 1
 611  000A              	CALL __DELAYY5 +5- (((1000-9)%0402h)%6)
 611  000A              	ENDIF
 611  000A              ;# 611 "c:\users\tech\desktop\codetector\sevenSegment3DigitComplex\SevenSegment3DigitComplex.c" 1
 611  000A              	IF (1000 >= 0x40b) AND ((((1000-9)%0402h)/4+1)<=256)
 611  000A              ;# 611 "c:\users\tech\desktop\codetector\sevenSegment3DigitComplex\SevenSegment3DigitComplex.c" 1
 611  000A              	MOV A,(1000-9)/0402h
 611  000A              ;# 611 "c:\users\tech\desktop\codetector\sevenSegment3DigitComplex\SevenSegment3DigitComplex.c" 1
 611  000A              	MOV _builtin_holtek_delay_2,A
 611  000A              ;# 611 "c:\users\tech\desktop\codetector\sevenSegment3DigitComplex\SevenSegment3DigitComplex.c" 1
 611  000A              	MOV A,((1000-9)%0402h)/4+1
 611  000A              ;# 611 "c:\users\tech\desktop\codetector\sevenSegment3DigitComplex\SevenSegment3DigitComplex.c" 1
 611  000A              	CALL __DELAYY3 +3-(((1000-9)%0402h)%4)
 611  000A              	ENDIF
 612  000A              #line 612 "c:\users\tech\desktop\codetector\sevenSegment3DigitComplex\SevenSegment3DigitComplex.c"
 612  000A  2000     R  	call _clearSegment
 614  000B              #line 614 "c:\users\tech\desktop\codetector\sevenSegment3DigitComplex\SevenSegment3DigitComplex.c"
 614  000B  3615        	clr [21].4
 615  000C              #line 615 "c:\users\tech\desktop\codetector\sevenSegment3DigitComplex\SevenSegment3DigitComplex.c"
 615  000C  3415        	clr [21].0
 616  000D              #line 616 "c:\users\tech\desktop\codetector\sevenSegment3DigitComplex\SevenSegment3DigitComplex.c"
 616  000D  3515        	clr [21].2
 617  000E              #line 617 "c:\users\tech\desktop\codetector\sevenSegment3DigitComplex\SevenSegment3DigitComplex.c"
 617  000E  3599        	clr [25].3
 618  000F              #line 618 "c:\users\tech\desktop\codetector\sevenSegment3DigitComplex\SevenSegment3DigitComplex.c"
 618  000F  3214        	set [20].4
 619  0010              #line 619 "c:\users\tech\desktop\codetector\sevenSegment3DigitComplex\SevenSegment3DigitComplex.c"
 619  0010  3414        	clr [20].0
 620  0011              #line 620 "c:\users\tech\desktop\codetector\sevenSegment3DigitComplex\SevenSegment3DigitComplex.c"
 620  0011  3514        	clr [20].2
 621  0012              #line 621 "c:\users\tech\desktop\codetector\sevenSegment3DigitComplex\SevenSegment3DigitComplex.c"
 621  0012  3598        	clr [24].3
 622  0013              #line 622 "c:\users\tech\desktop\codetector\sevenSegment3DigitComplex\SevenSegment3DigitComplex.c"
 622  0013              ;# 622 "c:\users\tech\desktop\codetector\sevenSegment3DigitComplex\SevenSegment3DigitComplex.c" 1
 622  0013              	IF 1000>263690
 622  0013              ;# 622 "c:\users\tech\desktop\codetector\sevenSegment3DigitComplex\SevenSegment3DigitComplex.c" 1
 622  0013              	ERRMESSAGE 'the value 1000of the argument exceeds the maxinum 263690'
 622  0013              	ENDIF
 622  0013              ;# 622 "c:\users\tech\desktop\codetector\sevenSegment3DigitComplex\SevenSegment3DigitComplex.c" 1
 622  0013              	IF 1000<0
 622  0013              ;# 622 "c:\users\tech\desktop\codetector\sevenSegment3DigitComplex\SevenSegment3DigitComplex.c" 1
 622  0013              	ERRMESSAGE 'the value 1000 of the argument exceeds the mininum 0'
 622  0013              	ENDIF
 622  0013              ;# 622 "c:\users\tech\desktop\codetector\sevenSegment3DigitComplex\SevenSegment3DigitComplex.c" 1
 622  0013              	IF 1000==0
 622  0013              ;# 622 "c:\users\tech\desktop\codetector\sevenSegment3DigitComplex\SevenSegment3DigitComplex.c" 1
 622  0013              	JMP $
 622  0013              	ENDIF
 622  0013              ;# 622 "c:\users\tech\desktop\codetector\sevenSegment3DigitComplex\SevenSegment3DigitComplex.c" 1
 622  0013              	IF 1000==1
 622  0013              ;# 622 "c:\users\tech\desktop\codetector\sevenSegment3DigitComplex\SevenSegment3DigitComplex.c" 1
"File: SevenSegment3DigitComplex.c  Assembler  Version HGASM0202      Page 91

 622  0013              	NOP
 622  0013              	ENDIF
 622  0013              ;# 622 "c:\users\tech\desktop\codetector\sevenSegment3DigitComplex\SevenSegment3DigitComplex.c" 1
 622  0013              	IF 1000==2
 622  0013              ;# 622 "c:\users\tech\desktop\codetector\sevenSegment3DigitComplex\SevenSegment3DigitComplex.c" 1
 622  0013              	NOP
 622  0013              ;# 622 "c:\users\tech\desktop\codetector\sevenSegment3DigitComplex\SevenSegment3DigitComplex.c" 1
 622  0013              	NOP
 622  0013              	ENDIF
 622  0013              ;# 622 "c:\users\tech\desktop\codetector\sevenSegment3DigitComplex\SevenSegment3DigitComplex.c" 1
 622  0013              	IF 1000==3
 622  0013              ;# 622 "c:\users\tech\desktop\codetector\sevenSegment3DigitComplex\SevenSegment3DigitComplex.c" 1
 622  0013              	NOP
 622  0013              ;# 622 "c:\users\tech\desktop\codetector\sevenSegment3DigitComplex\SevenSegment3DigitComplex.c" 1
 622  0013              	NOP
 622  0013              ;# 622 "c:\users\tech\desktop\codetector\sevenSegment3DigitComplex\SevenSegment3DigitComplex.c" 1
 622  0013              	NOP
 622  0013              	ENDIF
 622  0013              ;# 622 "c:\users\tech\desktop\codetector\sevenSegment3DigitComplex\SevenSegment3DigitComplex.c" 1
 622  0013              	IF (1000<8) AND (1000>3)
 622  0013              ;# 622 "c:\users\tech\desktop\codetector\sevenSegment3DigitComplex\SevenSegment3DigitComplex.c" 1
 622  0013              	CALL __DELAY3 + 7 -1000
 622  0013              	ENDIF
 622  0013              ;# 622 "c:\users\tech\desktop\codetector\sevenSegment3DigitComplex\SevenSegment3DigitComplex.c" 1
 622  0013              	IF (1000< 0404h) AND (1000>7)
 622  0013              ;# 622 "c:\users\tech\desktop\codetector\sevenSegment3DigitComplex\SevenSegment3DigitComplex.c" 1
 622  0013  0FF9        	MOV A,1000/4-1
 622  0014              ;# 622 "c:\users\tech\desktop\codetector\sevenSegment3DigitComplex\SevenSegment3DigitComplex.c" 1
 622  0014  2000     E  	CALL __DELAYX3 + 3 -(1000 MOD 4)
 622  0015              	ENDIF
 622  0015              ;# 622 "c:\users\tech\desktop\codetector\sevenSegment3DigitComplex\SevenSegment3DigitComplex.c" 1
 622  0015              	IF (1000< 0x40B) AND (1000> 0403h)
 622  0015              ;# 622 "c:\users\tech\desktop\codetector\sevenSegment3DigitComplex\SevenSegment3DigitComplex.c" 1
 622  0015              	MOV A,0 
 622  0015              ;# 622 "c:\users\tech\desktop\codetector\sevenSegment3DigitComplex\SevenSegment3DigitComplex.c" 1
 622  0015              	CALL __DELAYX6 + 0x40a -1000
 622  0015              	ENDIF
 622  0015              ;# 622 "c:\users\tech\desktop\codetector\sevenSegment3DigitComplex\SevenSegment3DigitComplex.c" 1
 622  0015              	IF (1000 >= 0x40b) AND ((((1000-9)%0402h)/4+1)>256)
 622  0015              ;# 622 "c:\users\tech\desktop\codetector\sevenSegment3DigitComplex\SevenSegment3DigitComplex.c" 1
 622  0015              	MOV A,(1000-9)/0402h
 622  0015              ;# 622 "c:\users\tech\desktop\codetector\sevenSegment3DigitComplex\SevenSegment3DigitComplex.c" 1
 622  0015              	MOV _builtin_holtek_delay_2,A
 622  0015              ;# 622 "c:\users\tech\desktop\codetector\sevenSegment3DigitComplex\SevenSegment3DigitComplex.c" 1
 622  0015              	MOV A,0
 622  0015              ;# 622 "c:\users\tech\desktop\codetector\sevenSegment3DigitComplex\SevenSegment3DigitComplex.c" 1
 622  0015              	CALL __DELAYY5 +5- (((1000-9)%0402h)%6)
 622  0015              	ENDIF
 622  0015              ;# 622 "c:\users\tech\desktop\codetector\sevenSegment3DigitComplex\SevenSegment3DigitComplex.c" 1
 622  0015              	IF (1000 >= 0x40b) AND ((((1000-9)%0402h)/4+1)<=256)
 622  0015              ;# 622 "c:\users\tech\desktop\codetector\sevenSegment3DigitComplex\SevenSegment3DigitComplex.c" 1
 622  0015              	MOV A,(1000-9)/0402h
 622  0015              ;# 622 "c:\users\tech\desktop\codetector\sevenSegment3DigitComplex\SevenSegment3DigitComplex.c" 1
 622  0015              	MOV _builtin_holtek_delay_2,A
 622  0015              ;# 622 "c:\users\tech\desktop\codetector\sevenSegment3DigitComplex\SevenSegment3DigitComplex.c" 1
 622  0015              	MOV A,((1000-9)%0402h)/4+1
 622  0015              ;# 622 "c:\users\tech\desktop\codetector\sevenSegment3DigitComplex\SevenSegment3DigitComplex.c" 1
 622  0015              	CALL __DELAYY3 +3-(((1000-9)%0402h)%4)
 622  0015              	ENDIF
 622  0015  0003        	ret
"File: SevenSegment3DigitComplex.c  Assembler  Version HGASM0202      Page 92

 622  0016              _sixDigit3 endp
 622  0016              #line 622 "c:\users\tech\desktop\codetector\sevenSegment3DigitComplex\SevenSegment3DigitComplex.c"
 622  0016              #pragma debug scope 1 1
 622  0016              public _eightDigit1
 622  0016              #pragma debug scope 30 1
 671  0016              #line 671 "c:\users\tech\desktop\codetector\sevenSegment3DigitComplex\SevenSegment3DigitComplex.c"
 671  0000              _eightDigit1 .section 'code'
 671  0000              _eightDigit1 proc
 675  0000              #line 675 "c:\users\tech\desktop\codetector\sevenSegment3DigitComplex\SevenSegment3DigitComplex.c"
 675  0000  3519        	clr [25].2
 676  0001              #line 676 "c:\users\tech\desktop\codetector\sevenSegment3DigitComplex\SevenSegment3DigitComplex.c"
 676  0001  3499        	clr [25].1
 677  0002              #line 677 "c:\users\tech\desktop\codetector\sevenSegment3DigitComplex\SevenSegment3DigitComplex.c"
 677  0002  3615        	clr [21].4
 678  0003              #line 678 "c:\users\tech\desktop\codetector\sevenSegment3DigitComplex\SevenSegment3DigitComplex.c"
 678  0003  3415        	clr [21].0
 679  0004              #line 679 "c:\users\tech\desktop\codetector\sevenSegment3DigitComplex\SevenSegment3DigitComplex.c"
 679  0004  3515        	clr [21].2
 680  0005              #line 680 "c:\users\tech\desktop\codetector\sevenSegment3DigitComplex\SevenSegment3DigitComplex.c"
 680  0005  3599        	clr [25].3
 683  0006              #line 683 "c:\users\tech\desktop\codetector\sevenSegment3DigitComplex\SevenSegment3DigitComplex.c"
 683  0006  3518        	clr [24].2
 684  0007              #line 684 "c:\users\tech\desktop\codetector\sevenSegment3DigitComplex\SevenSegment3DigitComplex.c"
 684  0007  3098        	set [24].1
 685  0008              #line 685 "c:\users\tech\desktop\codetector\sevenSegment3DigitComplex\SevenSegment3DigitComplex.c"
 685  0008  3214        	set [20].4
 686  0009              #line 686 "c:\users\tech\desktop\codetector\sevenSegment3DigitComplex\SevenSegment3DigitComplex.c"
 686  0009  3014        	set [20].0
 687  000A              #line 687 "c:\users\tech\desktop\codetector\sevenSegment3DigitComplex\SevenSegment3DigitComplex.c"
 687  000A  3114        	set [20].2
 688  000B              #line 688 "c:\users\tech\desktop\codetector\sevenSegment3DigitComplex\SevenSegment3DigitComplex.c"
 688  000B  3198        	set [24].3
 690  000C              #line 690 "c:\users\tech\desktop\codetector\sevenSegment3DigitComplex\SevenSegment3DigitComplex.c"
 690  000C              ;# 690 "c:\users\tech\desktop\codetector\sevenSegment3DigitComplex\SevenSegment3DigitComplex.c" 1
 690  000C              	IF 1000>263690
 690  000C              ;# 690 "c:\users\tech\desktop\codetector\sevenSegment3DigitComplex\SevenSegment3DigitComplex.c" 1
 690  000C              	ERRMESSAGE 'the value 1000of the argument exceeds the maxinum 263690'
 690  000C              	ENDIF
 690  000C              ;# 690 "c:\users\tech\desktop\codetector\sevenSegment3DigitComplex\SevenSegment3DigitComplex.c" 1
 690  000C              	IF 1000<0
 690  000C              ;# 690 "c:\users\tech\desktop\codetector\sevenSegment3DigitComplex\SevenSegment3DigitComplex.c" 1
 690  000C              	ERRMESSAGE 'the value 1000 of the argument exceeds the mininum 0'
 690  000C              	ENDIF
 690  000C              ;# 690 "c:\users\tech\desktop\codetector\sevenSegment3DigitComplex\SevenSegment3DigitComplex.c" 1
 690  000C              	IF 1000==0
 690  000C              ;# 690 "c:\users\tech\desktop\codetector\sevenSegment3DigitComplex\SevenSegment3DigitComplex.c" 1
 690  000C              	JMP $
 690  000C              	ENDIF
 690  000C              ;# 690 "c:\users\tech\desktop\codetector\sevenSegment3DigitComplex\SevenSegment3DigitComplex.c" 1
 690  000C              	IF 1000==1
 690  000C              ;# 690 "c:\users\tech\desktop\codetector\sevenSegment3DigitComplex\SevenSegment3DigitComplex.c" 1
 690  000C              	NOP
 690  000C              	ENDIF
 690  000C              ;# 690 "c:\users\tech\desktop\codetector\sevenSegment3DigitComplex\SevenSegment3DigitComplex.c" 1
 690  000C              	IF 1000==2
 690  000C              ;# 690 "c:\users\tech\desktop\codetector\sevenSegment3DigitComplex\SevenSegment3DigitComplex.c" 1
 690  000C              	NOP
 690  000C              ;# 690 "c:\users\tech\desktop\codetector\sevenSegment3DigitComplex\SevenSegment3DigitComplex.c" 1
 690  000C              	NOP
 690  000C              	ENDIF
"File: SevenSegment3DigitComplex.c  Assembler  Version HGASM0202      Page 93

 690  000C              ;# 690 "c:\users\tech\desktop\codetector\sevenSegment3DigitComplex\SevenSegment3DigitComplex.c" 1
 690  000C              	IF 1000==3
 690  000C              ;# 690 "c:\users\tech\desktop\codetector\sevenSegment3DigitComplex\SevenSegment3DigitComplex.c" 1
 690  000C              	NOP
 690  000C              ;# 690 "c:\users\tech\desktop\codetector\sevenSegment3DigitComplex\SevenSegment3DigitComplex.c" 1
 690  000C              	NOP
 690  000C              ;# 690 "c:\users\tech\desktop\codetector\sevenSegment3DigitComplex\SevenSegment3DigitComplex.c" 1
 690  000C              	NOP
 690  000C              	ENDIF
 690  000C              ;# 690 "c:\users\tech\desktop\codetector\sevenSegment3DigitComplex\SevenSegment3DigitComplex.c" 1
 690  000C              	IF (1000<8) AND (1000>3)
 690  000C              ;# 690 "c:\users\tech\desktop\codetector\sevenSegment3DigitComplex\SevenSegment3DigitComplex.c" 1
 690  000C              	CALL __DELAY3 + 7 -1000
 690  000C              	ENDIF
 690  000C              ;# 690 "c:\users\tech\desktop\codetector\sevenSegment3DigitComplex\SevenSegment3DigitComplex.c" 1
 690  000C              	IF (1000< 0404h) AND (1000>7)
 690  000C              ;# 690 "c:\users\tech\desktop\codetector\sevenSegment3DigitComplex\SevenSegment3DigitComplex.c" 1
 690  000C  0FF9        	MOV A,1000/4-1
 690  000D              ;# 690 "c:\users\tech\desktop\codetector\sevenSegment3DigitComplex\SevenSegment3DigitComplex.c" 1
 690  000D  2000     E  	CALL __DELAYX3 + 3 -(1000 MOD 4)
 690  000E              	ENDIF
 690  000E              ;# 690 "c:\users\tech\desktop\codetector\sevenSegment3DigitComplex\SevenSegment3DigitComplex.c" 1
 690  000E              	IF (1000< 0x40B) AND (1000> 0403h)
 690  000E              ;# 690 "c:\users\tech\desktop\codetector\sevenSegment3DigitComplex\SevenSegment3DigitComplex.c" 1
 690  000E              	MOV A,0 
 690  000E              ;# 690 "c:\users\tech\desktop\codetector\sevenSegment3DigitComplex\SevenSegment3DigitComplex.c" 1
 690  000E              	CALL __DELAYX6 + 0x40a -1000
 690  000E              	ENDIF
 690  000E              ;# 690 "c:\users\tech\desktop\codetector\sevenSegment3DigitComplex\SevenSegment3DigitComplex.c" 1
 690  000E              	IF (1000 >= 0x40b) AND ((((1000-9)%0402h)/4+1)>256)
 690  000E              ;# 690 "c:\users\tech\desktop\codetector\sevenSegment3DigitComplex\SevenSegment3DigitComplex.c" 1
 690  000E              	MOV A,(1000-9)/0402h
 690  000E              ;# 690 "c:\users\tech\desktop\codetector\sevenSegment3DigitComplex\SevenSegment3DigitComplex.c" 1
 690  000E              	MOV _builtin_holtek_delay_2,A
 690  000E              ;# 690 "c:\users\tech\desktop\codetector\sevenSegment3DigitComplex\SevenSegment3DigitComplex.c" 1
 690  000E              	MOV A,0
 690  000E              ;# 690 "c:\users\tech\desktop\codetector\sevenSegment3DigitComplex\SevenSegment3DigitComplex.c" 1
 690  000E              	CALL __DELAYY5 +5- (((1000-9)%0402h)%6)
 690  000E              	ENDIF
 690  000E              ;# 690 "c:\users\tech\desktop\codetector\sevenSegment3DigitComplex\SevenSegment3DigitComplex.c" 1
 690  000E              	IF (1000 >= 0x40b) AND ((((1000-9)%0402h)/4+1)<=256)
 690  000E              ;# 690 "c:\users\tech\desktop\codetector\sevenSegment3DigitComplex\SevenSegment3DigitComplex.c" 1
 690  000E              	MOV A,(1000-9)/0402h
 690  000E              ;# 690 "c:\users\tech\desktop\codetector\sevenSegment3DigitComplex\SevenSegment3DigitComplex.c" 1
 690  000E              	MOV _builtin_holtek_delay_2,A
 690  000E              ;# 690 "c:\users\tech\desktop\codetector\sevenSegment3DigitComplex\SevenSegment3DigitComplex.c" 1
 690  000E              	MOV A,((1000-9)%0402h)/4+1
 690  000E              ;# 690 "c:\users\tech\desktop\codetector\sevenSegment3DigitComplex\SevenSegment3DigitComplex.c" 1
 690  000E              	CALL __DELAYY3 +3-(((1000-9)%0402h)%4)
 690  000E              	ENDIF
 692  000E              #line 692 "c:\users\tech\desktop\codetector\sevenSegment3DigitComplex\SevenSegment3DigitComplex.c"
 692  000E  2000     R  	call _clearSegment
 693  000F              #line 693 "c:\users\tech\desktop\codetector\sevenSegment3DigitComplex\SevenSegment3DigitComplex.c"
 693  000F  3499        	clr [25].1
 694  0010              #line 694 "c:\users\tech\desktop\codetector\sevenSegment3DigitComplex\SevenSegment3DigitComplex.c"
 694  0010  3615        	clr [21].4
 695  0011              #line 695 "c:\users\tech\desktop\codetector\sevenSegment3DigitComplex\SevenSegment3DigitComplex.c"
 695  0011  3498        	clr [24].1
 696  0012              #line 696 "c:\users\tech\desktop\codetector\sevenSegment3DigitComplex\SevenSegment3DigitComplex.c"
 696  0012  3214        	set [20].4
"File: SevenSegment3DigitComplex.c  Assembler  Version HGASM0202      Page 94

 698  0013              #line 698 "c:\users\tech\desktop\codetector\sevenSegment3DigitComplex\SevenSegment3DigitComplex.c"
 698  0013              ;# 698 "c:\users\tech\desktop\codetector\sevenSegment3DigitComplex\SevenSegment3DigitComplex.c" 1
 698  0013              	IF 1000>263690
 698  0013              ;# 698 "c:\users\tech\desktop\codetector\sevenSegment3DigitComplex\SevenSegment3DigitComplex.c" 1
 698  0013              	ERRMESSAGE 'the value 1000of the argument exceeds the maxinum 263690'
 698  0013              	ENDIF
 698  0013              ;# 698 "c:\users\tech\desktop\codetector\sevenSegment3DigitComplex\SevenSegment3DigitComplex.c" 1
 698  0013              	IF 1000<0
 698  0013              ;# 698 "c:\users\tech\desktop\codetector\sevenSegment3DigitComplex\SevenSegment3DigitComplex.c" 1
 698  0013              	ERRMESSAGE 'the value 1000 of the argument exceeds the mininum 0'
 698  0013              	ENDIF
 698  0013              ;# 698 "c:\users\tech\desktop\codetector\sevenSegment3DigitComplex\SevenSegment3DigitComplex.c" 1
 698  0013              	IF 1000==0
 698  0013              ;# 698 "c:\users\tech\desktop\codetector\sevenSegment3DigitComplex\SevenSegment3DigitComplex.c" 1
 698  0013              	JMP $
 698  0013              	ENDIF
 698  0013              ;# 698 "c:\users\tech\desktop\codetector\sevenSegment3DigitComplex\SevenSegment3DigitComplex.c" 1
 698  0013              	IF 1000==1
 698  0013              ;# 698 "c:\users\tech\desktop\codetector\sevenSegment3DigitComplex\SevenSegment3DigitComplex.c" 1
 698  0013              	NOP
 698  0013              	ENDIF
 698  0013              ;# 698 "c:\users\tech\desktop\codetector\sevenSegment3DigitComplex\SevenSegment3DigitComplex.c" 1
 698  0013              	IF 1000==2
 698  0013              ;# 698 "c:\users\tech\desktop\codetector\sevenSegment3DigitComplex\SevenSegment3DigitComplex.c" 1
 698  0013              	NOP
 698  0013              ;# 698 "c:\users\tech\desktop\codetector\sevenSegment3DigitComplex\SevenSegment3DigitComplex.c" 1
 698  0013              	NOP
 698  0013              	ENDIF
 698  0013              ;# 698 "c:\users\tech\desktop\codetector\sevenSegment3DigitComplex\SevenSegment3DigitComplex.c" 1
 698  0013              	IF 1000==3
 698  0013              ;# 698 "c:\users\tech\desktop\codetector\sevenSegment3DigitComplex\SevenSegment3DigitComplex.c" 1
 698  0013              	NOP
 698  0013              ;# 698 "c:\users\tech\desktop\codetector\sevenSegment3DigitComplex\SevenSegment3DigitComplex.c" 1
 698  0013              	NOP
 698  0013              ;# 698 "c:\users\tech\desktop\codetector\sevenSegment3DigitComplex\SevenSegment3DigitComplex.c" 1
 698  0013              	NOP
 698  0013              	ENDIF
 698  0013              ;# 698 "c:\users\tech\desktop\codetector\sevenSegment3DigitComplex\SevenSegment3DigitComplex.c" 1
 698  0013              	IF (1000<8) AND (1000>3)
 698  0013              ;# 698 "c:\users\tech\desktop\codetector\sevenSegment3DigitComplex\SevenSegment3DigitComplex.c" 1
 698  0013              	CALL __DELAY3 + 7 -1000
 698  0013              	ENDIF
 698  0013              ;# 698 "c:\users\tech\desktop\codetector\sevenSegment3DigitComplex\SevenSegment3DigitComplex.c" 1
 698  0013              	IF (1000< 0404h) AND (1000>7)
 698  0013              ;# 698 "c:\users\tech\desktop\codetector\sevenSegment3DigitComplex\SevenSegment3DigitComplex.c" 1
 698  0013  0FF9        	MOV A,1000/4-1
 698  0014              ;# 698 "c:\users\tech\desktop\codetector\sevenSegment3DigitComplex\SevenSegment3DigitComplex.c" 1
 698  0014  2000     E  	CALL __DELAYX3 + 3 -(1000 MOD 4)
 698  0015              	ENDIF
 698  0015              ;# 698 "c:\users\tech\desktop\codetector\sevenSegment3DigitComplex\SevenSegment3DigitComplex.c" 1
 698  0015              	IF (1000< 0x40B) AND (1000> 0403h)
 698  0015              ;# 698 "c:\users\tech\desktop\codetector\sevenSegment3DigitComplex\SevenSegment3DigitComplex.c" 1
 698  0015              	MOV A,0 
 698  0015              ;# 698 "c:\users\tech\desktop\codetector\sevenSegment3DigitComplex\SevenSegment3DigitComplex.c" 1
 698  0015              	CALL __DELAYX6 + 0x40a -1000
 698  0015              	ENDIF
 698  0015              ;# 698 "c:\users\tech\desktop\codetector\sevenSegment3DigitComplex\SevenSegment3DigitComplex.c" 1
 698  0015              	IF (1000 >= 0x40b) AND ((((1000-9)%0402h)/4+1)>256)
 698  0015              ;# 698 "c:\users\tech\desktop\codetector\sevenSegment3DigitComplex\SevenSegment3DigitComplex.c" 1
 698  0015              	MOV A,(1000-9)/0402h
"File: SevenSegment3DigitComplex.c  Assembler  Version HGASM0202      Page 95

 698  0015              ;# 698 "c:\users\tech\desktop\codetector\sevenSegment3DigitComplex\SevenSegment3DigitComplex.c" 1
 698  0015              	MOV _builtin_holtek_delay_2,A
 698  0015              ;# 698 "c:\users\tech\desktop\codetector\sevenSegment3DigitComplex\SevenSegment3DigitComplex.c" 1
 698  0015              	MOV A,0
 698  0015              ;# 698 "c:\users\tech\desktop\codetector\sevenSegment3DigitComplex\SevenSegment3DigitComplex.c" 1
 698  0015              	CALL __DELAYY5 +5- (((1000-9)%0402h)%6)
 698  0015              	ENDIF
 698  0015              ;# 698 "c:\users\tech\desktop\codetector\sevenSegment3DigitComplex\SevenSegment3DigitComplex.c" 1
 698  0015              	IF (1000 >= 0x40b) AND ((((1000-9)%0402h)/4+1)<=256)
 698  0015              ;# 698 "c:\users\tech\desktop\codetector\sevenSegment3DigitComplex\SevenSegment3DigitComplex.c" 1
 698  0015              	MOV A,(1000-9)/0402h
 698  0015              ;# 698 "c:\users\tech\desktop\codetector\sevenSegment3DigitComplex\SevenSegment3DigitComplex.c" 1
 698  0015              	MOV _builtin_holtek_delay_2,A
 698  0015              ;# 698 "c:\users\tech\desktop\codetector\sevenSegment3DigitComplex\SevenSegment3DigitComplex.c" 1
 698  0015              	MOV A,((1000-9)%0402h)/4+1
 698  0015              ;# 698 "c:\users\tech\desktop\codetector\sevenSegment3DigitComplex\SevenSegment3DigitComplex.c" 1
 698  0015              	CALL __DELAYY3 +3-(((1000-9)%0402h)%4)
 698  0015              	ENDIF
 699  0015              #line 699 "c:\users\tech\desktop\codetector\sevenSegment3DigitComplex\SevenSegment3DigitComplex.c"
 699  0015  2000     R  	call _clearSegment
 700  0016              #line 700 "c:\users\tech\desktop\codetector\sevenSegment3DigitComplex\SevenSegment3DigitComplex.c"
 700  0016  3499        	clr [25].1
 701  0017              #line 701 "c:\users\tech\desktop\codetector\sevenSegment3DigitComplex\SevenSegment3DigitComplex.c"
 701  0017  3415        	clr [21].0
 702  0018              #line 702 "c:\users\tech\desktop\codetector\sevenSegment3DigitComplex\SevenSegment3DigitComplex.c"
 702  0018  3014        	set [20].0
 703  0019              #line 703 "c:\users\tech\desktop\codetector\sevenSegment3DigitComplex\SevenSegment3DigitComplex.c"
 703  0019  3498        	clr [24].1
 704  001A              #line 704 "c:\users\tech\desktop\codetector\sevenSegment3DigitComplex\SevenSegment3DigitComplex.c"
 704  001A              ;# 704 "c:\users\tech\desktop\codetector\sevenSegment3DigitComplex\SevenSegment3DigitComplex.c" 1
 704  001A              	IF 1000>263690
 704  001A              ;# 704 "c:\users\tech\desktop\codetector\sevenSegment3DigitComplex\SevenSegment3DigitComplex.c" 1
 704  001A              	ERRMESSAGE 'the value 1000of the argument exceeds the maxinum 263690'
 704  001A              	ENDIF
 704  001A              ;# 704 "c:\users\tech\desktop\codetector\sevenSegment3DigitComplex\SevenSegment3DigitComplex.c" 1
 704  001A              	IF 1000<0
 704  001A              ;# 704 "c:\users\tech\desktop\codetector\sevenSegment3DigitComplex\SevenSegment3DigitComplex.c" 1
 704  001A              	ERRMESSAGE 'the value 1000 of the argument exceeds the mininum 0'
 704  001A              	ENDIF
 704  001A              ;# 704 "c:\users\tech\desktop\codetector\sevenSegment3DigitComplex\SevenSegment3DigitComplex.c" 1
 704  001A              	IF 1000==0
 704  001A              ;# 704 "c:\users\tech\desktop\codetector\sevenSegment3DigitComplex\SevenSegment3DigitComplex.c" 1
 704  001A              	JMP $
 704  001A              	ENDIF
 704  001A              ;# 704 "c:\users\tech\desktop\codetector\sevenSegment3DigitComplex\SevenSegment3DigitComplex.c" 1
 704  001A              	IF 1000==1
 704  001A              ;# 704 "c:\users\tech\desktop\codetector\sevenSegment3DigitComplex\SevenSegment3DigitComplex.c" 1
 704  001A              	NOP
 704  001A              	ENDIF
 704  001A              ;# 704 "c:\users\tech\desktop\codetector\sevenSegment3DigitComplex\SevenSegment3DigitComplex.c" 1
 704  001A              	IF 1000==2
 704  001A              ;# 704 "c:\users\tech\desktop\codetector\sevenSegment3DigitComplex\SevenSegment3DigitComplex.c" 1
 704  001A              	NOP
 704  001A              ;# 704 "c:\users\tech\desktop\codetector\sevenSegment3DigitComplex\SevenSegment3DigitComplex.c" 1
 704  001A              	NOP
 704  001A              	ENDIF
 704  001A              ;# 704 "c:\users\tech\desktop\codetector\sevenSegment3DigitComplex\SevenSegment3DigitComplex.c" 1
 704  001A              	IF 1000==3
 704  001A              ;# 704 "c:\users\tech\desktop\codetector\sevenSegment3DigitComplex\SevenSegment3DigitComplex.c" 1
 704  001A              	NOP
"File: SevenSegment3DigitComplex.c  Assembler  Version HGASM0202      Page 96

 704  001A              ;# 704 "c:\users\tech\desktop\codetector\sevenSegment3DigitComplex\SevenSegment3DigitComplex.c" 1
 704  001A              	NOP
 704  001A              ;# 704 "c:\users\tech\desktop\codetector\sevenSegment3DigitComplex\SevenSegment3DigitComplex.c" 1
 704  001A              	NOP
 704  001A              	ENDIF
 704  001A              ;# 704 "c:\users\tech\desktop\codetector\sevenSegment3DigitComplex\SevenSegment3DigitComplex.c" 1
 704  001A              	IF (1000<8) AND (1000>3)
 704  001A              ;# 704 "c:\users\tech\desktop\codetector\sevenSegment3DigitComplex\SevenSegment3DigitComplex.c" 1
 704  001A              	CALL __DELAY3 + 7 -1000
 704  001A              	ENDIF
 704  001A              ;# 704 "c:\users\tech\desktop\codetector\sevenSegment3DigitComplex\SevenSegment3DigitComplex.c" 1
 704  001A              	IF (1000< 0404h) AND (1000>7)
 704  001A              ;# 704 "c:\users\tech\desktop\codetector\sevenSegment3DigitComplex\SevenSegment3DigitComplex.c" 1
 704  001A  0FF9        	MOV A,1000/4-1
 704  001B              ;# 704 "c:\users\tech\desktop\codetector\sevenSegment3DigitComplex\SevenSegment3DigitComplex.c" 1
 704  001B  2000     E  	CALL __DELAYX3 + 3 -(1000 MOD 4)
 704  001C              	ENDIF
 704  001C              ;# 704 "c:\users\tech\desktop\codetector\sevenSegment3DigitComplex\SevenSegment3DigitComplex.c" 1
 704  001C              	IF (1000< 0x40B) AND (1000> 0403h)
 704  001C              ;# 704 "c:\users\tech\desktop\codetector\sevenSegment3DigitComplex\SevenSegment3DigitComplex.c" 1
 704  001C              	MOV A,0 
 704  001C              ;# 704 "c:\users\tech\desktop\codetector\sevenSegment3DigitComplex\SevenSegment3DigitComplex.c" 1
 704  001C              	CALL __DELAYX6 + 0x40a -1000
 704  001C              	ENDIF
 704  001C              ;# 704 "c:\users\tech\desktop\codetector\sevenSegment3DigitComplex\SevenSegment3DigitComplex.c" 1
 704  001C              	IF (1000 >= 0x40b) AND ((((1000-9)%0402h)/4+1)>256)
 704  001C              ;# 704 "c:\users\tech\desktop\codetector\sevenSegment3DigitComplex\SevenSegment3DigitComplex.c" 1
 704  001C              	MOV A,(1000-9)/0402h
 704  001C              ;# 704 "c:\users\tech\desktop\codetector\sevenSegment3DigitComplex\SevenSegment3DigitComplex.c" 1
 704  001C              	MOV _builtin_holtek_delay_2,A
 704  001C              ;# 704 "c:\users\tech\desktop\codetector\sevenSegment3DigitComplex\SevenSegment3DigitComplex.c" 1
 704  001C              	MOV A,0
 704  001C              ;# 704 "c:\users\tech\desktop\codetector\sevenSegment3DigitComplex\SevenSegment3DigitComplex.c" 1
 704  001C              	CALL __DELAYY5 +5- (((1000-9)%0402h)%6)
 704  001C              	ENDIF
 704  001C              ;# 704 "c:\users\tech\desktop\codetector\sevenSegment3DigitComplex\SevenSegment3DigitComplex.c" 1
 704  001C              	IF (1000 >= 0x40b) AND ((((1000-9)%0402h)/4+1)<=256)
 704  001C              ;# 704 "c:\users\tech\desktop\codetector\sevenSegment3DigitComplex\SevenSegment3DigitComplex.c" 1
 704  001C              	MOV A,(1000-9)/0402h
 704  001C              ;# 704 "c:\users\tech\desktop\codetector\sevenSegment3DigitComplex\SevenSegment3DigitComplex.c" 1
 704  001C              	MOV _builtin_holtek_delay_2,A
 704  001C              ;# 704 "c:\users\tech\desktop\codetector\sevenSegment3DigitComplex\SevenSegment3DigitComplex.c" 1
 704  001C              	MOV A,((1000-9)%0402h)/4+1
 704  001C              ;# 704 "c:\users\tech\desktop\codetector\sevenSegment3DigitComplex\SevenSegment3DigitComplex.c" 1
 704  001C              	CALL __DELAYY3 +3-(((1000-9)%0402h)%4)
 704  001C              	ENDIF
 704  001C  0003        	ret
 704  001D              _eightDigit1 endp
 704  001D              #line 704 "c:\users\tech\desktop\codetector\sevenSegment3DigitComplex\SevenSegment3DigitComplex.c"
 704  001D              #pragma debug scope 1 1
 704  001D              public _eightDigit2
 704  001D              #pragma debug scope 31 1
 707  001D              #line 707 "c:\users\tech\desktop\codetector\sevenSegment3DigitComplex\SevenSegment3DigitComplex.c"
 707  0000              _eightDigit2 .section 'code'
 707  0000              _eightDigit2 proc
 710  0000              #line 710 "c:\users\tech\desktop\codetector\sevenSegment3DigitComplex\SevenSegment3DigitComplex.c"
 710  0000  3519        	clr [25].2
 711  0001              #line 711 "c:\users\tech\desktop\codetector\sevenSegment3DigitComplex\SevenSegment3DigitComplex.c"
 711  0001  3499        	clr [25].1
 712  0002              #line 712 "c:\users\tech\desktop\codetector\sevenSegment3DigitComplex\SevenSegment3DigitComplex.c"
"File: SevenSegment3DigitComplex.c  Assembler  Version HGASM0202      Page 97

 712  0002  3615        	clr [21].4
 713  0003              #line 713 "c:\users\tech\desktop\codetector\sevenSegment3DigitComplex\SevenSegment3DigitComplex.c"
 713  0003  3415        	clr [21].0
 714  0004              #line 714 "c:\users\tech\desktop\codetector\sevenSegment3DigitComplex\SevenSegment3DigitComplex.c"
 714  0004  3515        	clr [21].2
 715  0005              #line 715 "c:\users\tech\desktop\codetector\sevenSegment3DigitComplex\SevenSegment3DigitComplex.c"
 715  0005  3599        	clr [25].3
 716  0006              #line 716 "c:\users\tech\desktop\codetector\sevenSegment3DigitComplex\SevenSegment3DigitComplex.c"
 716  0006  3118        	set [24].2
 717  0007              #line 717 "c:\users\tech\desktop\codetector\sevenSegment3DigitComplex\SevenSegment3DigitComplex.c"
 717  0007  3498        	clr [24].1
 718  0008              #line 718 "c:\users\tech\desktop\codetector\sevenSegment3DigitComplex\SevenSegment3DigitComplex.c"
 718  0008  3614        	clr [20].4
 719  0009              #line 719 "c:\users\tech\desktop\codetector\sevenSegment3DigitComplex\SevenSegment3DigitComplex.c"
 719  0009  3414        	clr [20].0
 720  000A              #line 720 "c:\users\tech\desktop\codetector\sevenSegment3DigitComplex\SevenSegment3DigitComplex.c"
 720  000A  3514        	clr [20].2
 721  000B              #line 721 "c:\users\tech\desktop\codetector\sevenSegment3DigitComplex\SevenSegment3DigitComplex.c"
 721  000B  3598        	clr [24].3
 722  000C              #line 722 "c:\users\tech\desktop\codetector\sevenSegment3DigitComplex\SevenSegment3DigitComplex.c"
 722  000C              ;# 722 "c:\users\tech\desktop\codetector\sevenSegment3DigitComplex\SevenSegment3DigitComplex.c" 1
 722  000C              	IF 1000>263690
 722  000C              ;# 722 "c:\users\tech\desktop\codetector\sevenSegment3DigitComplex\SevenSegment3DigitComplex.c" 1
 722  000C              	ERRMESSAGE 'the value 1000of the argument exceeds the maxinum 263690'
 722  000C              	ENDIF
 722  000C              ;# 722 "c:\users\tech\desktop\codetector\sevenSegment3DigitComplex\SevenSegment3DigitComplex.c" 1
 722  000C              	IF 1000<0
 722  000C              ;# 722 "c:\users\tech\desktop\codetector\sevenSegment3DigitComplex\SevenSegment3DigitComplex.c" 1
 722  000C              	ERRMESSAGE 'the value 1000 of the argument exceeds the mininum 0'
 722  000C              	ENDIF
 722  000C              ;# 722 "c:\users\tech\desktop\codetector\sevenSegment3DigitComplex\SevenSegment3DigitComplex.c" 1
 722  000C              	IF 1000==0
 722  000C              ;# 722 "c:\users\tech\desktop\codetector\sevenSegment3DigitComplex\SevenSegment3DigitComplex.c" 1
 722  000C              	JMP $
 722  000C              	ENDIF
 722  000C              ;# 722 "c:\users\tech\desktop\codetector\sevenSegment3DigitComplex\SevenSegment3DigitComplex.c" 1
 722  000C              	IF 1000==1
 722  000C              ;# 722 "c:\users\tech\desktop\codetector\sevenSegment3DigitComplex\SevenSegment3DigitComplex.c" 1
 722  000C              	NOP
 722  000C              	ENDIF
 722  000C              ;# 722 "c:\users\tech\desktop\codetector\sevenSegment3DigitComplex\SevenSegment3DigitComplex.c" 1
 722  000C              	IF 1000==2
 722  000C              ;# 722 "c:\users\tech\desktop\codetector\sevenSegment3DigitComplex\SevenSegment3DigitComplex.c" 1
 722  000C              	NOP
 722  000C              ;# 722 "c:\users\tech\desktop\codetector\sevenSegment3DigitComplex\SevenSegment3DigitComplex.c" 1
 722  000C              	NOP
 722  000C              	ENDIF
 722  000C              ;# 722 "c:\users\tech\desktop\codetector\sevenSegment3DigitComplex\SevenSegment3DigitComplex.c" 1
 722  000C              	IF 1000==3
 722  000C              ;# 722 "c:\users\tech\desktop\codetector\sevenSegment3DigitComplex\SevenSegment3DigitComplex.c" 1
 722  000C              	NOP
 722  000C              ;# 722 "c:\users\tech\desktop\codetector\sevenSegment3DigitComplex\SevenSegment3DigitComplex.c" 1
 722  000C              	NOP
 722  000C              ;# 722 "c:\users\tech\desktop\codetector\sevenSegment3DigitComplex\SevenSegment3DigitComplex.c" 1
 722  000C              	NOP
 722  000C              	ENDIF
 722  000C              ;# 722 "c:\users\tech\desktop\codetector\sevenSegment3DigitComplex\SevenSegment3DigitComplex.c" 1
 722  000C              	IF (1000<8) AND (1000>3)
 722  000C              ;# 722 "c:\users\tech\desktop\codetector\sevenSegment3DigitComplex\SevenSegment3DigitComplex.c" 1
 722  000C              	CALL __DELAY3 + 7 -1000
"File: SevenSegment3DigitComplex.c  Assembler  Version HGASM0202      Page 98

 722  000C              	ENDIF
 722  000C              ;# 722 "c:\users\tech\desktop\codetector\sevenSegment3DigitComplex\SevenSegment3DigitComplex.c" 1
 722  000C              	IF (1000< 0404h) AND (1000>7)
 722  000C              ;# 722 "c:\users\tech\desktop\codetector\sevenSegment3DigitComplex\SevenSegment3DigitComplex.c" 1
 722  000C  0FF9        	MOV A,1000/4-1
 722  000D              ;# 722 "c:\users\tech\desktop\codetector\sevenSegment3DigitComplex\SevenSegment3DigitComplex.c" 1
 722  000D  2000     E  	CALL __DELAYX3 + 3 -(1000 MOD 4)
 722  000E              	ENDIF
 722  000E              ;# 722 "c:\users\tech\desktop\codetector\sevenSegment3DigitComplex\SevenSegment3DigitComplex.c" 1
 722  000E              	IF (1000< 0x40B) AND (1000> 0403h)
 722  000E              ;# 722 "c:\users\tech\desktop\codetector\sevenSegment3DigitComplex\SevenSegment3DigitComplex.c" 1
 722  000E              	MOV A,0 
 722  000E              ;# 722 "c:\users\tech\desktop\codetector\sevenSegment3DigitComplex\SevenSegment3DigitComplex.c" 1
 722  000E              	CALL __DELAYX6 + 0x40a -1000
 722  000E              	ENDIF
 722  000E              ;# 722 "c:\users\tech\desktop\codetector\sevenSegment3DigitComplex\SevenSegment3DigitComplex.c" 1
 722  000E              	IF (1000 >= 0x40b) AND ((((1000-9)%0402h)/4+1)>256)
 722  000E              ;# 722 "c:\users\tech\desktop\codetector\sevenSegment3DigitComplex\SevenSegment3DigitComplex.c" 1
 722  000E              	MOV A,(1000-9)/0402h
 722  000E              ;# 722 "c:\users\tech\desktop\codetector\sevenSegment3DigitComplex\SevenSegment3DigitComplex.c" 1
 722  000E              	MOV _builtin_holtek_delay_2,A
 722  000E              ;# 722 "c:\users\tech\desktop\codetector\sevenSegment3DigitComplex\SevenSegment3DigitComplex.c" 1
 722  000E              	MOV A,0
 722  000E              ;# 722 "c:\users\tech\desktop\codetector\sevenSegment3DigitComplex\SevenSegment3DigitComplex.c" 1
 722  000E              	CALL __DELAYY5 +5- (((1000-9)%0402h)%6)
 722  000E              	ENDIF
 722  000E              ;# 722 "c:\users\tech\desktop\codetector\sevenSegment3DigitComplex\SevenSegment3DigitComplex.c" 1
 722  000E              	IF (1000 >= 0x40b) AND ((((1000-9)%0402h)/4+1)<=256)
 722  000E              ;# 722 "c:\users\tech\desktop\codetector\sevenSegment3DigitComplex\SevenSegment3DigitComplex.c" 1
 722  000E              	MOV A,(1000-9)/0402h
 722  000E              ;# 722 "c:\users\tech\desktop\codetector\sevenSegment3DigitComplex\SevenSegment3DigitComplex.c" 1
 722  000E              	MOV _builtin_holtek_delay_2,A
 722  000E              ;# 722 "c:\users\tech\desktop\codetector\sevenSegment3DigitComplex\SevenSegment3DigitComplex.c" 1
 722  000E              	MOV A,((1000-9)%0402h)/4+1
 722  000E              ;# 722 "c:\users\tech\desktop\codetector\sevenSegment3DigitComplex\SevenSegment3DigitComplex.c" 1
 722  000E              	CALL __DELAYY3 +3-(((1000-9)%0402h)%4)
 722  000E              	ENDIF
 723  000E              #line 723 "c:\users\tech\desktop\codetector\sevenSegment3DigitComplex\SevenSegment3DigitComplex.c"
 723  000E  2000     R  	call _clearSegment
 724  000F              #line 724 "c:\users\tech\desktop\codetector\sevenSegment3DigitComplex\SevenSegment3DigitComplex.c"
 724  000F  3599        	clr [25].3
 725  0010              #line 725 "c:\users\tech\desktop\codetector\sevenSegment3DigitComplex\SevenSegment3DigitComplex.c"
 725  0010  3499        	clr [25].1
 726  0011              #line 726 "c:\users\tech\desktop\codetector\sevenSegment3DigitComplex\SevenSegment3DigitComplex.c"
 726  0011  3198        	set [24].3
 727  0012              #line 727 "c:\users\tech\desktop\codetector\sevenSegment3DigitComplex\SevenSegment3DigitComplex.c"
 727  0012  3498        	clr [24].1
 728  0013              #line 728 "c:\users\tech\desktop\codetector\sevenSegment3DigitComplex\SevenSegment3DigitComplex.c"
 728  0013              ;# 728 "c:\users\tech\desktop\codetector\sevenSegment3DigitComplex\SevenSegment3DigitComplex.c" 1
 728  0013              	IF 1000>263690
 728  0013              ;# 728 "c:\users\tech\desktop\codetector\sevenSegment3DigitComplex\SevenSegment3DigitComplex.c" 1
 728  0013              	ERRMESSAGE 'the value 1000of the argument exceeds the maxinum 263690'
 728  0013              	ENDIF
 728  0013              ;# 728 "c:\users\tech\desktop\codetector\sevenSegment3DigitComplex\SevenSegment3DigitComplex.c" 1
 728  0013              	IF 1000<0
 728  0013              ;# 728 "c:\users\tech\desktop\codetector\sevenSegment3DigitComplex\SevenSegment3DigitComplex.c" 1
 728  0013              	ERRMESSAGE 'the value 1000 of the argument exceeds the mininum 0'
 728  0013              	ENDIF
 728  0013              ;# 728 "c:\users\tech\desktop\codetector\sevenSegment3DigitComplex\SevenSegment3DigitComplex.c" 1
 728  0013              	IF 1000==0
"File: SevenSegment3DigitComplex.c  Assembler  Version HGASM0202      Page 99

 728  0013              ;# 728 "c:\users\tech\desktop\codetector\sevenSegment3DigitComplex\SevenSegment3DigitComplex.c" 1
 728  0013              	JMP $
 728  0013              	ENDIF
 728  0013              ;# 728 "c:\users\tech\desktop\codetector\sevenSegment3DigitComplex\SevenSegment3DigitComplex.c" 1
 728  0013              	IF 1000==1
 728  0013              ;# 728 "c:\users\tech\desktop\codetector\sevenSegment3DigitComplex\SevenSegment3DigitComplex.c" 1
 728  0013              	NOP
 728  0013              	ENDIF
 728  0013              ;# 728 "c:\users\tech\desktop\codetector\sevenSegment3DigitComplex\SevenSegment3DigitComplex.c" 1
 728  0013              	IF 1000==2
 728  0013              ;# 728 "c:\users\tech\desktop\codetector\sevenSegment3DigitComplex\SevenSegment3DigitComplex.c" 1
 728  0013              	NOP
 728  0013              ;# 728 "c:\users\tech\desktop\codetector\sevenSegment3DigitComplex\SevenSegment3DigitComplex.c" 1
 728  0013              	NOP
 728  0013              	ENDIF
 728  0013              ;# 728 "c:\users\tech\desktop\codetector\sevenSegment3DigitComplex\SevenSegment3DigitComplex.c" 1
 728  0013              	IF 1000==3
 728  0013              ;# 728 "c:\users\tech\desktop\codetector\sevenSegment3DigitComplex\SevenSegment3DigitComplex.c" 1
 728  0013              	NOP
 728  0013              ;# 728 "c:\users\tech\desktop\codetector\sevenSegment3DigitComplex\SevenSegment3DigitComplex.c" 1
 728  0013              	NOP
 728  0013              ;# 728 "c:\users\tech\desktop\codetector\sevenSegment3DigitComplex\SevenSegment3DigitComplex.c" 1
 728  0013              	NOP
 728  0013              	ENDIF
 728  0013              ;# 728 "c:\users\tech\desktop\codetector\sevenSegment3DigitComplex\SevenSegment3DigitComplex.c" 1
 728  0013              	IF (1000<8) AND (1000>3)
 728  0013              ;# 728 "c:\users\tech\desktop\codetector\sevenSegment3DigitComplex\SevenSegment3DigitComplex.c" 1
 728  0013              	CALL __DELAY3 + 7 -1000
 728  0013              	ENDIF
 728  0013              ;# 728 "c:\users\tech\desktop\codetector\sevenSegment3DigitComplex\SevenSegment3DigitComplex.c" 1
 728  0013              	IF (1000< 0404h) AND (1000>7)
 728  0013              ;# 728 "c:\users\tech\desktop\codetector\sevenSegment3DigitComplex\SevenSegment3DigitComplex.c" 1
 728  0013  0FF9        	MOV A,1000/4-1
 728  0014              ;# 728 "c:\users\tech\desktop\codetector\sevenSegment3DigitComplex\SevenSegment3DigitComplex.c" 1
 728  0014  2000     E  	CALL __DELAYX3 + 3 -(1000 MOD 4)
 728  0015              	ENDIF
 728  0015              ;# 728 "c:\users\tech\desktop\codetector\sevenSegment3DigitComplex\SevenSegment3DigitComplex.c" 1
 728  0015              	IF (1000< 0x40B) AND (1000> 0403h)
 728  0015              ;# 728 "c:\users\tech\desktop\codetector\sevenSegment3DigitComplex\SevenSegment3DigitComplex.c" 1
 728  0015              	MOV A,0 
 728  0015              ;# 728 "c:\users\tech\desktop\codetector\sevenSegment3DigitComplex\SevenSegment3DigitComplex.c" 1
 728  0015              	CALL __DELAYX6 + 0x40a -1000
 728  0015              	ENDIF
 728  0015              ;# 728 "c:\users\tech\desktop\codetector\sevenSegment3DigitComplex\SevenSegment3DigitComplex.c" 1
 728  0015              	IF (1000 >= 0x40b) AND ((((1000-9)%0402h)/4+1)>256)
 728  0015              ;# 728 "c:\users\tech\desktop\codetector\sevenSegment3DigitComplex\SevenSegment3DigitComplex.c" 1
 728  0015              	MOV A,(1000-9)/0402h
 728  0015              ;# 728 "c:\users\tech\desktop\codetector\sevenSegment3DigitComplex\SevenSegment3DigitComplex.c" 1
 728  0015              	MOV _builtin_holtek_delay_2,A
 728  0015              ;# 728 "c:\users\tech\desktop\codetector\sevenSegment3DigitComplex\SevenSegment3DigitComplex.c" 1
 728  0015              	MOV A,0
 728  0015              ;# 728 "c:\users\tech\desktop\codetector\sevenSegment3DigitComplex\SevenSegment3DigitComplex.c" 1
 728  0015              	CALL __DELAYY5 +5- (((1000-9)%0402h)%6)
 728  0015              	ENDIF
 728  0015              ;# 728 "c:\users\tech\desktop\codetector\sevenSegment3DigitComplex\SevenSegment3DigitComplex.c" 1
 728  0015              	IF (1000 >= 0x40b) AND ((((1000-9)%0402h)/4+1)<=256)
 728  0015              ;# 728 "c:\users\tech\desktop\codetector\sevenSegment3DigitComplex\SevenSegment3DigitComplex.c" 1
 728  0015              	MOV A,(1000-9)/0402h
 728  0015              ;# 728 "c:\users\tech\desktop\codetector\sevenSegment3DigitComplex\SevenSegment3DigitComplex.c" 1
 728  0015              	MOV _builtin_holtek_delay_2,A
"File: SevenSegment3DigitComplex.c  Assembler  Version HGASM0202      Page 100

 728  0015              ;# 728 "c:\users\tech\desktop\codetector\sevenSegment3DigitComplex\SevenSegment3DigitComplex.c" 1
 728  0015              	MOV A,((1000-9)%0402h)/4+1
 728  0015              ;# 728 "c:\users\tech\desktop\codetector\sevenSegment3DigitComplex\SevenSegment3DigitComplex.c" 1
 728  0015              	CALL __DELAYY3 +3-(((1000-9)%0402h)%4)
 728  0015              	ENDIF
 730  0015              #line 730 "c:\users\tech\desktop\codetector\sevenSegment3DigitComplex\SevenSegment3DigitComplex.c"
 730  0015  2000     R  	call _clearSegment
 731  0016              #line 731 "c:\users\tech\desktop\codetector\sevenSegment3DigitComplex\SevenSegment3DigitComplex.c"
 731  0016  3515        	clr [21].2
 732  0017              #line 732 "c:\users\tech\desktop\codetector\sevenSegment3DigitComplex\SevenSegment3DigitComplex.c"
 732  0017  3499        	clr [25].1
 733  0018              #line 733 "c:\users\tech\desktop\codetector\sevenSegment3DigitComplex\SevenSegment3DigitComplex.c"
 733  0018  3498        	clr [24].1
 734  0019              #line 734 "c:\users\tech\desktop\codetector\sevenSegment3DigitComplex\SevenSegment3DigitComplex.c"
 734  0019  3114        	set [20].2
 735  001A              #line 735 "c:\users\tech\desktop\codetector\sevenSegment3DigitComplex\SevenSegment3DigitComplex.c"
 735  001A              ;# 735 "c:\users\tech\desktop\codetector\sevenSegment3DigitComplex\SevenSegment3DigitComplex.c" 1
 735  001A              	IF 1000>263690
 735  001A              ;# 735 "c:\users\tech\desktop\codetector\sevenSegment3DigitComplex\SevenSegment3DigitComplex.c" 1
 735  001A              	ERRMESSAGE 'the value 1000of the argument exceeds the maxinum 263690'
 735  001A              	ENDIF
 735  001A              ;# 735 "c:\users\tech\desktop\codetector\sevenSegment3DigitComplex\SevenSegment3DigitComplex.c" 1
 735  001A              	IF 1000<0
 735  001A              ;# 735 "c:\users\tech\desktop\codetector\sevenSegment3DigitComplex\SevenSegment3DigitComplex.c" 1
 735  001A              	ERRMESSAGE 'the value 1000 of the argument exceeds the mininum 0'
 735  001A              	ENDIF
 735  001A              ;# 735 "c:\users\tech\desktop\codetector\sevenSegment3DigitComplex\SevenSegment3DigitComplex.c" 1
 735  001A              	IF 1000==0
 735  001A              ;# 735 "c:\users\tech\desktop\codetector\sevenSegment3DigitComplex\SevenSegment3DigitComplex.c" 1
 735  001A              	JMP $
 735  001A              	ENDIF
 735  001A              ;# 735 "c:\users\tech\desktop\codetector\sevenSegment3DigitComplex\SevenSegment3DigitComplex.c" 1
 735  001A              	IF 1000==1
 735  001A              ;# 735 "c:\users\tech\desktop\codetector\sevenSegment3DigitComplex\SevenSegment3DigitComplex.c" 1
 735  001A              	NOP
 735  001A              	ENDIF
 735  001A              ;# 735 "c:\users\tech\desktop\codetector\sevenSegment3DigitComplex\SevenSegment3DigitComplex.c" 1
 735  001A              	IF 1000==2
 735  001A              ;# 735 "c:\users\tech\desktop\codetector\sevenSegment3DigitComplex\SevenSegment3DigitComplex.c" 1
 735  001A              	NOP
 735  001A              ;# 735 "c:\users\tech\desktop\codetector\sevenSegment3DigitComplex\SevenSegment3DigitComplex.c" 1
 735  001A              	NOP
 735  001A              	ENDIF
 735  001A              ;# 735 "c:\users\tech\desktop\codetector\sevenSegment3DigitComplex\SevenSegment3DigitComplex.c" 1
 735  001A              	IF 1000==3
 735  001A              ;# 735 "c:\users\tech\desktop\codetector\sevenSegment3DigitComplex\SevenSegment3DigitComplex.c" 1
 735  001A              	NOP
 735  001A              ;# 735 "c:\users\tech\desktop\codetector\sevenSegment3DigitComplex\SevenSegment3DigitComplex.c" 1
 735  001A              	NOP
 735  001A              ;# 735 "c:\users\tech\desktop\codetector\sevenSegment3DigitComplex\SevenSegment3DigitComplex.c" 1
 735  001A              	NOP
 735  001A              	ENDIF
 735  001A              ;# 735 "c:\users\tech\desktop\codetector\sevenSegment3DigitComplex\SevenSegment3DigitComplex.c" 1
 735  001A              	IF (1000<8) AND (1000>3)
 735  001A              ;# 735 "c:\users\tech\desktop\codetector\sevenSegment3DigitComplex\SevenSegment3DigitComplex.c" 1
 735  001A              	CALL __DELAY3 + 7 -1000
 735  001A              	ENDIF
 735  001A              ;# 735 "c:\users\tech\desktop\codetector\sevenSegment3DigitComplex\SevenSegment3DigitComplex.c" 1
 735  001A              	IF (1000< 0404h) AND (1000>7)
 735  001A              ;# 735 "c:\users\tech\desktop\codetector\sevenSegment3DigitComplex\SevenSegment3DigitComplex.c" 1
"File: SevenSegment3DigitComplex.c  Assembler  Version HGASM0202      Page 101

 735  001A  0FF9        	MOV A,1000/4-1
 735  001B              ;# 735 "c:\users\tech\desktop\codetector\sevenSegment3DigitComplex\SevenSegment3DigitComplex.c" 1
 735  001B  2000     E  	CALL __DELAYX3 + 3 -(1000 MOD 4)
 735  001C              	ENDIF
 735  001C              ;# 735 "c:\users\tech\desktop\codetector\sevenSegment3DigitComplex\SevenSegment3DigitComplex.c" 1
 735  001C              	IF (1000< 0x40B) AND (1000> 0403h)
 735  001C              ;# 735 "c:\users\tech\desktop\codetector\sevenSegment3DigitComplex\SevenSegment3DigitComplex.c" 1
 735  001C              	MOV A,0 
 735  001C              ;# 735 "c:\users\tech\desktop\codetector\sevenSegment3DigitComplex\SevenSegment3DigitComplex.c" 1
 735  001C              	CALL __DELAYX6 + 0x40a -1000
 735  001C              	ENDIF
 735  001C              ;# 735 "c:\users\tech\desktop\codetector\sevenSegment3DigitComplex\SevenSegment3DigitComplex.c" 1
 735  001C              	IF (1000 >= 0x40b) AND ((((1000-9)%0402h)/4+1)>256)
 735  001C              ;# 735 "c:\users\tech\desktop\codetector\sevenSegment3DigitComplex\SevenSegment3DigitComplex.c" 1
 735  001C              	MOV A,(1000-9)/0402h
 735  001C              ;# 735 "c:\users\tech\desktop\codetector\sevenSegment3DigitComplex\SevenSegment3DigitComplex.c" 1
 735  001C              	MOV _builtin_holtek_delay_2,A
 735  001C              ;# 735 "c:\users\tech\desktop\codetector\sevenSegment3DigitComplex\SevenSegment3DigitComplex.c" 1
 735  001C              	MOV A,0
 735  001C              ;# 735 "c:\users\tech\desktop\codetector\sevenSegment3DigitComplex\SevenSegment3DigitComplex.c" 1
 735  001C              	CALL __DELAYY5 +5- (((1000-9)%0402h)%6)
 735  001C              	ENDIF
 735  001C              ;# 735 "c:\users\tech\desktop\codetector\sevenSegment3DigitComplex\SevenSegment3DigitComplex.c" 1
 735  001C              	IF (1000 >= 0x40b) AND ((((1000-9)%0402h)/4+1)<=256)
 735  001C              ;# 735 "c:\users\tech\desktop\codetector\sevenSegment3DigitComplex\SevenSegment3DigitComplex.c" 1
 735  001C              	MOV A,(1000-9)/0402h
 735  001C              ;# 735 "c:\users\tech\desktop\codetector\sevenSegment3DigitComplex\SevenSegment3DigitComplex.c" 1
 735  001C              	MOV _builtin_holtek_delay_2,A
 735  001C              ;# 735 "c:\users\tech\desktop\codetector\sevenSegment3DigitComplex\SevenSegment3DigitComplex.c" 1
 735  001C              	MOV A,((1000-9)%0402h)/4+1
 735  001C              ;# 735 "c:\users\tech\desktop\codetector\sevenSegment3DigitComplex\SevenSegment3DigitComplex.c" 1
 735  001C              	CALL __DELAYY3 +3-(((1000-9)%0402h)%4)
 735  001C              	ENDIF
 735  001C  0003        	ret
 735  001D              _eightDigit2 endp
 735  001D              #line 735 "c:\users\tech\desktop\codetector\sevenSegment3DigitComplex\SevenSegment3DigitComplex.c"
 735  001D              #pragma debug scope 1 1
 735  001D              public _eightDigit3
 735  001D              #pragma debug scope 32 1
 737  001D              #line 737 "c:\users\tech\desktop\codetector\sevenSegment3DigitComplex\SevenSegment3DigitComplex.c"
 737  0000              _eightDigit3 .section 'code'
 737  0000              _eightDigit3 proc
 741  0000              #line 741 "c:\users\tech\desktop\codetector\sevenSegment3DigitComplex\SevenSegment3DigitComplex.c"
 741  0000  3499        	clr [25].1
 742  0001              #line 742 "c:\users\tech\desktop\codetector\sevenSegment3DigitComplex\SevenSegment3DigitComplex.c"
 742  0001  3615        	clr [21].4
 743  0002              #line 743 "c:\users\tech\desktop\codetector\sevenSegment3DigitComplex\SevenSegment3DigitComplex.c"
 743  0002  3415        	clr [21].0
 744  0003              #line 744 "c:\users\tech\desktop\codetector\sevenSegment3DigitComplex\SevenSegment3DigitComplex.c"
 744  0003  3515        	clr [21].2
 745  0004              #line 745 "c:\users\tech\desktop\codetector\sevenSegment3DigitComplex\SevenSegment3DigitComplex.c"
 745  0004  3599        	clr [25].3
 746  0005              #line 746 "c:\users\tech\desktop\codetector\sevenSegment3DigitComplex\SevenSegment3DigitComplex.c"
 746  0005  3098        	set [24].1
 747  0006              #line 747 "c:\users\tech\desktop\codetector\sevenSegment3DigitComplex\SevenSegment3DigitComplex.c"
 747  0006  3614        	clr [20].4
 748  0007              #line 748 "c:\users\tech\desktop\codetector\sevenSegment3DigitComplex\SevenSegment3DigitComplex.c"
 748  0007  3414        	clr [20].0
 749  0008              #line 749 "c:\users\tech\desktop\codetector\sevenSegment3DigitComplex\SevenSegment3DigitComplex.c"
 749  0008  3514        	clr [20].2
"File: SevenSegment3DigitComplex.c  Assembler  Version HGASM0202      Page 102

 750  0009              #line 750 "c:\users\tech\desktop\codetector\sevenSegment3DigitComplex\SevenSegment3DigitComplex.c"
 750  0009  3598        	clr [24].3
 751  000A              #line 751 "c:\users\tech\desktop\codetector\sevenSegment3DigitComplex\SevenSegment3DigitComplex.c"
 751  000A              ;# 751 "c:\users\tech\desktop\codetector\sevenSegment3DigitComplex\SevenSegment3DigitComplex.c" 1
 751  000A              	IF 1000>263690
 751  000A              ;# 751 "c:\users\tech\desktop\codetector\sevenSegment3DigitComplex\SevenSegment3DigitComplex.c" 1
 751  000A              	ERRMESSAGE 'the value 1000of the argument exceeds the maxinum 263690'
 751  000A              	ENDIF
 751  000A              ;# 751 "c:\users\tech\desktop\codetector\sevenSegment3DigitComplex\SevenSegment3DigitComplex.c" 1
 751  000A              	IF 1000<0
 751  000A              ;# 751 "c:\users\tech\desktop\codetector\sevenSegment3DigitComplex\SevenSegment3DigitComplex.c" 1
 751  000A              	ERRMESSAGE 'the value 1000 of the argument exceeds the mininum 0'
 751  000A              	ENDIF
 751  000A              ;# 751 "c:\users\tech\desktop\codetector\sevenSegment3DigitComplex\SevenSegment3DigitComplex.c" 1
 751  000A              	IF 1000==0
 751  000A              ;# 751 "c:\users\tech\desktop\codetector\sevenSegment3DigitComplex\SevenSegment3DigitComplex.c" 1
 751  000A              	JMP $
 751  000A              	ENDIF
 751  000A              ;# 751 "c:\users\tech\desktop\codetector\sevenSegment3DigitComplex\SevenSegment3DigitComplex.c" 1
 751  000A              	IF 1000==1
 751  000A              ;# 751 "c:\users\tech\desktop\codetector\sevenSegment3DigitComplex\SevenSegment3DigitComplex.c" 1
 751  000A              	NOP
 751  000A              	ENDIF
 751  000A              ;# 751 "c:\users\tech\desktop\codetector\sevenSegment3DigitComplex\SevenSegment3DigitComplex.c" 1
 751  000A              	IF 1000==2
 751  000A              ;# 751 "c:\users\tech\desktop\codetector\sevenSegment3DigitComplex\SevenSegment3DigitComplex.c" 1
 751  000A              	NOP
 751  000A              ;# 751 "c:\users\tech\desktop\codetector\sevenSegment3DigitComplex\SevenSegment3DigitComplex.c" 1
 751  000A              	NOP
 751  000A              	ENDIF
 751  000A              ;# 751 "c:\users\tech\desktop\codetector\sevenSegment3DigitComplex\SevenSegment3DigitComplex.c" 1
 751  000A              	IF 1000==3
 751  000A              ;# 751 "c:\users\tech\desktop\codetector\sevenSegment3DigitComplex\SevenSegment3DigitComplex.c" 1
 751  000A              	NOP
 751  000A              ;# 751 "c:\users\tech\desktop\codetector\sevenSegment3DigitComplex\SevenSegment3DigitComplex.c" 1
 751  000A              	NOP
 751  000A              ;# 751 "c:\users\tech\desktop\codetector\sevenSegment3DigitComplex\SevenSegment3DigitComplex.c" 1
 751  000A              	NOP
 751  000A              	ENDIF
 751  000A              ;# 751 "c:\users\tech\desktop\codetector\sevenSegment3DigitComplex\SevenSegment3DigitComplex.c" 1
 751  000A              	IF (1000<8) AND (1000>3)
 751  000A              ;# 751 "c:\users\tech\desktop\codetector\sevenSegment3DigitComplex\SevenSegment3DigitComplex.c" 1
 751  000A              	CALL __DELAY3 + 7 -1000
 751  000A              	ENDIF
 751  000A              ;# 751 "c:\users\tech\desktop\codetector\sevenSegment3DigitComplex\SevenSegment3DigitComplex.c" 1
 751  000A              	IF (1000< 0404h) AND (1000>7)
 751  000A              ;# 751 "c:\users\tech\desktop\codetector\sevenSegment3DigitComplex\SevenSegment3DigitComplex.c" 1
 751  000A  0FF9        	MOV A,1000/4-1
 751  000B              ;# 751 "c:\users\tech\desktop\codetector\sevenSegment3DigitComplex\SevenSegment3DigitComplex.c" 1
 751  000B  2000     E  	CALL __DELAYX3 + 3 -(1000 MOD 4)
 751  000C              	ENDIF
 751  000C              ;# 751 "c:\users\tech\desktop\codetector\sevenSegment3DigitComplex\SevenSegment3DigitComplex.c" 1
 751  000C              	IF (1000< 0x40B) AND (1000> 0403h)
 751  000C              ;# 751 "c:\users\tech\desktop\codetector\sevenSegment3DigitComplex\SevenSegment3DigitComplex.c" 1
 751  000C              	MOV A,0 
 751  000C              ;# 751 "c:\users\tech\desktop\codetector\sevenSegment3DigitComplex\SevenSegment3DigitComplex.c" 1
 751  000C              	CALL __DELAYX6 + 0x40a -1000
 751  000C              	ENDIF
 751  000C              ;# 751 "c:\users\tech\desktop\codetector\sevenSegment3DigitComplex\SevenSegment3DigitComplex.c" 1
 751  000C              	IF (1000 >= 0x40b) AND ((((1000-9)%0402h)/4+1)>256)
"File: SevenSegment3DigitComplex.c  Assembler  Version HGASM0202      Page 103

 751  000C              ;# 751 "c:\users\tech\desktop\codetector\sevenSegment3DigitComplex\SevenSegment3DigitComplex.c" 1
 751  000C              	MOV A,(1000-9)/0402h
 751  000C              ;# 751 "c:\users\tech\desktop\codetector\sevenSegment3DigitComplex\SevenSegment3DigitComplex.c" 1
 751  000C              	MOV _builtin_holtek_delay_2,A
 751  000C              ;# 751 "c:\users\tech\desktop\codetector\sevenSegment3DigitComplex\SevenSegment3DigitComplex.c" 1
 751  000C              	MOV A,0
 751  000C              ;# 751 "c:\users\tech\desktop\codetector\sevenSegment3DigitComplex\SevenSegment3DigitComplex.c" 1
 751  000C              	CALL __DELAYY5 +5- (((1000-9)%0402h)%6)
 751  000C              	ENDIF
 751  000C              ;# 751 "c:\users\tech\desktop\codetector\sevenSegment3DigitComplex\SevenSegment3DigitComplex.c" 1
 751  000C              	IF (1000 >= 0x40b) AND ((((1000-9)%0402h)/4+1)<=256)
 751  000C              ;# 751 "c:\users\tech\desktop\codetector\sevenSegment3DigitComplex\SevenSegment3DigitComplex.c" 1
 751  000C              	MOV A,(1000-9)/0402h
 751  000C              ;# 751 "c:\users\tech\desktop\codetector\sevenSegment3DigitComplex\SevenSegment3DigitComplex.c" 1
 751  000C              	MOV _builtin_holtek_delay_2,A
 751  000C              ;# 751 "c:\users\tech\desktop\codetector\sevenSegment3DigitComplex\SevenSegment3DigitComplex.c" 1
 751  000C              	MOV A,((1000-9)%0402h)/4+1
 751  000C              ;# 751 "c:\users\tech\desktop\codetector\sevenSegment3DigitComplex\SevenSegment3DigitComplex.c" 1
 751  000C              	CALL __DELAYY3 +3-(((1000-9)%0402h)%4)
 751  000C              	ENDIF
 752  000C              #line 752 "c:\users\tech\desktop\codetector\sevenSegment3DigitComplex\SevenSegment3DigitComplex.c"
 752  000C  2000     R  	call _clearSegment
 753  000D              #line 753 "c:\users\tech\desktop\codetector\sevenSegment3DigitComplex\SevenSegment3DigitComplex.c"
 753  000D  3615        	clr [21].4
 754  000E              #line 754 "c:\users\tech\desktop\codetector\sevenSegment3DigitComplex\SevenSegment3DigitComplex.c"
 754  000E  3415        	clr [21].0
 755  000F              #line 755 "c:\users\tech\desktop\codetector\sevenSegment3DigitComplex\SevenSegment3DigitComplex.c"
 755  000F  3515        	clr [21].2
 756  0010              #line 756 "c:\users\tech\desktop\codetector\sevenSegment3DigitComplex\SevenSegment3DigitComplex.c"
 756  0010  3599        	clr [25].3
 757  0011              #line 757 "c:\users\tech\desktop\codetector\sevenSegment3DigitComplex\SevenSegment3DigitComplex.c"
 757  0011  3214        	set [20].4
 758  0012              #line 758 "c:\users\tech\desktop\codetector\sevenSegment3DigitComplex\SevenSegment3DigitComplex.c"
 758  0012  3414        	clr [20].0
 759  0013              #line 759 "c:\users\tech\desktop\codetector\sevenSegment3DigitComplex\SevenSegment3DigitComplex.c"
 759  0013  3514        	clr [20].2
 760  0014              #line 760 "c:\users\tech\desktop\codetector\sevenSegment3DigitComplex\SevenSegment3DigitComplex.c"
 760  0014  3598        	clr [24].3
 761  0015              #line 761 "c:\users\tech\desktop\codetector\sevenSegment3DigitComplex\SevenSegment3DigitComplex.c"
 761  0015              ;# 761 "c:\users\tech\desktop\codetector\sevenSegment3DigitComplex\SevenSegment3DigitComplex.c" 1
 761  0015              	IF 1000>263690
 761  0015              ;# 761 "c:\users\tech\desktop\codetector\sevenSegment3DigitComplex\SevenSegment3DigitComplex.c" 1
 761  0015              	ERRMESSAGE 'the value 1000of the argument exceeds the maxinum 263690'
 761  0015              	ENDIF
 761  0015              ;# 761 "c:\users\tech\desktop\codetector\sevenSegment3DigitComplex\SevenSegment3DigitComplex.c" 1
 761  0015              	IF 1000<0
 761  0015              ;# 761 "c:\users\tech\desktop\codetector\sevenSegment3DigitComplex\SevenSegment3DigitComplex.c" 1
 761  0015              	ERRMESSAGE 'the value 1000 of the argument exceeds the mininum 0'
 761  0015              	ENDIF
 761  0015              ;# 761 "c:\users\tech\desktop\codetector\sevenSegment3DigitComplex\SevenSegment3DigitComplex.c" 1
 761  0015              	IF 1000==0
 761  0015              ;# 761 "c:\users\tech\desktop\codetector\sevenSegment3DigitComplex\SevenSegment3DigitComplex.c" 1
 761  0015              	JMP $
 761  0015              	ENDIF
 761  0015              ;# 761 "c:\users\tech\desktop\codetector\sevenSegment3DigitComplex\SevenSegment3DigitComplex.c" 1
 761  0015              	IF 1000==1
 761  0015              ;# 761 "c:\users\tech\desktop\codetector\sevenSegment3DigitComplex\SevenSegment3DigitComplex.c" 1
 761  0015              	NOP
 761  0015              	ENDIF
 761  0015              ;# 761 "c:\users\tech\desktop\codetector\sevenSegment3DigitComplex\SevenSegment3DigitComplex.c" 1
"File: SevenSegment3DigitComplex.c  Assembler  Version HGASM0202      Page 104

 761  0015              	IF 1000==2
 761  0015              ;# 761 "c:\users\tech\desktop\codetector\sevenSegment3DigitComplex\SevenSegment3DigitComplex.c" 1
 761  0015              	NOP
 761  0015              ;# 761 "c:\users\tech\desktop\codetector\sevenSegment3DigitComplex\SevenSegment3DigitComplex.c" 1
 761  0015              	NOP
 761  0015              	ENDIF
 761  0015              ;# 761 "c:\users\tech\desktop\codetector\sevenSegment3DigitComplex\SevenSegment3DigitComplex.c" 1
 761  0015              	IF 1000==3
 761  0015              ;# 761 "c:\users\tech\desktop\codetector\sevenSegment3DigitComplex\SevenSegment3DigitComplex.c" 1
 761  0015              	NOP
 761  0015              ;# 761 "c:\users\tech\desktop\codetector\sevenSegment3DigitComplex\SevenSegment3DigitComplex.c" 1
 761  0015              	NOP
 761  0015              ;# 761 "c:\users\tech\desktop\codetector\sevenSegment3DigitComplex\SevenSegment3DigitComplex.c" 1
 761  0015              	NOP
 761  0015              	ENDIF
 761  0015              ;# 761 "c:\users\tech\desktop\codetector\sevenSegment3DigitComplex\SevenSegment3DigitComplex.c" 1
 761  0015              	IF (1000<8) AND (1000>3)
 761  0015              ;# 761 "c:\users\tech\desktop\codetector\sevenSegment3DigitComplex\SevenSegment3DigitComplex.c" 1
 761  0015              	CALL __DELAY3 + 7 -1000
 761  0015              	ENDIF
 761  0015              ;# 761 "c:\users\tech\desktop\codetector\sevenSegment3DigitComplex\SevenSegment3DigitComplex.c" 1
 761  0015              	IF (1000< 0404h) AND (1000>7)
 761  0015              ;# 761 "c:\users\tech\desktop\codetector\sevenSegment3DigitComplex\SevenSegment3DigitComplex.c" 1
 761  0015  0FF9        	MOV A,1000/4-1
 761  0016              ;# 761 "c:\users\tech\desktop\codetector\sevenSegment3DigitComplex\SevenSegment3DigitComplex.c" 1
 761  0016  2000     E  	CALL __DELAYX3 + 3 -(1000 MOD 4)
 761  0017              	ENDIF
 761  0017              ;# 761 "c:\users\tech\desktop\codetector\sevenSegment3DigitComplex\SevenSegment3DigitComplex.c" 1
 761  0017              	IF (1000< 0x40B) AND (1000> 0403h)
 761  0017              ;# 761 "c:\users\tech\desktop\codetector\sevenSegment3DigitComplex\SevenSegment3DigitComplex.c" 1
 761  0017              	MOV A,0 
 761  0017              ;# 761 "c:\users\tech\desktop\codetector\sevenSegment3DigitComplex\SevenSegment3DigitComplex.c" 1
 761  0017              	CALL __DELAYX6 + 0x40a -1000
 761  0017              	ENDIF
 761  0017              ;# 761 "c:\users\tech\desktop\codetector\sevenSegment3DigitComplex\SevenSegment3DigitComplex.c" 1
 761  0017              	IF (1000 >= 0x40b) AND ((((1000-9)%0402h)/4+1)>256)
 761  0017              ;# 761 "c:\users\tech\desktop\codetector\sevenSegment3DigitComplex\SevenSegment3DigitComplex.c" 1
 761  0017              	MOV A,(1000-9)/0402h
 761  0017              ;# 761 "c:\users\tech\desktop\codetector\sevenSegment3DigitComplex\SevenSegment3DigitComplex.c" 1
 761  0017              	MOV _builtin_holtek_delay_2,A
 761  0017              ;# 761 "c:\users\tech\desktop\codetector\sevenSegment3DigitComplex\SevenSegment3DigitComplex.c" 1
 761  0017              	MOV A,0
 761  0017              ;# 761 "c:\users\tech\desktop\codetector\sevenSegment3DigitComplex\SevenSegment3DigitComplex.c" 1
 761  0017              	CALL __DELAYY5 +5- (((1000-9)%0402h)%6)
 761  0017              	ENDIF
 761  0017              ;# 761 "c:\users\tech\desktop\codetector\sevenSegment3DigitComplex\SevenSegment3DigitComplex.c" 1
 761  0017              	IF (1000 >= 0x40b) AND ((((1000-9)%0402h)/4+1)<=256)
 761  0017              ;# 761 "c:\users\tech\desktop\codetector\sevenSegment3DigitComplex\SevenSegment3DigitComplex.c" 1
 761  0017              	MOV A,(1000-9)/0402h
 761  0017              ;# 761 "c:\users\tech\desktop\codetector\sevenSegment3DigitComplex\SevenSegment3DigitComplex.c" 1
 761  0017              	MOV _builtin_holtek_delay_2,A
 761  0017              ;# 761 "c:\users\tech\desktop\codetector\sevenSegment3DigitComplex\SevenSegment3DigitComplex.c" 1
 761  0017              	MOV A,((1000-9)%0402h)/4+1
 761  0017              ;# 761 "c:\users\tech\desktop\codetector\sevenSegment3DigitComplex\SevenSegment3DigitComplex.c" 1
 761  0017              	CALL __DELAYY3 +3-(((1000-9)%0402h)%4)
 761  0017              	ENDIF
 761  0017  0003        	ret
 761  0018              _eightDigit3 endp
 761  0018              #line 761 "c:\users\tech\desktop\codetector\sevenSegment3DigitComplex\SevenSegment3DigitComplex.c"
 761  0018              #pragma debug scope 1 1
"File: SevenSegment3DigitComplex.c  Assembler  Version HGASM0202      Page 105

 761  0018              public _nineDigit1
 761  0018              #pragma debug scope 33 1
 765  0018              #line 765 "c:\users\tech\desktop\codetector\sevenSegment3DigitComplex\SevenSegment3DigitComplex.c"
 765  0000              _nineDigit1 .section 'code'
 765  0000              _nineDigit1 proc
 768  0000              #line 768 "c:\users\tech\desktop\codetector\sevenSegment3DigitComplex\SevenSegment3DigitComplex.c"
 768  0000              ;# 768 "c:\users\tech\desktop\codetector\sevenSegment3DigitComplex\SevenSegment3DigitComplex.c" 1
 768  0000              	IF 1000>263690
 768  0000              ;# 768 "c:\users\tech\desktop\codetector\sevenSegment3DigitComplex\SevenSegment3DigitComplex.c" 1
 768  0000              	ERRMESSAGE 'the value 1000of the argument exceeds the maxinum 263690'
 768  0000              	ENDIF
 768  0000              ;# 768 "c:\users\tech\desktop\codetector\sevenSegment3DigitComplex\SevenSegment3DigitComplex.c" 1
 768  0000              	IF 1000<0
 768  0000              ;# 768 "c:\users\tech\desktop\codetector\sevenSegment3DigitComplex\SevenSegment3DigitComplex.c" 1
 768  0000              	ERRMESSAGE 'the value 1000 of the argument exceeds the mininum 0'
 768  0000              	ENDIF
 768  0000              ;# 768 "c:\users\tech\desktop\codetector\sevenSegment3DigitComplex\SevenSegment3DigitComplex.c" 1
 768  0000              	IF 1000==0
 768  0000              ;# 768 "c:\users\tech\desktop\codetector\sevenSegment3DigitComplex\SevenSegment3DigitComplex.c" 1
 768  0000              	JMP $
 768  0000              	ENDIF
 768  0000              ;# 768 "c:\users\tech\desktop\codetector\sevenSegment3DigitComplex\SevenSegment3DigitComplex.c" 1
 768  0000              	IF 1000==1
 768  0000              ;# 768 "c:\users\tech\desktop\codetector\sevenSegment3DigitComplex\SevenSegment3DigitComplex.c" 1
 768  0000              	NOP
 768  0000              	ENDIF
 768  0000              ;# 768 "c:\users\tech\desktop\codetector\sevenSegment3DigitComplex\SevenSegment3DigitComplex.c" 1
 768  0000              	IF 1000==2
 768  0000              ;# 768 "c:\users\tech\desktop\codetector\sevenSegment3DigitComplex\SevenSegment3DigitComplex.c" 1
 768  0000              	NOP
 768  0000              ;# 768 "c:\users\tech\desktop\codetector\sevenSegment3DigitComplex\SevenSegment3DigitComplex.c" 1
 768  0000              	NOP
 768  0000              	ENDIF
 768  0000              ;# 768 "c:\users\tech\desktop\codetector\sevenSegment3DigitComplex\SevenSegment3DigitComplex.c" 1
 768  0000              	IF 1000==3
 768  0000              ;# 768 "c:\users\tech\desktop\codetector\sevenSegment3DigitComplex\SevenSegment3DigitComplex.c" 1
 768  0000              	NOP
 768  0000              ;# 768 "c:\users\tech\desktop\codetector\sevenSegment3DigitComplex\SevenSegment3DigitComplex.c" 1
 768  0000              	NOP
 768  0000              ;# 768 "c:\users\tech\desktop\codetector\sevenSegment3DigitComplex\SevenSegment3DigitComplex.c" 1
 768  0000              	NOP
 768  0000              	ENDIF
 768  0000              ;# 768 "c:\users\tech\desktop\codetector\sevenSegment3DigitComplex\SevenSegment3DigitComplex.c" 1
 768  0000              	IF (1000<8) AND (1000>3)
 768  0000              ;# 768 "c:\users\tech\desktop\codetector\sevenSegment3DigitComplex\SevenSegment3DigitComplex.c" 1
 768  0000              	CALL __DELAY3 + 7 -1000
 768  0000              	ENDIF
 768  0000              ;# 768 "c:\users\tech\desktop\codetector\sevenSegment3DigitComplex\SevenSegment3DigitComplex.c" 1
 768  0000              	IF (1000< 0404h) AND (1000>7)
 768  0000              ;# 768 "c:\users\tech\desktop\codetector\sevenSegment3DigitComplex\SevenSegment3DigitComplex.c" 1
 768  0000  0FF9        	MOV A,1000/4-1
 768  0001              ;# 768 "c:\users\tech\desktop\codetector\sevenSegment3DigitComplex\SevenSegment3DigitComplex.c" 1
 768  0001  2000     E  	CALL __DELAYX3 + 3 -(1000 MOD 4)
 768  0002              	ENDIF
 768  0002              ;# 768 "c:\users\tech\desktop\codetector\sevenSegment3DigitComplex\SevenSegment3DigitComplex.c" 1
 768  0002              	IF (1000< 0x40B) AND (1000> 0403h)
 768  0002              ;# 768 "c:\users\tech\desktop\codetector\sevenSegment3DigitComplex\SevenSegment3DigitComplex.c" 1
 768  0002              	MOV A,0 
 768  0002              ;# 768 "c:\users\tech\desktop\codetector\sevenSegment3DigitComplex\SevenSegment3DigitComplex.c" 1
 768  0002              	CALL __DELAYX6 + 0x40a -1000
"File: SevenSegment3DigitComplex.c  Assembler  Version HGASM0202      Page 106

 768  0002              	ENDIF
 768  0002              ;# 768 "c:\users\tech\desktop\codetector\sevenSegment3DigitComplex\SevenSegment3DigitComplex.c" 1
 768  0002              	IF (1000 >= 0x40b) AND ((((1000-9)%0402h)/4+1)>256)
 768  0002              ;# 768 "c:\users\tech\desktop\codetector\sevenSegment3DigitComplex\SevenSegment3DigitComplex.c" 1
 768  0002              	MOV A,(1000-9)/0402h
 768  0002              ;# 768 "c:\users\tech\desktop\codetector\sevenSegment3DigitComplex\SevenSegment3DigitComplex.c" 1
 768  0002              	MOV _builtin_holtek_delay_2,A
 768  0002              ;# 768 "c:\users\tech\desktop\codetector\sevenSegment3DigitComplex\SevenSegment3DigitComplex.c" 1
 768  0002              	MOV A,0
 768  0002              ;# 768 "c:\users\tech\desktop\codetector\sevenSegment3DigitComplex\SevenSegment3DigitComplex.c" 1
 768  0002              	CALL __DELAYY5 +5- (((1000-9)%0402h)%6)
 768  0002              	ENDIF
 768  0002              ;# 768 "c:\users\tech\desktop\codetector\sevenSegment3DigitComplex\SevenSegment3DigitComplex.c" 1
 768  0002              	IF (1000 >= 0x40b) AND ((((1000-9)%0402h)/4+1)<=256)
 768  0002              ;# 768 "c:\users\tech\desktop\codetector\sevenSegment3DigitComplex\SevenSegment3DigitComplex.c" 1
 768  0002              	MOV A,(1000-9)/0402h
 768  0002              ;# 768 "c:\users\tech\desktop\codetector\sevenSegment3DigitComplex\SevenSegment3DigitComplex.c" 1
 768  0002              	MOV _builtin_holtek_delay_2,A
 768  0002              ;# 768 "c:\users\tech\desktop\codetector\sevenSegment3DigitComplex\SevenSegment3DigitComplex.c" 1
 768  0002              	MOV A,((1000-9)%0402h)/4+1
 768  0002              ;# 768 "c:\users\tech\desktop\codetector\sevenSegment3DigitComplex\SevenSegment3DigitComplex.c" 1
 768  0002              	CALL __DELAYY3 +3-(((1000-9)%0402h)%4)
 768  0002              	ENDIF
 769  0002              #line 769 "c:\users\tech\desktop\codetector\sevenSegment3DigitComplex\SevenSegment3DigitComplex.c"
 769  0002  3519        	clr [25].2
 770  0003              #line 770 "c:\users\tech\desktop\codetector\sevenSegment3DigitComplex\SevenSegment3DigitComplex.c"
 770  0003  3499        	clr [25].1
 771  0004              #line 771 "c:\users\tech\desktop\codetector\sevenSegment3DigitComplex\SevenSegment3DigitComplex.c"
 771  0004  3615        	clr [21].4
 772  0005              #line 772 "c:\users\tech\desktop\codetector\sevenSegment3DigitComplex\SevenSegment3DigitComplex.c"
 772  0005  3415        	clr [21].0
 773  0006              #line 773 "c:\users\tech\desktop\codetector\sevenSegment3DigitComplex\SevenSegment3DigitComplex.c"
 773  0006  3515        	clr [21].2
 774  0007              #line 774 "c:\users\tech\desktop\codetector\sevenSegment3DigitComplex\SevenSegment3DigitComplex.c"
 774  0007  3518        	clr [24].2
 775  0008              #line 775 "c:\users\tech\desktop\codetector\sevenSegment3DigitComplex\SevenSegment3DigitComplex.c"
 775  0008  3098        	set [24].1
 776  0009              #line 776 "c:\users\tech\desktop\codetector\sevenSegment3DigitComplex\SevenSegment3DigitComplex.c"
 776  0009  3214        	set [20].4
 777  000A              #line 777 "c:\users\tech\desktop\codetector\sevenSegment3DigitComplex\SevenSegment3DigitComplex.c"
 777  000A  3014        	set [20].0
 778  000B              #line 778 "c:\users\tech\desktop\codetector\sevenSegment3DigitComplex\SevenSegment3DigitComplex.c"
 778  000B  3114        	set [20].2
 781  000C              #line 781 "c:\users\tech\desktop\codetector\sevenSegment3DigitComplex\SevenSegment3DigitComplex.c"
 781  000C              ;# 781 "c:\users\tech\desktop\codetector\sevenSegment3DigitComplex\SevenSegment3DigitComplex.c" 1
 781  000C              	IF 1000>263690
 781  000C              ;# 781 "c:\users\tech\desktop\codetector\sevenSegment3DigitComplex\SevenSegment3DigitComplex.c" 1
 781  000C              	ERRMESSAGE 'the value 1000of the argument exceeds the maxinum 263690'
 781  000C              	ENDIF
 781  000C              ;# 781 "c:\users\tech\desktop\codetector\sevenSegment3DigitComplex\SevenSegment3DigitComplex.c" 1
 781  000C              	IF 1000<0
 781  000C              ;# 781 "c:\users\tech\desktop\codetector\sevenSegment3DigitComplex\SevenSegment3DigitComplex.c" 1
 781  000C              	ERRMESSAGE 'the value 1000 of the argument exceeds the mininum 0'
 781  000C              	ENDIF
 781  000C              ;# 781 "c:\users\tech\desktop\codetector\sevenSegment3DigitComplex\SevenSegment3DigitComplex.c" 1
 781  000C              	IF 1000==0
 781  000C              ;# 781 "c:\users\tech\desktop\codetector\sevenSegment3DigitComplex\SevenSegment3DigitComplex.c" 1
 781  000C              	JMP $
 781  000C              	ENDIF
 781  000C              ;# 781 "c:\users\tech\desktop\codetector\sevenSegment3DigitComplex\SevenSegment3DigitComplex.c" 1
"File: SevenSegment3DigitComplex.c  Assembler  Version HGASM0202      Page 107

 781  000C              	IF 1000==1
 781  000C              ;# 781 "c:\users\tech\desktop\codetector\sevenSegment3DigitComplex\SevenSegment3DigitComplex.c" 1
 781  000C              	NOP
 781  000C              	ENDIF
 781  000C              ;# 781 "c:\users\tech\desktop\codetector\sevenSegment3DigitComplex\SevenSegment3DigitComplex.c" 1
 781  000C              	IF 1000==2
 781  000C              ;# 781 "c:\users\tech\desktop\codetector\sevenSegment3DigitComplex\SevenSegment3DigitComplex.c" 1
 781  000C              	NOP
 781  000C              ;# 781 "c:\users\tech\desktop\codetector\sevenSegment3DigitComplex\SevenSegment3DigitComplex.c" 1
 781  000C              	NOP
 781  000C              	ENDIF
 781  000C              ;# 781 "c:\users\tech\desktop\codetector\sevenSegment3DigitComplex\SevenSegment3DigitComplex.c" 1
 781  000C              	IF 1000==3
 781  000C              ;# 781 "c:\users\tech\desktop\codetector\sevenSegment3DigitComplex\SevenSegment3DigitComplex.c" 1
 781  000C              	NOP
 781  000C              ;# 781 "c:\users\tech\desktop\codetector\sevenSegment3DigitComplex\SevenSegment3DigitComplex.c" 1
 781  000C              	NOP
 781  000C              ;# 781 "c:\users\tech\desktop\codetector\sevenSegment3DigitComplex\SevenSegment3DigitComplex.c" 1
 781  000C              	NOP
 781  000C              	ENDIF
 781  000C              ;# 781 "c:\users\tech\desktop\codetector\sevenSegment3DigitComplex\SevenSegment3DigitComplex.c" 1
 781  000C              	IF (1000<8) AND (1000>3)
 781  000C              ;# 781 "c:\users\tech\desktop\codetector\sevenSegment3DigitComplex\SevenSegment3DigitComplex.c" 1
 781  000C              	CALL __DELAY3 + 7 -1000
 781  000C              	ENDIF
 781  000C              ;# 781 "c:\users\tech\desktop\codetector\sevenSegment3DigitComplex\SevenSegment3DigitComplex.c" 1
 781  000C              	IF (1000< 0404h) AND (1000>7)
 781  000C              ;# 781 "c:\users\tech\desktop\codetector\sevenSegment3DigitComplex\SevenSegment3DigitComplex.c" 1
 781  000C  0FF9        	MOV A,1000/4-1
 781  000D              ;# 781 "c:\users\tech\desktop\codetector\sevenSegment3DigitComplex\SevenSegment3DigitComplex.c" 1
 781  000D  2000     E  	CALL __DELAYX3 + 3 -(1000 MOD 4)
 781  000E              	ENDIF
 781  000E              ;# 781 "c:\users\tech\desktop\codetector\sevenSegment3DigitComplex\SevenSegment3DigitComplex.c" 1
 781  000E              	IF (1000< 0x40B) AND (1000> 0403h)
 781  000E              ;# 781 "c:\users\tech\desktop\codetector\sevenSegment3DigitComplex\SevenSegment3DigitComplex.c" 1
 781  000E              	MOV A,0 
 781  000E              ;# 781 "c:\users\tech\desktop\codetector\sevenSegment3DigitComplex\SevenSegment3DigitComplex.c" 1
 781  000E              	CALL __DELAYX6 + 0x40a -1000
 781  000E              	ENDIF
 781  000E              ;# 781 "c:\users\tech\desktop\codetector\sevenSegment3DigitComplex\SevenSegment3DigitComplex.c" 1
 781  000E              	IF (1000 >= 0x40b) AND ((((1000-9)%0402h)/4+1)>256)
 781  000E              ;# 781 "c:\users\tech\desktop\codetector\sevenSegment3DigitComplex\SevenSegment3DigitComplex.c" 1
 781  000E              	MOV A,(1000-9)/0402h
 781  000E              ;# 781 "c:\users\tech\desktop\codetector\sevenSegment3DigitComplex\SevenSegment3DigitComplex.c" 1
 781  000E              	MOV _builtin_holtek_delay_2,A
 781  000E              ;# 781 "c:\users\tech\desktop\codetector\sevenSegment3DigitComplex\SevenSegment3DigitComplex.c" 1
 781  000E              	MOV A,0
 781  000E              ;# 781 "c:\users\tech\desktop\codetector\sevenSegment3DigitComplex\SevenSegment3DigitComplex.c" 1
 781  000E              	CALL __DELAYY5 +5- (((1000-9)%0402h)%6)
 781  000E              	ENDIF
 781  000E              ;# 781 "c:\users\tech\desktop\codetector\sevenSegment3DigitComplex\SevenSegment3DigitComplex.c" 1
 781  000E              	IF (1000 >= 0x40b) AND ((((1000-9)%0402h)/4+1)<=256)
 781  000E              ;# 781 "c:\users\tech\desktop\codetector\sevenSegment3DigitComplex\SevenSegment3DigitComplex.c" 1
 781  000E              	MOV A,(1000-9)/0402h
 781  000E              ;# 781 "c:\users\tech\desktop\codetector\sevenSegment3DigitComplex\SevenSegment3DigitComplex.c" 1
 781  000E              	MOV _builtin_holtek_delay_2,A
 781  000E              ;# 781 "c:\users\tech\desktop\codetector\sevenSegment3DigitComplex\SevenSegment3DigitComplex.c" 1
 781  000E              	MOV A,((1000-9)%0402h)/4+1
 781  000E              ;# 781 "c:\users\tech\desktop\codetector\sevenSegment3DigitComplex\SevenSegment3DigitComplex.c" 1
 781  000E              	CALL __DELAYY3 +3-(((1000-9)%0402h)%4)
"File: SevenSegment3DigitComplex.c  Assembler  Version HGASM0202      Page 108

 781  000E              	ENDIF
 783  000E              #line 783 "c:\users\tech\desktop\codetector\sevenSegment3DigitComplex\SevenSegment3DigitComplex.c"
 783  000E  2000     R  	call _clearSegment
 784  000F              #line 784 "c:\users\tech\desktop\codetector\sevenSegment3DigitComplex\SevenSegment3DigitComplex.c"
 784  000F  3499        	clr [25].1
 785  0010              #line 785 "c:\users\tech\desktop\codetector\sevenSegment3DigitComplex\SevenSegment3DigitComplex.c"
 785  0010  3615        	clr [21].4
 786  0011              #line 786 "c:\users\tech\desktop\codetector\sevenSegment3DigitComplex\SevenSegment3DigitComplex.c"
 786  0011  3498        	clr [24].1
 787  0012              #line 787 "c:\users\tech\desktop\codetector\sevenSegment3DigitComplex\SevenSegment3DigitComplex.c"
 787  0012  3214        	set [20].4
 789  0013              #line 789 "c:\users\tech\desktop\codetector\sevenSegment3DigitComplex\SevenSegment3DigitComplex.c"
 789  0013              ;# 789 "c:\users\tech\desktop\codetector\sevenSegment3DigitComplex\SevenSegment3DigitComplex.c" 1
 789  0013              	IF 1000>263690
 789  0013              ;# 789 "c:\users\tech\desktop\codetector\sevenSegment3DigitComplex\SevenSegment3DigitComplex.c" 1
 789  0013              	ERRMESSAGE 'the value 1000of the argument exceeds the maxinum 263690'
 789  0013              	ENDIF
 789  0013              ;# 789 "c:\users\tech\desktop\codetector\sevenSegment3DigitComplex\SevenSegment3DigitComplex.c" 1
 789  0013              	IF 1000<0
 789  0013              ;# 789 "c:\users\tech\desktop\codetector\sevenSegment3DigitComplex\SevenSegment3DigitComplex.c" 1
 789  0013              	ERRMESSAGE 'the value 1000 of the argument exceeds the mininum 0'
 789  0013              	ENDIF
 789  0013              ;# 789 "c:\users\tech\desktop\codetector\sevenSegment3DigitComplex\SevenSegment3DigitComplex.c" 1
 789  0013              	IF 1000==0
 789  0013              ;# 789 "c:\users\tech\desktop\codetector\sevenSegment3DigitComplex\SevenSegment3DigitComplex.c" 1
 789  0013              	JMP $
 789  0013              	ENDIF
 789  0013              ;# 789 "c:\users\tech\desktop\codetector\sevenSegment3DigitComplex\SevenSegment3DigitComplex.c" 1
 789  0013              	IF 1000==1
 789  0013              ;# 789 "c:\users\tech\desktop\codetector\sevenSegment3DigitComplex\SevenSegment3DigitComplex.c" 1
 789  0013              	NOP
 789  0013              	ENDIF
 789  0013              ;# 789 "c:\users\tech\desktop\codetector\sevenSegment3DigitComplex\SevenSegment3DigitComplex.c" 1
 789  0013              	IF 1000==2
 789  0013              ;# 789 "c:\users\tech\desktop\codetector\sevenSegment3DigitComplex\SevenSegment3DigitComplex.c" 1
 789  0013              	NOP
 789  0013              ;# 789 "c:\users\tech\desktop\codetector\sevenSegment3DigitComplex\SevenSegment3DigitComplex.c" 1
 789  0013              	NOP
 789  0013              	ENDIF
 789  0013              ;# 789 "c:\users\tech\desktop\codetector\sevenSegment3DigitComplex\SevenSegment3DigitComplex.c" 1
 789  0013              	IF 1000==3
 789  0013              ;# 789 "c:\users\tech\desktop\codetector\sevenSegment3DigitComplex\SevenSegment3DigitComplex.c" 1
 789  0013              	NOP
 789  0013              ;# 789 "c:\users\tech\desktop\codetector\sevenSegment3DigitComplex\SevenSegment3DigitComplex.c" 1
 789  0013              	NOP
 789  0013              ;# 789 "c:\users\tech\desktop\codetector\sevenSegment3DigitComplex\SevenSegment3DigitComplex.c" 1
 789  0013              	NOP
 789  0013              	ENDIF
 789  0013              ;# 789 "c:\users\tech\desktop\codetector\sevenSegment3DigitComplex\SevenSegment3DigitComplex.c" 1
 789  0013              	IF (1000<8) AND (1000>3)
 789  0013              ;# 789 "c:\users\tech\desktop\codetector\sevenSegment3DigitComplex\SevenSegment3DigitComplex.c" 1
 789  0013              	CALL __DELAY3 + 7 -1000
 789  0013              	ENDIF
 789  0013              ;# 789 "c:\users\tech\desktop\codetector\sevenSegment3DigitComplex\SevenSegment3DigitComplex.c" 1
 789  0013              	IF (1000< 0404h) AND (1000>7)
 789  0013              ;# 789 "c:\users\tech\desktop\codetector\sevenSegment3DigitComplex\SevenSegment3DigitComplex.c" 1
 789  0013  0FF9        	MOV A,1000/4-1
 789  0014              ;# 789 "c:\users\tech\desktop\codetector\sevenSegment3DigitComplex\SevenSegment3DigitComplex.c" 1
 789  0014  2000     E  	CALL __DELAYX3 + 3 -(1000 MOD 4)
 789  0015              	ENDIF
"File: SevenSegment3DigitComplex.c  Assembler  Version HGASM0202      Page 109

 789  0015              ;# 789 "c:\users\tech\desktop\codetector\sevenSegment3DigitComplex\SevenSegment3DigitComplex.c" 1
 789  0015              	IF (1000< 0x40B) AND (1000> 0403h)
 789  0015              ;# 789 "c:\users\tech\desktop\codetector\sevenSegment3DigitComplex\SevenSegment3DigitComplex.c" 1
 789  0015              	MOV A,0 
 789  0015              ;# 789 "c:\users\tech\desktop\codetector\sevenSegment3DigitComplex\SevenSegment3DigitComplex.c" 1
 789  0015              	CALL __DELAYX6 + 0x40a -1000
 789  0015              	ENDIF
 789  0015              ;# 789 "c:\users\tech\desktop\codetector\sevenSegment3DigitComplex\SevenSegment3DigitComplex.c" 1
 789  0015              	IF (1000 >= 0x40b) AND ((((1000-9)%0402h)/4+1)>256)
 789  0015              ;# 789 "c:\users\tech\desktop\codetector\sevenSegment3DigitComplex\SevenSegment3DigitComplex.c" 1
 789  0015              	MOV A,(1000-9)/0402h
 789  0015              ;# 789 "c:\users\tech\desktop\codetector\sevenSegment3DigitComplex\SevenSegment3DigitComplex.c" 1
 789  0015              	MOV _builtin_holtek_delay_2,A
 789  0015              ;# 789 "c:\users\tech\desktop\codetector\sevenSegment3DigitComplex\SevenSegment3DigitComplex.c" 1
 789  0015              	MOV A,0
 789  0015              ;# 789 "c:\users\tech\desktop\codetector\sevenSegment3DigitComplex\SevenSegment3DigitComplex.c" 1
 789  0015              	CALL __DELAYY5 +5- (((1000-9)%0402h)%6)
 789  0015              	ENDIF
 789  0015              ;# 789 "c:\users\tech\desktop\codetector\sevenSegment3DigitComplex\SevenSegment3DigitComplex.c" 1
 789  0015              	IF (1000 >= 0x40b) AND ((((1000-9)%0402h)/4+1)<=256)
 789  0015              ;# 789 "c:\users\tech\desktop\codetector\sevenSegment3DigitComplex\SevenSegment3DigitComplex.c" 1
 789  0015              	MOV A,(1000-9)/0402h
 789  0015              ;# 789 "c:\users\tech\desktop\codetector\sevenSegment3DigitComplex\SevenSegment3DigitComplex.c" 1
 789  0015              	MOV _builtin_holtek_delay_2,A
 789  0015              ;# 789 "c:\users\tech\desktop\codetector\sevenSegment3DigitComplex\SevenSegment3DigitComplex.c" 1
 789  0015              	MOV A,((1000-9)%0402h)/4+1
 789  0015              ;# 789 "c:\users\tech\desktop\codetector\sevenSegment3DigitComplex\SevenSegment3DigitComplex.c" 1
 789  0015              	CALL __DELAYY3 +3-(((1000-9)%0402h)%4)
 789  0015              	ENDIF
 790  0015              #line 790 "c:\users\tech\desktop\codetector\sevenSegment3DigitComplex\SevenSegment3DigitComplex.c"
 790  0015  2000     R  	call _clearSegment
 791  0016              #line 791 "c:\users\tech\desktop\codetector\sevenSegment3DigitComplex\SevenSegment3DigitComplex.c"
 791  0016  3499        	clr [25].1
 792  0017              #line 792 "c:\users\tech\desktop\codetector\sevenSegment3DigitComplex\SevenSegment3DigitComplex.c"
 792  0017  3415        	clr [21].0
 793  0018              #line 793 "c:\users\tech\desktop\codetector\sevenSegment3DigitComplex\SevenSegment3DigitComplex.c"
 793  0018  3014        	set [20].0
 794  0019              #line 794 "c:\users\tech\desktop\codetector\sevenSegment3DigitComplex\SevenSegment3DigitComplex.c"
 794  0019  3498        	clr [24].1
 795  001A              #line 795 "c:\users\tech\desktop\codetector\sevenSegment3DigitComplex\SevenSegment3DigitComplex.c"
 795  001A              ;# 795 "c:\users\tech\desktop\codetector\sevenSegment3DigitComplex\SevenSegment3DigitComplex.c" 1
 795  001A              	IF 1000>263690
 795  001A              ;# 795 "c:\users\tech\desktop\codetector\sevenSegment3DigitComplex\SevenSegment3DigitComplex.c" 1
 795  001A              	ERRMESSAGE 'the value 1000of the argument exceeds the maxinum 263690'
 795  001A              	ENDIF
 795  001A              ;# 795 "c:\users\tech\desktop\codetector\sevenSegment3DigitComplex\SevenSegment3DigitComplex.c" 1
 795  001A              	IF 1000<0
 795  001A              ;# 795 "c:\users\tech\desktop\codetector\sevenSegment3DigitComplex\SevenSegment3DigitComplex.c" 1
 795  001A              	ERRMESSAGE 'the value 1000 of the argument exceeds the mininum 0'
 795  001A              	ENDIF
 795  001A              ;# 795 "c:\users\tech\desktop\codetector\sevenSegment3DigitComplex\SevenSegment3DigitComplex.c" 1
 795  001A              	IF 1000==0
 795  001A              ;# 795 "c:\users\tech\desktop\codetector\sevenSegment3DigitComplex\SevenSegment3DigitComplex.c" 1
 795  001A              	JMP $
 795  001A              	ENDIF
 795  001A              ;# 795 "c:\users\tech\desktop\codetector\sevenSegment3DigitComplex\SevenSegment3DigitComplex.c" 1
 795  001A              	IF 1000==1
 795  001A              ;# 795 "c:\users\tech\desktop\codetector\sevenSegment3DigitComplex\SevenSegment3DigitComplex.c" 1
 795  001A              	NOP
 795  001A              	ENDIF
"File: SevenSegment3DigitComplex.c  Assembler  Version HGASM0202      Page 110

 795  001A              ;# 795 "c:\users\tech\desktop\codetector\sevenSegment3DigitComplex\SevenSegment3DigitComplex.c" 1
 795  001A              	IF 1000==2
 795  001A              ;# 795 "c:\users\tech\desktop\codetector\sevenSegment3DigitComplex\SevenSegment3DigitComplex.c" 1
 795  001A              	NOP
 795  001A              ;# 795 "c:\users\tech\desktop\codetector\sevenSegment3DigitComplex\SevenSegment3DigitComplex.c" 1
 795  001A              	NOP
 795  001A              	ENDIF
 795  001A              ;# 795 "c:\users\tech\desktop\codetector\sevenSegment3DigitComplex\SevenSegment3DigitComplex.c" 1
 795  001A              	IF 1000==3
 795  001A              ;# 795 "c:\users\tech\desktop\codetector\sevenSegment3DigitComplex\SevenSegment3DigitComplex.c" 1
 795  001A              	NOP
 795  001A              ;# 795 "c:\users\tech\desktop\codetector\sevenSegment3DigitComplex\SevenSegment3DigitComplex.c" 1
 795  001A              	NOP
 795  001A              ;# 795 "c:\users\tech\desktop\codetector\sevenSegment3DigitComplex\SevenSegment3DigitComplex.c" 1
 795  001A              	NOP
 795  001A              	ENDIF
 795  001A              ;# 795 "c:\users\tech\desktop\codetector\sevenSegment3DigitComplex\SevenSegment3DigitComplex.c" 1
 795  001A              	IF (1000<8) AND (1000>3)
 795  001A              ;# 795 "c:\users\tech\desktop\codetector\sevenSegment3DigitComplex\SevenSegment3DigitComplex.c" 1
 795  001A              	CALL __DELAY3 + 7 -1000
 795  001A              	ENDIF
 795  001A              ;# 795 "c:\users\tech\desktop\codetector\sevenSegment3DigitComplex\SevenSegment3DigitComplex.c" 1
 795  001A              	IF (1000< 0404h) AND (1000>7)
 795  001A              ;# 795 "c:\users\tech\desktop\codetector\sevenSegment3DigitComplex\SevenSegment3DigitComplex.c" 1
 795  001A  0FF9        	MOV A,1000/4-1
 795  001B              ;# 795 "c:\users\tech\desktop\codetector\sevenSegment3DigitComplex\SevenSegment3DigitComplex.c" 1
 795  001B  2000     E  	CALL __DELAYX3 + 3 -(1000 MOD 4)
 795  001C              	ENDIF
 795  001C              ;# 795 "c:\users\tech\desktop\codetector\sevenSegment3DigitComplex\SevenSegment3DigitComplex.c" 1
 795  001C              	IF (1000< 0x40B) AND (1000> 0403h)
 795  001C              ;# 795 "c:\users\tech\desktop\codetector\sevenSegment3DigitComplex\SevenSegment3DigitComplex.c" 1
 795  001C              	MOV A,0 
 795  001C              ;# 795 "c:\users\tech\desktop\codetector\sevenSegment3DigitComplex\SevenSegment3DigitComplex.c" 1
 795  001C              	CALL __DELAYX6 + 0x40a -1000
 795  001C              	ENDIF
 795  001C              ;# 795 "c:\users\tech\desktop\codetector\sevenSegment3DigitComplex\SevenSegment3DigitComplex.c" 1
 795  001C              	IF (1000 >= 0x40b) AND ((((1000-9)%0402h)/4+1)>256)
 795  001C              ;# 795 "c:\users\tech\desktop\codetector\sevenSegment3DigitComplex\SevenSegment3DigitComplex.c" 1
 795  001C              	MOV A,(1000-9)/0402h
 795  001C              ;# 795 "c:\users\tech\desktop\codetector\sevenSegment3DigitComplex\SevenSegment3DigitComplex.c" 1
 795  001C              	MOV _builtin_holtek_delay_2,A
 795  001C              ;# 795 "c:\users\tech\desktop\codetector\sevenSegment3DigitComplex\SevenSegment3DigitComplex.c" 1
 795  001C              	MOV A,0
 795  001C              ;# 795 "c:\users\tech\desktop\codetector\sevenSegment3DigitComplex\SevenSegment3DigitComplex.c" 1
 795  001C              	CALL __DELAYY5 +5- (((1000-9)%0402h)%6)
 795  001C              	ENDIF
 795  001C              ;# 795 "c:\users\tech\desktop\codetector\sevenSegment3DigitComplex\SevenSegment3DigitComplex.c" 1
 795  001C              	IF (1000 >= 0x40b) AND ((((1000-9)%0402h)/4+1)<=256)
 795  001C              ;# 795 "c:\users\tech\desktop\codetector\sevenSegment3DigitComplex\SevenSegment3DigitComplex.c" 1
 795  001C              	MOV A,(1000-9)/0402h
 795  001C              ;# 795 "c:\users\tech\desktop\codetector\sevenSegment3DigitComplex\SevenSegment3DigitComplex.c" 1
 795  001C              	MOV _builtin_holtek_delay_2,A
 795  001C              ;# 795 "c:\users\tech\desktop\codetector\sevenSegment3DigitComplex\SevenSegment3DigitComplex.c" 1
 795  001C              	MOV A,((1000-9)%0402h)/4+1
 795  001C              ;# 795 "c:\users\tech\desktop\codetector\sevenSegment3DigitComplex\SevenSegment3DigitComplex.c" 1
 795  001C              	CALL __DELAYY3 +3-(((1000-9)%0402h)%4)
 795  001C              	ENDIF
 795  001C  0003        	ret
 795  001D              _nineDigit1 endp
 795  001D              #line 795 "c:\users\tech\desktop\codetector\sevenSegment3DigitComplex\SevenSegment3DigitComplex.c"
"File: SevenSegment3DigitComplex.c  Assembler  Version HGASM0202      Page 111

 795  001D              #pragma debug scope 1 1
 795  001D              public _nineDigit2
 795  001D              #pragma debug scope 34 1
 797  001D              #line 797 "c:\users\tech\desktop\codetector\sevenSegment3DigitComplex\SevenSegment3DigitComplex.c"
 797  0000              _nineDigit2 .section 'code'
 797  0000              _nineDigit2 proc
 800  0000              #line 800 "c:\users\tech\desktop\codetector\sevenSegment3DigitComplex\SevenSegment3DigitComplex.c"
 800  0000  3519        	clr [25].2
 801  0001              #line 801 "c:\users\tech\desktop\codetector\sevenSegment3DigitComplex\SevenSegment3DigitComplex.c"
 801  0001  3499        	clr [25].1
 802  0002              #line 802 "c:\users\tech\desktop\codetector\sevenSegment3DigitComplex\SevenSegment3DigitComplex.c"
 802  0002  3615        	clr [21].4
 803  0003              #line 803 "c:\users\tech\desktop\codetector\sevenSegment3DigitComplex\SevenSegment3DigitComplex.c"
 803  0003  3415        	clr [21].0
 804  0004              #line 804 "c:\users\tech\desktop\codetector\sevenSegment3DigitComplex\SevenSegment3DigitComplex.c"
 804  0004  3515        	clr [21].2
 806  0005              #line 806 "c:\users\tech\desktop\codetector\sevenSegment3DigitComplex\SevenSegment3DigitComplex.c"
 806  0005  3118        	set [24].2
 807  0006              #line 807 "c:\users\tech\desktop\codetector\sevenSegment3DigitComplex\SevenSegment3DigitComplex.c"
 807  0006  3498        	clr [24].1
 808  0007              #line 808 "c:\users\tech\desktop\codetector\sevenSegment3DigitComplex\SevenSegment3DigitComplex.c"
 808  0007  3614        	clr [20].4
 809  0008              #line 809 "c:\users\tech\desktop\codetector\sevenSegment3DigitComplex\SevenSegment3DigitComplex.c"
 809  0008  3414        	clr [20].0
 810  0009              #line 810 "c:\users\tech\desktop\codetector\sevenSegment3DigitComplex\SevenSegment3DigitComplex.c"
 810  0009  3514        	clr [20].2
 812  000A              #line 812 "c:\users\tech\desktop\codetector\sevenSegment3DigitComplex\SevenSegment3DigitComplex.c"
 812  000A              ;# 812 "c:\users\tech\desktop\codetector\sevenSegment3DigitComplex\SevenSegment3DigitComplex.c" 1
 812  000A              	IF 1000>263690
 812  000A              ;# 812 "c:\users\tech\desktop\codetector\sevenSegment3DigitComplex\SevenSegment3DigitComplex.c" 1
 812  000A              	ERRMESSAGE 'the value 1000of the argument exceeds the maxinum 263690'
 812  000A              	ENDIF
 812  000A              ;# 812 "c:\users\tech\desktop\codetector\sevenSegment3DigitComplex\SevenSegment3DigitComplex.c" 1
 812  000A              	IF 1000<0
 812  000A              ;# 812 "c:\users\tech\desktop\codetector\sevenSegment3DigitComplex\SevenSegment3DigitComplex.c" 1
 812  000A              	ERRMESSAGE 'the value 1000 of the argument exceeds the mininum 0'
 812  000A              	ENDIF
 812  000A              ;# 812 "c:\users\tech\desktop\codetector\sevenSegment3DigitComplex\SevenSegment3DigitComplex.c" 1
 812  000A              	IF 1000==0
 812  000A              ;# 812 "c:\users\tech\desktop\codetector\sevenSegment3DigitComplex\SevenSegment3DigitComplex.c" 1
 812  000A              	JMP $
 812  000A              	ENDIF
 812  000A              ;# 812 "c:\users\tech\desktop\codetector\sevenSegment3DigitComplex\SevenSegment3DigitComplex.c" 1
 812  000A              	IF 1000==1
 812  000A              ;# 812 "c:\users\tech\desktop\codetector\sevenSegment3DigitComplex\SevenSegment3DigitComplex.c" 1
 812  000A              	NOP
 812  000A              	ENDIF
 812  000A              ;# 812 "c:\users\tech\desktop\codetector\sevenSegment3DigitComplex\SevenSegment3DigitComplex.c" 1
 812  000A              	IF 1000==2
 812  000A              ;# 812 "c:\users\tech\desktop\codetector\sevenSegment3DigitComplex\SevenSegment3DigitComplex.c" 1
 812  000A              	NOP
 812  000A              ;# 812 "c:\users\tech\desktop\codetector\sevenSegment3DigitComplex\SevenSegment3DigitComplex.c" 1
 812  000A              	NOP
 812  000A              	ENDIF
 812  000A              ;# 812 "c:\users\tech\desktop\codetector\sevenSegment3DigitComplex\SevenSegment3DigitComplex.c" 1
 812  000A              	IF 1000==3
 812  000A              ;# 812 "c:\users\tech\desktop\codetector\sevenSegment3DigitComplex\SevenSegment3DigitComplex.c" 1
 812  000A              	NOP
 812  000A              ;# 812 "c:\users\tech\desktop\codetector\sevenSegment3DigitComplex\SevenSegment3DigitComplex.c" 1
 812  000A              	NOP
"File: SevenSegment3DigitComplex.c  Assembler  Version HGASM0202      Page 112

 812  000A              ;# 812 "c:\users\tech\desktop\codetector\sevenSegment3DigitComplex\SevenSegment3DigitComplex.c" 1
 812  000A              	NOP
 812  000A              	ENDIF
 812  000A              ;# 812 "c:\users\tech\desktop\codetector\sevenSegment3DigitComplex\SevenSegment3DigitComplex.c" 1
 812  000A              	IF (1000<8) AND (1000>3)
 812  000A              ;# 812 "c:\users\tech\desktop\codetector\sevenSegment3DigitComplex\SevenSegment3DigitComplex.c" 1
 812  000A              	CALL __DELAY3 + 7 -1000
 812  000A              	ENDIF
 812  000A              ;# 812 "c:\users\tech\desktop\codetector\sevenSegment3DigitComplex\SevenSegment3DigitComplex.c" 1
 812  000A              	IF (1000< 0404h) AND (1000>7)
 812  000A              ;# 812 "c:\users\tech\desktop\codetector\sevenSegment3DigitComplex\SevenSegment3DigitComplex.c" 1
 812  000A  0FF9        	MOV A,1000/4-1
 812  000B              ;# 812 "c:\users\tech\desktop\codetector\sevenSegment3DigitComplex\SevenSegment3DigitComplex.c" 1
 812  000B  2000     E  	CALL __DELAYX3 + 3 -(1000 MOD 4)
 812  000C              	ENDIF
 812  000C              ;# 812 "c:\users\tech\desktop\codetector\sevenSegment3DigitComplex\SevenSegment3DigitComplex.c" 1
 812  000C              	IF (1000< 0x40B) AND (1000> 0403h)
 812  000C              ;# 812 "c:\users\tech\desktop\codetector\sevenSegment3DigitComplex\SevenSegment3DigitComplex.c" 1
 812  000C              	MOV A,0 
 812  000C              ;# 812 "c:\users\tech\desktop\codetector\sevenSegment3DigitComplex\SevenSegment3DigitComplex.c" 1
 812  000C              	CALL __DELAYX6 + 0x40a -1000
 812  000C              	ENDIF
 812  000C              ;# 812 "c:\users\tech\desktop\codetector\sevenSegment3DigitComplex\SevenSegment3DigitComplex.c" 1
 812  000C              	IF (1000 >= 0x40b) AND ((((1000-9)%0402h)/4+1)>256)
 812  000C              ;# 812 "c:\users\tech\desktop\codetector\sevenSegment3DigitComplex\SevenSegment3DigitComplex.c" 1
 812  000C              	MOV A,(1000-9)/0402h
 812  000C              ;# 812 "c:\users\tech\desktop\codetector\sevenSegment3DigitComplex\SevenSegment3DigitComplex.c" 1
 812  000C              	MOV _builtin_holtek_delay_2,A
 812  000C              ;# 812 "c:\users\tech\desktop\codetector\sevenSegment3DigitComplex\SevenSegment3DigitComplex.c" 1
 812  000C              	MOV A,0
 812  000C              ;# 812 "c:\users\tech\desktop\codetector\sevenSegment3DigitComplex\SevenSegment3DigitComplex.c" 1
 812  000C              	CALL __DELAYY5 +5- (((1000-9)%0402h)%6)
 812  000C              	ENDIF
 812  000C              ;# 812 "c:\users\tech\desktop\codetector\sevenSegment3DigitComplex\SevenSegment3DigitComplex.c" 1
 812  000C              	IF (1000 >= 0x40b) AND ((((1000-9)%0402h)/4+1)<=256)
 812  000C              ;# 812 "c:\users\tech\desktop\codetector\sevenSegment3DigitComplex\SevenSegment3DigitComplex.c" 1
 812  000C              	MOV A,(1000-9)/0402h
 812  000C              ;# 812 "c:\users\tech\desktop\codetector\sevenSegment3DigitComplex\SevenSegment3DigitComplex.c" 1
 812  000C              	MOV _builtin_holtek_delay_2,A
 812  000C              ;# 812 "c:\users\tech\desktop\codetector\sevenSegment3DigitComplex\SevenSegment3DigitComplex.c" 1
 812  000C              	MOV A,((1000-9)%0402h)/4+1
 812  000C              ;# 812 "c:\users\tech\desktop\codetector\sevenSegment3DigitComplex\SevenSegment3DigitComplex.c" 1
 812  000C              	CALL __DELAYY3 +3-(((1000-9)%0402h)%4)
 812  000C              	ENDIF
 813  000C              #line 813 "c:\users\tech\desktop\codetector\sevenSegment3DigitComplex\SevenSegment3DigitComplex.c"
 813  000C  2000     R  	call _clearSegment
 815  000D              #line 815 "c:\users\tech\desktop\codetector\sevenSegment3DigitComplex\SevenSegment3DigitComplex.c"
 815  000D  3599        	clr [25].3
 816  000E              #line 816 "c:\users\tech\desktop\codetector\sevenSegment3DigitComplex\SevenSegment3DigitComplex.c"
 816  000E  3499        	clr [25].1
 817  000F              #line 817 "c:\users\tech\desktop\codetector\sevenSegment3DigitComplex\SevenSegment3DigitComplex.c"
 817  000F  3198        	set [24].3
 818  0010              #line 818 "c:\users\tech\desktop\codetector\sevenSegment3DigitComplex\SevenSegment3DigitComplex.c"
 818  0010  3498        	clr [24].1
 819  0011              #line 819 "c:\users\tech\desktop\codetector\sevenSegment3DigitComplex\SevenSegment3DigitComplex.c"
 819  0011              ;# 819 "c:\users\tech\desktop\codetector\sevenSegment3DigitComplex\SevenSegment3DigitComplex.c" 1
 819  0011              	IF 1000>263690
 819  0011              ;# 819 "c:\users\tech\desktop\codetector\sevenSegment3DigitComplex\SevenSegment3DigitComplex.c" 1
 819  0011              	ERRMESSAGE 'the value 1000of the argument exceeds the maxinum 263690'
 819  0011              	ENDIF
"File: SevenSegment3DigitComplex.c  Assembler  Version HGASM0202      Page 113

 819  0011              ;# 819 "c:\users\tech\desktop\codetector\sevenSegment3DigitComplex\SevenSegment3DigitComplex.c" 1
 819  0011              	IF 1000<0
 819  0011              ;# 819 "c:\users\tech\desktop\codetector\sevenSegment3DigitComplex\SevenSegment3DigitComplex.c" 1
 819  0011              	ERRMESSAGE 'the value 1000 of the argument exceeds the mininum 0'
 819  0011              	ENDIF
 819  0011              ;# 819 "c:\users\tech\desktop\codetector\sevenSegment3DigitComplex\SevenSegment3DigitComplex.c" 1
 819  0011              	IF 1000==0
 819  0011              ;# 819 "c:\users\tech\desktop\codetector\sevenSegment3DigitComplex\SevenSegment3DigitComplex.c" 1
 819  0011              	JMP $
 819  0011              	ENDIF
 819  0011              ;# 819 "c:\users\tech\desktop\codetector\sevenSegment3DigitComplex\SevenSegment3DigitComplex.c" 1
 819  0011              	IF 1000==1
 819  0011              ;# 819 "c:\users\tech\desktop\codetector\sevenSegment3DigitComplex\SevenSegment3DigitComplex.c" 1
 819  0011              	NOP
 819  0011              	ENDIF
 819  0011              ;# 819 "c:\users\tech\desktop\codetector\sevenSegment3DigitComplex\SevenSegment3DigitComplex.c" 1
 819  0011              	IF 1000==2
 819  0011              ;# 819 "c:\users\tech\desktop\codetector\sevenSegment3DigitComplex\SevenSegment3DigitComplex.c" 1
 819  0011              	NOP
 819  0011              ;# 819 "c:\users\tech\desktop\codetector\sevenSegment3DigitComplex\SevenSegment3DigitComplex.c" 1
 819  0011              	NOP
 819  0011              	ENDIF
 819  0011              ;# 819 "c:\users\tech\desktop\codetector\sevenSegment3DigitComplex\SevenSegment3DigitComplex.c" 1
 819  0011              	IF 1000==3
 819  0011              ;# 819 "c:\users\tech\desktop\codetector\sevenSegment3DigitComplex\SevenSegment3DigitComplex.c" 1
 819  0011              	NOP
 819  0011              ;# 819 "c:\users\tech\desktop\codetector\sevenSegment3DigitComplex\SevenSegment3DigitComplex.c" 1
 819  0011              	NOP
 819  0011              ;# 819 "c:\users\tech\desktop\codetector\sevenSegment3DigitComplex\SevenSegment3DigitComplex.c" 1
 819  0011              	NOP
 819  0011              	ENDIF
 819  0011              ;# 819 "c:\users\tech\desktop\codetector\sevenSegment3DigitComplex\SevenSegment3DigitComplex.c" 1
 819  0011              	IF (1000<8) AND (1000>3)
 819  0011              ;# 819 "c:\users\tech\desktop\codetector\sevenSegment3DigitComplex\SevenSegment3DigitComplex.c" 1
 819  0011              	CALL __DELAY3 + 7 -1000
 819  0011              	ENDIF
 819  0011              ;# 819 "c:\users\tech\desktop\codetector\sevenSegment3DigitComplex\SevenSegment3DigitComplex.c" 1
 819  0011              	IF (1000< 0404h) AND (1000>7)
 819  0011              ;# 819 "c:\users\tech\desktop\codetector\sevenSegment3DigitComplex\SevenSegment3DigitComplex.c" 1
 819  0011  0FF9        	MOV A,1000/4-1
 819  0012              ;# 819 "c:\users\tech\desktop\codetector\sevenSegment3DigitComplex\SevenSegment3DigitComplex.c" 1
 819  0012  2000     E  	CALL __DELAYX3 + 3 -(1000 MOD 4)
 819  0013              	ENDIF
 819  0013              ;# 819 "c:\users\tech\desktop\codetector\sevenSegment3DigitComplex\SevenSegment3DigitComplex.c" 1
 819  0013              	IF (1000< 0x40B) AND (1000> 0403h)
 819  0013              ;# 819 "c:\users\tech\desktop\codetector\sevenSegment3DigitComplex\SevenSegment3DigitComplex.c" 1
 819  0013              	MOV A,0 
 819  0013              ;# 819 "c:\users\tech\desktop\codetector\sevenSegment3DigitComplex\SevenSegment3DigitComplex.c" 1
 819  0013              	CALL __DELAYX6 + 0x40a -1000
 819  0013              	ENDIF
 819  0013              ;# 819 "c:\users\tech\desktop\codetector\sevenSegment3DigitComplex\SevenSegment3DigitComplex.c" 1
 819  0013              	IF (1000 >= 0x40b) AND ((((1000-9)%0402h)/4+1)>256)
 819  0013              ;# 819 "c:\users\tech\desktop\codetector\sevenSegment3DigitComplex\SevenSegment3DigitComplex.c" 1
 819  0013              	MOV A,(1000-9)/0402h
 819  0013              ;# 819 "c:\users\tech\desktop\codetector\sevenSegment3DigitComplex\SevenSegment3DigitComplex.c" 1
 819  0013              	MOV _builtin_holtek_delay_2,A
 819  0013              ;# 819 "c:\users\tech\desktop\codetector\sevenSegment3DigitComplex\SevenSegment3DigitComplex.c" 1
 819  0013              	MOV A,0
 819  0013              ;# 819 "c:\users\tech\desktop\codetector\sevenSegment3DigitComplex\SevenSegment3DigitComplex.c" 1
 819  0013              	CALL __DELAYY5 +5- (((1000-9)%0402h)%6)
"File: SevenSegment3DigitComplex.c  Assembler  Version HGASM0202      Page 114

 819  0013              	ENDIF
 819  0013              ;# 819 "c:\users\tech\desktop\codetector\sevenSegment3DigitComplex\SevenSegment3DigitComplex.c" 1
 819  0013              	IF (1000 >= 0x40b) AND ((((1000-9)%0402h)/4+1)<=256)
 819  0013              ;# 819 "c:\users\tech\desktop\codetector\sevenSegment3DigitComplex\SevenSegment3DigitComplex.c" 1
 819  0013              	MOV A,(1000-9)/0402h
 819  0013              ;# 819 "c:\users\tech\desktop\codetector\sevenSegment3DigitComplex\SevenSegment3DigitComplex.c" 1
 819  0013              	MOV _builtin_holtek_delay_2,A
 819  0013              ;# 819 "c:\users\tech\desktop\codetector\sevenSegment3DigitComplex\SevenSegment3DigitComplex.c" 1
 819  0013              	MOV A,((1000-9)%0402h)/4+1
 819  0013              ;# 819 "c:\users\tech\desktop\codetector\sevenSegment3DigitComplex\SevenSegment3DigitComplex.c" 1
 819  0013              	CALL __DELAYY3 +3-(((1000-9)%0402h)%4)
 819  0013              	ENDIF
 821  0013              #line 821 "c:\users\tech\desktop\codetector\sevenSegment3DigitComplex\SevenSegment3DigitComplex.c"
 821  0013  2000     R  	call _clearSegment
 822  0014              #line 822 "c:\users\tech\desktop\codetector\sevenSegment3DigitComplex\SevenSegment3DigitComplex.c"
 822  0014  3515        	clr [21].2
 823  0015              #line 823 "c:\users\tech\desktop\codetector\sevenSegment3DigitComplex\SevenSegment3DigitComplex.c"
 823  0015  3499        	clr [25].1
 824  0016              #line 824 "c:\users\tech\desktop\codetector\sevenSegment3DigitComplex\SevenSegment3DigitComplex.c"
 824  0016  3498        	clr [24].1
 825  0017              #line 825 "c:\users\tech\desktop\codetector\sevenSegment3DigitComplex\SevenSegment3DigitComplex.c"
 825  0017  3114        	set [20].2
 826  0018              #line 826 "c:\users\tech\desktop\codetector\sevenSegment3DigitComplex\SevenSegment3DigitComplex.c"
 826  0018              ;# 826 "c:\users\tech\desktop\codetector\sevenSegment3DigitComplex\SevenSegment3DigitComplex.c" 1
 826  0018              	IF 1000>263690
 826  0018              ;# 826 "c:\users\tech\desktop\codetector\sevenSegment3DigitComplex\SevenSegment3DigitComplex.c" 1
 826  0018              	ERRMESSAGE 'the value 1000of the argument exceeds the maxinum 263690'
 826  0018              	ENDIF
 826  0018              ;# 826 "c:\users\tech\desktop\codetector\sevenSegment3DigitComplex\SevenSegment3DigitComplex.c" 1
 826  0018              	IF 1000<0
 826  0018              ;# 826 "c:\users\tech\desktop\codetector\sevenSegment3DigitComplex\SevenSegment3DigitComplex.c" 1
 826  0018              	ERRMESSAGE 'the value 1000 of the argument exceeds the mininum 0'
 826  0018              	ENDIF
 826  0018              ;# 826 "c:\users\tech\desktop\codetector\sevenSegment3DigitComplex\SevenSegment3DigitComplex.c" 1
 826  0018              	IF 1000==0
 826  0018              ;# 826 "c:\users\tech\desktop\codetector\sevenSegment3DigitComplex\SevenSegment3DigitComplex.c" 1
 826  0018              	JMP $
 826  0018              	ENDIF
 826  0018              ;# 826 "c:\users\tech\desktop\codetector\sevenSegment3DigitComplex\SevenSegment3DigitComplex.c" 1
 826  0018              	IF 1000==1
 826  0018              ;# 826 "c:\users\tech\desktop\codetector\sevenSegment3DigitComplex\SevenSegment3DigitComplex.c" 1
 826  0018              	NOP
 826  0018              	ENDIF
 826  0018              ;# 826 "c:\users\tech\desktop\codetector\sevenSegment3DigitComplex\SevenSegment3DigitComplex.c" 1
 826  0018              	IF 1000==2
 826  0018              ;# 826 "c:\users\tech\desktop\codetector\sevenSegment3DigitComplex\SevenSegment3DigitComplex.c" 1
 826  0018              	NOP
 826  0018              ;# 826 "c:\users\tech\desktop\codetector\sevenSegment3DigitComplex\SevenSegment3DigitComplex.c" 1
 826  0018              	NOP
 826  0018              	ENDIF
 826  0018              ;# 826 "c:\users\tech\desktop\codetector\sevenSegment3DigitComplex\SevenSegment3DigitComplex.c" 1
 826  0018              	IF 1000==3
 826  0018              ;# 826 "c:\users\tech\desktop\codetector\sevenSegment3DigitComplex\SevenSegment3DigitComplex.c" 1
 826  0018              	NOP
 826  0018              ;# 826 "c:\users\tech\desktop\codetector\sevenSegment3DigitComplex\SevenSegment3DigitComplex.c" 1
 826  0018              	NOP
 826  0018              ;# 826 "c:\users\tech\desktop\codetector\sevenSegment3DigitComplex\SevenSegment3DigitComplex.c" 1
 826  0018              	NOP
 826  0018              	ENDIF
 826  0018              ;# 826 "c:\users\tech\desktop\codetector\sevenSegment3DigitComplex\SevenSegment3DigitComplex.c" 1
"File: SevenSegment3DigitComplex.c  Assembler  Version HGASM0202      Page 115

 826  0018              	IF (1000<8) AND (1000>3)
 826  0018              ;# 826 "c:\users\tech\desktop\codetector\sevenSegment3DigitComplex\SevenSegment3DigitComplex.c" 1
 826  0018              	CALL __DELAY3 + 7 -1000
 826  0018              	ENDIF
 826  0018              ;# 826 "c:\users\tech\desktop\codetector\sevenSegment3DigitComplex\SevenSegment3DigitComplex.c" 1
 826  0018              	IF (1000< 0404h) AND (1000>7)
 826  0018              ;# 826 "c:\users\tech\desktop\codetector\sevenSegment3DigitComplex\SevenSegment3DigitComplex.c" 1
 826  0018  0FF9        	MOV A,1000/4-1
 826  0019              ;# 826 "c:\users\tech\desktop\codetector\sevenSegment3DigitComplex\SevenSegment3DigitComplex.c" 1
 826  0019  2000     E  	CALL __DELAYX3 + 3 -(1000 MOD 4)
 826  001A              	ENDIF
 826  001A              ;# 826 "c:\users\tech\desktop\codetector\sevenSegment3DigitComplex\SevenSegment3DigitComplex.c" 1
 826  001A              	IF (1000< 0x40B) AND (1000> 0403h)
 826  001A              ;# 826 "c:\users\tech\desktop\codetector\sevenSegment3DigitComplex\SevenSegment3DigitComplex.c" 1
 826  001A              	MOV A,0 
 826  001A              ;# 826 "c:\users\tech\desktop\codetector\sevenSegment3DigitComplex\SevenSegment3DigitComplex.c" 1
 826  001A              	CALL __DELAYX6 + 0x40a -1000
 826  001A              	ENDIF
 826  001A              ;# 826 "c:\users\tech\desktop\codetector\sevenSegment3DigitComplex\SevenSegment3DigitComplex.c" 1
 826  001A              	IF (1000 >= 0x40b) AND ((((1000-9)%0402h)/4+1)>256)
 826  001A              ;# 826 "c:\users\tech\desktop\codetector\sevenSegment3DigitComplex\SevenSegment3DigitComplex.c" 1
 826  001A              	MOV A,(1000-9)/0402h
 826  001A              ;# 826 "c:\users\tech\desktop\codetector\sevenSegment3DigitComplex\SevenSegment3DigitComplex.c" 1
 826  001A              	MOV _builtin_holtek_delay_2,A
 826  001A              ;# 826 "c:\users\tech\desktop\codetector\sevenSegment3DigitComplex\SevenSegment3DigitComplex.c" 1
 826  001A              	MOV A,0
 826  001A              ;# 826 "c:\users\tech\desktop\codetector\sevenSegment3DigitComplex\SevenSegment3DigitComplex.c" 1
 826  001A              	CALL __DELAYY5 +5- (((1000-9)%0402h)%6)
 826  001A              	ENDIF
 826  001A              ;# 826 "c:\users\tech\desktop\codetector\sevenSegment3DigitComplex\SevenSegment3DigitComplex.c" 1
 826  001A              	IF (1000 >= 0x40b) AND ((((1000-9)%0402h)/4+1)<=256)
 826  001A              ;# 826 "c:\users\tech\desktop\codetector\sevenSegment3DigitComplex\SevenSegment3DigitComplex.c" 1
 826  001A              	MOV A,(1000-9)/0402h
 826  001A              ;# 826 "c:\users\tech\desktop\codetector\sevenSegment3DigitComplex\SevenSegment3DigitComplex.c" 1
 826  001A              	MOV _builtin_holtek_delay_2,A
 826  001A              ;# 826 "c:\users\tech\desktop\codetector\sevenSegment3DigitComplex\SevenSegment3DigitComplex.c" 1
 826  001A              	MOV A,((1000-9)%0402h)/4+1
 826  001A              ;# 826 "c:\users\tech\desktop\codetector\sevenSegment3DigitComplex\SevenSegment3DigitComplex.c" 1
 826  001A              	CALL __DELAYY3 +3-(((1000-9)%0402h)%4)
 826  001A              	ENDIF
 826  001A  0003        	ret
 826  001B              _nineDigit2 endp
 826  001B              #line 826 "c:\users\tech\desktop\codetector\sevenSegment3DigitComplex\SevenSegment3DigitComplex.c"
 826  001B              #pragma debug scope 1 1
 826  001B              public _nineDigit3
 826  001B              #pragma debug scope 35 1
 828  001B              #line 828 "c:\users\tech\desktop\codetector\sevenSegment3DigitComplex\SevenSegment3DigitComplex.c"
 828  0000              _nineDigit3 .section 'code'
 828  0000              _nineDigit3 proc
 831  0000              #line 831 "c:\users\tech\desktop\codetector\sevenSegment3DigitComplex\SevenSegment3DigitComplex.c"
 831  0000  3499        	clr [25].1
 832  0001              #line 832 "c:\users\tech\desktop\codetector\sevenSegment3DigitComplex\SevenSegment3DigitComplex.c"
 832  0001  3615        	clr [21].4
 833  0002              #line 833 "c:\users\tech\desktop\codetector\sevenSegment3DigitComplex\SevenSegment3DigitComplex.c"
 833  0002  3415        	clr [21].0
 834  0003              #line 834 "c:\users\tech\desktop\codetector\sevenSegment3DigitComplex\SevenSegment3DigitComplex.c"
 834  0003  3515        	clr [21].2
 835  0004              #line 835 "c:\users\tech\desktop\codetector\sevenSegment3DigitComplex\SevenSegment3DigitComplex.c"
 835  0004  3599        	clr [25].3
 836  0005              #line 836 "c:\users\tech\desktop\codetector\sevenSegment3DigitComplex\SevenSegment3DigitComplex.c"
"File: SevenSegment3DigitComplex.c  Assembler  Version HGASM0202      Page 116

 836  0005  3098        	set [24].1
 837  0006              #line 837 "c:\users\tech\desktop\codetector\sevenSegment3DigitComplex\SevenSegment3DigitComplex.c"
 837  0006  3614        	clr [20].4
 838  0007              #line 838 "c:\users\tech\desktop\codetector\sevenSegment3DigitComplex\SevenSegment3DigitComplex.c"
 838  0007  3414        	clr [20].0
 839  0008              #line 839 "c:\users\tech\desktop\codetector\sevenSegment3DigitComplex\SevenSegment3DigitComplex.c"
 839  0008  3514        	clr [20].2
 840  0009              #line 840 "c:\users\tech\desktop\codetector\sevenSegment3DigitComplex\SevenSegment3DigitComplex.c"
 840  0009  3598        	clr [24].3
 842  000A              #line 842 "c:\users\tech\desktop\codetector\sevenSegment3DigitComplex\SevenSegment3DigitComplex.c"
 842  000A              ;# 842 "c:\users\tech\desktop\codetector\sevenSegment3DigitComplex\SevenSegment3DigitComplex.c" 1
 842  000A              	IF 1000>263690
 842  000A              ;# 842 "c:\users\tech\desktop\codetector\sevenSegment3DigitComplex\SevenSegment3DigitComplex.c" 1
 842  000A              	ERRMESSAGE 'the value 1000of the argument exceeds the maxinum 263690'
 842  000A              	ENDIF
 842  000A              ;# 842 "c:\users\tech\desktop\codetector\sevenSegment3DigitComplex\SevenSegment3DigitComplex.c" 1
 842  000A              	IF 1000<0
 842  000A              ;# 842 "c:\users\tech\desktop\codetector\sevenSegment3DigitComplex\SevenSegment3DigitComplex.c" 1
 842  000A              	ERRMESSAGE 'the value 1000 of the argument exceeds the mininum 0'
 842  000A              	ENDIF
 842  000A              ;# 842 "c:\users\tech\desktop\codetector\sevenSegment3DigitComplex\SevenSegment3DigitComplex.c" 1
 842  000A              	IF 1000==0
 842  000A              ;# 842 "c:\users\tech\desktop\codetector\sevenSegment3DigitComplex\SevenSegment3DigitComplex.c" 1
 842  000A              	JMP $
 842  000A              	ENDIF
 842  000A              ;# 842 "c:\users\tech\desktop\codetector\sevenSegment3DigitComplex\SevenSegment3DigitComplex.c" 1
 842  000A              	IF 1000==1
 842  000A              ;# 842 "c:\users\tech\desktop\codetector\sevenSegment3DigitComplex\SevenSegment3DigitComplex.c" 1
 842  000A              	NOP
 842  000A              	ENDIF
 842  000A              ;# 842 "c:\users\tech\desktop\codetector\sevenSegment3DigitComplex\SevenSegment3DigitComplex.c" 1
 842  000A              	IF 1000==2
 842  000A              ;# 842 "c:\users\tech\desktop\codetector\sevenSegment3DigitComplex\SevenSegment3DigitComplex.c" 1
 842  000A              	NOP
 842  000A              ;# 842 "c:\users\tech\desktop\codetector\sevenSegment3DigitComplex\SevenSegment3DigitComplex.c" 1
 842  000A              	NOP
 842  000A              	ENDIF
 842  000A              ;# 842 "c:\users\tech\desktop\codetector\sevenSegment3DigitComplex\SevenSegment3DigitComplex.c" 1
 842  000A              	IF 1000==3
 842  000A              ;# 842 "c:\users\tech\desktop\codetector\sevenSegment3DigitComplex\SevenSegment3DigitComplex.c" 1
 842  000A              	NOP
 842  000A              ;# 842 "c:\users\tech\desktop\codetector\sevenSegment3DigitComplex\SevenSegment3DigitComplex.c" 1
 842  000A              	NOP
 842  000A              ;# 842 "c:\users\tech\desktop\codetector\sevenSegment3DigitComplex\SevenSegment3DigitComplex.c" 1
 842  000A              	NOP
 842  000A              	ENDIF
 842  000A              ;# 842 "c:\users\tech\desktop\codetector\sevenSegment3DigitComplex\SevenSegment3DigitComplex.c" 1
 842  000A              	IF (1000<8) AND (1000>3)
 842  000A              ;# 842 "c:\users\tech\desktop\codetector\sevenSegment3DigitComplex\SevenSegment3DigitComplex.c" 1
 842  000A              	CALL __DELAY3 + 7 -1000
 842  000A              	ENDIF
 842  000A              ;# 842 "c:\users\tech\desktop\codetector\sevenSegment3DigitComplex\SevenSegment3DigitComplex.c" 1
 842  000A              	IF (1000< 0404h) AND (1000>7)
 842  000A              ;# 842 "c:\users\tech\desktop\codetector\sevenSegment3DigitComplex\SevenSegment3DigitComplex.c" 1
 842  000A  0FF9        	MOV A,1000/4-1
 842  000B              ;# 842 "c:\users\tech\desktop\codetector\sevenSegment3DigitComplex\SevenSegment3DigitComplex.c" 1
 842  000B  2000     E  	CALL __DELAYX3 + 3 -(1000 MOD 4)
 842  000C              	ENDIF
 842  000C              ;# 842 "c:\users\tech\desktop\codetector\sevenSegment3DigitComplex\SevenSegment3DigitComplex.c" 1
 842  000C              	IF (1000< 0x40B) AND (1000> 0403h)
"File: SevenSegment3DigitComplex.c  Assembler  Version HGASM0202      Page 117

 842  000C              ;# 842 "c:\users\tech\desktop\codetector\sevenSegment3DigitComplex\SevenSegment3DigitComplex.c" 1
 842  000C              	MOV A,0 
 842  000C              ;# 842 "c:\users\tech\desktop\codetector\sevenSegment3DigitComplex\SevenSegment3DigitComplex.c" 1
 842  000C              	CALL __DELAYX6 + 0x40a -1000
 842  000C              	ENDIF
 842  000C              ;# 842 "c:\users\tech\desktop\codetector\sevenSegment3DigitComplex\SevenSegment3DigitComplex.c" 1
 842  000C              	IF (1000 >= 0x40b) AND ((((1000-9)%0402h)/4+1)>256)
 842  000C              ;# 842 "c:\users\tech\desktop\codetector\sevenSegment3DigitComplex\SevenSegment3DigitComplex.c" 1
 842  000C              	MOV A,(1000-9)/0402h
 842  000C              ;# 842 "c:\users\tech\desktop\codetector\sevenSegment3DigitComplex\SevenSegment3DigitComplex.c" 1
 842  000C              	MOV _builtin_holtek_delay_2,A
 842  000C              ;# 842 "c:\users\tech\desktop\codetector\sevenSegment3DigitComplex\SevenSegment3DigitComplex.c" 1
 842  000C              	MOV A,0
 842  000C              ;# 842 "c:\users\tech\desktop\codetector\sevenSegment3DigitComplex\SevenSegment3DigitComplex.c" 1
 842  000C              	CALL __DELAYY5 +5- (((1000-9)%0402h)%6)
 842  000C              	ENDIF
 842  000C              ;# 842 "c:\users\tech\desktop\codetector\sevenSegment3DigitComplex\SevenSegment3DigitComplex.c" 1
 842  000C              	IF (1000 >= 0x40b) AND ((((1000-9)%0402h)/4+1)<=256)
 842  000C              ;# 842 "c:\users\tech\desktop\codetector\sevenSegment3DigitComplex\SevenSegment3DigitComplex.c" 1
 842  000C              	MOV A,(1000-9)/0402h
 842  000C              ;# 842 "c:\users\tech\desktop\codetector\sevenSegment3DigitComplex\SevenSegment3DigitComplex.c" 1
 842  000C              	MOV _builtin_holtek_delay_2,A
 842  000C              ;# 842 "c:\users\tech\desktop\codetector\sevenSegment3DigitComplex\SevenSegment3DigitComplex.c" 1
 842  000C              	MOV A,((1000-9)%0402h)/4+1
 842  000C              ;# 842 "c:\users\tech\desktop\codetector\sevenSegment3DigitComplex\SevenSegment3DigitComplex.c" 1
 842  000C              	CALL __DELAYY3 +3-(((1000-9)%0402h)%4)
 842  000C              	ENDIF
 843  000C              #line 843 "c:\users\tech\desktop\codetector\sevenSegment3DigitComplex\SevenSegment3DigitComplex.c"
 843  000C  2000     R  	call _clearSegment
 845  000D              #line 845 "c:\users\tech\desktop\codetector\sevenSegment3DigitComplex\SevenSegment3DigitComplex.c"
 845  000D  3615        	clr [21].4
 846  000E              #line 846 "c:\users\tech\desktop\codetector\sevenSegment3DigitComplex\SevenSegment3DigitComplex.c"
 846  000E  3515        	clr [21].2
 847  000F              #line 847 "c:\users\tech\desktop\codetector\sevenSegment3DigitComplex\SevenSegment3DigitComplex.c"
 847  000F  3599        	clr [25].3
 848  0010              #line 848 "c:\users\tech\desktop\codetector\sevenSegment3DigitComplex\SevenSegment3DigitComplex.c"
 848  0010  3214        	set [20].4
 849  0011              #line 849 "c:\users\tech\desktop\codetector\sevenSegment3DigitComplex\SevenSegment3DigitComplex.c"
 849  0011  3514        	clr [20].2
 850  0012              #line 850 "c:\users\tech\desktop\codetector\sevenSegment3DigitComplex\SevenSegment3DigitComplex.c"
 850  0012  3598        	clr [24].3
 851  0013              #line 851 "c:\users\tech\desktop\codetector\sevenSegment3DigitComplex\SevenSegment3DigitComplex.c"
 851  0013              ;# 851 "c:\users\tech\desktop\codetector\sevenSegment3DigitComplex\SevenSegment3DigitComplex.c" 1
 851  0013              	IF 1000>263690
 851  0013              ;# 851 "c:\users\tech\desktop\codetector\sevenSegment3DigitComplex\SevenSegment3DigitComplex.c" 1
 851  0013              	ERRMESSAGE 'the value 1000of the argument exceeds the maxinum 263690'
 851  0013              	ENDIF
 851  0013              ;# 851 "c:\users\tech\desktop\codetector\sevenSegment3DigitComplex\SevenSegment3DigitComplex.c" 1
 851  0013              	IF 1000<0
 851  0013              ;# 851 "c:\users\tech\desktop\codetector\sevenSegment3DigitComplex\SevenSegment3DigitComplex.c" 1
 851  0013              	ERRMESSAGE 'the value 1000 of the argument exceeds the mininum 0'
 851  0013              	ENDIF
 851  0013              ;# 851 "c:\users\tech\desktop\codetector\sevenSegment3DigitComplex\SevenSegment3DigitComplex.c" 1
 851  0013              	IF 1000==0
 851  0013              ;# 851 "c:\users\tech\desktop\codetector\sevenSegment3DigitComplex\SevenSegment3DigitComplex.c" 1
 851  0013              	JMP $
 851  0013              	ENDIF
 851  0013              ;# 851 "c:\users\tech\desktop\codetector\sevenSegment3DigitComplex\SevenSegment3DigitComplex.c" 1
 851  0013              	IF 1000==1
 851  0013              ;# 851 "c:\users\tech\desktop\codetector\sevenSegment3DigitComplex\SevenSegment3DigitComplex.c" 1
"File: SevenSegment3DigitComplex.c  Assembler  Version HGASM0202      Page 118

 851  0013              	NOP
 851  0013              	ENDIF
 851  0013              ;# 851 "c:\users\tech\desktop\codetector\sevenSegment3DigitComplex\SevenSegment3DigitComplex.c" 1
 851  0013              	IF 1000==2
 851  0013              ;# 851 "c:\users\tech\desktop\codetector\sevenSegment3DigitComplex\SevenSegment3DigitComplex.c" 1
 851  0013              	NOP
 851  0013              ;# 851 "c:\users\tech\desktop\codetector\sevenSegment3DigitComplex\SevenSegment3DigitComplex.c" 1
 851  0013              	NOP
 851  0013              	ENDIF
 851  0013              ;# 851 "c:\users\tech\desktop\codetector\sevenSegment3DigitComplex\SevenSegment3DigitComplex.c" 1
 851  0013              	IF 1000==3
 851  0013              ;# 851 "c:\users\tech\desktop\codetector\sevenSegment3DigitComplex\SevenSegment3DigitComplex.c" 1
 851  0013              	NOP
 851  0013              ;# 851 "c:\users\tech\desktop\codetector\sevenSegment3DigitComplex\SevenSegment3DigitComplex.c" 1
 851  0013              	NOP
 851  0013              ;# 851 "c:\users\tech\desktop\codetector\sevenSegment3DigitComplex\SevenSegment3DigitComplex.c" 1
 851  0013              	NOP
 851  0013              	ENDIF
 851  0013              ;# 851 "c:\users\tech\desktop\codetector\sevenSegment3DigitComplex\SevenSegment3DigitComplex.c" 1
 851  0013              	IF (1000<8) AND (1000>3)
 851  0013              ;# 851 "c:\users\tech\desktop\codetector\sevenSegment3DigitComplex\SevenSegment3DigitComplex.c" 1
 851  0013              	CALL __DELAY3 + 7 -1000
 851  0013              	ENDIF
 851  0013              ;# 851 "c:\users\tech\desktop\codetector\sevenSegment3DigitComplex\SevenSegment3DigitComplex.c" 1
 851  0013              	IF (1000< 0404h) AND (1000>7)
 851  0013              ;# 851 "c:\users\tech\desktop\codetector\sevenSegment3DigitComplex\SevenSegment3DigitComplex.c" 1
 851  0013  0FF9        	MOV A,1000/4-1
 851  0014              ;# 851 "c:\users\tech\desktop\codetector\sevenSegment3DigitComplex\SevenSegment3DigitComplex.c" 1
 851  0014  2000     E  	CALL __DELAYX3 + 3 -(1000 MOD 4)
 851  0015              	ENDIF
 851  0015              ;# 851 "c:\users\tech\desktop\codetector\sevenSegment3DigitComplex\SevenSegment3DigitComplex.c" 1
 851  0015              	IF (1000< 0x40B) AND (1000> 0403h)
 851  0015              ;# 851 "c:\users\tech\desktop\codetector\sevenSegment3DigitComplex\SevenSegment3DigitComplex.c" 1
 851  0015              	MOV A,0 
 851  0015              ;# 851 "c:\users\tech\desktop\codetector\sevenSegment3DigitComplex\SevenSegment3DigitComplex.c" 1
 851  0015              	CALL __DELAYX6 + 0x40a -1000
 851  0015              	ENDIF
 851  0015              ;# 851 "c:\users\tech\desktop\codetector\sevenSegment3DigitComplex\SevenSegment3DigitComplex.c" 1
 851  0015              	IF (1000 >= 0x40b) AND ((((1000-9)%0402h)/4+1)>256)
 851  0015              ;# 851 "c:\users\tech\desktop\codetector\sevenSegment3DigitComplex\SevenSegment3DigitComplex.c" 1
 851  0015              	MOV A,(1000-9)/0402h
 851  0015              ;# 851 "c:\users\tech\desktop\codetector\sevenSegment3DigitComplex\SevenSegment3DigitComplex.c" 1
 851  0015              	MOV _builtin_holtek_delay_2,A
 851  0015              ;# 851 "c:\users\tech\desktop\codetector\sevenSegment3DigitComplex\SevenSegment3DigitComplex.c" 1
 851  0015              	MOV A,0
 851  0015              ;# 851 "c:\users\tech\desktop\codetector\sevenSegment3DigitComplex\SevenSegment3DigitComplex.c" 1
 851  0015              	CALL __DELAYY5 +5- (((1000-9)%0402h)%6)
 851  0015              	ENDIF
 851  0015              ;# 851 "c:\users\tech\desktop\codetector\sevenSegment3DigitComplex\SevenSegment3DigitComplex.c" 1
 851  0015              	IF (1000 >= 0x40b) AND ((((1000-9)%0402h)/4+1)<=256)
 851  0015              ;# 851 "c:\users\tech\desktop\codetector\sevenSegment3DigitComplex\SevenSegment3DigitComplex.c" 1
 851  0015              	MOV A,(1000-9)/0402h
 851  0015              ;# 851 "c:\users\tech\desktop\codetector\sevenSegment3DigitComplex\SevenSegment3DigitComplex.c" 1
 851  0015              	MOV _builtin_holtek_delay_2,A
 851  0015              ;# 851 "c:\users\tech\desktop\codetector\sevenSegment3DigitComplex\SevenSegment3DigitComplex.c" 1
 851  0015              	MOV A,((1000-9)%0402h)/4+1
 851  0015              ;# 851 "c:\users\tech\desktop\codetector\sevenSegment3DigitComplex\SevenSegment3DigitComplex.c" 1
 851  0015              	CALL __DELAYY3 +3-(((1000-9)%0402h)%4)
 851  0015              	ENDIF
 851  0015  0003        	ret
"File: SevenSegment3DigitComplex.c  Assembler  Version HGASM0202      Page 119

 851  0016              _nineDigit3 endp
 851  0016              #line 851 "c:\users\tech\desktop\codetector\sevenSegment3DigitComplex\SevenSegment3DigitComplex.c"
 851  0016              #pragma debug scope 1 1
 851  0016              public _shwoSegment
 851  0016              #pragma debug scope 36 1
 865  0016              #line 865 "c:\users\tech\desktop\codetector\sevenSegment3DigitComplex\SevenSegment3DigitComplex.c"
 865  0000              _shwoSegment .section 'code'
 865  0000              _shwoSegment proc
 865  0000              public _shwoSegment_2
 865  0000  0005[           local _shwoSegment_2 db 5 dup(?)	; 2,3
            00
            ]
 865  0005              #pragma debug variable 11 36 _shwoSegment_2+0 "number"
 865  0005              #pragma debug variable 7 36 _shwoSegment_2+4 "powNumber"
 865  0005              #pragma debug variable 11 36 _shwoSegment_2+2 "indexDigit"
 875  0005              #line 875 "c:\users\tech\desktop\codetector\sevenSegment3DigitComplex\SevenSegment3DigitComplex.c"
 875  0000  0700     R  	mov a,_shwoSegment_2[0]
 875  0001  0500     R  	or a,_shwoSegment_2[1]
 875  0002  390A        	snz z
 875  0003  2800     R  	jmp _L39
 877  0004              #line 877 "c:\users\tech\desktop\codetector\sevenSegment3DigitComplex\SevenSegment3DigitComplex.c"
 877  0004  2000     R  	call _ziroDigit1
 878  0005              #line 878 "c:\users\tech\desktop\codetector\sevenSegment3DigitComplex\SevenSegment3DigitComplex.c"
 878  0005  2800     R  	jmp _L40
 878  0006              _L39:
 882  0006              #line 882 "c:\users\tech\desktop\codetector\sevenSegment3DigitComplex\SevenSegment3DigitComplex.c"
 882  0006  3800     R  	snz _shwoSegment_2[1].7
 882  0007  2800     R  	jmp _L41
 884  0008              #line 884 "c:\users\tech\desktop\codetector\sevenSegment3DigitComplex\SevenSegment3DigitComplex.c"
 884  0008  2000     R  	call _error1Seg
 885  0009              #line 885 "c:\users\tech\desktop\codetector\sevenSegment3DigitComplex\SevenSegment3DigitComplex.c"
 885  0009  2800     R  	jmp _L40
 885  000A              _L41:
 888  000A              #line 888 "c:\users\tech\desktop\codetector\sevenSegment3DigitComplex\SevenSegment3DigitComplex.c"
 888  000A  0FE7        	mov a,231
 888  000B  0200     R  	sub a,_shwoSegment_2[0]
 888  000C  0F03        	mov a,3
 888  000D  1200     R  	sbc a,_shwoSegment_2[1]
 888  000E  3B8A        	snz sc
 888  000F  2800     R  	jmp _L42
 890  0010              #line 890 "c:\users\tech\desktop\codetector\sevenSegment3DigitComplex\SevenSegment3DigitComplex.c"
 890  0010  2000     R  	call _errorSeg
 891  0011              #line 891 "c:\users\tech\desktop\codetector\sevenSegment3DigitComplex\SevenSegment3DigitComplex.c"
 891  0011  2800     R  	jmp _L40
 891  0012              _L42:
 888  0012              #line 888 "c:\users\tech\desktop\codetector\sevenSegment3DigitComplex\SevenSegment3DigitComplex.c"
 888  0012  0700     R  	mov a,_shwoSegment_2[0]
 888  0013  0080     E  	mov rb,a
 888  0014  0700     R  	mov a,_shwoSegment_2[1]
 888  0015  0080     E  	mov rc,a
 888  0016              _L44:
 888  0016              #pragma debug scope 37 36
 888  0016              ;begin block, line: 888.-1
 888  0016              #pragma debug scope 38 37
 888  0016              ;begin block, line: 888.-1
 858  0016              #line 858 "c:\users\tech\desktop\codetector\sevenSegment3DigitComplex\SevenSegment3DigitComplex.c"
 858  0016  0700     E  	mov a,rb
 858  0017  0080     E  	mov _builtin_holtek_udivmodhi4_2[0],a
 858  0018  0700     E  	mov a,rc
 858  0019  0080     E  	mov _builtin_holtek_udivmodhi4_2[1],a
"File: SevenSegment3DigitComplex.c  Assembler  Version HGASM0202      Page 120

 858  001A  0F0A        	mov a,10
 858  001B  0080     E  	mov _builtin_holtek_udivmodhi4_2[2],a
 858  001C  0F00        	mov a,0
 858  001D  0080     E  	mov _builtin_holtek_udivmodhi4_2[3],a
 858  001E  2000     E  	call _builtin_holtek_divmodhi4
 858  001F  0700     E  	mov a,_builtin_holtek_udivmodhi4_2[0]
 858  0020  0080     E  	mov rb,a
 858  0021  0700     E  	mov a,_builtin_holtek_udivmodhi4_2[1]
 858  0022  0080     E  	mov rc,a
 856  0023              #line 856 "c:\users\tech\desktop\codetector\sevenSegment3DigitComplex\SevenSegment3DigitComplex.c"
 856  0023  0700     E  	mov a,rb
 856  0024  0500     E  	or a,rc
 856  0025  390A        	snz z
 856  0026  2800     R  	jmp _L44
 856  0027  0F03        	mov a,3
 856  0028  0080     R  	mov _shwoSegment_2[2],a
 856  0029  1F00     R  	clr _shwoSegment_2[3]
 856  002A  0F64        	mov a,100
 856  002B  0080     R  	mov _shwoSegment_2[4],a
 856  002C              _L80:
 856  002C              #pragma debug scope 37 36
 856  002C              #pragma debug scope 36 1
 900  002C              #line 900 "c:\users\tech\desktop\codetector\sevenSegment3DigitComplex\SevenSegment3DigitComplex.c"
 900  002C  0700     R  	mov a,_shwoSegment_2[4]
 900  002D  0080     E  	mov rd,a
 900  002E  1F00     E  	clr re
 900  002F  3F85        	sz acc.7
 900  0030  1F80     E  	set re
 900  0031  0700     R  	mov a,_shwoSegment_2[0]
 900  0032  0080     E  	mov _builtin_holtek_udivmodhi4_2[0],a
 900  0033  0700     R  	mov a,_shwoSegment_2[1]
 900  0034  0080     E  	mov _builtin_holtek_udivmodhi4_2[1],a
 900  0035  0700     E  	mov a,rd
 900  0036  0080     E  	mov _builtin_holtek_udivmodhi4_2[2],a
 900  0037  0700     E  	mov a,re
 900  0038  0080     E  	mov _builtin_holtek_udivmodhi4_2[3],a
 900  0039  2000     E  	call _builtin_holtek_divmodhi4
 900  003A  0700     E  	mov a,_builtin_holtek_udivmodhi4_2[0]
 900  003B  0080     E  	mov rb,a
 900  003C  0700     E  	mov a,_builtin_holtek_udivmodhi4_2[1]
 900  003D  0080     E  	mov rc,a
 901  003E              #line 901 "c:\users\tech\desktop\codetector\sevenSegment3DigitComplex\SevenSegment3DigitComplex.c"
 901  003E  0700     E  	mov a,rb  
 901  003F  0080     E  	mov _builtin_holtek_mulhi3_2[0],a  
 901  0040  0700     E  	mov a,rc  
 901  0041  0080     E  	mov _builtin_holtek_mulhi3_2[1],a
 901  0042  0700     E  	mov a,rd  
 901  0043  0080     E  	mov _builtin_holtek_mulhi3_2[2],a  
 901  0044  0700     E  	mov a,re  
 901  0045  0080     E  	mov _builtin_holtek_mulhi3_2[3],a
 901  0046  2000     E  	call _builtin_holtek_mulhi3
 901  0047  0700     E  	mov a,_builtin_holtek_mulhi3_2[4]  
 901  0048  0080     E  	mov rd,a  
 901  0049  0700     E  	mov a,_builtin_holtek_mulhi3_2[5]  
 901  004A  0080     E  	mov re,a
 901  004B  0700     R  	mov a,_shwoSegment_2[0]
 901  004C  0200     E  	sub a,rd
 901  004D  0080     R  	mov _shwoSegment_2[0],a
 901  004E  0700     R  	mov a,_shwoSegment_2[1]
 901  004F  1200     E  	sbc a,re
"File: SevenSegment3DigitComplex.c  Assembler  Version HGASM0202      Page 121

 901  0050  0080     R  	mov _shwoSegment_2[1],a
 904  0051              #line 904 "c:\users\tech\desktop\codetector\sevenSegment3DigitComplex\SevenSegment3DigitComplex.c"
 904  0051  0700     R  	mov a,_shwoSegment_2[2]
 904  0052  0C01        	xor a,1
 904  0053  0500     R  	or a,_shwoSegment_2[3]
 904  0054  3D0A        	sz z
 904  0055  2800     R  	jmp _L46
 904  0056  0700     R  	mov a,_shwoSegment_2[2]
 904  0057  0C02        	xor a,2
 904  0058  0500     R  	or a,_shwoSegment_2[3]
 904  0059  3D0A        	sz z
 904  005A  2800     R  	jmp _L47
 904  005B  0700     R  	mov a,_shwoSegment_2[2]
 904  005C  0C03        	xor a,3
 904  005D  0500     R  	or a,_shwoSegment_2[3]
 904  005E  390A        	snz z
 904  005F  2800     R  	jmp _L45
 904  0060  2800     R  	jmp _L81
 904  0061              _L46:
 912  0061              #line 912 "c:\users\tech\desktop\codetector\sevenSegment3DigitComplex\SevenSegment3DigitComplex.c"
 912  0061  0700     E  	mov a,rb
 912  0062  0500     E  	or a,rc
 912  0063  3D0A        	sz z
 912  0064  2800     R  	jmp _L49
 912  0065  0700     E  	mov a,rb
 912  0066  0C01        	xor a,1
 912  0067  0500     E  	or a,rc
 912  0068  3D0A        	sz z
 912  0069  2800     R  	jmp _L50
 912  006A  0700     E  	mov a,rb
 912  006B  0C02        	xor a,2
 912  006C  0500     E  	or a,rc
 912  006D  3D0A        	sz z
 912  006E  2800     R  	jmp _L51
 912  006F  0700     E  	mov a,rb
 912  0070  0C03        	xor a,3
 912  0071  0500     E  	or a,rc
 912  0072  3D0A        	sz z
 912  0073  2800     R  	jmp _L52
 912  0074  0700     E  	mov a,rb
 912  0075  0C04        	xor a,4
 912  0076  0500     E  	or a,rc
 912  0077  3D0A        	sz z
 912  0078  2800     R  	jmp _L53
 912  0079  0700     E  	mov a,rb
 912  007A  0C05        	xor a,5
 912  007B  0500     E  	or a,rc
 912  007C  3D0A        	sz z
 912  007D  2800     R  	jmp _L54
 912  007E  0700     E  	mov a,rb
 912  007F  0C06        	xor a,6
 912  0080  0500     E  	or a,rc
 912  0081  3D0A        	sz z
 912  0082  2800     R  	jmp _L55
 912  0083  0700     E  	mov a,rb
 912  0084  0C07        	xor a,7
 912  0085  0500     E  	or a,rc
 912  0086  3D0A        	sz z
 912  0087  2800     R  	jmp _L56
 912  0088  0700     E  	mov a,rb
"File: SevenSegment3DigitComplex.c  Assembler  Version HGASM0202      Page 122

 912  0089  0C08        	xor a,8
 912  008A  0500     E  	or a,rc
 912  008B  3D0A        	sz z
 912  008C  2800     R  	jmp _L57
 912  008D  0700     E  	mov a,rb
 912  008E  0C09        	xor a,9
 912  008F  0500     E  	or a,rc
 912  0090  390A        	snz z
 912  0091  2800     R  	jmp _L45
 924  0092              #line 924 "c:\users\tech\desktop\codetector\sevenSegment3DigitComplex\SevenSegment3DigitComplex.c"
 924  0092  2000     R  	call _clearSegment
 924  0093  2000     R  	call _nineDigit3
 924  0094  2800     R  	jmp _L45
 924  0095              _L49:
 915  0095              #line 915 "c:\users\tech\desktop\codetector\sevenSegment3DigitComplex\SevenSegment3DigitComplex.c"
 915  0095  2000     R  	call _clearSegment
 915  0096  2000     R  	call _ziroDigit3
 915  0097  2800     R  	jmp _L45
 915  0098              _L50:
 916  0098              #line 916 "c:\users\tech\desktop\codetector\sevenSegment3DigitComplex\SevenSegment3DigitComplex.c"
 916  0098  2000     R  	call _clearSegment
 916  0099  2000     R  	call _oneDigit3
 916  009A  2800     R  	jmp _L45
 916  009B              _L51:
 917  009B              #line 917 "c:\users\tech\desktop\codetector\sevenSegment3DigitComplex\SevenSegment3DigitComplex.c"
 917  009B  2000     R  	call _clearSegment
 917  009C  2000     R  	call _towDigit3
 917  009D  2800     R  	jmp _L45
 917  009E              _L52:
 918  009E              #line 918 "c:\users\tech\desktop\codetector\sevenSegment3DigitComplex\SevenSegment3DigitComplex.c"
 918  009E  2000     R  	call _clearSegment
 918  009F  2000     R  	call _threeDigit3
 918  00A0  2800     R  	jmp _L45
 918  00A1              _L53:
 919  00A1              #line 919 "c:\users\tech\desktop\codetector\sevenSegment3DigitComplex\SevenSegment3DigitComplex.c"
 919  00A1  2000     R  	call _clearSegment
 919  00A2  2000     R  	call _fourDigit3
 919  00A3  2800     R  	jmp _L45
 919  00A4              _L54:
 920  00A4              #line 920 "c:\users\tech\desktop\codetector\sevenSegment3DigitComplex\SevenSegment3DigitComplex.c"
 920  00A4  2000     R  	call _clearSegment
 920  00A5  2000     R  	call _fiveDigit3
 920  00A6  2800     R  	jmp _L45
 920  00A7              _L55:
 921  00A7              #line 921 "c:\users\tech\desktop\codetector\sevenSegment3DigitComplex\SevenSegment3DigitComplex.c"
 921  00A7  2000     R  	call _clearSegment
 921  00A8  2000     R  	call _sixDigit3
 921  00A9  2800     R  	jmp _L45
 921  00AA              _L56:
 922  00AA              #line 922 "c:\users\tech\desktop\codetector\sevenSegment3DigitComplex\SevenSegment3DigitComplex.c"
 922  00AA  2000     R  	call _clearSegment
 922  00AB  2000     R  	call _sevenDigit3
 922  00AC  2800     R  	jmp _L45
 922  00AD              _L57:
 923  00AD              #line 923 "c:\users\tech\desktop\codetector\sevenSegment3DigitComplex\SevenSegment3DigitComplex.c"
 923  00AD  2000     R  	call _clearSegment
 923  00AE  2000     R  	call _eightDigit3
 923  00AF  2800     R  	jmp _L45
 923  00B0              _L47:
 934  00B0              #line 934 "c:\users\tech\desktop\codetector\sevenSegment3DigitComplex\SevenSegment3DigitComplex.c"
"File: SevenSegment3DigitComplex.c  Assembler  Version HGASM0202      Page 123

 934  00B0  0700     E  	mov a,rb
 934  00B1  0500     E  	or a,rc
 934  00B2  3D0A        	sz z
 934  00B3  2800     R  	jmp _L59
 934  00B4  0700     E  	mov a,rb
 934  00B5  0C01        	xor a,1
 934  00B6  0500     E  	or a,rc
 934  00B7  3D0A        	sz z
 934  00B8  2800     R  	jmp _L60
 934  00B9  0700     E  	mov a,rb
 934  00BA  0C02        	xor a,2
 934  00BB  0500     E  	or a,rc
 934  00BC  3D0A        	sz z
 934  00BD  2800     R  	jmp _L61
 934  00BE  0700     E  	mov a,rb
 934  00BF  0C03        	xor a,3
 934  00C0  0500     E  	or a,rc
 934  00C1  3D0A        	sz z
 934  00C2  2800     R  	jmp _L62
 934  00C3  0700     E  	mov a,rb
 934  00C4  0C04        	xor a,4
 934  00C5  0500     E  	or a,rc
 934  00C6  3D0A        	sz z
 934  00C7  2800     R  	jmp _L63
 934  00C8  0700     E  	mov a,rb
 934  00C9  0C05        	xor a,5
 934  00CA  0500     E  	or a,rc
 934  00CB  3D0A        	sz z
 934  00CC  2800     R  	jmp _L64
 934  00CD  0700     E  	mov a,rb
 934  00CE  0C06        	xor a,6
 934  00CF  0500     E  	or a,rc
 934  00D0  3D0A        	sz z
 934  00D1  2800     R  	jmp _L65
 934  00D2  0700     E  	mov a,rb
 934  00D3  0C07        	xor a,7
 934  00D4  0500     E  	or a,rc
 934  00D5  3D0A        	sz z
 934  00D6  2800     R  	jmp _L66
 934  00D7  0700     E  	mov a,rb
 934  00D8  0C08        	xor a,8
 934  00D9  0500     E  	or a,rc
 934  00DA  3D0A        	sz z
 934  00DB  2800     R  	jmp _L67
 934  00DC  0700     E  	mov a,rb
 934  00DD  0C09        	xor a,9
 934  00DE  0500     E  	or a,rc
 934  00DF  390A        	snz z
 934  00E0  2800     R  	jmp _L45
 945  00E1              #line 945 "c:\users\tech\desktop\codetector\sevenSegment3DigitComplex\SevenSegment3DigitComplex.c"
 945  00E1  2000     R  	call _clearSegment
 945  00E2  2000     R  	call _nineDigit2
 945  00E3  2800     R  	jmp _L45
 945  00E4              _L59:
 936  00E4              #line 936 "c:\users\tech\desktop\codetector\sevenSegment3DigitComplex\SevenSegment3DigitComplex.c"
 936  00E4  2000     R  	call _clearSegment
 936  00E5  2000     R  	call _ziroDigit2
 936  00E6  2800     R  	jmp _L45
 936  00E7              _L60:
 937  00E7              #line 937 "c:\users\tech\desktop\codetector\sevenSegment3DigitComplex\SevenSegment3DigitComplex.c"
"File: SevenSegment3DigitComplex.c  Assembler  Version HGASM0202      Page 124

 937  00E7  2000     R  	call _clearSegment
 937  00E8  2000     R  	call _oneDigit2
 937  00E9  2800     R  	jmp _L45
 937  00EA              _L61:
 938  00EA              #line 938 "c:\users\tech\desktop\codetector\sevenSegment3DigitComplex\SevenSegment3DigitComplex.c"
 938  00EA  2000     R  	call _clearSegment
 938  00EB  2000     R  	call _towDigit2
 938  00EC  2800     R  	jmp _L45
 938  00ED              _L62:
 939  00ED              #line 939 "c:\users\tech\desktop\codetector\sevenSegment3DigitComplex\SevenSegment3DigitComplex.c"
 939  00ED  2000     R  	call _clearSegment
 939  00EE  2000     R  	call _threeDigit2
 939  00EF  2800     R  	jmp _L45
 939  00F0              _L63:
 940  00F0              #line 940 "c:\users\tech\desktop\codetector\sevenSegment3DigitComplex\SevenSegment3DigitComplex.c"
 940  00F0  2000     R  	call _clearSegment
 940  00F1  2000     R  	call _fourDigit2
 940  00F2  2800     R  	jmp _L45
 940  00F3              _L64:
 941  00F3              #line 941 "c:\users\tech\desktop\codetector\sevenSegment3DigitComplex\SevenSegment3DigitComplex.c"
 941  00F3  2000     R  	call _clearSegment
 941  00F4  2000     R  	call _fiveDigit2
 941  00F5  2800     R  	jmp _L45
 941  00F6              _L65:
 942  00F6              #line 942 "c:\users\tech\desktop\codetector\sevenSegment3DigitComplex\SevenSegment3DigitComplex.c"
 942  00F6  2000     R  	call _clearSegment
 942  00F7  2000     R  	call _sixDigit2
 942  00F8  2800     R  	jmp _L45
 942  00F9              _L66:
 943  00F9              #line 943 "c:\users\tech\desktop\codetector\sevenSegment3DigitComplex\SevenSegment3DigitComplex.c"
 943  00F9  2000     R  	call _clearSegment
 943  00FA  2000     R  	call _sevenDigit2
 943  00FB  2800     R  	jmp _L45
 943  00FC              _L67:
 944  00FC              #line 944 "c:\users\tech\desktop\codetector\sevenSegment3DigitComplex\SevenSegment3DigitComplex.c"
 944  00FC  2000     R  	call _clearSegment
 944  00FD  2000     R  	call _eightDigit2
 944  00FE  2800     R  	jmp _L45
 944  00FF              _L81:
 952  00FF              #line 952 "c:\users\tech\desktop\codetector\sevenSegment3DigitComplex\SevenSegment3DigitComplex.c"
 952  00FF  0700     E  	mov a,rb
 952  0100  0500     E  	or a,rc
 952  0101  3D0A        	sz z
 952  0102  2800     R  	jmp _L69
 952  0103  0700     E  	mov a,rb
 952  0104  0C01        	xor a,1
 952  0105  0500     E  	or a,rc
 952  0106  3D0A        	sz z
 952  0107  2800     R  	jmp _L70
 952  0108  0700     E  	mov a,rb
 952  0109  0C02        	xor a,2
 952  010A  0500     E  	or a,rc
 952  010B  3D0A        	sz z
 952  010C  2800     R  	jmp _L71
 952  010D  0700     E  	mov a,rb
 952  010E  0C03        	xor a,3
 952  010F  0500     E  	or a,rc
 952  0110  3D0A        	sz z
 952  0111  2800     R  	jmp _L72
 952  0112  0700     E  	mov a,rb
"File: SevenSegment3DigitComplex.c  Assembler  Version HGASM0202      Page 125

 952  0113  0C04        	xor a,4
 952  0114  0500     E  	or a,rc
 952  0115  3D0A        	sz z
 952  0116  2800     R  	jmp _L73
 952  0117  0700     E  	mov a,rb
 952  0118  0C05        	xor a,5
 952  0119  0500     E  	or a,rc
 952  011A  3D0A        	sz z
 952  011B  2800     R  	jmp _L74
 952  011C  0700     E  	mov a,rb
 952  011D  0C06        	xor a,6
 952  011E  0500     E  	or a,rc
 952  011F  3D0A        	sz z
 952  0120  2800     R  	jmp _L75
 952  0121  0700     E  	mov a,rb
 952  0122  0C07        	xor a,7
 952  0123  0500     E  	or a,rc
 952  0124  3D0A        	sz z
 952  0125  2800     R  	jmp _L76
 952  0126  0700     E  	mov a,rb
 952  0127  0C08        	xor a,8
 952  0128  0500     E  	or a,rc
 952  0129  3D0A        	sz z
 952  012A  2800     R  	jmp _L77
 952  012B  0700     E  	mov a,rb
 952  012C  0C09        	xor a,9
 952  012D  0500     E  	or a,rc
 952  012E  390A        	snz z
 952  012F  2800     R  	jmp _L45
 963  0130              #line 963 "c:\users\tech\desktop\codetector\sevenSegment3DigitComplex\SevenSegment3DigitComplex.c"
 963  0130  2000     R  	call _clearSegment
 963  0131  2000     R  	call _nineDigit1
 963  0132  2800     R  	jmp _L45
 963  0133              _L69:
 954  0133              #line 954 "c:\users\tech\desktop\codetector\sevenSegment3DigitComplex\SevenSegment3DigitComplex.c"
 954  0133  2000     R  	call _clearSegment
 954  0134  2000     R  	call _ziroDigit1
 954  0135  2800     R  	jmp _L45
 954  0136              _L70:
 955  0136              #line 955 "c:\users\tech\desktop\codetector\sevenSegment3DigitComplex\SevenSegment3DigitComplex.c"
 955  0136  2000     R  	call _clearSegment
 955  0137  2000     R  	call _oneDigit1
 955  0138  2800     R  	jmp _L45
 955  0139              _L71:
 956  0139              #line 956 "c:\users\tech\desktop\codetector\sevenSegment3DigitComplex\SevenSegment3DigitComplex.c"
 956  0139  2000     R  	call _clearSegment
 956  013A  2000     R  	call _towDigit1
 956  013B  2800     R  	jmp _L45
 956  013C              _L72:
 957  013C              #line 957 "c:\users\tech\desktop\codetector\sevenSegment3DigitComplex\SevenSegment3DigitComplex.c"
 957  013C  2000     R  	call _clearSegment
 957  013D  2000     R  	call _threeDigit1
 957  013E  2800     R  	jmp _L45
 957  013F              _L73:
 958  013F              #line 958 "c:\users\tech\desktop\codetector\sevenSegment3DigitComplex\SevenSegment3DigitComplex.c"
 958  013F  2000     R  	call _clearSegment
 958  0140  2000     R  	call _fourDigit1
 958  0141  2800     R  	jmp _L45
 958  0142              _L74:
 959  0142              #line 959 "c:\users\tech\desktop\codetector\sevenSegment3DigitComplex\SevenSegment3DigitComplex.c"
"File: SevenSegment3DigitComplex.c  Assembler  Version HGASM0202      Page 126

 959  0142  2000     R  	call _clearSegment
 959  0143  2000     R  	call _fiveDigit1
 959  0144  2800     R  	jmp _L45
 959  0145              _L75:
 960  0145              #line 960 "c:\users\tech\desktop\codetector\sevenSegment3DigitComplex\SevenSegment3DigitComplex.c"
 960  0145  2000     R  	call _clearSegment
 960  0146  2000     R  	call _sixDigit1
 960  0147  2800     R  	jmp _L45
 960  0148              _L76:
 961  0148              #line 961 "c:\users\tech\desktop\codetector\sevenSegment3DigitComplex\SevenSegment3DigitComplex.c"
 961  0148  2000     R  	call _clearSegment
 961  0149  2000     R  	call _sevenDigit1
 961  014A  2800     R  	jmp _L45
 961  014B              _L77:
 962  014B              #line 962 "c:\users\tech\desktop\codetector\sevenSegment3DigitComplex\SevenSegment3DigitComplex.c"
 962  014B  2000     R  	call _clearSegment
 962  014C  2000     R  	call _eightDigit1
 962  014D              _L45:
 971  014D              #line 971 "c:\users\tech\desktop\codetector\sevenSegment3DigitComplex\SevenSegment3DigitComplex.c"
 971  014D  0700     R  	mov a,_shwoSegment_2[4]  
 971  014E  0080     E  	mov _builtin_holtek_udivmodqi4_2[0],a
 971  014F  0F0A        	mov a,10  
 971  0150  0080     E  	mov _builtin_holtek_udivmodqi4_2[1],a
 971  0151  2000     E  	call _builtin_holtek_divmodqi4
 971  0152  0700     E  	mov a,_builtin_holtek_udivmodqi4_2[0]  
 971  0153  0080     R  	mov _shwoSegment_2[4],a
 897  0154              #line 897 "c:\users\tech\desktop\codetector\sevenSegment3DigitComplex\SevenSegment3DigitComplex.c"
 897  0154  0FFF        	mov a,255
 897  0155  0380     R  	addm a,_shwoSegment_2[2]
 897  0156  0FFF        	mov a,255
 897  0157  1380     R  	adcm a,_shwoSegment_2[3]
 897  0158  0700     R  	mov a,_shwoSegment_2[2]
 897  0159  0600     R  	and a,_shwoSegment_2[3]
 897  015A  0B01        	add a,1
 897  015B  380A        	snz c
 897  015C  2800     R  	jmp _L80
 897  015D  2800     R  	jmp _L38
 897  015E              _L40:
 897  015E  0F01        	mov a,1
 897  015F  0080     E  	mov ra,a
 897  0160  1F00     E  	clr rb
 897  0161              _L38:
 897  0161  0003        	ret
 897  0162              _shwoSegment endp
 897  0162              #line 897 "c:\users\tech\desktop\codetector\sevenSegment3DigitComplex\SevenSegment3DigitComplex.c"
 897  0162              #pragma debug scope 1 1
 897  0162              #pragma debug struct_end
 897  0162              #pragma debug struct_end
 897  0162              #pragma debug union_end
 897  0162              #pragma debug union_end
 897  0162              #pragma debug variable 43 1 ___pa "__pa" 1
 897  0162              #pragma debug struct_end
 897  0162              #pragma debug struct_end
 897  0162              #pragma debug union_end
 897  0162              #pragma debug union_end
 897  0162              #pragma debug variable 45 1 ___pac "__pac" 1
 897  0162              #pragma debug struct_end
 897  0162              #pragma debug struct_end
 897  0162              #pragma debug union_end
 897  0162              #pragma debug union_end
"File: SevenSegment3DigitComplex.c  Assembler  Version HGASM0202      Page 127

 897  0162              #pragma debug variable 47 1 ___pb "__pb" 1
 897  0162              #pragma debug struct_end
 897  0162              #pragma debug struct_end
 897  0162              #pragma debug union_end
 897  0162              #pragma debug union_end
 897  0162              #pragma debug variable 49 1 ___pbc "__pbc" 1
 897  0162              extern _builtin_holtek_divmodhi4:near
 897  0162              extern _builtin_holtek_udivmodhi4_2:byte
 897  0162              extern _builtin_holtek_udivmodhi4:near
 897  0162              extern _builtin_holtek_mulhi3_2:byte
 897  0162              extern _builtin_holtek_mulhi3:near
 897  0162              extern _builtin_holtek_divmodqi4:near
 897  0162              extern _builtin_holtek_udivmodqi4_2:byte
 897  0162              extern _builtin_holtek_udivmodqi4:near
 897  0162              
 897  0162              ; 
 897  0162              ; Generated by holtek-gcc v3.19, Mon Sep 25 19:05:38 2023
 897  0162              ; Rebuild 718
 897  0162              ; end of file


        0 Errors, 0