"File: co.c          Assembler  Version HGASM0202      Page 1


   1  0000              ; Generated by holtek-gcc v3.19, Sun Sep 17 17:37:00 2023
   2  0000              ; 
   3  0000              ; Configuration:
   4  0000              ;       with long instruction
   5  0000              ;       Single ROM, Multi-RAM
   6  0000              ;       bits_per_rom_unit:16
   7  0000              ;       with mp1
   8  0000              ;       with tbhp, address(0x9)
   9  0000              ;          Use tabrd-const
  10  0000              ;       
  11  0000              ; SFR address of long-instruction arch:
  12  0000              ;    mp0 = -1,1,0
  13  0000              ;    mp1 = 4,3,2
  14  0000              ;    mp2 = 14,13,12
  15  0000              ;    tbp = 9,7,8
  16  0000              ;    acc = 5
  17  0000              ;    pcl = 6
  18  0000              ;    status = 10
  19  0000              ;    bp = 11
  20  0000              ;    intc = 72
  21  0000              ;       
  22  0000              ;       
  23  0000              ; use 'tabrdc' instead of 'tabrd'
  24  0000              ;       
  25  0000              
  26  0000              #pragma translator "holtek-gcc 4.6.4" "3.19" "build 20130711"
  27  0000              ; Rebuild 718
  28  0000              
  29  0000              ir equ [2]
  30  0000              mp equ [3]
  31  0000              sbp equ [4]
  32  0000              acc equ [5]
  33  0000              bp equ [11]
  34  0000              tblp equ [7]
  35  0000              tbhp equ [9]
  36  0000              status equ [10]
  37  0000              c equ [10].0
  38  0000              ac equ [10].1
  39  0000              z equ [10].2
  40  0000              ov equ [10].3
  41  0000              cz equ [10].6
  42  0000              sc equ [10].7
  43  0000              intc equ [72]
  44  0000              
  45  0000              extern ra:byte
  46  0000              extern rb:byte
  47  0000              extern rc:byte
  48  0000              extern rd:byte
  49  0000              extern re:byte
  50  0000              extern rf:byte
  51  0000              extern rg:byte
  52  0000              extern rh:byte
  53  0000              extern _Crom2Prom:near
  54  0000              extern _Crom2PromNext:near
  55  0000              
  56  0000              RAMBANK 0 @BITDATASEC, @BITDATASEC1
  57  0000              @HCCINIT	.section 'data'
  58  0000              @HCCINIT0	.section 'data'
  59  0000              @BITDATASEC	 .section 'data'
"File: co.ASM        Assembler  Version HGASM0202      Page 2

  60  0000              @BITDATASEC1	 .section 'data'
  61  0000              
  62  0000              #pragma debug scope 1 1
  63  0000              	extern __DELAY3:near
  64  0000              	extern __DELAYX3:near
  65  0000              	extern __DELAYX6:near
  66  0000              	extern __DELAYY5:near
  67  0000              	extern __DELAYY3:near
  68  0000              	extern _builtin_holtek_delay_2:byte
  69  0000              ___isgenc equ [93]
  70  0000              ___vbgrc equ [11]
  71  0000              ___sda0c equ [35]
  72  0000              ___sda1c equ [37]
  73  0000              ___integ equ [71]
  74  0000              ___intc0 equ [72]
  75  0000              ___pac equ [21]
  76  0000              ___pbc equ [25]
  77  0000              ___papu equ [22]
  78  0000              ___pawu equ [23]
  79  0000              ___pa equ [20]
  80  0000              ___pb equ [24]
  81  0000              ___status equ [10]
  82  0000              public _main
  83  0000              #pragma debug scope 2 1

  64  0000              #line 64 "c:\users\tech\desktop\codetector\co.c"
  64  0000              IFDEF WITH_DEFAULT_STARTUP
  64  0000              extern _main_initial0:near
  64  0000              extern _main_startup:near
  64  0000              ENDIF
  64  0000              
  64  0000              ROMBANK 0 @start
  64  0000              @start .section com_l 'code'
  64  0000              _main_startup1:
  64  0000              @start .section com_e 'code'
  64  0000  2800     R  	jmp _main
  64  0001              
  64  0000              _main .section 'code'
  64  0000              _main proc
  68  0000              #line 68 "c:\users\tech\desktop\codetector\co.c"
  68  0000  2000     E  	call _ClockInit
  69  0001              #line 69 "c:\users\tech\desktop\codetector\co.c"
  69  0001  2000     E  	call _GPIOInit
  70  0002              #line 70 "c:\users\tech\desktop\codetector\co.c"
  70  0002  2000     E  	call _GPIOToGNDCurentInit
  71  0003              #line 71 "c:\users\tech\desktop\codetector\co.c"
  71  0003  2000     E  	call _OPAMPInit
  72  0004              #line 72 "c:\users\tech\desktop\codetector\co.c"
  72  0004  2000     E  	call _S_ADC_Init
  74  0005              #line 74 "c:\users\tech\desktop\codetector\co.c"
  74  0005  305D        	set [93].0
  75  0006              #line 75 "c:\users\tech\desktop\codetector\co.c"
  75  0006  34DD        	clr [93].1
  77  0007              #line 77 "c:\users\tech\desktop\codetector\co.c"
  77  0007  300B        	set [11].0
  78  0008              #line 78 "c:\users\tech\desktop\codetector\co.c"
  78  0008  3323        	set [35].6
  79  0009              #line 79 "c:\users\tech\desktop\codetector\co.c"
  79  0009  3325        	set [37].6
  80  000A              #line 80 "c:\users\tech\desktop\codetector\co.c"
"File: co.c          Assembler  Version HGASM0202      Page 3

  80  000A              ;# 80 "c:\users\tech\desktop\codetector\co.c" 1
  80  000A  0001        	clr wdt
 124  000B              #line 124 "c:\users\tech\desktop\codetector\co.c"
 124  000B  3547        	clr [71].2
 125  000C              #line 125 "c:\users\tech\desktop\codetector\co.c"
 125  000C  31C7        	set [71].3
 131  000D              #line 131 "c:\users\tech\desktop\codetector\co.c"
 131  000D  35C8        	clr [72].3
 138  000E              #line 138 "c:\users\tech\desktop\codetector\co.c"
 138  000E  3748        	clr [72].6
 139  000F              #line 139 "c:\users\tech\desktop\codetector\co.c"
 139  000F  31C8        	set [72].3
 146  0010              #line 146 "c:\users\tech\desktop\codetector\co.c"
 146  0010  3215        	set [21].4
 147  0011              #line 147 "c:\users\tech\desktop\codetector\co.c"
 147  0011  3519        	clr [25].2
 148  0012              #line 148 "c:\users\tech\desktop\codetector\co.c"
 148  0012  3415        	clr [21].0
 149  0013              #line 149 "c:\users\tech\desktop\codetector\co.c"
 149  0013  3216        	set [22].4
 150  0014              #line 150 "c:\users\tech\desktop\codetector\co.c"
 150  0014  3217        	set [23].4
 153  0015              #line 153 "c:\users\tech\desktop\codetector\co.c"
 153  0015  3A14        	snz [20].4
 153  0016  2800     R  	jmp _L2
 155  0017              #line 155 "c:\users\tech\desktop\codetector\co.c"
 155  0017  3519        	clr [25].2
 156  0018              #line 156 "c:\users\tech\desktop\codetector\co.c"
 156  0018  3415        	clr [21].0
 157  0019              #line 157 "c:\users\tech\desktop\codetector\co.c"
 157  0019  3518        	clr [24].2
 158  001A              #line 158 "c:\users\tech\desktop\codetector\co.c"
 158  001A  3014        	set [20].0
 158  001B  2800     R  	jmp _L8
 158  001C              _L2:
 162  001C              #line 162 "c:\users\tech\desktop\codetector\co.c"
 162  001C  3119        	set [25].2
 163  001D              #line 163 "c:\users\tech\desktop\codetector\co.c"
 163  001D  3015        	set [21].0
 164  001E              #line 164 "c:\users\tech\desktop\codetector\co.c"
 164  001E  3518        	clr [24].2
 165  001F              #line 165 "c:\users\tech\desktop\codetector\co.c"
 165  001F  3414        	clr [20].0
 165  0020              _L8:
 166  0020              #line 166 "c:\users\tech\desktop\codetector\co.c"
 166  0020              ;# 166 "c:\users\tech\desktop\codetector\co.c" 1
 166  0020              	IF 1000>263690
 166  0020              ;# 166 "c:\users\tech\desktop\codetector\co.c" 1
 166  0020              	ERRMESSAGE 'the value 1000of the argument exceeds the maxinum 263690'
 166  0020              	ENDIF
 166  0020              ;# 166 "c:\users\tech\desktop\codetector\co.c" 1
 166  0020              	IF 1000<0
 166  0020              ;# 166 "c:\users\tech\desktop\codetector\co.c" 1
 166  0020              	ERRMESSAGE 'the value 1000 of the argument exceeds the mininum 0'
 166  0020              	ENDIF
 166  0020              ;# 166 "c:\users\tech\desktop\codetector\co.c" 1
 166  0020              	IF 1000==0
 166  0020              ;# 166 "c:\users\tech\desktop\codetector\co.c" 1
 166  0020              	JMP $
 166  0020              	ENDIF
"File: co.c          Assembler  Version HGASM0202      Page 4

 166  0020              ;# 166 "c:\users\tech\desktop\codetector\co.c" 1
 166  0020              	IF 1000==1
 166  0020              ;# 166 "c:\users\tech\desktop\codetector\co.c" 1
 166  0020              	NOP
 166  0020              	ENDIF
 166  0020              ;# 166 "c:\users\tech\desktop\codetector\co.c" 1
 166  0020              	IF 1000==2
 166  0020              ;# 166 "c:\users\tech\desktop\codetector\co.c" 1
 166  0020              	NOP
 166  0020              ;# 166 "c:\users\tech\desktop\codetector\co.c" 1
 166  0020              	NOP
 166  0020              	ENDIF
 166  0020              ;# 166 "c:\users\tech\desktop\codetector\co.c" 1
 166  0020              	IF 1000==3
 166  0020              ;# 166 "c:\users\tech\desktop\codetector\co.c" 1
 166  0020              	NOP
 166  0020              ;# 166 "c:\users\tech\desktop\codetector\co.c" 1
 166  0020              	NOP
 166  0020              ;# 166 "c:\users\tech\desktop\codetector\co.c" 1
 166  0020              	NOP
 166  0020              	ENDIF
 166  0020              ;# 166 "c:\users\tech\desktop\codetector\co.c" 1
 166  0020              	IF (1000<8) AND (1000>3)
 166  0020              ;# 166 "c:\users\tech\desktop\codetector\co.c" 1
 166  0020              	CALL __DELAY3 + 7 -1000
 166  0020              	ENDIF
 166  0020              ;# 166 "c:\users\tech\desktop\codetector\co.c" 1
 166  0020              	IF (1000< 0404h) AND (1000>7)
 166  0020              ;# 166 "c:\users\tech\desktop\codetector\co.c" 1
 166  0020  0FF9        	MOV A,1000/4-1
 166  0021              ;# 166 "c:\users\tech\desktop\codetector\co.c" 1
 166  0021  2000     E  	CALL __DELAYX3 + 3 -(1000 MOD 4)
 166  0022              	ENDIF
 166  0022              ;# 166 "c:\users\tech\desktop\codetector\co.c" 1
 166  0022              	IF (1000< 0x40B) AND (1000> 0403h)
 166  0022              ;# 166 "c:\users\tech\desktop\codetector\co.c" 1
 166  0022              	MOV A,0 
 166  0022              ;# 166 "c:\users\tech\desktop\codetector\co.c" 1
 166  0022              	CALL __DELAYX6 + 0x40a -1000
 166  0022              	ENDIF
 166  0022              ;# 166 "c:\users\tech\desktop\codetector\co.c" 1
 166  0022              	IF (1000 >= 0x40b) AND ((((1000-9)%0402h)/4+1)>256)
 166  0022              ;# 166 "c:\users\tech\desktop\codetector\co.c" 1
 166  0022              	MOV A,(1000-9)/0402h
 166  0022              ;# 166 "c:\users\tech\desktop\codetector\co.c" 1
 166  0022              	MOV _builtin_holtek_delay_2,A
 166  0022              ;# 166 "c:\users\tech\desktop\codetector\co.c" 1
 166  0022              	MOV A,0
 166  0022              ;# 166 "c:\users\tech\desktop\codetector\co.c" 1
 166  0022              	CALL __DELAYY5 +5- (((1000-9)%0402h)%6)
 166  0022              	ENDIF
 166  0022              ;# 166 "c:\users\tech\desktop\codetector\co.c" 1
 166  0022              	IF (1000 >= 0x40b) AND ((((1000-9)%0402h)/4+1)<=256)
 166  0022              ;# 166 "c:\users\tech\desktop\codetector\co.c" 1
 166  0022              	MOV A,(1000-9)/0402h
 166  0022              ;# 166 "c:\users\tech\desktop\codetector\co.c" 1
 166  0022              	MOV _builtin_holtek_delay_2,A
 166  0022              ;# 166 "c:\users\tech\desktop\codetector\co.c" 1
 166  0022              	MOV A,((1000-9)%0402h)/4+1
 166  0022              ;# 166 "c:\users\tech\desktop\codetector\co.c" 1
"File: co.c          Assembler  Version HGASM0202      Page 5

 166  0022              	CALL __DELAYY3 +3-(((1000-9)%0402h)%4)
 166  0022              	ENDIF
 177  0022              #line 177 "c:\users\tech\desktop\codetector\co.c"
 177  0022  1480     R  	inc _my_E[0]
 177  0023  3D0A        	sz z
 177  0024  1480     R  	inc _my_E[1]
 177  0025              _L7:
 182  0025              #line 182 "c:\users\tech\desktop\codetector\co.c"
 182  0025              ;# 182 "c:\users\tech\desktop\codetector\co.c" 1
 182  0025  0001        	clr wdt
 182  0026              _L6:
 204  0026              #line 204 "c:\users\tech\desktop\codetector\co.c"
 204  0026  3E8A        	sz [10].5
 204  0027  2800     R  	jmp _L4
 206  0028              #line 206 "c:\users\tech\desktop\codetector\co.c"
 206  0028  1F00     R  	clr _my_E[0]
 206  0029  1F00     R  	clr _my_E[1]
 206  002A              _L4:
 218  002A              #line 218 "c:\users\tech\desktop\codetector\co.c"
 218  002A              ;# 218 "c:\users\tech\desktop\codetector\co.c" 1
 218  002A  0001        	clr wdt
 220  002B              #line 220 "c:\users\tech\desktop\codetector\co.c"
 220  002B  1480     R  	inc _cunter[0]
 220  002C  3D0A        	sz z
 220  002D  1480     R  	inc _cunter[1]
 222  002E              #line 222 "c:\users\tech\desktop\codetector\co.c"
 222  002E  0F16        	mov a,22
 222  002F  0080     E  	mov _shwoSegment_2[0],a
 222  0030  1F00     E  	clr _shwoSegment_2[1]
 222  0031  2000     E  	call _shwoSegment
 224  0032              #line 224 "c:\users\tech\desktop\codetector\co.c"
 224  0032  0F64        	mov a,100
 224  0033  0200     R  	sub a,_cunter[0]
 224  0034  0F00        	mov a,0
 224  0035  1200     R  	sbc a,_cunter[1]
 224  0036  3B8A        	snz sc
 224  0037  2800     R  	jmp _L6
 226  0038              #line 226 "c:\users\tech\desktop\codetector\co.c"
 226  0038  1F00     R  	clr _cunter[0]
 226  0039  1F00     R  	clr _cunter[1]
 228  003A              #line 228 "c:\users\tech\desktop\codetector\co.c"
 228  003A              ;# 228 "c:\users\tech\desktop\codetector\co.c" 1
 228  003A  0002        	halt
 231  003B              #line 231 "c:\users\tech\desktop\codetector\co.c"
 231  003B  2800     R  	jmp _L7
 231  003C  2800     R  	jmp $
 231  003D              _main endp
 231  003D              
 231  003D              @dummy endp
 231  003D              
 231  003D              #line 231 "c:\users\tech\desktop\codetector\co.c"
 231  003D              #pragma debug scope 1 1
  59  003D              #line 59 "c:\users\tech\desktop\codetector\co.c"
  59  003D              public _i
  59  0000              @HCCINIT0_i .section 'data'
  59  0000              _i	db 0
  59  0001              #pragma debug variable 7 1 _i "i"
  59  0001              
  59  0000              @HCCINIT .section 'data'
  59  0000              public _cunter
"File: co.c          Assembler  Version HGASM0202      Page 6

  59  0000              @HCCINIT	.section 'data'
  58  0000              #line 58 "c:\users\tech\desktop\codetector\co.c"
  58  0000              @HCCINIT_cunter .section 'data'
  58  0000              _cunter label byte
  58  0000              #pragma debug variable 11 1 _cunter "cunter"
  58  0000              	db 0
  58  0000              @ROMDATA_BASE .section inpage 'code'
  58  0000              	db 0
  58  0001              @HCCINIT_cunter .section 'data'
  58  0001              	db 0
  58  0001              @ROMDATA_BASE .section inpage 'code'
  58  0001              	db 0
  58  0002              @HCCINIT_cunter .section 'data'
  58  0002              public _my_E2
  55  0002              #line 55 "c:\users\tech\desktop\codetector\co.c"
  55  0000              @HCCINIT_my_E2 .section 'data'
  55  0000              _my_E2 label byte
  55  0000              #pragma debug variable 11 1 _my_E2 "my_E2"
  55  0000              	db 0
  55  0001              @ROMDATA_BASE .section inpage 'code'
  55  0001              	db 0
  55  0001              @HCCINIT_my_E2 .section 'data'
  55  0001              	db 0
  55  0002              @ROMDATA_BASE .section inpage 'code'
  55  0002              	db 0
  55  0002              @HCCINIT_my_E2 .section 'data'
  54  0002              #line 54 "c:\users\tech\desktop\codetector\co.c"
  54  0002              public _my_E
  54  0000              @HCCINIT0_my_E .section 'data'
  54  0000  0002[       _my_E	db 2 dup(0)
            00
            ]
  54  0002              #pragma debug variable 11 1 _my_E "my_E"
  54  0002              
  54  0000              @HCCINIT .section 'data'
  54  0000              public _TimerValue
  53  0000              #line 53 "c:\users\tech\desktop\codetector\co.c"
  53  0000              @HCCINIT_TimerValue .section 'data'
  53  0000              _TimerValue label byte
  53  0000              #pragma debug variable 12 1 _TimerValue "TimerValue"
  53  0000              	db 0
  53  0002              @ROMDATA_BASE .section inpage 'code'
  53  0002              	db 0
  53  0001              @HCCINIT_TimerValue .section 'data'
  53  0001              	db 0
  53  0003              @ROMDATA_BASE .section inpage 'code'
  53  0003              	db 0
  53  0002              @HCCINIT_TimerValue .section 'data'
  53  0002              public _VAmplifier1
  52  0002              #line 52 "c:\users\tech\desktop\codetector\co.c"
  52  0000              @HCCINIT_VAmplifier1 .section 'data'
  52  0000              _VAmplifier1 label byte
  52  0000              #pragma debug variable 28 1 _VAmplifier1 "VAmplifier1"
  52  0000              	db 0
  52  0003              @ROMDATA_BASE .section inpage 'code'
  52  0003              	db 0
  52  0001              @HCCINIT_VAmplifier1 .section 'data'
  52  0001              	db 0
  52  0004              @ROMDATA_BASE .section inpage 'code'
  52  0004              	db 0
"File: co.c          Assembler  Version HGASM0202      Page 7

  52  0002              @HCCINIT_VAmplifier1 .section 'data'
  52  0002              	db 0
  52  0004              @ROMDATA_BASE .section inpage 'code'
  52  0004              	db 0
  52  0003              @HCCINIT_VAmplifier1 .section 'data'
  52  0003              public _tempAmplifier1
  51  0003              #line 51 "c:\users\tech\desktop\codetector\co.c"
  51  0000              @HCCINIT_tempAmplifier1 .section 'data'
  51  0000              _tempAmplifier1 label byte
  51  0000              #pragma debug variable 28 1 _tempAmplifier1 "tempAmplifier1"
  51  0000              	db 0
  51  0005              @ROMDATA_BASE .section inpage 'code'
  51  0005              	db 0
  51  0001              @HCCINIT_tempAmplifier1 .section 'data'
  51  0001              	db 0
  51  0005              @ROMDATA_BASE .section inpage 'code'
  51  0005              	db 0
  51  0002              @HCCINIT_tempAmplifier1 .section 'data'
  51  0002              	db 0
  51  0006              @ROMDATA_BASE .section inpage 'code'
  51  0006              	db 0
  51  0003              @HCCINIT_tempAmplifier1 .section 'data'
  51  0003              public _Amplifier1
  50  0003              #line 50 "c:\users\tech\desktop\codetector\co.c"
  50  0000              @HCCINIT_Amplifier1 .section 'data'
  50  0000              _Amplifier1 label byte
  50  0000              #pragma debug variable 28 1 _Amplifier1 "Amplifier1"
  50  0000              	db 0
  50  0006              @ROMDATA_BASE .section inpage 'code'
  50  0006              	db 0
  50  0001              @HCCINIT_Amplifier1 .section 'data'
  50  0001              	db 0
  50  0007              @ROMDATA_BASE .section inpage 'code'
  50  0007              	db 0
  50  0002              @HCCINIT_Amplifier1 .section 'data'
  50  0002              	db 0
  50  0007              @ROMDATA_BASE .section inpage 'code'
  50  0007              	db 0
  50  0003              @HCCINIT_Amplifier1 .section 'data'
  50  0003              public _temperatur
  49  0003              #line 49 "c:\users\tech\desktop\codetector\co.c"
  49  0000              @HCCINIT_temperatur .section 'data'
  49  0000              _temperatur label byte
  49  0000              #pragma debug variable 28 1 _temperatur "temperatur"
  49  0000              	db 0
  49  0008              @ROMDATA_BASE .section inpage 'code'
  49  0008              	db 0
  49  0001              @HCCINIT_temperatur .section 'data'
  49  0001              	db 0
  49  0008              @ROMDATA_BASE .section inpage 'code'
  49  0008              	db 0
  49  0002              @HCCINIT_temperatur .section 'data'
  49  0002              	db 0
  49  0009              @ROMDATA_BASE .section inpage 'code'
  49  0009              	db 0
  49  0003              @HCCINIT_temperatur .section 'data'
  49  0003              public _COValue
  48  0003              #line 48 "c:\users\tech\desktop\codetector\co.c"
  48  0000              @HCCINIT_COValue .section 'data'
  48  0000              _COValue label byte
"File: co.c          Assembler  Version HGASM0202      Page 8

  48  0000              #pragma debug variable 28 1 _COValue "COValue"
  48  0000              	db 0
  48  0009              @ROMDATA_BASE .section inpage 'code'
  48  0009              	db 0
  48  0001              @HCCINIT_COValue .section 'data'
  48  0001              	db 0
  48  000A              @ROMDATA_BASE .section inpage 'code'
  48  000A              	db 0
  48  0002              @HCCINIT_COValue .section 'data'
  48  0002              	db 0
  48  000A              @ROMDATA_BASE .section inpage 'code'
  48  000A              	db 0
  48  0003              @HCCINIT_COValue .section 'data'
  48  0003              #pragma debug struct_end
  48  0003              #pragma debug struct_end
  48  0003              #pragma debug union_end
  48  0003              #pragma debug union_end
  48  0003              #pragma debug variable 43 1 ___status "__status" 1
  48  0003              #pragma debug struct_end
  48  0003              #pragma debug struct_end
  48  0003              #pragma debug union_end
  48  0003              #pragma debug union_end
  48  0003              #pragma debug variable 45 1 ___vbgrc "__vbgrc" 1
  48  0003              #pragma debug struct_end
  48  0003              #pragma debug struct_end
  48  0003              #pragma debug union_end
  48  0003              #pragma debug union_end
  48  0003              #pragma debug variable 47 1 ___pa "__pa" 1
  48  0003              #pragma debug struct_end
  48  0003              #pragma debug struct_end
  48  0003              #pragma debug union_end
  48  0003              #pragma debug union_end
  48  0003              #pragma debug variable 49 1 ___pac "__pac" 1
  48  0003              #pragma debug struct_end
  48  0003              #pragma debug struct_end
  48  0003              #pragma debug union_end
  48  0003              #pragma debug union_end
  48  0003              #pragma debug variable 51 1 ___papu "__papu" 1
  48  0003              #pragma debug struct_end
  48  0003              #pragma debug struct_end
  48  0003              #pragma debug union_end
  48  0003              #pragma debug union_end
  48  0003              #pragma debug variable 53 1 ___pawu "__pawu" 1
  48  0003              #pragma debug struct_end
  48  0003              #pragma debug struct_end
  48  0003              #pragma debug union_end
  48  0003              #pragma debug union_end
  48  0003              #pragma debug variable 55 1 ___pb "__pb" 1
  48  0003              #pragma debug struct_end
  48  0003              #pragma debug struct_end
  48  0003              #pragma debug union_end
  48  0003              #pragma debug union_end
  48  0003              #pragma debug variable 57 1 ___pbc "__pbc" 1
  48  0003              #pragma debug struct_end
  48  0003              #pragma debug struct_end
  48  0003              #pragma debug union_end
  48  0003              #pragma debug union_end
  48  0003              #pragma debug variable 59 1 ___sda0c "__sda0c" 1
  48  0003              #pragma debug struct_end
  48  0003              #pragma debug struct_end
"File: co.c          Assembler  Version HGASM0202      Page 9

  48  0003              #pragma debug union_end
  48  0003              #pragma debug union_end
  48  0003              #pragma debug variable 61 1 ___sda1c "__sda1c" 1
  48  0003              #pragma debug struct_end
  48  0003              #pragma debug struct_end
  48  0003              #pragma debug union_end
  48  0003              #pragma debug union_end
  48  0003              #pragma debug variable 63 1 ___integ "__integ" 1
  48  0003              #pragma debug struct_end
  48  0003              #pragma debug struct_end
  48  0003              #pragma debug union_end
  48  0003              #pragma debug union_end
  48  0003              #pragma debug variable 65 1 ___intc0 "__intc0" 1
  48  0003              #pragma debug struct_end
  48  0003              #pragma debug struct_end
  48  0003              #pragma debug union_end
  48  0003              #pragma debug union_end
  48  0003              #pragma debug variable 67 1 ___isgenc "__isgenc" 1
  64  0003              #line 64 "c:\users\tech\desktop\codetector\co.c"
  64  0000              @code .section at 0 'code'
  64  0000  2800     R  	jmp _main_startup1
  64  0001              
  64  0001              extern _ClockInit:near
  64  0001              extern _GPIOInit:near
  64  0001              extern _GPIOToGNDCurentInit:near
  64  0001              extern _OPAMPInit:near
  64  0001              extern _S_ADC_Init:near
  64  0001              extern _shwoSegment_2:byte
  64  0001              extern _shwoSegment:near
  64  0001              
  64  0001              ; 
  64  0001              ; Generated by holtek-gcc v3.19, Sun Sep 17 17:37:00 2023
  64  0001              ; Rebuild 718
  64  0001              ; end of file


        0 Errors, 0