"File: co.c          Assembler  Version HGASM0202      Page 1


   1  0000              ; Generated by holtek-gcc v3.19, Tue Sep 05 14:07:04 2023
   2  0000              ; 
   3  0000              ; Configuration:
   4  0000              ;       with long instruction
   5  0000              ;       Single ROM, Multi-RAM
   6  0000              ;       bits_per_rom_unit:16
   7  0000              ;       with mp1
   8  0000              ;       with tbhp, address(0x9)
   9  0000              ;          Use tabrd-const
  10  0000              ;       
  11  0000              ; SFR address of long-instruction arch:
  12  0000              ;    mp0 = -1,1,0
  13  0000              ;    mp1 = 4,3,2
  14  0000              ;    mp2 = 14,13,12
  15  0000              ;    tbp = 9,7,8
  16  0000              ;    acc = 5
  17  0000              ;    pcl = 6
  18  0000              ;    status = 10
  19  0000              ;    bp = 11
  20  0000              ;    intc = 72
  21  0000              ;       
  22  0000              ;       
  23  0000              ; use 'tabrdc' instead of 'tabrd'
  24  0000              ;       
  25  0000              
  26  0000              #pragma translator "holtek-gcc 4.6.4" "3.19" "build 20130711"
  27  0000              ; Rebuild 718
  28  0000              
  29  0000              ir equ [2]
  30  0000              mp equ [3]
  31  0000              sbp equ [4]
  32  0000              acc equ [5]
  33  0000              bp equ [11]
  34  0000              tblp equ [7]
  35  0000              tbhp equ [9]
  36  0000              status equ [10]
  37  0000              c equ [10].0
  38  0000              ac equ [10].1
  39  0000              z equ [10].2
  40  0000              ov equ [10].3
  41  0000              cz equ [10].6
  42  0000              sc equ [10].7
  43  0000              intc equ [72]
  44  0000              
  45  0000              extern ra:byte
  46  0000              extern rb:byte
  47  0000              extern rc:byte
  48  0000              extern rd:byte
  49  0000              extern re:byte
  50  0000              extern rf:byte
  51  0000              extern rg:byte
  52  0000              extern rh:byte
  53  0000              extern _Crom2Prom:near
  54  0000              extern _Crom2PromNext:near
  55  0000              
  56  0000              RAMBANK 0 @BITDATASEC, @BITDATASEC1
  57  0000              @HCCINIT	.section 'data'
  58  0000              @HCCINIT0	.section 'data'
  59  0000              @BITDATASEC	 .section 'data'
"File: co.ASM        Assembler  Version HGASM0202      Page 2

  60  0000              @BITDATASEC1	 .section 'data'
  61  0000              
  62  0000              #pragma debug scope 1 1
  63  0000              	extern __DELAY3:near
  64  0000              	extern __DELAYX3:near
  65  0000              	extern __DELAYX6:near
  66  0000              	extern __DELAYY5:near
  67  0000              	extern __DELAYY3:near
  68  0000              	extern _builtin_holtek_delay_2:byte
  69  0000              ___isgenc equ [93]
  70  0000              ___vbgrc equ [11]
  71  0000              ___sda0c equ [35]
  72  0000              ___sda1c equ [37]
  73  0000              public _main
  74  0000              #pragma debug scope 2 1

  91  0000              #line 91 "c:\users\tech\desktop\codetector\co.c"
  91  0000              IFDEF WITH_DEFAULT_STARTUP
  91  0000              extern _main_initial0:near
  91  0000              extern _main_startup:near
  91  0000              ENDIF
  91  0000              
  91  0000              ROMBANK 0 @start
  91  0000              @start .section com_l 'code'
  91  0000              _main_startup1:
  91  0000              @start .section com_e 'code'
  91  0000  2800     R  	jmp _main
  91  0001              
  91  0000              _main .section 'code'
  91  0000              _main proc
  93  0000              #line 93 "c:\users\tech\desktop\codetector\co.c"
  93  0000  2000     E  	call _ClockInit
  94  0001              #line 94 "c:\users\tech\desktop\codetector\co.c"
  94  0001  2000     E  	call _GPIOInit
  95  0002              #line 95 "c:\users\tech\desktop\codetector\co.c"
  95  0002  2000     E  	call _GPIOToGNDCurentInit
  96  0003              #line 96 "c:\users\tech\desktop\codetector\co.c"
  96  0003  2000     E  	call _OPAMPInit
  97  0004              #line 97 "c:\users\tech\desktop\codetector\co.c"
  97  0004  2000     E  	call _S_ADC_Init
 124  0005              #line 124 "c:\users\tech\desktop\codetector\co.c"
 124  0005  305D        	set [93].0
 128  0006              #line 128 "c:\users\tech\desktop\codetector\co.c"
 128  0006              ;# 128 "c:\users\tech\desktop\codetector\co.c" 1
 128  0006              	IF 1000>263690
 128  0006              ;# 128 "c:\users\tech\desktop\codetector\co.c" 1
 128  0006              	ERRMESSAGE 'the value 1000of the argument exceeds the maxinum 263690'
 128  0006              	ENDIF
 128  0006              ;# 128 "c:\users\tech\desktop\codetector\co.c" 1
 128  0006              	IF 1000<0
 128  0006              ;# 128 "c:\users\tech\desktop\codetector\co.c" 1
 128  0006              	ERRMESSAGE 'the value 1000 of the argument exceeds the mininum 0'
 128  0006              	ENDIF
 128  0006              ;# 128 "c:\users\tech\desktop\codetector\co.c" 1
 128  0006              	IF 1000==0
 128  0006              ;# 128 "c:\users\tech\desktop\codetector\co.c" 1
 128  0006              	JMP $
 128  0006              	ENDIF
 128  0006              ;# 128 "c:\users\tech\desktop\codetector\co.c" 1
 128  0006              	IF 1000==1
"File: co.c          Assembler  Version HGASM0202      Page 3

 128  0006              ;# 128 "c:\users\tech\desktop\codetector\co.c" 1
 128  0006              	NOP
 128  0006              	ENDIF
 128  0006              ;# 128 "c:\users\tech\desktop\codetector\co.c" 1
 128  0006              	IF 1000==2
 128  0006              ;# 128 "c:\users\tech\desktop\codetector\co.c" 1
 128  0006              	NOP
 128  0006              ;# 128 "c:\users\tech\desktop\codetector\co.c" 1
 128  0006              	NOP
 128  0006              	ENDIF
 128  0006              ;# 128 "c:\users\tech\desktop\codetector\co.c" 1
 128  0006              	IF 1000==3
 128  0006              ;# 128 "c:\users\tech\desktop\codetector\co.c" 1
 128  0006              	NOP
 128  0006              ;# 128 "c:\users\tech\desktop\codetector\co.c" 1
 128  0006              	NOP
 128  0006              ;# 128 "c:\users\tech\desktop\codetector\co.c" 1
 128  0006              	NOP
 128  0006              	ENDIF
 128  0006              ;# 128 "c:\users\tech\desktop\codetector\co.c" 1
 128  0006              	IF (1000<8) AND (1000>3)
 128  0006              ;# 128 "c:\users\tech\desktop\codetector\co.c" 1
 128  0006              	CALL __DELAY3 + 7 -1000
 128  0006              	ENDIF
 128  0006              ;# 128 "c:\users\tech\desktop\codetector\co.c" 1
 128  0006              	IF (1000< 0404h) AND (1000>7)
 128  0006              ;# 128 "c:\users\tech\desktop\codetector\co.c" 1
 128  0006  0FF9        	MOV A,1000/4-1
 128  0007              ;# 128 "c:\users\tech\desktop\codetector\co.c" 1
 128  0007  2000     E  	CALL __DELAYX3 + 3 -(1000 MOD 4)
 128  0008              	ENDIF
 128  0008              ;# 128 "c:\users\tech\desktop\codetector\co.c" 1
 128  0008              	IF (1000< 0x40B) AND (1000> 0403h)
 128  0008              ;# 128 "c:\users\tech\desktop\codetector\co.c" 1
 128  0008              	MOV A,0 
 128  0008              ;# 128 "c:\users\tech\desktop\codetector\co.c" 1
 128  0008              	CALL __DELAYX6 + 0x40a -1000
 128  0008              	ENDIF
 128  0008              ;# 128 "c:\users\tech\desktop\codetector\co.c" 1
 128  0008              	IF (1000 >= 0x40b) AND ((((1000-9)%0402h)/4+1)>256)
 128  0008              ;# 128 "c:\users\tech\desktop\codetector\co.c" 1
 128  0008              	MOV A,(1000-9)/0402h
 128  0008              ;# 128 "c:\users\tech\desktop\codetector\co.c" 1
 128  0008              	MOV _builtin_holtek_delay_2,A
 128  0008              ;# 128 "c:\users\tech\desktop\codetector\co.c" 1
 128  0008              	MOV A,0
 128  0008              ;# 128 "c:\users\tech\desktop\codetector\co.c" 1
 128  0008              	CALL __DELAYY5 +5- (((1000-9)%0402h)%6)
 128  0008              	ENDIF
 128  0008              ;# 128 "c:\users\tech\desktop\codetector\co.c" 1
 128  0008              	IF (1000 >= 0x40b) AND ((((1000-9)%0402h)/4+1)<=256)
 128  0008              ;# 128 "c:\users\tech\desktop\codetector\co.c" 1
 128  0008              	MOV A,(1000-9)/0402h
 128  0008              ;# 128 "c:\users\tech\desktop\codetector\co.c" 1
 128  0008              	MOV _builtin_holtek_delay_2,A
 128  0008              ;# 128 "c:\users\tech\desktop\codetector\co.c" 1
 128  0008              	MOV A,((1000-9)%0402h)/4+1
 128  0008              ;# 128 "c:\users\tech\desktop\codetector\co.c" 1
 128  0008              	CALL __DELAYY3 +3-(((1000-9)%0402h)%4)
 128  0008              	ENDIF
"File: co.c          Assembler  Version HGASM0202      Page 4

 141  0008              #line 141 "c:\users\tech\desktop\codetector\co.c"
 141  0008  34DD        	clr [93].1
 146  0009              #line 146 "c:\users\tech\desktop\codetector\co.c"
 146  0009  0F13        	mov a,19
 146  000A  0080     R  	mov _ppm[0],a
 146  000B  1F00     R  	clr _ppm[1]
 151  000C              #line 151 "c:\users\tech\desktop\codetector\co.c"
 151  000C              ;# 151 "c:\users\tech\desktop\codetector\co.c" 1
 151  000C              	IF 1000>263690
 151  000C              ;# 151 "c:\users\tech\desktop\codetector\co.c" 1
 151  000C              	ERRMESSAGE 'the value 1000of the argument exceeds the maxinum 263690'
 151  000C              	ENDIF
 151  000C              ;# 151 "c:\users\tech\desktop\codetector\co.c" 1
 151  000C              	IF 1000<0
 151  000C              ;# 151 "c:\users\tech\desktop\codetector\co.c" 1
 151  000C              	ERRMESSAGE 'the value 1000 of the argument exceeds the mininum 0'
 151  000C              	ENDIF
 151  000C              ;# 151 "c:\users\tech\desktop\codetector\co.c" 1
 151  000C              	IF 1000==0
 151  000C              ;# 151 "c:\users\tech\desktop\codetector\co.c" 1
 151  000C              	JMP $
 151  000C              	ENDIF
 151  000C              ;# 151 "c:\users\tech\desktop\codetector\co.c" 1
 151  000C              	IF 1000==1
 151  000C              ;# 151 "c:\users\tech\desktop\codetector\co.c" 1
 151  000C              	NOP
 151  000C              	ENDIF
 151  000C              ;# 151 "c:\users\tech\desktop\codetector\co.c" 1
 151  000C              	IF 1000==2
 151  000C              ;# 151 "c:\users\tech\desktop\codetector\co.c" 1
 151  000C              	NOP
 151  000C              ;# 151 "c:\users\tech\desktop\codetector\co.c" 1
 151  000C              	NOP
 151  000C              	ENDIF
 151  000C              ;# 151 "c:\users\tech\desktop\codetector\co.c" 1
 151  000C              	IF 1000==3
 151  000C              ;# 151 "c:\users\tech\desktop\codetector\co.c" 1
 151  000C              	NOP
 151  000C              ;# 151 "c:\users\tech\desktop\codetector\co.c" 1
 151  000C              	NOP
 151  000C              ;# 151 "c:\users\tech\desktop\codetector\co.c" 1
 151  000C              	NOP
 151  000C              	ENDIF
 151  000C              ;# 151 "c:\users\tech\desktop\codetector\co.c" 1
 151  000C              	IF (1000<8) AND (1000>3)
 151  000C              ;# 151 "c:\users\tech\desktop\codetector\co.c" 1
 151  000C              	CALL __DELAY3 + 7 -1000
 151  000C              	ENDIF
 151  000C              ;# 151 "c:\users\tech\desktop\codetector\co.c" 1
 151  000C              	IF (1000< 0404h) AND (1000>7)
 151  000C              ;# 151 "c:\users\tech\desktop\codetector\co.c" 1
 151  000C  0FF9        	MOV A,1000/4-1
 151  000D              ;# 151 "c:\users\tech\desktop\codetector\co.c" 1
 151  000D  2000     E  	CALL __DELAYX3 + 3 -(1000 MOD 4)
 151  000E              	ENDIF
 151  000E              ;# 151 "c:\users\tech\desktop\codetector\co.c" 1
 151  000E              	IF (1000< 0x40B) AND (1000> 0403h)
 151  000E              ;# 151 "c:\users\tech\desktop\codetector\co.c" 1
 151  000E              	MOV A,0 
 151  000E              ;# 151 "c:\users\tech\desktop\codetector\co.c" 1
"File: co.c          Assembler  Version HGASM0202      Page 5

 151  000E              	CALL __DELAYX6 + 0x40a -1000
 151  000E              	ENDIF
 151  000E              ;# 151 "c:\users\tech\desktop\codetector\co.c" 1
 151  000E              	IF (1000 >= 0x40b) AND ((((1000-9)%0402h)/4+1)>256)
 151  000E              ;# 151 "c:\users\tech\desktop\codetector\co.c" 1
 151  000E              	MOV A,(1000-9)/0402h
 151  000E              ;# 151 "c:\users\tech\desktop\codetector\co.c" 1
 151  000E              	MOV _builtin_holtek_delay_2,A
 151  000E              ;# 151 "c:\users\tech\desktop\codetector\co.c" 1
 151  000E              	MOV A,0
 151  000E              ;# 151 "c:\users\tech\desktop\codetector\co.c" 1
 151  000E              	CALL __DELAYY5 +5- (((1000-9)%0402h)%6)
 151  000E              	ENDIF
 151  000E              ;# 151 "c:\users\tech\desktop\codetector\co.c" 1
 151  000E              	IF (1000 >= 0x40b) AND ((((1000-9)%0402h)/4+1)<=256)
 151  000E              ;# 151 "c:\users\tech\desktop\codetector\co.c" 1
 151  000E              	MOV A,(1000-9)/0402h
 151  000E              ;# 151 "c:\users\tech\desktop\codetector\co.c" 1
 151  000E              	MOV _builtin_holtek_delay_2,A
 151  000E              ;# 151 "c:\users\tech\desktop\codetector\co.c" 1
 151  000E              	MOV A,((1000-9)%0402h)/4+1
 151  000E              ;# 151 "c:\users\tech\desktop\codetector\co.c" 1
 151  000E              	CALL __DELAYY3 +3-(((1000-9)%0402h)%4)
 151  000E              	ENDIF
 153  000E              #line 153 "c:\users\tech\desktop\codetector\co.c"
 153  000E  2000     E  	call _S_ADC_Init
 154  000F              #line 154 "c:\users\tech\desktop\codetector\co.c"
 154  000F  300B        	set [11].0
 158  0010              #line 158 "c:\users\tech\desktop\codetector\co.c"
 158  0010  3323        	set [35].6
 159  0011              #line 159 "c:\users\tech\desktop\codetector\co.c"
 159  0011  3325        	set [37].6
 159  0012              _L6:
 159  0012              #pragma debug scope 3 2
 159  0012              ;begin block, line: 159.-1
 163  0012              #line 163 "c:\users\tech\desktop\codetector\co.c"
 163  0012  305D        	set [93].0
 168  0013              #line 168 "c:\users\tech\desktop\codetector\co.c"
 168  0013  300B        	set [11].0
 175  0014              #line 175 "c:\users\tech\desktop\codetector\co.c"
 175  0014  0F04        	mov a,4
 175  0015  2000     E  	call _S_READ_ADC
 175  0016  0700     E  	mov a,rb
 175  0017  0080     E  	mov _builtin_holtek_mant1[1],a
 175  0018  0700     E  	mov a,ra
 175  0019  0080     E  	mov _builtin_holtek_mant1[0],a
 175  001A  3400     E  	clr _builtin_holtek_signs.0
 175  001B  2000     E  	call _builtin_holtek_uitod
 175  001C  0700     E  	mov a,_builtin_holtek_mant12p[0]
 175  001D  0080     E  	mov rh,a
 175  001E  0700     E  	mov a,_builtin_holtek_mant1[2]
 175  001F  0080     E  	mov rg,a
 175  0020  0700     E  	mov a,_builtin_holtek_mant1[1]
 175  0021  0080     E  	mov rf,a
 175  0022  0700     E  	mov a,_builtin_holtek_mant1[0]
 175  0023  0080     E  	mov re,a
 175  0024  1F00     E  	clr ra
 175  0025  0FF0        	mov a,-16
 175  0026  0080     E  	mov rb,a
 175  0027  0F7F        	mov a,127
"File: co.c          Assembler  Version HGASM0202      Page 6

 175  0028  0080     E  	mov rc,a
 175  0029  0F45        	mov a,69
 175  002A  0080     E  	mov rd,a
 175  002B  0700     E  	mov a,rd
 175  002C  0080     E  	mov _builtin_holtek_mant12p[0],a
 175  002D  0700     E  	mov a,rc
 175  002E  0080     E  	mov _builtin_holtek_mant1[2],a
 175  002F  0700     E  	mov a,rb
 175  0030  0080     E  	mov _builtin_holtek_mant1[1],a
 175  0031  0700     E  	mov a,ra
 175  0032  0080     E  	mov _builtin_holtek_mant1[0],a
 175  0033  0700     E  	mov a,rh
 175  0034  0080     E  	mov _builtin_holtek_mant12p[1],a
 175  0035  0700     E  	mov a,rg
 175  0036  0080     E  	mov _builtin_holtek_mant2[2],a
 175  0037  0700     E  	mov a,rf
 175  0038  0080     E  	mov _builtin_holtek_mant2[1],a
 175  0039  0700     E  	mov a,re
 175  003A  0080     E  	mov _builtin_holtek_mant2[0],a
 175  003B  2000     E  	call _builtin_holtek_dtdiv
 175  003C  0700     E  	mov a,_builtin_holtek_mant12p[0]
 175  003D  0080     E  	mov rh,a
 175  003E  0700     E  	mov a,_builtin_holtek_mant1[2]
 175  003F  0080     E  	mov rg,a
 175  0040  0700     E  	mov a,_builtin_holtek_mant1[1]
 175  0041  0080     E  	mov rf,a
 175  0042  0700     E  	mov a,_builtin_holtek_mant1[0]
 175  0043  0080     E  	mov re,a
 175  0044  0700     E  	mov a,rh
 175  0045  0080     E  	mov _builtin_holtek_mant12p[0],a
 175  0046  0700     E  	mov a,rg
 175  0047  0080     E  	mov _builtin_holtek_mant1[2],a
 175  0048  0700     E  	mov a,rf
 175  0049  0080     E  	mov _builtin_holtek_mant1[1],a
 175  004A  0700     E  	mov a,re
 175  004B  0080     E  	mov _builtin_holtek_mant1[0],a
 175  004C  0F3F        	mov a,63
 175  004D  0080     E  	mov _builtin_holtek_mant12p[1],a
 175  004E  0F99        	mov a,153
 175  004F  0080     E  	mov _builtin_holtek_mant2[2],a
 175  0050  0F99        	mov a,153
 175  0051  0080     E  	mov _builtin_holtek_mant2[1],a
 175  0052  0F9A        	mov a,154
 175  0053  0080     E  	mov _builtin_holtek_mant2[0],a
 175  0054  2000     E  	call _builtin_holtek_dtmul
 175  0055  0700     E  	mov a,_builtin_holtek_mant12p[0]
 175  0056  0080     E  	mov rg,a
 175  0057  0700     E  	mov a,_builtin_holtek_mant1[2]
 175  0058  0080     E  	mov rf,a
 175  0059  0700     E  	mov a,_builtin_holtek_mant1[1]
 175  005A  0080     E  	mov re,a
 175  005B  0700     E  	mov a,_builtin_holtek_mant1[0]
 175  005C  0080     E  	mov rd,a
 175  005D  0700     E  	mov a,rg
 175  005E  0080     R  	mov _VDD[2],a
 175  005F  0700     E  	mov a,rf
 175  0060  0080     R  	mov _VDD[1],a
 175  0061  0700     E  	mov a,re
 175  0062  0080     R  	mov _VDD[0],a
 175  0063              _L5:
"File: co.c          Assembler  Version HGASM0202      Page 7

 209  0063              #line 209 "c:\users\tech\desktop\codetector\co.c"
 209  0063              ;# 209 "c:\users\tech\desktop\codetector\co.c" 1
 209  0063  0001        	clr wdt
 215  0064              #line 215 "c:\users\tech\desktop\codetector\co.c"
 215  0064  1F00     R  	clr _tempAmplifier1[0]
 215  0065  1F00     R  	clr _tempAmplifier1[1]
 215  0066  1F00     R  	clr _tempAmplifier1[2]
 216  0067              #line 216 "c:\users\tech\desktop\codetector\co.c"
 216  0067  1F00     R  	clr _Amplifier1[0]
 216  0068  1F00     R  	clr _Amplifier1[1]
 216  0069  1F00     R  	clr _Amplifier1[2]
 218  006A              #line 218 "c:\users\tech\desktop\codetector\co.c"
 218  006A  1F00     R  	clr _i[0]
 218  006B  1F00     R  	clr _i[1]
 218  006C              _L2:
 218  006C  0F09        	mov a,9
 218  006D  0200     R  	sub a,_i[0]
 218  006E  0F00        	mov a,0
 218  006F  1200     R  	sbc a,_i[1]
 218  0070  3F8A        	sz sc
 218  0071  2800     R  	jmp _L8
 220  0072              #line 220 "c:\users\tech\desktop\codetector\co.c"
 220  0072  0F05        	mov a,5
 220  0073  2000     E  	call _S_READ_ADC
 220  0074  0700     E  	mov a,rb
 220  0075  0080     E  	mov _builtin_holtek_mant1[1],a
 220  0076  0700     E  	mov a,ra
 220  0077  0080     E  	mov _builtin_holtek_mant1[0],a
 220  0078  3400     E  	clr _builtin_holtek_signs.0
 220  0079  2000     E  	call _builtin_holtek_uitof
 220  007A  0700     E  	mov a,_builtin_holtek_mant1[2]
 220  007B  0080     E  	mov re,a
 220  007C  0700     E  	mov a,_builtin_holtek_mant1[1]
 220  007D  0080     E  	mov rd,a
 220  007E  0700     E  	mov a,_builtin_holtek_mant1[0]
 220  007F  0080     E  	mov rc,a
 220  0080  0700     E  	mov a,rc
 220  0081  0080     R  	mov _Amplifier1[0],a
 220  0082  0700     E  	mov a,rd
 220  0083  0080     R  	mov _Amplifier1[1],a
 220  0084  0700     E  	mov a,re
 220  0085  0080     R  	mov _Amplifier1[2],a
 221  0086              #line 221 "c:\users\tech\desktop\codetector\co.c"
 221  0086  0700     R  	mov a,_tempAmplifier1[2]
 221  0087  0080     E  	mov _builtin_holtek_mant1[2],a
 221  0088  0700     R  	mov a,_tempAmplifier1[1]
 221  0089  0080     E  	mov _builtin_holtek_mant1[1],a
 221  008A  0700     R  	mov a,_tempAmplifier1[0]
 221  008B  0080     E  	mov _builtin_holtek_mant1[0],a
 221  008C  0700     E  	mov a,re
 221  008D  0080     E  	mov _builtin_holtek_mant2[2],a
 221  008E  0700     E  	mov a,rd
 221  008F  0080     E  	mov _builtin_holtek_mant2[1],a
 221  0090  0700     E  	mov a,rc
 221  0091  0080     E  	mov _builtin_holtek_mant2[0],a
 221  0092  2000     E  	call _builtin_holtek_ftadd
 221  0093  0700     E  	mov a,_builtin_holtek_mant1[2]
 221  0094  0080     R  	mov _tempAmplifier1[2],a
 221  0095  0700     E  	mov a,_builtin_holtek_mant1[1]
 221  0096  0080     R  	mov _tempAmplifier1[1],a
"File: co.c          Assembler  Version HGASM0202      Page 8

 221  0097  0700     E  	mov a,_builtin_holtek_mant1[0]
 221  0098  0080     R  	mov _tempAmplifier1[0],a
 218  0099              #line 218 "c:\users\tech\desktop\codetector\co.c"
 218  0099  1480     R  	inc _i[0]
 218  009A  3D0A        	sz z
 218  009B  1480     R  	inc _i[1]
 218  009C  2800     R  	jmp _L2
 218  009D              _L8:
 224  009D              #line 224 "c:\users\tech\desktop\codetector\co.c"
 224  009D  0700     R  	mov a,_tempAmplifier1[2]
 224  009E  0080     E  	mov _builtin_holtek_mant1[2],a
 224  009F  0700     R  	mov a,_tempAmplifier1[1]
 224  00A0  0080     E  	mov _builtin_holtek_mant1[1],a
 224  00A1  0700     R  	mov a,_tempAmplifier1[0]
 224  00A2  0080     E  	mov _builtin_holtek_mant1[0],a
 224  00A3  0F41        	mov a,65
 224  00A4  0080     E  	mov _builtin_holtek_mant2[2],a
 224  00A5  0F20        	mov a,32
 224  00A6  0080     E  	mov _builtin_holtek_mant2[1],a
 224  00A7  0F00        	mov a,0
 224  00A8  0080     E  	mov _builtin_holtek_mant2[0],a
 224  00A9  2000     E  	call _builtin_holtek_ftdiv
 224  00AA  0700     E  	mov a,_builtin_holtek_mant1[2]
 224  00AB  0080     E  	mov re,a
 224  00AC  0700     E  	mov a,_builtin_holtek_mant1[1]
 224  00AD  0080     E  	mov rd,a
 224  00AE  0700     E  	mov a,_builtin_holtek_mant1[0]
 224  00AF  0080     E  	mov rc,a
 224  00B0  0700     E  	mov a,rc
 224  00B1  0080     R  	mov _Amplifier1[0],a
 224  00B2  0700     E  	mov a,rd
 224  00B3  0080     R  	mov _Amplifier1[1],a
 224  00B4  0700     E  	mov a,re
 224  00B5  0080     R  	mov _Amplifier1[2],a
 248  00B6              #line 248 "c:\users\tech\desktop\codetector\co.c"
 248  00B6  0700     R  	mov a,_VDD[2]
 248  00B7  0080     E  	mov _builtin_holtek_mant1[2],a
 248  00B8  0700     R  	mov a,_VDD[1]
 248  00B9  0080     E  	mov _builtin_holtek_mant1[1],a
 248  00BA  0700     R  	mov a,_VDD[0]
 248  00BB  0080     E  	mov _builtin_holtek_mant1[0],a
 248  00BC  0F45        	mov a,69
 248  00BD  0080     E  	mov _builtin_holtek_mant2[2],a
 248  00BE  0F7F        	mov a,127
 248  00BF  0080     E  	mov _builtin_holtek_mant2[1],a
 248  00C0  0FF0        	mov a,240
 248  00C1  0080     E  	mov _builtin_holtek_mant2[0],a
 248  00C2  2000     E  	call _builtin_holtek_ftdiv
 248  00C3  0700     E  	mov a,_builtin_holtek_mant1[2]
 248  00C4  0080     E  	mov rh,a
 248  00C5  0700     E  	mov a,_builtin_holtek_mant1[1]
 248  00C6  0080     E  	mov rg,a
 248  00C7  0700     E  	mov a,_builtin_holtek_mant1[0]
 248  00C8  0080     E  	mov rf,a
 248  00C9  0700     E  	mov a,re
 248  00CA  0080     E  	mov _builtin_holtek_mant1[2],a
 248  00CB  0700     E  	mov a,rd
 248  00CC  0080     E  	mov _builtin_holtek_mant1[1],a
 248  00CD  0700     E  	mov a,rc
 248  00CE  0080     E  	mov _builtin_holtek_mant1[0],a
"File: co.c          Assembler  Version HGASM0202      Page 9

 248  00CF  0700     E  	mov a,rh
 248  00D0  0080     E  	mov _builtin_holtek_mant2[2],a
 248  00D1  0700     E  	mov a,rg
 248  00D2  0080     E  	mov _builtin_holtek_mant2[1],a
 248  00D3  0700     E  	mov a,rf
 248  00D4  0080     E  	mov _builtin_holtek_mant2[0],a
 248  00D5  2000     E  	call _builtin_holtek_ftmul
 248  00D6  0700     E  	mov a,_builtin_holtek_mant1[2]
 248  00D7  0080     E  	mov re,a
 248  00D8  0700     E  	mov a,_builtin_holtek_mant1[1]
 248  00D9  0080     E  	mov rd,a
 248  00DA  0700     E  	mov a,_builtin_holtek_mant1[0]
 248  00DB  0080     E  	mov rc,a
 248  00DC  0700     E  	mov a,re
 248  00DD  0080     E  	mov rg,a
 248  00DE  0700     E  	mov a,rd
 248  00DF  0080     E  	mov rf,a
 248  00E0  0700     E  	mov a,rc
 248  00E1  0080     E  	mov re,a
 248  00E2  1F00     E  	clr rd
 248  00E3  0700     E  	mov a,rg
 248  00E4  0080     E  	mov _builtin_holtek_mant12p[0],a
 248  00E5  0700     E  	mov a,rf
 248  00E6  0080     E  	mov _builtin_holtek_mant1[2],a
 248  00E7  0700     E  	mov a,re
 248  00E8  0080     E  	mov _builtin_holtek_mant1[1],a
 248  00E9  0700     E  	mov a,rd
 248  00EA  0080     E  	mov _builtin_holtek_mant1[0],a
 248  00EB  0F40        	mov a,64
 248  00EC  0080     E  	mov _builtin_holtek_mant12p[1],a
 248  00ED  0FD5        	mov a,213
 248  00EE  0080     E  	mov _builtin_holtek_mant2[2],a
 248  00EF  0F55        	mov a,85
 248  00F0  0080     E  	mov _builtin_holtek_mant2[1],a
 248  00F1  0F55        	mov a,85
 248  00F2  0080     E  	mov _builtin_holtek_mant2[0],a
 248  00F3  2000     E  	call _builtin_holtek_dtdiv
 248  00F4  0700     E  	mov a,_builtin_holtek_mant12p[0]
 248  00F5  0080     E  	mov rg,a
 248  00F6  0700     E  	mov a,_builtin_holtek_mant1[2]
 248  00F7  0080     E  	mov rf,a
 248  00F8  0700     E  	mov a,_builtin_holtek_mant1[1]
 248  00F9  0080     E  	mov re,a
 248  00FA  0700     E  	mov a,_builtin_holtek_mant1[0]
 248  00FB  0080     E  	mov rd,a
 248  00FC  0700     E  	mov a,rg
 248  00FD  0080     E  	mov _builtin_holtek_mant12p[0],a
 248  00FE  0700     E  	mov a,rf
 248  00FF  0080     E  	mov _builtin_holtek_mant1[2],a
 248  0100  0700     E  	mov a,re
 248  0101  0080     E  	mov _builtin_holtek_mant1[1],a
 248  0102  0700     E  	mov a,rd
 248  0103  0080     E  	mov _builtin_holtek_mant1[0],a
 248  0104  0F44        	mov a,68
 248  0105  0080     E  	mov _builtin_holtek_mant12p[1],a
 248  0106  0F7A        	mov a,122
 248  0107  0080     E  	mov _builtin_holtek_mant2[2],a
 248  0108  0F00        	mov a,0
 248  0109  0080     E  	mov _builtin_holtek_mant2[1],a
 248  010A  0F00        	mov a,0
"File: co.c          Assembler  Version HGASM0202      Page 10

 248  010B  0080     E  	mov _builtin_holtek_mant2[0],a
 248  010C  2000     E  	call _builtin_holtek_dtmul
 248  010D  0700     E  	mov a,_builtin_holtek_mant12p[0]
 248  010E  0080     E  	mov rg,a
 248  010F  0700     E  	mov a,_builtin_holtek_mant1[2]
 248  0110  0080     E  	mov rf,a
 248  0111  0700     E  	mov a,_builtin_holtek_mant1[1]
 248  0112  0080     E  	mov re,a
 248  0113  0700     E  	mov a,_builtin_holtek_mant1[0]
 248  0114  0080     E  	mov rd,a
 248  0115  0700     E  	mov a,rg
 248  0116  0080     E  	mov _builtin_holtek_mant12p[0],a
 248  0117  0700     E  	mov a,rf
 248  0118  0080     E  	mov _builtin_holtek_mant1[2],a
 248  0119  0700     E  	mov a,re
 248  011A  0080     E  	mov _builtin_holtek_mant1[1],a
 248  011B  0700     E  	mov a,rd
 248  011C  0080     E  	mov _builtin_holtek_mant1[0],a
 248  011D  0F41        	mov a,65
 248  011E  0080     E  	mov _builtin_holtek_mant12p[1],a
 248  011F  0F70        	mov a,112
 248  0120  0080     E  	mov _builtin_holtek_mant2[2],a
 248  0121  0F00        	mov a,0
 248  0122  0080     E  	mov _builtin_holtek_mant2[1],a
 248  0123  0F00        	mov a,0
 248  0124  0080     E  	mov _builtin_holtek_mant2[0],a
 248  0125  2000     E  	call _builtin_holtek_dtdiv
 248  0126  0700     E  	mov a,_builtin_holtek_mant12p[0]
 248  0127  0080     E  	mov rg,a
 248  0128  0700     E  	mov a,_builtin_holtek_mant1[2]
 248  0129  0080     E  	mov rf,a
 248  012A  0700     E  	mov a,_builtin_holtek_mant1[1]
 248  012B  0080     E  	mov re,a
 248  012C  0700     E  	mov a,_builtin_holtek_mant1[0]
 248  012D  0080     E  	mov rd,a
 248  012E  0700     E  	mov a,rg
 248  012F  0080     E  	mov _builtin_holtek_mant12p[0],a
 248  0130  0700     E  	mov a,rf
 248  0131  0080     E  	mov _builtin_holtek_mant1[2],a
 248  0132  0700     E  	mov a,re
 248  0133  0080     E  	mov _builtin_holtek_mant1[1],a
 248  0134  0700     E  	mov a,rd
 248  0135  0080     E  	mov _builtin_holtek_mant1[0],a
 248  0136  0F44        	mov a,68
 248  0137  0080     E  	mov _builtin_holtek_mant12p[1],a
 248  0138  0F7A        	mov a,122
 248  0139  0080     E  	mov _builtin_holtek_mant2[2],a
 248  013A  0F00        	mov a,0
 248  013B  0080     E  	mov _builtin_holtek_mant2[1],a
 248  013C  0F00        	mov a,0
 248  013D  0080     E  	mov _builtin_holtek_mant2[0],a
 248  013E  2000     E  	call _builtin_holtek_dtmul
 248  013F  0700     E  	mov a,_builtin_holtek_mant12p[0]
 248  0140  0080     E  	mov rg,a
 248  0141  0700     E  	mov a,_builtin_holtek_mant1[2]
 248  0142  0080     E  	mov rf,a
 248  0143  0700     E  	mov a,_builtin_holtek_mant1[1]
 248  0144  0080     E  	mov re,a
 248  0145  0700     E  	mov a,_builtin_holtek_mant1[0]
 248  0146  0080     E  	mov rd,a
"File: co.c          Assembler  Version HGASM0202      Page 11

 248  0147  0700     E  	mov a,re
 248  0148  0080     E  	mov rc,a
 248  0149  0700     E  	mov a,rf
 248  014A  0080     E  	mov rd,a
 248  014B  0700     E  	mov a,rg
 248  014C  0080     E  	mov re,a
 248  014D  0700     E  	mov a,rc
 248  014E  0080     R  	mov _VAmplifier1[0],a
 248  014F  0700     E  	mov a,rd
 248  0150  0080     R  	mov _VAmplifier1[1],a
 248  0151  0700     E  	mov a,re
 248  0152  0080     R  	mov _VAmplifier1[2],a
 249  0153              #line 249 "c:\users\tech\desktop\codetector\co.c"
 249  0153  0700     E  	mov a,re
 249  0154  0080     E  	mov rg,a
 249  0155  0700     E  	mov a,rd
 249  0156  0080     E  	mov rf,a
 249  0157  0700     E  	mov a,rc
 249  0158  0080     E  	mov re,a
 249  0159  1F00     E  	clr rd
 249  015A  0700     E  	mov a,rg
 249  015B  0080     E  	mov _builtin_holtek_mant12p[0],a
 249  015C  0700     E  	mov a,rf
 249  015D  0080     E  	mov _builtin_holtek_mant1[2],a
 249  015E  0700     E  	mov a,re
 249  015F  0080     E  	mov _builtin_holtek_mant1[1],a
 249  0160  0700     E  	mov a,rd
 249  0161  0080     E  	mov _builtin_holtek_mant1[0],a
 249  0162  0F3C        	mov a,60
 249  0163  0080     E  	mov _builtin_holtek_mant12p[1],a
 249  0164  0FE1        	mov a,225
 249  0165  0080     E  	mov _builtin_holtek_mant2[2],a
 249  0166  0F47        	mov a,71
 249  0167  0080     E  	mov _builtin_holtek_mant2[1],a
 249  0168  0FAE        	mov a,174
 249  0169  0080     E  	mov _builtin_holtek_mant2[0],a
 249  016A  2000     E  	call _builtin_holtek_dtmul
 249  016B  0700     E  	mov a,_builtin_holtek_mant12p[0]
 249  016C  0080     E  	mov rg,a
 249  016D  0700     E  	mov a,_builtin_holtek_mant1[2]
 249  016E  0080     E  	mov rf,a
 249  016F  0700     E  	mov a,_builtin_holtek_mant1[1]
 249  0170  0080     E  	mov re,a
 249  0171  0700     E  	mov a,_builtin_holtek_mant1[0]
 249  0172  0080     E  	mov rd,a
 249  0173  0700     E  	mov a,re
 249  0174  0080     E  	mov rc,a
 249  0175  0700     E  	mov a,rf
 249  0176  0080     E  	mov rd,a
 249  0177  0700     E  	mov a,rg
 249  0178  0080     E  	mov re,a
 249  0179  0700     E  	mov a,rc
 249  017A  0080     R  	mov _COValue[0],a
 249  017B  0700     E  	mov a,rd
 249  017C  0080     R  	mov _COValue[1],a
 249  017D  0700     E  	mov a,re
 249  017E  0080     R  	mov _COValue[2],a
 250  017F              #line 250 "c:\users\tech\desktop\codetector\co.c"
 250  017F  1F00     E  	clr _builtin_holtek_mant12p[0]
 250  0180  0700     E  	mov a,re
"File: co.c          Assembler  Version HGASM0202      Page 12

 250  0181  0080     E  	mov _builtin_holtek_mant1[2],a
 250  0182  0700     E  	mov a,rd
 250  0183  0080     E  	mov _builtin_holtek_mant1[1],a
 250  0184  0700     E  	mov a,rc
 250  0185  0080     E  	mov _builtin_holtek_mant1[0],a
 250  0186  2000     E  	call _builtin_holtek_ftol
 250  0187  0700     E  	mov a,_builtin_holtek_mant12p[0]
 250  0188  0080     E  	mov rg,a
 250  0189  0700     E  	mov a,_builtin_holtek_mant1[2]
 250  018A  0080     E  	mov rf,a
 250  018B  0700     E  	mov a,_builtin_holtek_mant1[1]
 250  018C  0080     E  	mov re,a
 250  018D  0700     E  	mov a,_builtin_holtek_mant1[0]
 250  018E  0080     E  	mov rd,a
 250  018F  0700     E  	mov a,rd
 250  0190  0080     E  	mov _shwoSegment_2[0],a
 250  0191  0700     E  	mov a,re
 250  0192  0080     E  	mov _shwoSegment_2[1],a
 250  0193  2000     E  	call _shwoSegment
 255  0194              #line 255 "c:\users\tech\desktop\codetector\co.c"
 255  0194  0F64        	mov a,100
 255  0195  0200     R  	sub a,_cunter[0]
 255  0196  0F00        	mov a,0
 255  0197  1200     R  	sbc a,_cunter[1]
 255  0198  3B8A        	snz sc
 255  0199  2800     R  	jmp _L5
 257  019A              #line 257 "c:\users\tech\desktop\codetector\co.c"
 257  019A  1F00     R  	clr _cunter[0]
 257  019B  1F00     R  	clr _cunter[1]
 259  019C              #line 259 "c:\users\tech\desktop\codetector\co.c"
 259  019C  1F00     R  	clr _VDD[0]
 259  019D  1F00     R  	clr _VDD[1]
 259  019E  1F00     R  	clr _VDD[2]
 259  019F              #pragma debug scope 2 1
 261  019F              #line 261 "c:\users\tech\desktop\codetector\co.c"
 261  019F  2800     R  	jmp _L6
 261  01A0  2800     R  	jmp $
 261  01A1              _main endp
 261  01A1              
 261  01A1              @dummy endp
 261  01A1              
 261  01A1              #line 261 "c:\users\tech\desktop\codetector\co.c"
 261  01A1              #pragma debug scope 1 1
  84  01A1              #line 84 "c:\users\tech\desktop\codetector\co.c"
  84  01A1              public _i
  84  0000              @HCCINIT0_i .section 'data'
  84  0000  0002[       _i	db 2 dup(0)
            00
            ]
  84  0002              #pragma debug variable 11 1 _i "i"
  84  0002              
  84  0000              @HCCINIT .section 'data'
  84  0000              public _cunter
  84  0000              @HCCINIT	.section 'data'
  82  0000              #line 82 "c:\users\tech\desktop\codetector\co.c"
  82  0000              @HCCINIT_cunter .section 'data'
  82  0000              _cunter label byte
  82  0000              #pragma debug variable 11 1 _cunter "cunter"
  82  0000              	db 0
  82  0000              @ROMDATA_BASE .section inpage 'code'
"File: co.c          Assembler  Version HGASM0202      Page 13

  82  0000              	db 0
  82  0001              @HCCINIT_cunter .section 'data'
  82  0001              	db 0
  82  0001              @ROMDATA_BASE .section inpage 'code'
  82  0001              	db 0
  82  0002              @HCCINIT_cunter .section 'data'
  81  0002              #line 81 "c:\users\tech\desktop\codetector\co.c"
  81  0002              public _vss
  81  0000              @HCCINIT0_vss .section 'data'
  81  0000  0003[       _vss	db 3 dup(0)
            00
            ]
  81  0003              #pragma debug variable 28 1 _vss "vss"
  81  0003              
  81  0000              @HCCINIT .section 'data'
  81  0000              public _adcValue
  80  0000              #line 80 "c:\users\tech\desktop\codetector\co.c"
  80  0000              @HCCINIT_adcValue .section 'data'
  80  0000              _adcValue label byte
  80  0000              #pragma debug variable 28 1 _adcValue "adcValue"
  80  0000              	db 0
  80  0001              @ROMDATA_BASE .section inpage 'code'
  80  0001              	db 0
  80  0001              @HCCINIT_adcValue .section 'data'
  80  0001              	db 0
  80  0002              @ROMDATA_BASE .section inpage 'code'
  80  0002              	db 0
  80  0002              @HCCINIT_adcValue .section 'data'
  80  0002              	db 0
  80  0002              @ROMDATA_BASE .section inpage 'code'
  80  0002              	db 0
  80  0003              @HCCINIT_adcValue .section 'data'
  80  0003              public _Amplifier2
  79  0003              #line 79 "c:\users\tech\desktop\codetector\co.c"
  79  0000              @HCCINIT_Amplifier2 .section 'data'
  79  0000              _Amplifier2 label byte
  79  0000              #pragma debug variable 28 1 _Amplifier2 "Amplifier2"
  79  0000              	db 0
  79  0003              @ROMDATA_BASE .section inpage 'code'
  79  0003              	db 0
  79  0001              @HCCINIT_Amplifier2 .section 'data'
  79  0001              	db 0
  79  0003              @ROMDATA_BASE .section inpage 'code'
  79  0003              	db 0
  79  0002              @HCCINIT_Amplifier2 .section 'data'
  79  0002              	db 0
  79  0004              @ROMDATA_BASE .section inpage 'code'
  79  0004              	db 0
  79  0003              @HCCINIT_Amplifier2 .section 'data'
  79  0003              public _tempAmplifier2
  78  0003              #line 78 "c:\users\tech\desktop\codetector\co.c"
  78  0000              @HCCINIT_tempAmplifier2 .section 'data'
  78  0000              _tempAmplifier2 label byte
  78  0000              #pragma debug variable 28 1 _tempAmplifier2 "tempAmplifier2"
  78  0000              	db 0
  78  0004              @ROMDATA_BASE .section inpage 'code'
  78  0004              	db 0
  78  0001              @HCCINIT_tempAmplifier2 .section 'data'
  78  0001              	db 0
  78  0005              @ROMDATA_BASE .section inpage 'code'
"File: co.c          Assembler  Version HGASM0202      Page 14

  78  0005              	db 0
  78  0002              @HCCINIT_tempAmplifier2 .section 'data'
  78  0002              	db 0
  78  0005              @ROMDATA_BASE .section inpage 'code'
  78  0005              	db 0
  78  0003              @HCCINIT_tempAmplifier2 .section 'data'
  78  0003              public _VAmplifier1
  77  0003              #line 77 "c:\users\tech\desktop\codetector\co.c"
  77  0000              @HCCINIT_VAmplifier1 .section 'data'
  77  0000              _VAmplifier1 label byte
  77  0000              #pragma debug variable 28 1 _VAmplifier1 "VAmplifier1"
  77  0000              	db 0
  77  0006              @ROMDATA_BASE .section inpage 'code'
  77  0006              	db 0
  77  0001              @HCCINIT_VAmplifier1 .section 'data'
  77  0001              	db 0
  77  0006              @ROMDATA_BASE .section inpage 'code'
  77  0006              	db 0
  77  0002              @HCCINIT_VAmplifier1 .section 'data'
  77  0002              	db 0
  77  0007              @ROMDATA_BASE .section inpage 'code'
  77  0007              	db 0
  77  0003              @HCCINIT_VAmplifier1 .section 'data'
  77  0003              public _tempAmplifier1
  76  0003              #line 76 "c:\users\tech\desktop\codetector\co.c"
  76  0000              @HCCINIT_tempAmplifier1 .section 'data'
  76  0000              _tempAmplifier1 label byte
  76  0000              #pragma debug variable 28 1 _tempAmplifier1 "tempAmplifier1"
  76  0000              	db 0
  76  0007              @ROMDATA_BASE .section inpage 'code'
  76  0007              	db 0
  76  0001              @HCCINIT_tempAmplifier1 .section 'data'
  76  0001              	db 0
  76  0008              @ROMDATA_BASE .section inpage 'code'
  76  0008              	db 0
  76  0002              @HCCINIT_tempAmplifier1 .section 'data'
  76  0002              	db 0
  76  0008              @ROMDATA_BASE .section inpage 'code'
  76  0008              	db 0
  76  0003              @HCCINIT_tempAmplifier1 .section 'data'
  76  0003              public _Amplifier1
  75  0003              #line 75 "c:\users\tech\desktop\codetector\co.c"
  75  0000              @HCCINIT_Amplifier1 .section 'data'
  75  0000              _Amplifier1 label byte
  75  0000              #pragma debug variable 28 1 _Amplifier1 "Amplifier1"
  75  0000              	db 0
  75  0009              @ROMDATA_BASE .section inpage 'code'
  75  0009              	db 0
  75  0001              @HCCINIT_Amplifier1 .section 'data'
  75  0001              	db 0
  75  0009              @ROMDATA_BASE .section inpage 'code'
  75  0009              	db 0
  75  0002              @HCCINIT_Amplifier1 .section 'data'
  75  0002              	db 0
  75  000A              @ROMDATA_BASE .section inpage 'code'
  75  000A              	db 0
  75  0003              @HCCINIT_Amplifier1 .section 'data'
  75  0003              public _temperatur
  74  0003              #line 74 "c:\users\tech\desktop\codetector\co.c"
  74  0000              @HCCINIT_temperatur .section 'data'
"File: co.c          Assembler  Version HGASM0202      Page 15

  74  0000              _temperatur label byte
  74  0000              #pragma debug variable 28 1 _temperatur "temperatur"
  74  0000              	db 0
  74  000A              @ROMDATA_BASE .section inpage 'code'
  74  000A              	db 0
  74  0001              @HCCINIT_temperatur .section 'data'
  74  0001              	db 0
  74  000B              @ROMDATA_BASE .section inpage 'code'
  74  000B              	db 0
  74  0002              @HCCINIT_temperatur .section 'data'
  74  0002              	db 0
  74  000B              @ROMDATA_BASE .section inpage 'code'
  74  000B              	db 0
  74  0003              @HCCINIT_temperatur .section 'data'
  74  0003              public _COValue
  73  0003              #line 73 "c:\users\tech\desktop\codetector\co.c"
  73  0000              @HCCINIT_COValue .section 'data'
  73  0000              _COValue label byte
  73  0000              #pragma debug variable 28 1 _COValue "COValue"
  73  0000              	db 0
  73  000C              @ROMDATA_BASE .section inpage 'code'
  73  000C              	db 0
  73  0001              @HCCINIT_COValue .section 'data'
  73  0001              	db 0
  73  000C              @ROMDATA_BASE .section inpage 'code'
  73  000C              	db 0
  73  0002              @HCCINIT_COValue .section 'data'
  73  0002              	db 0
  73  000D              @ROMDATA_BASE .section inpage 'code'
  73  000D              	db 0
  73  0003              @HCCINIT_COValue .section 'data'
  65  0003              #line 65 "c:\users\tech\desktop\codetector\co.c"
  65  0003              public _falt
  65  0000              @BITDATASEC .section 'data'
  65  0000  00          _falt	dbit 0
  65  0001              #pragma debug variable 2 1 _falt "falt"
  65  0001              
  65  0000              @HCCINIT .section 'data'
  59  0000              #line 59 "c:\users\tech\desktop\codetector\co.c"
  59  0000              public _V_ref
  59  0000              @HCCINIT0_V_ref .section 'data'
  59  0000  0002[       _V_ref	db 2 dup(0)
            00
            ]
  59  0002              #pragma debug variable 11 1 _V_ref "V_ref"
  59  0002              
  59  0000              @HCCINIT .section 'data'
  58  0000              #line 58 "c:\users\tech\desktop\codetector\co.c"
  58  0000              public _bat_low
  58  0001              @BITDATASEC .section 'data'
  58  0000              _bat_low	dbit 0
  58  0001              #pragma debug variable 2 1 _bat_low "bat_low"
  58  0001              
  58  0000              @HCCINIT .section 'data'
  58  0000              public _VDD
  57  0000              #line 57 "c:\users\tech\desktop\codetector\co.c"
  57  0000              @HCCINIT_VDD .section 'data'
  57  0000              _VDD label byte
  57  0000              #pragma debug variable 28 1 _VDD "VDD"
  57  0000              	db 0
"File: co.c          Assembler  Version HGASM0202      Page 16

  57  000D              @ROMDATA_BASE .section inpage 'code'
  57  000D              	db 0
  57  0001              @HCCINIT_VDD .section 'data'
  57  0001              	db 0
  57  000E              @ROMDATA_BASE .section inpage 'code'
  57  000E              	db 0
  57  0002              @HCCINIT_VDD .section 'data'
  57  0002              	db 0
  57  000E              @ROMDATA_BASE .section inpage 'code'
  57  000E              	db 0
  57  0003              @HCCINIT_VDD .section 'data'
  53  0003              #line 53 "c:\users\tech\desktop\codetector\co.c"
  53  0003              public _co_falt
  53  0001              @BITDATASEC .section 'data'
  53  0000              _co_falt	dbit 0
  53  0001              #pragma debug variable 2 1 _co_falt "co_falt"
  53  0001              
  53  0000              @HCCINIT .section 'data'
  52  0000              #line 52 "c:\users\tech\desktop\codetector\co.c"
  52  0000              public _co
  52  0001              @BITDATASEC .section 'data'
  52  0000              _co	dbit 0
  52  0001              #pragma debug variable 2 1 _co "co"
  52  0001              
  52  0000              @HCCINIT .section 'data'
  51  0000              #line 51 "c:\users\tech\desktop\codetector\co.c"
  51  0000              public _ppm
  51  0000              @HCCINIT0_ppm .section 'data'
  51  0000  0002[       _ppm	db 2 dup(0)
            00
            ]
  51  0002              #pragma debug variable 11 1 _ppm "ppm"
  51  0002              
  51  0000              @HCCINIT .section 'data'
  47  0000              #line 47 "c:\users\tech\desktop\codetector\co.c"
  47  0000              public _buz_delay
  47  0000              @HCCINIT0_buz_delay .section 'data'
  47  0000  0002[       _buz_delay	db 2 dup(0)
            00
            ]
  47  0002              #pragma debug variable 11 1 _buz_delay "buz_delay"
  47  0002              
  47  0000              @HCCINIT .section 'data'
  42  0000              #line 42 "c:\users\tech\desktop\codetector\co.c"
  42  0000              public _test
  42  0001              @BITDATASEC .section 'data'
  42  0000              _test	dbit 0
  42  0001              #pragma debug variable 2 1 _test "test"
  42  0001              
  42  0000              @HCCINIT .section 'data'
  41  0000              #line 41 "c:\users\tech\desktop\codetector\co.c"
  41  0000              public _test_tm
  41  0000              @HCCINIT0_test_tm .section 'data'
  41  0000              _test_tm	db 0
  41  0001              #pragma debug variable 7 1 _test_tm "test_tm"
  41  0001              
  41  0000              @HCCINIT .section 'data'
  41  0000              #pragma debug struct_end
  41  0000              #pragma debug struct_end
  41  0000              #pragma debug union_end
"File: co.c          Assembler  Version HGASM0202      Page 17

  41  0000              #pragma debug union_end
  41  0000              #pragma debug variable 43 1 ___vbgrc "__vbgrc" 1
  41  0000              #pragma debug struct_end
  41  0000              #pragma debug struct_end
  41  0000              #pragma debug union_end
  41  0000              #pragma debug union_end
  41  0000              #pragma debug variable 45 1 ___sda0c "__sda0c" 1
  41  0000              #pragma debug struct_end
  41  0000              #pragma debug struct_end
  41  0000              #pragma debug union_end
  41  0000              #pragma debug union_end
  41  0000              #pragma debug variable 47 1 ___sda1c "__sda1c" 1
  41  0000              #pragma debug struct_end
  41  0000              #pragma debug struct_end
  41  0000              #pragma debug union_end
  41  0000              #pragma debug union_end
  41  0000              #pragma debug variable 49 1 ___isgenc "__isgenc" 1
  91  0000              #line 91 "c:\users\tech\desktop\codetector\co.c"
  91  0000              @code .section at 0 'code'
  91  0000  2800     R  	jmp _main_startup1
  91  0001              
  91  0001              extern _ClockInit:near
  91  0001              extern _GPIOInit:near
  91  0001              extern _GPIOToGNDCurentInit:near
  91  0001              extern _OPAMPInit:near
  91  0001              extern _S_ADC_Init:near
  91  0001              extern _S_READ_ADC:near
  91  0001              extern _builtin_holtek_mant1:byte
  91  0001              extern _builtin_holtek_mant12p:byte
  91  0001              extern _builtin_holtek_signs:byte
  91  0001              extern _builtin_holtek_uitod:near
  91  0001              extern _builtin_holtek_mant2:byte
  91  0001              extern _builtin_holtek_dtdiv:near
  91  0001              extern _builtin_holtek_dtmul:near
  91  0001              extern _builtin_holtek_uitof:near
  91  0001              extern _builtin_holtek_ftadd:near
  91  0001              extern _builtin_holtek_ftdiv:near
  91  0001              extern _builtin_holtek_ftmul:near
  91  0001              extern _builtin_holtek_ftol:near
  91  0001              extern _shwoSegment_2:byte
  91  0001              extern _shwoSegment:near
  91  0001              
  91  0001              ; 
  91  0001              ; Generated by holtek-gcc v3.19, Tue Sep 05 14:07:04 2023
  91  0001              ; Rebuild 718
  91  0001              ; end of file


        0 Errors, 0