"File: co.c          Assembler  Version HGASM0202      Page 1


   1  0000              ; Generated by holtek-gcc v3.19, Sat Sep 23 12:35:32 2023
   2  0000              ; 
   3  0000              ; Configuration:
   4  0000              ;       with long instruction
   5  0000              ;       Single ROM, Multi-RAM
   6  0000              ;       bits_per_rom_unit:16
   7  0000              ;       with mp1
   8  0000              ;       with tbhp, address(0x9)
   9  0000              ;          Use tabrd-const
  10  0000              ;       
  11  0000              ; SFR address of long-instruction arch:
  12  0000              ;    mp0 = -1,1,0
  13  0000              ;    mp1 = 4,3,2
  14  0000              ;    mp2 = 14,13,12
  15  0000              ;    tbp = 9,7,8
  16  0000              ;    acc = 5
  17  0000              ;    pcl = 6
  18  0000              ;    status = 10
  19  0000              ;    bp = 11
  20  0000              ;    intc = 72
  21  0000              ;       
  22  0000              ;       
  23  0000              ; use 'tabrdc' instead of 'tabrd'
  24  0000              ;       
  25  0000              
  26  0000              #pragma translator "holtek-gcc 4.6.4" "3.19" "build 20130711"
  27  0000              ; Rebuild 718
  28  0000              
  29  0000              ir equ [2]
  30  0000              mp equ [3]
  31  0000              sbp equ [4]
  32  0000              acc equ [5]
  33  0000              bp equ [11]
  34  0000              tblp equ [7]
  35  0000              tbhp equ [9]
  36  0000              status equ [10]
  37  0000              c equ [10].0
  38  0000              ac equ [10].1
  39  0000              z equ [10].2
  40  0000              ov equ [10].3
  41  0000              cz equ [10].6
  42  0000              sc equ [10].7
  43  0000              intc equ [72]
  44  0000              
  45  0000              extern ra:byte
  46  0000              extern rb:byte
  47  0000              extern rc:byte
  48  0000              extern rd:byte
  49  0000              extern re:byte
  50  0000              extern rf:byte
  51  0000              extern rg:byte
  52  0000              extern rh:byte
  53  0000              extern _Crom2Prom:near
  54  0000              extern _Crom2PromNext:near
  55  0000              
  56  0000              RAMBANK 0 @BITDATASEC, @BITDATASEC1
  57  0000              @HCCINIT	.section 'data'
  58  0000              @HCCINIT0	.section 'data'
  59  0000              @BITDATASEC	 .section 'data'
"File: co.ASM        Assembler  Version HGASM0202      Page 2

  60  0000              @BITDATASEC1	 .section 'data'
  61  0000              
  62  0000              #pragma debug scope 1 1
  63  0000              	extern __DELAY3:near
  64  0000              	extern __DELAYX3:near
  65  0000              	extern __DELAYX6:near
  66  0000              	extern __DELAYY5:near
  67  0000              	extern __DELAYY3:near
  68  0000              	extern _builtin_holtek_delay_2:byte
  69  0000              ___pa equ [20]
  70  0000              ___papu equ [22]
  71  0000              ___pawu equ [23]
  72  0000              public _key
  73  0000              #pragma debug scope 2 1

 289  0000              #line 289 "c:\users\tech\desktop\codetector\co.c"
 289  0000              _key .section 'code'
 289  0000              _key proc
 289  0000  00              local _key_2 db 1 dup(?)	; 0,1
 294  0001              #line 294 "c:\users\tech\desktop\codetector\co.c"
 294  0000  3E14        	sz [20].4
 294  0001  2800     R  	jmp _L3
 297  0002              #line 297 "c:\users\tech\desktop\codetector\co.c"
 297  0002  0F01        	mov a,1
 297  0003  0300     R  	add a,_debounceCounter[0]
 297  0004  0080     E  	mov rb,a
 297  0005  0F00        	mov a,0
 297  0006  1300     R  	adc a,_debounceCounter[1]
 297  0007  0080     E  	mov rc,a
 297  0008  0700     E  	mov a,rb
 297  0009  0080     R  	mov _debounceCounter[0],a
 297  000A  0700     E  	mov a,rc
 297  000B  0080     R  	mov _debounceCounter[1],a
 298  000C              #line 298 "c:\users\tech\desktop\codetector\co.c"
 298  000C  1F00     R  	clr _buttonStatus[0]
 298  000D  1F00     R  	clr _buttonStatus[1]
 299  000E              #line 299 "c:\users\tech\desktop\codetector\co.c"
 299  000E  0F01        	mov a,1
 299  000F  0080     R  	mov _pressFlag[0],a
 301  0010              #line 301 "c:\users\tech\desktop\codetector\co.c"
 301  0010  1700     R  	sdza _flag[0]
 301  0011  2800     R  	jmp _L4
 303  0012              #line 303 "c:\users\tech\desktop\codetector\co.c"
 303  0012  0F01        	mov a,1
 303  0013  0080     E  	mov ra,a
 303  0014  1E00     R  	snz _dot[0]
 303  0015  2800     R  	jmp _L5
 303  0016  1F00     E  	clr ra
 303  0017              _L5:
 303  0017  0700     E  	mov a,ra
 303  0018  0080     R  	mov _dot[0],a
 305  0019              #line 305 "c:\users\tech\desktop\codetector\co.c"
 305  0019  1F00     R  	clr _flag[0]
 305  001A              _L4:
 307  001A              #line 307 "c:\users\tech\desktop\codetector\co.c"
 307  001A  0F88        	mov a,136
 307  001B  0200     E  	sub a,rb
 307  001C  0F13        	mov a,19
 307  001D  1200     E  	sbc a,rc
 307  001E  3B8A        	snz sc
"File: co.c          Assembler  Version HGASM0202      Page 3

 307  001F  2800     R  	jmp _L3
 309  0020              #line 309 "c:\users\tech\desktop\codetector\co.c"
 309  0020  0F02        	mov a,2
 309  0021  0080     R  	mov _pressFlag[0],a
 309  0022              _L3:
 314  0022              #line 314 "c:\users\tech\desktop\codetector\co.c"
 314  0022  3A14        	snz [20].4
 314  0023  2800     R  	jmp _L7
 314  0024  1700     R  	sdza _pressFlag[0]
 314  0025  2800     R  	jmp _L7
 316  0026              #line 316 "c:\users\tech\desktop\codetector\co.c"
 316  0026  0F01        	mov a,1
 316  0027  0080     R  	mov _flag[0],a
 317  0028              #line 317 "c:\users\tech\desktop\codetector\co.c"
 317  0028  1F00     R  	clr _debounceCounter[0]
 317  0029  1F00     R  	clr _debounceCounter[1]
 318  002A              #line 318 "c:\users\tech\desktop\codetector\co.c"
 318  002A  1F00     R  	clr _cunter[0]
 318  002B  1F00     R  	clr _cunter[1]
 319  002C              #line 319 "c:\users\tech\desktop\codetector\co.c"
 319  002C  2000     E  	call _clearSegment
 320  002D              #line 320 "c:\users\tech\desktop\codetector\co.c"
 320  002D  3216        	set [22].4
 321  002E              #line 321 "c:\users\tech\desktop\codetector\co.c"
 321  002E  3217        	set [23].4
 323  002F              #line 323 "c:\users\tech\desktop\codetector\co.c"
 323  002F  0700     R  	mov a,_dot[0]
 323  0030  0080     R  	mov _key_2[0],a
 323  0031  1700     R  	sdza _key_2[0]
 323  0032  2800     R  	jmp _L8
 326  0033              #line 326 "c:\users\tech\desktop\codetector\co.c"
 326  0033  0F02        	mov a,2
 326  0034  0080     R  	mov _buttonStatus[0],a
 326  0035  1F00     R  	clr _buttonStatus[1]
 326  0036  2800     R  	jmp _L9
 326  0037              _L8:
 330  0037              #line 330 "c:\users\tech\desktop\codetector\co.c"
 330  0037  1080     R  	sz _key_2[0]
 330  0038  2800     R  	jmp _L9
 332  0039              #line 332 "c:\users\tech\desktop\codetector\co.c"
 332  0039  0F01        	mov a,1
 332  003A  0080     R  	mov _buttonStatus[0],a
 332  003B  1F00     R  	clr _buttonStatus[1]
 332  003C              _L9:
 335  003C              #line 335 "c:\users\tech\desktop\codetector\co.c"
 335  003C  2000     E  	call _clearSegment
 336  003D              #line 336 "c:\users\tech\desktop\codetector\co.c"
 336  003D  1F00     R  	clr _cunter[0]
 336  003E  1F00     R  	clr _cunter[1]
 337  003F              #line 337 "c:\users\tech\desktop\codetector\co.c"
 337  003F  3216        	set [22].4
 338  0040              #line 338 "c:\users\tech\desktop\codetector\co.c"
 338  0040  3217        	set [23].4
 338  0041              _L7:
 342  0041              #line 342 "c:\users\tech\desktop\codetector\co.c"
 342  0041  3A14        	snz [20].4
 342  0042  2800     R  	jmp _L11
 342  0043  0700     R  	mov a,_pressFlag[0]
 342  0044  0A02        	sub a,2
 342  0045  390A        	snz z
"File: co.c          Assembler  Version HGASM0202      Page 4

 342  0046  2800     R  	jmp _L11
 344  0047              #line 344 "c:\users\tech\desktop\codetector\co.c"
 344  0047  0F03        	mov a,3
 344  0048  0080     R  	mov _buttonStatus[0],a
 344  0049  1F00     R  	clr _buttonStatus[1]
 344  004A              _L11:
 344  004A  0003        	ret
 344  004B              _key endp
 344  004B              #line 344 "c:\users\tech\desktop\codetector\co.c"
 344  004B              #pragma debug scope 1 1
 344  004B              ___status equ [10]
 344  004B              ___isgenc equ [93]
 344  004B              ___vbgrc equ [11]
 344  004B              ___sda0c equ [35]
 344  004B              ___sda1c equ [37]
 344  004B              public _main
 344  004B              #pragma debug scope 3 1
  95  004B              #line 95 "c:\users\tech\desktop\codetector\co.c"
  95  004B              IFDEF WITH_DEFAULT_STARTUP
  95  004B              extern _main_initial0:near
  95  004B              extern _main_startup:near
  95  004B              ENDIF
  95  004B              
  95  004B              ROMBANK 0 @start
  95  0000              @start .section com_l 'code'
  95  0000              _main_startup1:
  95  0000              @start .section com_e 'code'
  95  0000  2800     R  	jmp _main
  95  0001              
  95  0000              _main .section 'code'
  95  0000              _main proc
  98  0000              #line 98 "c:\users\tech\desktop\codetector\co.c"
  98  0000  3E8A        	sz [10].5
  98  0001  2800     R  	jmp _L20
 100  0002              #line 100 "c:\users\tech\desktop\codetector\co.c"
 100  0002  1F00     R  	clr _my_E[0]
 100  0003  1F00     R  	clr _my_E[1]
 101  0004              #line 101 "c:\users\tech\desktop\codetector\co.c"
 101  0004  1F00     R  	clr _my_E2[0]
 101  0005  1F00     R  	clr _my_E2[1]
 102  0006              #line 102 "c:\users\tech\desktop\codetector\co.c"
 102  0006  1F00     R  	clr _currentTime[0]
 102  0007  1F00     R  	clr _currentTime[1]
 103  0008              #line 103 "c:\users\tech\desktop\codetector\co.c"
 103  0008  1F00     R  	clr _state[0]
 103  0009  1F00     R  	clr _state[1]
 104  000A              #line 104 "c:\users\tech\desktop\codetector\co.c"
 104  000A  1F00     R  	clr _debounceCounter[0]
 104  000B  1F00     R  	clr _debounceCounter[1]
 105  000C              #line 105 "c:\users\tech\desktop\codetector\co.c"
 105  000C  1F00     R  	clr _cunter[0]
 105  000D  1F00     R  	clr _cunter[1]
 105  000E              _L20:
 111  000E              #line 111 "c:\users\tech\desktop\codetector\co.c"
 111  000E  2000     E  	call _ClockInit
 112  000F              #line 112 "c:\users\tech\desktop\codetector\co.c"
 112  000F  2000     E  	call _GPIOInit
 113  0010              #line 113 "c:\users\tech\desktop\codetector\co.c"
 113  0010  2000     E  	call _GPIOToGNDCurentInit
 114  0011              #line 114 "c:\users\tech\desktop\codetector\co.c"
"File: co.c          Assembler  Version HGASM0202      Page 5

 114  0011  2000     E  	call _OPAMPInit
 115  0012              #line 115 "c:\users\tech\desktop\codetector\co.c"
 115  0012  2000     E  	call _S_ADC_Init
 117  0013              #line 117 "c:\users\tech\desktop\codetector\co.c"
 117  0013  305D        	set [93].0
 118  0014              #line 118 "c:\users\tech\desktop\codetector\co.c"
 118  0014  34DD        	clr [93].1
 120  0015              #line 120 "c:\users\tech\desktop\codetector\co.c"
 120  0015  300B        	set [11].0
 121  0016              #line 121 "c:\users\tech\desktop\codetector\co.c"
 121  0016  3323        	set [35].6
 122  0017              #line 122 "c:\users\tech\desktop\codetector\co.c"
 122  0017  3325        	set [37].6
 123  0018              #line 123 "c:\users\tech\desktop\codetector\co.c"
 123  0018              ;# 123 "c:\users\tech\desktop\codetector\co.c" 1
 123  0018  0001        	clr wdt
 126  0019              #line 126 "c:\users\tech\desktop\codetector\co.c"
 126  0019  2000     E  	call _clearSegment
 126  001A              #pragma debug scope 4 3
 126  001A              ;begin block, line: 126.-1
 134  001A              #line 134 "c:\users\tech\desktop\codetector\co.c"
 134  001A  305D        	set [93].0
 135  001B              #line 135 "c:\users\tech\desktop\codetector\co.c"
 135  001B              ;# 135 "c:\users\tech\desktop\codetector\co.c" 1
 135  001B              	IF 100>263690
 135  001B              ;# 135 "c:\users\tech\desktop\codetector\co.c" 1
 135  001B              	ERRMESSAGE 'the value 100of the argument exceeds the maxinum 263690'
 135  001B              	ENDIF
 135  001B              ;# 135 "c:\users\tech\desktop\codetector\co.c" 1
 135  001B              	IF 100<0
 135  001B              ;# 135 "c:\users\tech\desktop\codetector\co.c" 1
 135  001B              	ERRMESSAGE 'the value 100 of the argument exceeds the mininum 0'
 135  001B              	ENDIF
 135  001B              ;# 135 "c:\users\tech\desktop\codetector\co.c" 1
 135  001B              	IF 100==0
 135  001B              ;# 135 "c:\users\tech\desktop\codetector\co.c" 1
 135  001B              	JMP $
 135  001B              	ENDIF
 135  001B              ;# 135 "c:\users\tech\desktop\codetector\co.c" 1
 135  001B              	IF 100==1
 135  001B              ;# 135 "c:\users\tech\desktop\codetector\co.c" 1
 135  001B              	NOP
 135  001B              	ENDIF
 135  001B              ;# 135 "c:\users\tech\desktop\codetector\co.c" 1
 135  001B              	IF 100==2
 135  001B              ;# 135 "c:\users\tech\desktop\codetector\co.c" 1
 135  001B              	NOP
 135  001B              ;# 135 "c:\users\tech\desktop\codetector\co.c" 1
 135  001B              	NOP
 135  001B              	ENDIF
 135  001B              ;# 135 "c:\users\tech\desktop\codetector\co.c" 1
 135  001B              	IF 100==3
 135  001B              ;# 135 "c:\users\tech\desktop\codetector\co.c" 1
 135  001B              	NOP
 135  001B              ;# 135 "c:\users\tech\desktop\codetector\co.c" 1
 135  001B              	NOP
 135  001B              ;# 135 "c:\users\tech\desktop\codetector\co.c" 1
 135  001B              	NOP
 135  001B              	ENDIF
 135  001B              ;# 135 "c:\users\tech\desktop\codetector\co.c" 1
"File: co.c          Assembler  Version HGASM0202      Page 6

 135  001B              	IF (100<8) AND (100>3)
 135  001B              ;# 135 "c:\users\tech\desktop\codetector\co.c" 1
 135  001B              	CALL __DELAY3 + 7 -100
 135  001B              	ENDIF
 135  001B              ;# 135 "c:\users\tech\desktop\codetector\co.c" 1
 135  001B              	IF (100< 0404h) AND (100>7)
 135  001B              ;# 135 "c:\users\tech\desktop\codetector\co.c" 1
 135  001B  0F18        	MOV A,100/4-1
 135  001C              ;# 135 "c:\users\tech\desktop\codetector\co.c" 1
 135  001C  2000     E  	CALL __DELAYX3 + 3 -(100 MOD 4)
 135  001D              	ENDIF
 135  001D              ;# 135 "c:\users\tech\desktop\codetector\co.c" 1
 135  001D              	IF (100< 0x40B) AND (100> 0403h)
 135  001D              ;# 135 "c:\users\tech\desktop\codetector\co.c" 1
 135  001D              	MOV A,0 
 135  001D              ;# 135 "c:\users\tech\desktop\codetector\co.c" 1
 135  001D              	CALL __DELAYX6 + 0x40a -100
 135  001D              	ENDIF
 135  001D              ;# 135 "c:\users\tech\desktop\codetector\co.c" 1
 135  001D              	IF (100 >= 0x40b) AND ((((100-9)%0402h)/4+1)>256)
 135  001D              ;# 135 "c:\users\tech\desktop\codetector\co.c" 1
 135  001D              	MOV A,(100-9)/0402h
 135  001D              ;# 135 "c:\users\tech\desktop\codetector\co.c" 1
 135  001D              	MOV _builtin_holtek_delay_2,A
 135  001D              ;# 135 "c:\users\tech\desktop\codetector\co.c" 1
 135  001D              	MOV A,0
 135  001D              ;# 135 "c:\users\tech\desktop\codetector\co.c" 1
 135  001D              	CALL __DELAYY5 +5- (((100-9)%0402h)%6)
 135  001D              	ENDIF
 135  001D              ;# 135 "c:\users\tech\desktop\codetector\co.c" 1
 135  001D              	IF (100 >= 0x40b) AND ((((100-9)%0402h)/4+1)<=256)
 135  001D              ;# 135 "c:\users\tech\desktop\codetector\co.c" 1
 135  001D              	MOV A,(100-9)/0402h
 135  001D              ;# 135 "c:\users\tech\desktop\codetector\co.c" 1
 135  001D              	MOV _builtin_holtek_delay_2,A
 135  001D              ;# 135 "c:\users\tech\desktop\codetector\co.c" 1
 135  001D              	MOV A,((100-9)%0402h)/4+1
 135  001D              ;# 135 "c:\users\tech\desktop\codetector\co.c" 1
 135  001D              	CALL __DELAYY3 +3-(((100-9)%0402h)%4)
 135  001D              	ENDIF
 136  001D              #line 136 "c:\users\tech\desktop\codetector\co.c"
 136  001D  34DD        	clr [93].1
 137  001E              #line 137 "c:\users\tech\desktop\codetector\co.c"
 137  001E              ;# 137 "c:\users\tech\desktop\codetector\co.c" 1
 137  001E              	IF 100>263690
 137  001E              ;# 137 "c:\users\tech\desktop\codetector\co.c" 1
 137  001E              	ERRMESSAGE 'the value 100of the argument exceeds the maxinum 263690'
 137  001E              	ENDIF
 137  001E              ;# 137 "c:\users\tech\desktop\codetector\co.c" 1
 137  001E              	IF 100<0
 137  001E              ;# 137 "c:\users\tech\desktop\codetector\co.c" 1
 137  001E              	ERRMESSAGE 'the value 100 of the argument exceeds the mininum 0'
 137  001E              	ENDIF
 137  001E              ;# 137 "c:\users\tech\desktop\codetector\co.c" 1
 137  001E              	IF 100==0
 137  001E              ;# 137 "c:\users\tech\desktop\codetector\co.c" 1
 137  001E              	JMP $
 137  001E              	ENDIF
 137  001E              ;# 137 "c:\users\tech\desktop\codetector\co.c" 1
 137  001E              	IF 100==1
"File: co.c          Assembler  Version HGASM0202      Page 7

 137  001E              ;# 137 "c:\users\tech\desktop\codetector\co.c" 1
 137  001E              	NOP
 137  001E              	ENDIF
 137  001E              ;# 137 "c:\users\tech\desktop\codetector\co.c" 1
 137  001E              	IF 100==2
 137  001E              ;# 137 "c:\users\tech\desktop\codetector\co.c" 1
 137  001E              	NOP
 137  001E              ;# 137 "c:\users\tech\desktop\codetector\co.c" 1
 137  001E              	NOP
 137  001E              	ENDIF
 137  001E              ;# 137 "c:\users\tech\desktop\codetector\co.c" 1
 137  001E              	IF 100==3
 137  001E              ;# 137 "c:\users\tech\desktop\codetector\co.c" 1
 137  001E              	NOP
 137  001E              ;# 137 "c:\users\tech\desktop\codetector\co.c" 1
 137  001E              	NOP
 137  001E              ;# 137 "c:\users\tech\desktop\codetector\co.c" 1
 137  001E              	NOP
 137  001E              	ENDIF
 137  001E              ;# 137 "c:\users\tech\desktop\codetector\co.c" 1
 137  001E              	IF (100<8) AND (100>3)
 137  001E              ;# 137 "c:\users\tech\desktop\codetector\co.c" 1
 137  001E              	CALL __DELAY3 + 7 -100
 137  001E              	ENDIF
 137  001E              ;# 137 "c:\users\tech\desktop\codetector\co.c" 1
 137  001E              	IF (100< 0404h) AND (100>7)
 137  001E              ;# 137 "c:\users\tech\desktop\codetector\co.c" 1
 137  001E  0F18        	MOV A,100/4-1
 137  001F              ;# 137 "c:\users\tech\desktop\codetector\co.c" 1
 137  001F  2000     E  	CALL __DELAYX3 + 3 -(100 MOD 4)
 137  0020              	ENDIF
 137  0020              ;# 137 "c:\users\tech\desktop\codetector\co.c" 1
 137  0020              	IF (100< 0x40B) AND (100> 0403h)
 137  0020              ;# 137 "c:\users\tech\desktop\codetector\co.c" 1
 137  0020              	MOV A,0 
 137  0020              ;# 137 "c:\users\tech\desktop\codetector\co.c" 1
 137  0020              	CALL __DELAYX6 + 0x40a -100
 137  0020              	ENDIF
 137  0020              ;# 137 "c:\users\tech\desktop\codetector\co.c" 1
 137  0020              	IF (100 >= 0x40b) AND ((((100-9)%0402h)/4+1)>256)
 137  0020              ;# 137 "c:\users\tech\desktop\codetector\co.c" 1
 137  0020              	MOV A,(100-9)/0402h
 137  0020              ;# 137 "c:\users\tech\desktop\codetector\co.c" 1
 137  0020              	MOV _builtin_holtek_delay_2,A
 137  0020              ;# 137 "c:\users\tech\desktop\codetector\co.c" 1
 137  0020              	MOV A,0
 137  0020              ;# 137 "c:\users\tech\desktop\codetector\co.c" 1
 137  0020              	CALL __DELAYY5 +5- (((100-9)%0402h)%6)
 137  0020              	ENDIF
 137  0020              ;# 137 "c:\users\tech\desktop\codetector\co.c" 1
 137  0020              	IF (100 >= 0x40b) AND ((((100-9)%0402h)/4+1)<=256)
 137  0020              ;# 137 "c:\users\tech\desktop\codetector\co.c" 1
 137  0020              	MOV A,(100-9)/0402h
 137  0020              ;# 137 "c:\users\tech\desktop\codetector\co.c" 1
 137  0020              	MOV _builtin_holtek_delay_2,A
 137  0020              ;# 137 "c:\users\tech\desktop\codetector\co.c" 1
 137  0020              	MOV A,((100-9)%0402h)/4+1
 137  0020              ;# 137 "c:\users\tech\desktop\codetector\co.c" 1
 137  0020              	CALL __DELAYY3 +3-(((100-9)%0402h)%4)
 137  0020              	ENDIF
"File: co.c          Assembler  Version HGASM0202      Page 8

 138  0020              #line 138 "c:\users\tech\desktop\codetector\co.c"
 138  0020  2000     E  	call _S_ADC_Init
 140  0021              #line 140 "c:\users\tech\desktop\codetector\co.c"
 140  0021  300B        	set [11].0
 141  0022              #line 141 "c:\users\tech\desktop\codetector\co.c"
 141  0022  3323        	set [35].6
 142  0023              #line 142 "c:\users\tech\desktop\codetector\co.c"
 142  0023  3325        	set [37].6
 144  0024              #line 144 "c:\users\tech\desktop\codetector\co.c"
 144  0024  0F01        	mov a,1
 144  0025  2000     E  	call _S_READ_ADC
 144  0026  0F33        	mov a,51
 144  0027  0080     E  	mov _temperature_2[2],a
 144  0028  0F53        	mov a,83
 144  0029  0080     E  	mov _temperature_2[3],a
 144  002A  0F40        	mov a,64
 144  002B  0080     E  	mov _temperature_2[4],a
 144  002C  0700     E  	mov a,ra
 144  002D  0080     E  	mov _temperature_2[0],a
 144  002E  0700     E  	mov a,rb
 144  002F  0080     E  	mov _temperature_2[1],a
 144  0030  2000     E  	call _temperature
 144  0031  0700     E  	mov a,ra
 144  0032  0080     R  	mov _temperatur[0],a
 144  0033  0700     E  	mov a,rb
 144  0034  0080     R  	mov _temperatur[1],a
 144  0035  0700     E  	mov a,rc
 144  0036  0080     R  	mov _temperatur[2],a
 148  0037              #line 148 "c:\users\tech\desktop\codetector\co.c"
 148  0037  300B        	set [11].0
 155  0038              #line 155 "c:\users\tech\desktop\codetector\co.c"
 155  0038  0F04        	mov a,4
 155  0039  2000     E  	call _S_READ_ADC
 155  003A  0700     E  	mov a,rb
 155  003B  0080     E  	mov _builtin_holtek_mant1[1],a
 155  003C  0700     E  	mov a,ra
 155  003D  0080     E  	mov _builtin_holtek_mant1[0],a
 155  003E  3400     E  	clr _builtin_holtek_signs.0
 155  003F  2000     E  	call _builtin_holtek_uitod
 155  0040  0700     E  	mov a,_builtin_holtek_mant12p[0]
 155  0041  0080     E  	mov rh,a
 155  0042  0700     E  	mov a,_builtin_holtek_mant1[2]
 155  0043  0080     E  	mov rg,a
 155  0044  0700     E  	mov a,_builtin_holtek_mant1[1]
 155  0045  0080     E  	mov rf,a
 155  0046  0700     E  	mov a,_builtin_holtek_mant1[0]
 155  0047  0080     E  	mov re,a
 155  0048  1F00     E  	clr ra
 155  0049  0FF0        	mov a,-16
 155  004A  0080     E  	mov rb,a
 155  004B  0F7F        	mov a,127
 155  004C  0080     E  	mov rc,a
 155  004D  0F45        	mov a,69
 155  004E  0080     E  	mov rd,a
 155  004F  0700     E  	mov a,rd
 155  0050  0080     E  	mov _builtin_holtek_mant12p[0],a
 155  0051  0700     E  	mov a,rc
 155  0052  0080     E  	mov _builtin_holtek_mant1[2],a
 155  0053  0700     E  	mov a,rb
 155  0054  0080     E  	mov _builtin_holtek_mant1[1],a
"File: co.c          Assembler  Version HGASM0202      Page 9

 155  0055  0700     E  	mov a,ra
 155  0056  0080     E  	mov _builtin_holtek_mant1[0],a
 155  0057  0700     E  	mov a,rh
 155  0058  0080     E  	mov _builtin_holtek_mant12p[1],a
 155  0059  0700     E  	mov a,rg
 155  005A  0080     E  	mov _builtin_holtek_mant2[2],a
 155  005B  0700     E  	mov a,rf
 155  005C  0080     E  	mov _builtin_holtek_mant2[1],a
 155  005D  0700     E  	mov a,re
 155  005E  0080     E  	mov _builtin_holtek_mant2[0],a
 155  005F  2000     E  	call _builtin_holtek_dtdiv
 155  0060  0700     E  	mov a,_builtin_holtek_mant12p[0]
 155  0061  0080     E  	mov rh,a
 155  0062  0700     E  	mov a,_builtin_holtek_mant1[2]
 155  0063  0080     E  	mov rg,a
 155  0064  0700     E  	mov a,_builtin_holtek_mant1[1]
 155  0065  0080     E  	mov rf,a
 155  0066  0700     E  	mov a,_builtin_holtek_mant1[0]
 155  0067  0080     E  	mov re,a
 155  0068  0700     E  	mov a,rh
 155  0069  0080     E  	mov _builtin_holtek_mant12p[0],a
 155  006A  0700     E  	mov a,rg
 155  006B  0080     E  	mov _builtin_holtek_mant1[2],a
 155  006C  0700     E  	mov a,rf
 155  006D  0080     E  	mov _builtin_holtek_mant1[1],a
 155  006E  0700     E  	mov a,re
 155  006F  0080     E  	mov _builtin_holtek_mant1[0],a
 155  0070  0F3F        	mov a,63
 155  0071  0080     E  	mov _builtin_holtek_mant12p[1],a
 155  0072  0F99        	mov a,153
 155  0073  0080     E  	mov _builtin_holtek_mant2[2],a
 155  0074  0F99        	mov a,153
 155  0075  0080     E  	mov _builtin_holtek_mant2[1],a
 155  0076  0F9A        	mov a,154
 155  0077  0080     E  	mov _builtin_holtek_mant2[0],a
 155  0078  2000     E  	call _builtin_holtek_dtmul
 155  0079  0700     E  	mov a,_builtin_holtek_mant12p[0]
 155  007A  0080     E  	mov rg,a
 155  007B  0700     E  	mov a,_builtin_holtek_mant1[2]
 155  007C  0080     E  	mov rf,a
 155  007D  0700     E  	mov a,_builtin_holtek_mant1[1]
 155  007E  0080     E  	mov re,a
 155  007F  0700     E  	mov a,_builtin_holtek_mant1[0]
 155  0080  0080     E  	mov rd,a
 155  0081  0700     E  	mov a,rg
 155  0082  0080     R  	mov _VDD[2],a
 155  0083  0700     E  	mov a,rf
 155  0084  0080     R  	mov _VDD[1],a
 155  0085  0700     E  	mov a,re
 155  0086  0080     R  	mov _VDD[0],a
 158  0087              #line 158 "c:\users\tech\desktop\codetector\co.c"
 158  0087  1F00     R  	clr _tempAmplifier1[0]
 158  0088  1F00     R  	clr _tempAmplifier1[1]
 158  0089  1F00     R  	clr _tempAmplifier1[2]
 159  008A              #line 159 "c:\users\tech\desktop\codetector\co.c"
 159  008A  1F00     R  	clr _Amplifier1[0]
 159  008B  1F00     R  	clr _Amplifier1[1]
 159  008C  1F00     R  	clr _Amplifier1[2]
 161  008D              #line 161 "c:\users\tech\desktop\codetector\co.c"
 161  008D  1F00     R  	clr _i[0]
"File: co.c          Assembler  Version HGASM0202      Page 10

 161  008E              _L21:
 161  008E  0F09        	mov a,9
 161  008F  0200     R  	sub a,_i[0]
 161  0090  3F8A        	sz sc
 161  0091  2800     R  	jmp _L28
 163  0092              #line 163 "c:\users\tech\desktop\codetector\co.c"
 163  0092  0F05        	mov a,5
 163  0093  2000     E  	call _S_READ_ADC
 163  0094  0700     E  	mov a,rb
 163  0095  0080     E  	mov _builtin_holtek_mant1[1],a
 163  0096  0700     E  	mov a,ra
 163  0097  0080     E  	mov _builtin_holtek_mant1[0],a
 163  0098  3400     E  	clr _builtin_holtek_signs.0
 163  0099  2000     E  	call _builtin_holtek_uitof
 163  009A  0700     E  	mov a,_builtin_holtek_mant1[2]
 163  009B  0080     E  	mov re,a
 163  009C  0700     E  	mov a,_builtin_holtek_mant1[1]
 163  009D  0080     E  	mov rd,a
 163  009E  0700     E  	mov a,_builtin_holtek_mant1[0]
 163  009F  0080     E  	mov rc,a
 163  00A0  0700     E  	mov a,rc
 163  00A1  0080     R  	mov _Amplifier1[0],a
 163  00A2  0700     E  	mov a,rd
 163  00A3  0080     R  	mov _Amplifier1[1],a
 163  00A4  0700     E  	mov a,re
 163  00A5  0080     R  	mov _Amplifier1[2],a
 164  00A6              #line 164 "c:\users\tech\desktop\codetector\co.c"
 164  00A6  0700     R  	mov a,_tempAmplifier1[2]
 164  00A7  0080     E  	mov _builtin_holtek_mant1[2],a
 164  00A8  0700     R  	mov a,_tempAmplifier1[1]
 164  00A9  0080     E  	mov _builtin_holtek_mant1[1],a
 164  00AA  0700     R  	mov a,_tempAmplifier1[0]
 164  00AB  0080     E  	mov _builtin_holtek_mant1[0],a
 164  00AC  0700     E  	mov a,re
 164  00AD  0080     E  	mov _builtin_holtek_mant2[2],a
 164  00AE  0700     E  	mov a,rd
 164  00AF  0080     E  	mov _builtin_holtek_mant2[1],a
 164  00B0  0700     E  	mov a,rc
 164  00B1  0080     E  	mov _builtin_holtek_mant2[0],a
 164  00B2  2000     E  	call _builtin_holtek_ftadd
 164  00B3  0700     E  	mov a,_builtin_holtek_mant1[2]
 164  00B4  0080     R  	mov _tempAmplifier1[2],a
 164  00B5  0700     E  	mov a,_builtin_holtek_mant1[1]
 164  00B6  0080     R  	mov _tempAmplifier1[1],a
 164  00B7  0700     E  	mov a,_builtin_holtek_mant1[0]
 164  00B8  0080     R  	mov _tempAmplifier1[0],a
 161  00B9              #line 161 "c:\users\tech\desktop\codetector\co.c"
 161  00B9  1480     R  	inc _i[0]
 161  00BA  2800     R  	jmp _L21
 161  00BB              _L28:
 167  00BB              #line 167 "c:\users\tech\desktop\codetector\co.c"
 167  00BB  0700     R  	mov a,_tempAmplifier1[2]
 167  00BC  0080     E  	mov _builtin_holtek_mant1[2],a
 167  00BD  0700     R  	mov a,_tempAmplifier1[1]
 167  00BE  0080     E  	mov _builtin_holtek_mant1[1],a
 167  00BF  0700     R  	mov a,_tempAmplifier1[0]
 167  00C0  0080     E  	mov _builtin_holtek_mant1[0],a
 167  00C1  0F41        	mov a,65
 167  00C2  0080     E  	mov _builtin_holtek_mant2[2],a
 167  00C3  0F20        	mov a,32
"File: co.c          Assembler  Version HGASM0202      Page 11

 167  00C4  0080     E  	mov _builtin_holtek_mant2[1],a
 167  00C5  0F00        	mov a,0
 167  00C6  0080     E  	mov _builtin_holtek_mant2[0],a
 167  00C7  2000     E  	call _builtin_holtek_ftdiv
 167  00C8  0700     E  	mov a,_builtin_holtek_mant1[2]
 167  00C9  0080     E  	mov re,a
 167  00CA  0700     E  	mov a,_builtin_holtek_mant1[1]
 167  00CB  0080     E  	mov rd,a
 167  00CC  0700     E  	mov a,_builtin_holtek_mant1[0]
 167  00CD  0080     E  	mov rc,a
 167  00CE  0700     E  	mov a,rc
 167  00CF  0080     R  	mov _Amplifier1[0],a
 167  00D0  0700     E  	mov a,rd
 167  00D1  0080     R  	mov _Amplifier1[1],a
 167  00D2  0700     E  	mov a,re
 167  00D3  0080     R  	mov _Amplifier1[2],a
 168  00D4              #line 168 "c:\users\tech\desktop\codetector\co.c"
 168  00D4  0700     R  	mov a,_VDD[2]
 168  00D5  0080     E  	mov _builtin_holtek_mant1[2],a
 168  00D6  0700     R  	mov a,_VDD[1]
 168  00D7  0080     E  	mov _builtin_holtek_mant1[1],a
 168  00D8  0700     R  	mov a,_VDD[0]
 168  00D9  0080     E  	mov _builtin_holtek_mant1[0],a
 168  00DA  0F45        	mov a,69
 168  00DB  0080     E  	mov _builtin_holtek_mant2[2],a
 168  00DC  0F7F        	mov a,127
 168  00DD  0080     E  	mov _builtin_holtek_mant2[1],a
 168  00DE  0FF0        	mov a,240
 168  00DF  0080     E  	mov _builtin_holtek_mant2[0],a
 168  00E0  2000     E  	call _builtin_holtek_ftdiv
 168  00E1  0700     E  	mov a,_builtin_holtek_mant1[2]
 168  00E2  0080     E  	mov rh,a
 168  00E3  0700     E  	mov a,_builtin_holtek_mant1[1]
 168  00E4  0080     E  	mov rg,a
 168  00E5  0700     E  	mov a,_builtin_holtek_mant1[0]
 168  00E6  0080     E  	mov rf,a
 168  00E7  0700     E  	mov a,re
 168  00E8  0080     E  	mov _builtin_holtek_mant1[2],a
 168  00E9  0700     E  	mov a,rd
 168  00EA  0080     E  	mov _builtin_holtek_mant1[1],a
 168  00EB  0700     E  	mov a,rc
 168  00EC  0080     E  	mov _builtin_holtek_mant1[0],a
 168  00ED  0700     E  	mov a,rh
 168  00EE  0080     E  	mov _builtin_holtek_mant2[2],a
 168  00EF  0700     E  	mov a,rg
 168  00F0  0080     E  	mov _builtin_holtek_mant2[1],a
 168  00F1  0700     E  	mov a,rf
 168  00F2  0080     E  	mov _builtin_holtek_mant2[0],a
 168  00F3  2000     E  	call _builtin_holtek_ftmul
 168  00F4  0700     E  	mov a,_builtin_holtek_mant1[2]
 168  00F5  0080     E  	mov re,a
 168  00F6  0700     E  	mov a,_builtin_holtek_mant1[1]
 168  00F7  0080     E  	mov rd,a
 168  00F8  0700     E  	mov a,_builtin_holtek_mant1[0]
 168  00F9  0080     E  	mov rc,a
 168  00FA  0700     E  	mov a,re
 168  00FB  0080     E  	mov rg,a
 168  00FC  0700     E  	mov a,rd
 168  00FD  0080     E  	mov rf,a
 168  00FE  0700     E  	mov a,rc
"File: co.c          Assembler  Version HGASM0202      Page 12

 168  00FF  0080     E  	mov re,a
 168  0100  1F00     E  	clr rd
 168  0101  0700     E  	mov a,rg
 168  0102  0080     E  	mov _builtin_holtek_mant12p[0],a
 168  0103  0700     E  	mov a,rf
 168  0104  0080     E  	mov _builtin_holtek_mant1[2],a
 168  0105  0700     E  	mov a,re
 168  0106  0080     E  	mov _builtin_holtek_mant1[1],a
 168  0107  0700     E  	mov a,rd
 168  0108  0080     E  	mov _builtin_holtek_mant1[0],a
 168  0109  0F40        	mov a,64
 168  010A  0080     E  	mov _builtin_holtek_mant12p[1],a
 168  010B  0FD5        	mov a,213
 168  010C  0080     E  	mov _builtin_holtek_mant2[2],a
 168  010D  0F55        	mov a,85
 168  010E  0080     E  	mov _builtin_holtek_mant2[1],a
 168  010F  0F55        	mov a,85
 168  0110  0080     E  	mov _builtin_holtek_mant2[0],a
 168  0111  2000     E  	call _builtin_holtek_dtdiv
 168  0112  0700     E  	mov a,_builtin_holtek_mant12p[0]
 168  0113  0080     E  	mov rg,a
 168  0114  0700     E  	mov a,_builtin_holtek_mant1[2]
 168  0115  0080     E  	mov rf,a
 168  0116  0700     E  	mov a,_builtin_holtek_mant1[1]
 168  0117  0080     E  	mov re,a
 168  0118  0700     E  	mov a,_builtin_holtek_mant1[0]
 168  0119  0080     E  	mov rd,a
 168  011A  0700     E  	mov a,rg
 168  011B  0080     E  	mov _builtin_holtek_mant12p[0],a
 168  011C  0700     E  	mov a,rf
 168  011D  0080     E  	mov _builtin_holtek_mant1[2],a
 168  011E  0700     E  	mov a,re
 168  011F  0080     E  	mov _builtin_holtek_mant1[1],a
 168  0120  0700     E  	mov a,rd
 168  0121  0080     E  	mov _builtin_holtek_mant1[0],a
 168  0122  0F44        	mov a,68
 168  0123  0080     E  	mov _builtin_holtek_mant12p[1],a
 168  0124  0F7A        	mov a,122
 168  0125  0080     E  	mov _builtin_holtek_mant2[2],a
 168  0126  0F00        	mov a,0
 168  0127  0080     E  	mov _builtin_holtek_mant2[1],a
 168  0128  0F00        	mov a,0
 168  0129  0080     E  	mov _builtin_holtek_mant2[0],a
 168  012A  2000     E  	call _builtin_holtek_dtmul
 168  012B  0700     E  	mov a,_builtin_holtek_mant12p[0]
 168  012C  0080     E  	mov rg,a
 168  012D  0700     E  	mov a,_builtin_holtek_mant1[2]
 168  012E  0080     E  	mov rf,a
 168  012F  0700     E  	mov a,_builtin_holtek_mant1[1]
 168  0130  0080     E  	mov re,a
 168  0131  0700     E  	mov a,_builtin_holtek_mant1[0]
 168  0132  0080     E  	mov rd,a
 168  0133  0700     E  	mov a,rg
 168  0134  0080     E  	mov _builtin_holtek_mant12p[0],a
 168  0135  0700     E  	mov a,rf
 168  0136  0080     E  	mov _builtin_holtek_mant1[2],a
 168  0137  0700     E  	mov a,re
 168  0138  0080     E  	mov _builtin_holtek_mant1[1],a
 168  0139  0700     E  	mov a,rd
 168  013A  0080     E  	mov _builtin_holtek_mant1[0],a
"File: co.c          Assembler  Version HGASM0202      Page 13

 168  013B  0F41        	mov a,65
 168  013C  0080     E  	mov _builtin_holtek_mant12p[1],a
 168  013D  0F70        	mov a,112
 168  013E  0080     E  	mov _builtin_holtek_mant2[2],a
 168  013F  0F00        	mov a,0
 168  0140  0080     E  	mov _builtin_holtek_mant2[1],a
 168  0141  0F00        	mov a,0
 168  0142  0080     E  	mov _builtin_holtek_mant2[0],a
 168  0143  2000     E  	call _builtin_holtek_dtdiv
 168  0144  0700     E  	mov a,_builtin_holtek_mant12p[0]
 168  0145  0080     E  	mov rg,a
 168  0146  0700     E  	mov a,_builtin_holtek_mant1[2]
 168  0147  0080     E  	mov rf,a
 168  0148  0700     E  	mov a,_builtin_holtek_mant1[1]
 168  0149  0080     E  	mov re,a
 168  014A  0700     E  	mov a,_builtin_holtek_mant1[0]
 168  014B  0080     E  	mov rd,a
 168  014C  0700     E  	mov a,rg
 168  014D  0080     E  	mov _builtin_holtek_mant12p[0],a
 168  014E  0700     E  	mov a,rf
 168  014F  0080     E  	mov _builtin_holtek_mant1[2],a
 168  0150  0700     E  	mov a,re
 168  0151  0080     E  	mov _builtin_holtek_mant1[1],a
 168  0152  0700     E  	mov a,rd
 168  0153  0080     E  	mov _builtin_holtek_mant1[0],a
 168  0154  0F44        	mov a,68
 168  0155  0080     E  	mov _builtin_holtek_mant12p[1],a
 168  0156  0F7A        	mov a,122
 168  0157  0080     E  	mov _builtin_holtek_mant2[2],a
 168  0158  0F00        	mov a,0
 168  0159  0080     E  	mov _builtin_holtek_mant2[1],a
 168  015A  0F00        	mov a,0
 168  015B  0080     E  	mov _builtin_holtek_mant2[0],a
 168  015C  2000     E  	call _builtin_holtek_dtmul
 168  015D  0700     E  	mov a,_builtin_holtek_mant12p[0]
 168  015E  0080     E  	mov rg,a
 168  015F  0700     E  	mov a,_builtin_holtek_mant1[2]
 168  0160  0080     E  	mov rf,a
 168  0161  0700     E  	mov a,_builtin_holtek_mant1[1]
 168  0162  0080     E  	mov re,a
 168  0163  0700     E  	mov a,_builtin_holtek_mant1[0]
 168  0164  0080     E  	mov rd,a
 168  0165  0700     E  	mov a,re
 168  0166  0080     E  	mov rc,a
 168  0167  0700     E  	mov a,rf
 168  0168  0080     E  	mov rd,a
 168  0169  0700     E  	mov a,rg
 168  016A  0080     E  	mov re,a
 168  016B  0700     E  	mov a,rc
 168  016C  0080     R  	mov _VAmplifier1[0],a
 168  016D  0700     E  	mov a,rd
 168  016E  0080     R  	mov _VAmplifier1[1],a
 168  016F  0700     E  	mov a,re
 168  0170  0080     R  	mov _VAmplifier1[2],a
 169  0171              #line 169 "c:\users\tech\desktop\codetector\co.c"
 169  0171  0700     E  	mov a,re
 169  0172  0080     E  	mov rg,a
 169  0173  0700     E  	mov a,rd
 169  0174  0080     E  	mov rf,a
 169  0175  0700     E  	mov a,rc
"File: co.c          Assembler  Version HGASM0202      Page 14

 169  0176  0080     E  	mov re,a
 169  0177  1F00     E  	clr rd
 169  0178  0700     E  	mov a,rg
 169  0179  0080     E  	mov _builtin_holtek_mant12p[0],a
 169  017A  0700     E  	mov a,rf
 169  017B  0080     E  	mov _builtin_holtek_mant1[2],a
 169  017C  0700     E  	mov a,re
 169  017D  0080     E  	mov _builtin_holtek_mant1[1],a
 169  017E  0700     E  	mov a,rd
 169  017F  0080     E  	mov _builtin_holtek_mant1[0],a
 169  0180  0F3C        	mov a,60
 169  0181  0080     E  	mov _builtin_holtek_mant12p[1],a
 169  0182  0FE1        	mov a,225
 169  0183  0080     E  	mov _builtin_holtek_mant2[2],a
 169  0184  0F47        	mov a,71
 169  0185  0080     E  	mov _builtin_holtek_mant2[1],a
 169  0186  0FAE        	mov a,174
 169  0187  0080     E  	mov _builtin_holtek_mant2[0],a
 169  0188  2000     E  	call _builtin_holtek_dtmul
 169  0189  0700     E  	mov a,_builtin_holtek_mant12p[0]
 169  018A  0080     E  	mov rg,a
 169  018B  0700     E  	mov a,_builtin_holtek_mant1[2]
 169  018C  0080     E  	mov rf,a
 169  018D  0700     E  	mov a,_builtin_holtek_mant1[1]
 169  018E  0080     E  	mov re,a
 169  018F  0700     E  	mov a,_builtin_holtek_mant1[0]
 169  0190  0080     E  	mov rd,a
 169  0191  0700     E  	mov a,rg
 169  0192  0080     R  	mov _COValue[2],a
 169  0193  0700     E  	mov a,rf
 169  0194  0080     R  	mov _COValue[1],a
 169  0195  0700     E  	mov a,re
 169  0196  0080     R  	mov _COValue[0],a
 186  0197              #line 186 "c:\users\tech\desktop\codetector\co.c"
 186  0197  2000     E  	call _clearSegment
 187  0198              #line 187 "c:\users\tech\desktop\codetector\co.c"
 187  0198  3216        	set [22].4
 188  0199              #line 188 "c:\users\tech\desktop\codetector\co.c"
 188  0199  3217        	set [23].4
 189  019A              #line 189 "c:\users\tech\desktop\codetector\co.c"
 189  019A  0F38        	mov a,56
 189  019B  0097        	mov [23],a
 191  019C              #line 191 "c:\users\tech\desktop\codetector\co.c"
 191  019C  1F00     R  	clr _pressFlag[0]
 193  019D              #line 193 "c:\users\tech\desktop\codetector\co.c"
 193  019D  1F00     R  	clr _debounceCounter[0]
 193  019E  1F00     R  	clr _debounceCounter[1]
 193  019F              _L27:
 203  019F              #line 203 "c:\users\tech\desktop\codetector\co.c"
 203  019F  1F00     R  	clr _buttonStatus[0]
 203  01A0  1F00     R  	clr _buttonStatus[1]
 204  01A1              #line 204 "c:\users\tech\desktop\codetector\co.c"
 204  01A1  3216        	set [22].4
 205  01A2              #line 205 "c:\users\tech\desktop\codetector\co.c"
 205  01A2  3217        	set [23].4
 206  01A3              #line 206 "c:\users\tech\desktop\codetector\co.c"
 206  01A3  0F38        	mov a,56
 206  01A4  0097        	mov [23],a
 207  01A5              #line 207 "c:\users\tech\desktop\codetector\co.c"
 207  01A5  2000     E  	call _clearSegment
"File: co.c          Assembler  Version HGASM0202      Page 15

 210  01A6              #line 210 "c:\users\tech\desktop\codetector\co.c"
 210  01A6  2000     R  	call _key
 213  01A7              #line 213 "c:\users\tech\desktop\codetector\co.c"
 213  01A7  3216        	set [22].4
 214  01A8              #line 214 "c:\users\tech\desktop\codetector\co.c"
 214  01A8  3217        	set [23].4
 215  01A9              #line 215 "c:\users\tech\desktop\codetector\co.c"
 215  01A9  0F38        	mov a,56
 215  01AA  0097        	mov [23],a
 216  01AB              #line 216 "c:\users\tech\desktop\codetector\co.c"
 216  01AB  2000     E  	call _clearSegment
 221  01AC              #line 221 "c:\users\tech\desktop\codetector\co.c"
 221  01AC  0700     R  	mov a,_buttonStatus[0]
 221  01AD  0500     R  	or a,_buttonStatus[1]
 221  01AE  390A        	snz z
 221  01AF  2800     R  	jmp _L23
 224  01B0              #line 224 "c:\users\tech\desktop\codetector\co.c"
 224  01B0  2000     E  	call _clearSegment
 226  01B1              #line 226 "c:\users\tech\desktop\codetector\co.c"
 226  01B1  3216        	set [22].4
 227  01B2              #line 227 "c:\users\tech\desktop\codetector\co.c"
 227  01B2  3217        	set [23].4
 227  01B3              _L23:
 229  01B3              #line 229 "c:\users\tech\desktop\codetector\co.c"
 229  01B3  0700     R  	mov a,_buttonStatus[0]
 229  01B4  0C02        	xor a,2
 229  01B5  0500     R  	or a,_buttonStatus[1]
 229  01B6  390A        	snz z
 229  01B7  2800     R  	jmp _L24
 232  01B8              #line 232 "c:\users\tech\desktop\codetector\co.c"
 232  01B8  2000     E  	call _clearSegment
 234  01B9              #line 234 "c:\users\tech\desktop\codetector\co.c"
 234  01B9  1F00     E  	clr _builtin_holtek_mant12p[0]
 234  01BA  0700     R  	mov a,_COValue[2]
 234  01BB  0080     E  	mov _builtin_holtek_mant1[2],a
 234  01BC  0700     R  	mov a,_COValue[1]
 234  01BD  0080     E  	mov _builtin_holtek_mant1[1],a
 234  01BE  0700     R  	mov a,_COValue[0]
 234  01BF  0080     E  	mov _builtin_holtek_mant1[0],a
 234  01C0  2000     E  	call _builtin_holtek_ftol
 234  01C1  0700     E  	mov a,_builtin_holtek_mant12p[0]
 234  01C2  0080     E  	mov rg,a
 234  01C3  0700     E  	mov a,_builtin_holtek_mant1[2]
 234  01C4  0080     E  	mov rf,a
 234  01C5  0700     E  	mov a,_builtin_holtek_mant1[1]
 234  01C6  0080     E  	mov re,a
 234  01C7  0700     E  	mov a,_builtin_holtek_mant1[0]
 234  01C8  0080     E  	mov rd,a
 234  01C9  0700     E  	mov a,rd
 234  01CA  0080     E  	mov _shwoSegment_2[0],a
 234  01CB  0700     E  	mov a,re
 234  01CC  0080     E  	mov _shwoSegment_2[1],a
 234  01CD  2000     E  	call _shwoSegment
 235  01CE              #line 235 "c:\users\tech\desktop\codetector\co.c"
 235  01CE  2000     E  	call _clearSegment
 235  01CF              _L24:
 237  01CF              #line 237 "c:\users\tech\desktop\codetector\co.c"
 237  01CF  0700     R  	mov a,_buttonStatus[0]
 237  01D0  0C01        	xor a,1
 237  01D1  0500     R  	or a,_buttonStatus[1]
"File: co.c          Assembler  Version HGASM0202      Page 16

 237  01D2  390A        	snz z
 237  01D3  2800     R  	jmp _L25
 239  01D4              #line 239 "c:\users\tech\desktop\codetector\co.c"
 239  01D4  2000     E  	call _clearSegment
 240  01D5              #line 240 "c:\users\tech\desktop\codetector\co.c"
 240  01D5  0700     R  	mov a,_temperatur[2]
 240  01D6  0080     E  	mov _builtin_holtek_mant1[2],a
 240  01D7  0700     R  	mov a,_temperatur[1]
 240  01D8  0080     E  	mov _builtin_holtek_mant1[1],a
 240  01D9  0700     R  	mov a,_temperatur[0]
 240  01DA  0080     E  	mov _builtin_holtek_mant1[0],a
 240  01DB  0F41        	mov a,65
 240  01DC  0080     E  	mov _builtin_holtek_mant2[2],a
 240  01DD  0F20        	mov a,32
 240  01DE  0080     E  	mov _builtin_holtek_mant2[1],a
 240  01DF  0F00        	mov a,0
 240  01E0  0080     E  	mov _builtin_holtek_mant2[0],a
 240  01E1  2000     E  	call _builtin_holtek_ftdiv
 240  01E2  0700     E  	mov a,_builtin_holtek_mant1[2]
 240  01E3  0080     E  	mov re,a
 240  01E4  0700     E  	mov a,_builtin_holtek_mant1[1]
 240  01E5  0080     E  	mov rd,a
 240  01E6  0700     E  	mov a,_builtin_holtek_mant1[0]
 240  01E7  0080     E  	mov rc,a
 240  01E8  1F00     E  	clr _builtin_holtek_mant12p[0]
 240  01E9  0700     E  	mov a,re
 240  01EA  0080     E  	mov _builtin_holtek_mant1[2],a
 240  01EB  0700     E  	mov a,rd
 240  01EC  0080     E  	mov _builtin_holtek_mant1[1],a
 240  01ED  0700     E  	mov a,rc
 240  01EE  0080     E  	mov _builtin_holtek_mant1[0],a
 240  01EF  2000     E  	call _builtin_holtek_ftol
 240  01F0  0700     E  	mov a,_builtin_holtek_mant12p[0]
 240  01F1  0080     E  	mov rg,a
 240  01F2  0700     E  	mov a,_builtin_holtek_mant1[2]
 240  01F3  0080     E  	mov rf,a
 240  01F4  0700     E  	mov a,_builtin_holtek_mant1[1]
 240  01F5  0080     E  	mov re,a
 240  01F6  0700     E  	mov a,_builtin_holtek_mant1[0]
 240  01F7  0080     E  	mov rd,a
 240  01F8  0700     E  	mov a,rd
 240  01F9  0080     E  	mov _shwoSegment_2[0],a
 240  01FA  0700     E  	mov a,re
 240  01FB  0080     E  	mov _shwoSegment_2[1],a
 240  01FC  2000     E  	call _shwoSegment
 241  01FD              #line 241 "c:\users\tech\desktop\codetector\co.c"
 241  01FD  2000     E  	call _clearSegment
 241  01FE              _L25:
 245  01FE              #line 245 "c:\users\tech\desktop\codetector\co.c"
 245  01FE  0700     R  	mov a,_buttonStatus[0]
 245  01FF  0C03        	xor a,3
 245  0200  0500     R  	or a,_buttonStatus[1]
 245  0201  390A        	snz z
 245  0202  2800     R  	jmp _L26
 247  0203              #line 247 "c:\users\tech\desktop\codetector\co.c"
 247  0203  2000     E  	call _clearSegment
 248  0204              #line 248 "c:\users\tech\desktop\codetector\co.c"
 248  0204  0F4D        	mov a,77
 248  0205  0080     E  	mov _shwoSegment_2[0],a
 248  0206  0F01        	mov a,1
"File: co.c          Assembler  Version HGASM0202      Page 17

 248  0207  0080     E  	mov _shwoSegment_2[1],a
 248  0208  2000     E  	call _shwoSegment
 249  0209              #line 249 "c:\users\tech\desktop\codetector\co.c"
 249  0209  2000     E  	call _clearSegment
 250  020A              #line 250 "c:\users\tech\desktop\codetector\co.c"
 250  020A  1F00     R  	clr _cunter[0]
 250  020B  1F00     R  	clr _cunter[1]
 251  020C              #line 251 "c:\users\tech\desktop\codetector\co.c"
 251  020C  3216        	set [22].4
 252  020D              #line 252 "c:\users\tech\desktop\codetector\co.c"
 252  020D  3217        	set [23].4
 252  020E              _L26:
 257  020E              #line 257 "c:\users\tech\desktop\codetector\co.c"
 257  020E  2000     E  	call _clearSegment
 259  020F              #line 259 "c:\users\tech\desktop\codetector\co.c"
 259  020F  3216        	set [22].4
 260  0210              #line 260 "c:\users\tech\desktop\codetector\co.c"
 260  0210  3217        	set [23].4
 261  0211              #line 261 "c:\users\tech\desktop\codetector\co.c"
 261  0211  0F01        	mov a,1
 261  0212  0080     R  	mov _cunter[0],a
 261  0213  1F00     R  	clr _cunter[1]
 269  0214              #line 269 "c:\users\tech\desktop\codetector\co.c"
 269  0214  2800     R  	jmp _L27
 269  0215              #pragma debug scope 3 1
 269  0215  2800     R  	jmp $
 269  0216              _main endp
 269  0216              
 269  0216              @dummy endp
 269  0216              
 269  0216              #line 269 "c:\users\tech\desktop\codetector\co.c"
 269  0216              #pragma debug scope 1 1
 269  0216              public _VDD
 269  0000              @HCCINIT	.section 'data'
  86  0000              #line 86 "c:\users\tech\desktop\codetector\co.c"
  86  0000              @HCCINIT_VDD .section 'data'
  86  0000              _VDD label byte
  86  0000              #pragma debug variable 28 1 _VDD "VDD"
  86  0000              	db 0
  86  0000              @ROMDATA_BASE .section inpage 'code'
  86  0000              	db 0
  86  0001              @HCCINIT_VDD .section 'data'
  86  0001              	db 0
  86  0001              @ROMDATA_BASE .section inpage 'code'
  86  0001              	db 0
  86  0002              @HCCINIT_VDD .section 'data'
  86  0002              	db 0
  86  0001              @ROMDATA_BASE .section inpage 'code'
  86  0001              	db 0
  86  0003              @HCCINIT_VDD .section 'data'
  86  0003              public _pressFlag
  85  0003              #line 85 "c:\users\tech\desktop\codetector\co.c"
  85  0000              @HCCINIT_pressFlag .section 'data'
  85  0000              _pressFlag label byte
  85  0000              #pragma debug variable 7 1 _pressFlag "pressFlag"
  85  0000              	db 0
  85  0002              @ROMDATA_BASE .section inpage 'code'
  85  0002              	db 0
  85  0001              @HCCINIT_pressFlag .section 'data'
  85  0001              public _flag
"File: co.c          Assembler  Version HGASM0202      Page 18

  84  0001              #line 84 "c:\users\tech\desktop\codetector\co.c"
  84  0000              @HCCINIT_flag .section 'data'
  84  0000              _flag label byte
  84  0000              #pragma debug variable 7 1 _flag "flag"
  84  0000              	db 2
  84  0002              @ROMDATA_BASE .section inpage 'code'
  84  0002              	db 2
  84  0001              @HCCINIT_flag .section 'data'
  84  0001              public _dot
  82  0001              #line 82 "c:\users\tech\desktop\codetector\co.c"
  82  0000              @HCCINIT_dot .section 'data'
  82  0000              _dot label byte
  82  0000              #pragma debug variable 7 1 _dot "dot"
  82  0000              	db 0
  82  0003              @ROMDATA_BASE .section inpage 'code'
  82  0003              	db 0
  82  0001              @HCCINIT_dot .section 'data'
  81  0001              #line 81 "c:\users\tech\desktop\codetector\co.c"
  81  0001              public _debounceCounter
  81  0000              @HCCINIT0_debounceCounter .section 'data'
  81  0000  0002[       _debounceCounter	db 2 dup(0)
            00
            ]
  81  0002              #pragma debug variable 11 1 _debounceCounter "debounceCounter"
  81  0002              
  81  0000              @HCCINIT .section 'data'
  81  0000              public _pressCount
  83  0000              #line 83 "c:\users\tech\desktop\codetector\co.c"
  83  0000              @HCCINIT_pressCount .section 'data'
  83  0000              _pressCount label byte
  83  0000              #pragma debug variable 11 1 _pressCount "pressCount"
  83  0000              	db 0
  83  0003              @ROMDATA_BASE .section inpage 'code'
  83  0003              	db 0
  83  0001              @HCCINIT_pressCount .section 'data'
  83  0001              	db 0
  83  0004              @ROMDATA_BASE .section inpage 'code'
  83  0004              	db 0
  83  0002              @HCCINIT_pressCount .section 'data'
  78  0002              #line 78 "c:\users\tech\desktop\codetector\co.c"
  78  0002              public _buttonStatus
  78  0000              @HCCINIT0_buttonStatus .section 'data'
  78  0000  0002[       _buttonStatus	db 2 dup(0)
            00
            ]
  78  0002              #pragma debug variable 12 1 _buttonStatus "buttonStatus"
  78  0002              
  78  0000              @HCCINIT .section 'data'
  64  0000              #line 64 "c:\users\tech\desktop\codetector\co.c"
  64  0000              public _state
  64  0000              @HCCINIT0_state .section 'data'
  64  0000  0002[       _state	db 2 dup(0)
            00
            ]
  64  0002              #pragma debug variable 11 1 _state "state"
  64  0002              
  64  0000              @HCCINIT .section 'data'
  63  0000              #line 63 "c:\users\tech\desktop\codetector\co.c"
  63  0000              public _currentTime
  63  0000              @HCCINIT0_currentTime .section 'data'
"File: co.c          Assembler  Version HGASM0202      Page 19

  63  0000  0002[       _currentTime	db 2 dup(0)
            00
            ]
  63  0002              #pragma debug variable 11 1 _currentTime "currentTime"
  63  0002              
  63  0000              @HCCINIT .section 'data'
  62  0000              #line 62 "c:\users\tech\desktop\codetector\co.c"
  62  0000              public _i
  62  0000              @HCCINIT0_i .section 'data'
  62  0000              _i	db 0
  62  0001              #pragma debug variable 7 1 _i "i"
  62  0001              
  62  0000              @HCCINIT .section 'data'
  62  0000              public _cunter
  61  0000              #line 61 "c:\users\tech\desktop\codetector\co.c"
  61  0000              @HCCINIT_cunter .section 'data'
  61  0000              _cunter label byte
  61  0000              #pragma debug variable 11 1 _cunter "cunter"
  61  0000              	db 0
  61  0004              @ROMDATA_BASE .section inpage 'code'
  61  0004              	db 0
  61  0001              @HCCINIT_cunter .section 'data'
  61  0001              	db 0
  61  0005              @ROMDATA_BASE .section inpage 'code'
  61  0005              	db 0
  61  0002              @HCCINIT_cunter .section 'data'
  58  0002              #line 58 "c:\users\tech\desktop\codetector\co.c"
  58  0002              public _my_E2
  58  0000              @HCCINIT0_my_E2 .section 'data'
  58  0000  0002[       _my_E2	db 2 dup(0)
            00
            ]
  58  0002              #pragma debug variable 11 1 _my_E2 "my_E2"
  58  0002              
  58  0000              @HCCINIT .section 'data'
  57  0000              #line 57 "c:\users\tech\desktop\codetector\co.c"
  57  0000              public _my_E
  57  0000              @HCCINIT0_my_E .section 'data'
  57  0000  0002[       _my_E	db 2 dup(0)
            00
            ]
  57  0002              #pragma debug variable 11 1 _my_E "my_E"
  57  0002              
  57  0000              @HCCINIT .section 'data'
  57  0000              public _keyCounter
  55  0000              #line 55 "c:\users\tech\desktop\codetector\co.c"
  55  0000              @HCCINIT_keyCounter .section 'data'
  55  0000              _keyCounter label byte
  55  0000              #pragma debug variable 12 1 _keyCounter "keyCounter"
  55  0000              	db 0
  55  0005              @ROMDATA_BASE .section inpage 'code'
  55  0005              	db 0
  55  0001              @HCCINIT_keyCounter .section 'data'
  55  0001              	db 0
  55  0006              @ROMDATA_BASE .section inpage 'code'
  55  0006              	db 0
  55  0002              @HCCINIT_keyCounter .section 'data'
  55  0002              public _TimerValue
  54  0002              #line 54 "c:\users\tech\desktop\codetector\co.c"
  54  0000              @HCCINIT_TimerValue .section 'data'
"File: co.c          Assembler  Version HGASM0202      Page 20

  54  0000              _TimerValue label byte
  54  0000              #pragma debug variable 12 1 _TimerValue "TimerValue"
  54  0000              	db 0
  54  0006              @ROMDATA_BASE .section inpage 'code'
  54  0006              	db 0
  54  0001              @HCCINIT_TimerValue .section 'data'
  54  0001              	db 0
  54  0007              @ROMDATA_BASE .section inpage 'code'
  54  0007              	db 0
  54  0002              @HCCINIT_TimerValue .section 'data'
  54  0002              public _VAmplifier1
  53  0002              #line 53 "c:\users\tech\desktop\codetector\co.c"
  53  0000              @HCCINIT_VAmplifier1 .section 'data'
  53  0000              _VAmplifier1 label byte
  53  0000              #pragma debug variable 28 1 _VAmplifier1 "VAmplifier1"
  53  0000              	db 0
  53  0007              @ROMDATA_BASE .section inpage 'code'
  53  0007              	db 0
  53  0001              @HCCINIT_VAmplifier1 .section 'data'
  53  0001              	db 0
  53  0008              @ROMDATA_BASE .section inpage 'code'
  53  0008              	db 0
  53  0002              @HCCINIT_VAmplifier1 .section 'data'
  53  0002              	db 0
  53  0008              @ROMDATA_BASE .section inpage 'code'
  53  0008              	db 0
  53  0003              @HCCINIT_VAmplifier1 .section 'data'
  53  0003              public _tempAmplifier1
  52  0003              #line 52 "c:\users\tech\desktop\codetector\co.c"
  52  0000              @HCCINIT_tempAmplifier1 .section 'data'
  52  0000              _tempAmplifier1 label byte
  52  0000              #pragma debug variable 28 1 _tempAmplifier1 "tempAmplifier1"
  52  0000              	db 0
  52  0009              @ROMDATA_BASE .section inpage 'code'
  52  0009              	db 0
  52  0001              @HCCINIT_tempAmplifier1 .section 'data'
  52  0001              	db 0
  52  0009              @ROMDATA_BASE .section inpage 'code'
  52  0009              	db 0
  52  0002              @HCCINIT_tempAmplifier1 .section 'data'
  52  0002              	db 0
  52  000A              @ROMDATA_BASE .section inpage 'code'
  52  000A              	db 0
  52  0003              @HCCINIT_tempAmplifier1 .section 'data'
  52  0003              public _Amplifier1
  51  0003              #line 51 "c:\users\tech\desktop\codetector\co.c"
  51  0000              @HCCINIT_Amplifier1 .section 'data'
  51  0000              _Amplifier1 label byte
  51  0000              #pragma debug variable 28 1 _Amplifier1 "Amplifier1"
  51  0000              	db 0
  51  000A              @ROMDATA_BASE .section inpage 'code'
  51  000A              	db 0
  51  0001              @HCCINIT_Amplifier1 .section 'data'
  51  0001              	db 0
  51  000B              @ROMDATA_BASE .section inpage 'code'
  51  000B              	db 0
  51  0002              @HCCINIT_Amplifier1 .section 'data'
  51  0002              	db 0
  51  000B              @ROMDATA_BASE .section inpage 'code'
  51  000B              	db 0
"File: co.c          Assembler  Version HGASM0202      Page 21

  51  0003              @HCCINIT_Amplifier1 .section 'data'
  51  0003              public _temperatur
  50  0003              #line 50 "c:\users\tech\desktop\codetector\co.c"
  50  0000              @HCCINIT_temperatur .section 'data'
  50  0000              _temperatur label byte
  50  0000              #pragma debug variable 28 1 _temperatur "temperatur"
  50  0000              	db 0
  50  000C              @ROMDATA_BASE .section inpage 'code'
  50  000C              	db 0
  50  0001              @HCCINIT_temperatur .section 'data'
  50  0001              	db 0
  50  000C              @ROMDATA_BASE .section inpage 'code'
  50  000C              	db 0
  50  0002              @HCCINIT_temperatur .section 'data'
  50  0002              	db 0
  50  000D              @ROMDATA_BASE .section inpage 'code'
  50  000D              	db 0
  50  0003              @HCCINIT_temperatur .section 'data'
  50  0003              public _COValue
  49  0003              #line 49 "c:\users\tech\desktop\codetector\co.c"
  49  0000              @HCCINIT_COValue .section 'data'
  49  0000              _COValue label byte
  49  0000              #pragma debug variable 28 1 _COValue "COValue"
  49  0000              	db 0
  49  000D              @ROMDATA_BASE .section inpage 'code'
  49  000D              	db 0
  49  0001              @HCCINIT_COValue .section 'data'
  49  0001              	db 0
  49  000E              @ROMDATA_BASE .section inpage 'code'
  49  000E              	db 0
  49  0002              @HCCINIT_COValue .section 'data'
  49  0002              	db 0
  49  000E              @ROMDATA_BASE .section inpage 'code'
  49  000E              	db 0
  49  0003              @HCCINIT_COValue .section 'data'
  49  0003              #pragma debug struct_end
  49  0003              #pragma debug struct_end
  49  0003              #pragma debug union_end
  49  0003              #pragma debug union_end
  49  0003              #pragma debug variable 43 1 ___status "__status" 1
  49  0003              #pragma debug struct_end
  49  0003              #pragma debug struct_end
  49  0003              #pragma debug union_end
  49  0003              #pragma debug union_end
  49  0003              #pragma debug variable 45 1 ___vbgrc "__vbgrc" 1
  49  0003              #pragma debug struct_end
  49  0003              #pragma debug struct_end
  49  0003              #pragma debug union_end
  49  0003              #pragma debug union_end
  49  0003              #pragma debug variable 47 1 ___pa "__pa" 1
  49  0003              #pragma debug struct_end
  49  0003              #pragma debug struct_end
  49  0003              #pragma debug union_end
  49  0003              #pragma debug union_end
  49  0003              #pragma debug variable 49 1 ___papu "__papu" 1
  49  0003              #pragma debug struct_end
  49  0003              #pragma debug struct_end
  49  0003              #pragma debug union_end
  49  0003              #pragma debug union_end
  49  0003              #pragma debug variable 51 1 ___pawu "__pawu" 1
"File: co.c          Assembler  Version HGASM0202      Page 22

  49  0003              #pragma debug struct_end
  49  0003              #pragma debug struct_end
  49  0003              #pragma debug union_end
  49  0003              #pragma debug union_end
  49  0003              #pragma debug variable 53 1 ___sda0c "__sda0c" 1
  49  0003              #pragma debug struct_end
  49  0003              #pragma debug struct_end
  49  0003              #pragma debug union_end
  49  0003              #pragma debug union_end
  49  0003              #pragma debug variable 55 1 ___sda1c "__sda1c" 1
  49  0003              #pragma debug struct_end
  49  0003              #pragma debug struct_end
  49  0003              #pragma debug union_end
  49  0003              #pragma debug union_end
  49  0003              #pragma debug variable 57 1 ___isgenc "__isgenc" 1
  95  0003              #line 95 "c:\users\tech\desktop\codetector\co.c"
  95  0000              @code .section at 0 'code'
  95  0000  2800     R  	jmp _main_startup1
  95  0001              
  95  0001              extern _clearSegment:near
  95  0001              extern _ClockInit:near
  95  0001              extern _GPIOInit:near
  95  0001              extern _GPIOToGNDCurentInit:near
  95  0001              extern _OPAMPInit:near
  95  0001              extern _S_ADC_Init:near
  95  0001              extern _S_READ_ADC:near
  95  0001              extern _temperature_2:byte
  95  0001              extern _temperature:near
  95  0001              extern _builtin_holtek_mant1:byte
  95  0001              extern _builtin_holtek_mant12p:byte
  95  0001              extern _builtin_holtek_signs:byte
  95  0001              extern _builtin_holtek_uitod:near
  95  0001              extern _builtin_holtek_mant2:byte
  95  0001              extern _builtin_holtek_dtdiv:near
  95  0001              extern _builtin_holtek_dtmul:near
  95  0001              extern _builtin_holtek_uitof:near
  95  0001              extern _builtin_holtek_ftadd:near
  95  0001              extern _builtin_holtek_ftdiv:near
  95  0001              extern _builtin_holtek_ftmul:near
  95  0001              extern _builtin_holtek_ftol:near
  95  0001              extern _shwoSegment_2:byte
  95  0001              extern _shwoSegment:near
  95  0001              
  95  0001              ; 
  95  0001              ; Generated by holtek-gcc v3.19, Sat Sep 23 12:35:32 2023
  95  0001              ; Rebuild 718
  95  0001              ; end of file


        0 Errors, 0