"File: co.c          Assembler  Version HGASM0202      Page 1


   1  0000              ; Generated by holtek-gcc v3.19, Sun Aug 27 12:26:50 2023
   2  0000              ; 
   3  0000              ; Configuration:
   4  0000              ;       with long instruction
   5  0000              ;       Single ROM, Multi-RAM
   6  0000              ;       bits_per_rom_unit:16
   7  0000              ;       with mp1
   8  0000              ;       with tbhp, address(0x9)
   9  0000              ;          Use tabrd-const
  10  0000              ;       
  11  0000              ; SFR address of long-instruction arch:
  12  0000              ;    mp0 = -1,1,0
  13  0000              ;    mp1 = 4,3,2
  14  0000              ;    mp2 = 14,13,12
  15  0000              ;    tbp = 9,7,8
  16  0000              ;    acc = 5
  17  0000              ;    pcl = 6
  18  0000              ;    status = 10
  19  0000              ;    bp = 11
  20  0000              ;    intc = 72
  21  0000              ;       
  22  0000              ;       
  23  0000              ; use 'tabrdc' instead of 'tabrd'
  24  0000              ;       
  25  0000              
  26  0000              #pragma translator "holtek-gcc 4.6.4" "3.19" "build 20130711"
  27  0000              ; Rebuild 718
  28  0000              
  29  0000              ir equ [2]
  30  0000              mp equ [3]
  31  0000              sbp equ [4]
  32  0000              acc equ [5]
  33  0000              bp equ [11]
  34  0000              tblp equ [7]
  35  0000              tbhp equ [9]
  36  0000              status equ [10]
  37  0000              c equ [10].0
  38  0000              ac equ [10].1
  39  0000              z equ [10].2
  40  0000              ov equ [10].3
  41  0000              cz equ [10].6
  42  0000              sc equ [10].7
  43  0000              intc equ [72]
  44  0000              
  45  0000              extern ra:byte
  46  0000              extern rb:byte
  47  0000              extern rc:byte
  48  0000              extern rd:byte
  49  0000              extern re:byte
  50  0000              extern rf:byte
  51  0000              extern rg:byte
  52  0000              extern rh:byte
  53  0000              extern _Crom2Prom:near
  54  0000              extern _Crom2PromNext:near
  55  0000              
  56  0000              RAMBANK 0 @BITDATASEC, @BITDATASEC1
  57  0000              @HCCINIT	.section 'data'
  58  0000              @HCCINIT0	.section 'data'
  59  0000              @BITDATASEC	 .section 'data'
"File: co.ASM        Assembler  Version HGASM0202      Page 2

  60  0000              @BITDATASEC1	 .section 'data'
  61  0000              
  62  0000              #pragma debug scope 1 1
  63  0000              	extern __DELAY3:near
  64  0000              	extern __DELAYX3:near
  65  0000              	extern __DELAYX6:near
  66  0000              	extern __DELAYY5:near
  67  0000              	extern __DELAYY3:near
  68  0000              	extern _builtin_holtek_delay_2:byte
  69  0000              ___sda0vos equ [36]
  70  0000              ___sda0c equ [35]
  71  0000              ___sda1c equ [37]
  72  0000              ___sda1vos equ [38]
  73  0000              ___sadc0 equ [47]
  74  0000              ___sadc1 equ [48]
  75  0000              ___isgenc equ [93]
  76  0000              ___isgdata0 equ [94]
  77  0000              ___isgdata1 equ [95]
  78  0000              public _OPAMPset
  79  0000              #pragma debug scope 2 1

 464  0000              #line 464 "c:\users\tech\desktop\codetector\co.c"
 464  0000              _OPAMPset .section 'code'
 464  0000              _OPAMPset proc
 467  0000              #line 467 "c:\users\tech\desktop\codetector\co.c"
 467  0000  3000     R  	set _FT
 474  0001              #line 474 "c:\users\tech\desktop\codetector\co.c"
 474  0001  33A4        	set [36].7
 475  0002              #line 475 "c:\users\tech\desktop\codetector\co.c"
 475  0002  3324        	set [36].6
 479  0003              #line 479 "c:\users\tech\desktop\codetector\co.c"
 479  0003  3424        	clr [36].0
 480  0004              #line 480 "c:\users\tech\desktop\codetector\co.c"
 480  0004  34A4        	clr [36].1
 481  0005              #line 481 "c:\users\tech\desktop\codetector\co.c"
 481  0005  3524        	clr [36].2
 482  0006              #line 482 "c:\users\tech\desktop\codetector\co.c"
 482  0006  35A4        	clr [36].3
 483  0007              #line 483 "c:\users\tech\desktop\codetector\co.c"
 483  0007  3624        	clr [36].4
 484  0008              #line 484 "c:\users\tech\desktop\codetector\co.c"
 484  0008  36A4        	clr [36].5
 486  0009              #line 486 "c:\users\tech\desktop\codetector\co.c"
 486  0009  1F00     E  	clr ra
 486  000A  3EA3        	sz [35].5
 486  000B  1480     E  	inc ra
 486  000C              	;
 486  000C  3400     R  	clr _opamp0
 486  000D  3C00     E  	sz ra.0
 486  000E  3000     R  	set _opamp0
 486  000F              _L2:
 490  000F              #line 490 "c:\users\tech\desktop\codetector\co.c"
 490  000F  1F00     E  	clr rb
 490  0010  3EA3        	sz [35].5
 490  0011  1480     E  	inc rb
 490  0012  3C00     E  	sz ra.0
 490  0013  2800     R  	jmp _LI1
 490  0014  3C00     E  	sz rb.0
 490  0015  2800     R  	jmp _L3
 490  0016  2800     R  	jmp _LI2
"File: co.c          Assembler  Version HGASM0202      Page 3

 490  0017              _LI1:
 490  0017  3800     E  	snz rb.0
 490  0018  2800     R  	jmp _L3
 490  0019              _LI2:
 491  0019              #line 491 "c:\users\tech\desktop\codetector\co.c"
 491  0019  1624        	siza [36]
 491  001A  2800     R  	jmp _LI3
 491  001B  2800     R  	jmp _L3
 491  001C              _LI3:
 492  001C              #line 492 "c:\users\tech\desktop\codetector\co.c"
 492  001C  14A4        	inc [36]
 492  001D  2800     R  	jmp _L2
 492  001E              _L3:
 495  001E              #line 495 "c:\users\tech\desktop\codetector\co.c"
 495  001E  3C24        	sz [36].0
 495  001F  2800     R  	jmp _L5
 495  0020  3CA4        	sz [36].1
 495  0021  2800     R  	jmp _L5
 495  0022  3D24        	sz [36].2
 495  0023  2800     R  	jmp _L5
 495  0024  3DA4        	sz [36].3
 495  0025  2800     R  	jmp _L5
 495  0026  3E24        	sz [36].4
 495  0027  2800     R  	jmp _L5
 495  0028  0724        	mov a,[36]
 495  0029  0080     E  	mov ra,a
 495  002A              _L5:
 498  002A              #line 498 "c:\users\tech\desktop\codetector\co.c"
 498  002A  3424        	clr [36].0
 499  002B              #line 499 "c:\users\tech\desktop\codetector\co.c"
 499  002B  34A4        	clr [36].1
 500  002C              #line 500 "c:\users\tech\desktop\codetector\co.c"
 500  002C  3524        	clr [36].2
 501  002D              #line 501 "c:\users\tech\desktop\codetector\co.c"
 501  002D  35A4        	clr [36].3
 502  002E              #line 502 "c:\users\tech\desktop\codetector\co.c"
 502  002E  3624        	clr [36].4
 503  002F              #line 503 "c:\users\tech\desktop\codetector\co.c"
 503  002F  36A4        	clr [36].5
 505  0030              #line 505 "c:\users\tech\desktop\codetector\co.c"
 505  0030  1F00     E  	clr ra
 505  0031  3EA3        	sz [35].5
 505  0032  1480     E  	inc ra
 505  0033              	;
 505  0033  3400     R  	clr _opamp0
 505  0034  3C00     E  	sz ra.0
 505  0035  3000     R  	set _opamp0
 509  0036              #line 509 "c:\users\tech\desktop\codetector\co.c"
 509  0036  0724        	mov a,[36]
 509  0037  0080     E  	mov rb,a
 509  0038  0F00        	mov a,0
 509  0039  0200     E  	sub a,rb
 509  003A  0080     E  	mov rc,a
 509  003B  0700     E  	mov a,rc
 509  003C  0580     E  	orm a,rb
 509  003D  1A80     E  	rlc rb
 509  003E  1F00     E  	clr rb
 509  003F  1A80     E  	rlc rb
 509  0040  0700     E  	mov a,rb
 509  0041  0080     E  	mov rd,a
"File: co.c          Assembler  Version HGASM0202      Page 4

 509  0042  1F00     E  	clr re
 509  0043  0700     E  	mov a,rb
 509  0044  0080     R  	mov _VA0OS1[0],a
 509  0045              _L6:
 511  0045              #line 511 "c:\users\tech\desktop\codetector\co.c"
 511  0045  1F00     E  	clr rb
 511  0046  3EA3        	sz [35].5
 511  0047  1480     E  	inc rb
 511  0048  3C00     E  	sz ra.0
 511  0049  2800     R  	jmp _LI4
 511  004A  3C00     E  	sz rb.0
 511  004B  2800     R  	jmp _L11
 511  004C  2800     R  	jmp _LI5
 511  004D              _LI4:
 511  004D  3800     E  	snz rb.0
 511  004E  2800     R  	jmp _L11
 511  004F              _LI5:
 512  004F              #line 512 "c:\users\tech\desktop\codetector\co.c"
 512  004F  15A4        	dec [36]
 513  0050              #line 513 "c:\users\tech\desktop\codetector\co.c"
 513  0050  0724        	mov a,[36]
 513  0051  0AC0        	sub a,192
 513  0052  390A        	snz z
 513  0053  2800     R  	jmp _L6
 513  0054              _L11:
 516  0054              #line 516 "c:\users\tech\desktop\codetector\co.c"
 516  0054  3C24        	sz [36].0
 516  0055  2800     R  	jmp _L28
 516  0056  3CA4        	sz [36].1
 516  0057  2800     R  	jmp _L28
 516  0058  3D24        	sz [36].2
 516  0059  2800     R  	jmp _L28
 516  005A  3DA4        	sz [36].3
 516  005B  2800     R  	jmp _L28
 516  005C  3E24        	sz [36].4
 516  005D  2800     R  	jmp _L28
 516  005E  1F00     E  	clr rb
 516  005F  3EA4        	sz [36].5
 516  0060  1480     E  	inc rb
 516  0061  1F00     E  	clr rc
 516  0062  2800     R  	jmp _L8
 516  0063              _L28:
 516  0063  0F01        	mov a,1
 516  0064  0080     E  	mov rb,a
 516  0065  1F00     E  	clr rc
 516  0066              _L8:
 516  0066  0700     E  	mov a,rb
 516  0067  0080     R  	mov _VA0OS2[0],a
 520  0068              #line 520 "c:\users\tech\desktop\codetector\co.c"
 520  0068  0700     E  	mov a,rd
 520  0069  0380     E  	addm a,rb
 520  006A  0700     E  	mov a,re
 520  006B  1380     E  	adcm a,rc
 520  006C  1A00     E  	rlca rc
 520  006D  1B80     E  	rrc rc
 520  006E  1B80     E  	rrc rb
 520  006F  0700     E  	mov a,rb
 520  0070  0080     R  	mov _VA0OS[0],a
 521  0071              #line 521 "c:\users\tech\desktop\codetector\co.c"
 521  0071  0700     E  	mov a,rb
"File: co.c          Assembler  Version HGASM0202      Page 5

 521  0072  00A4        	mov [36],a
 526  0073              #line 526 "c:\users\tech\desktop\codetector\co.c"
 526  0073  3723        	clr [35].6
 534  0074              #line 534 "c:\users\tech\desktop\codetector\co.c"
 534  0074  3325        	set [37].6
 541  0075              #line 541 "c:\users\tech\desktop\codetector\co.c"
 541  0075  33A6        	set [38].7
 542  0076              #line 542 "c:\users\tech\desktop\codetector\co.c"
 542  0076  3326        	set [38].6
 546  0077              #line 546 "c:\users\tech\desktop\codetector\co.c"
 546  0077  3426        	clr [38].0
 547  0078              #line 547 "c:\users\tech\desktop\codetector\co.c"
 547  0078  34A6        	clr [38].1
 548  0079              #line 548 "c:\users\tech\desktop\codetector\co.c"
 548  0079  3526        	clr [38].2
 549  007A              #line 549 "c:\users\tech\desktop\codetector\co.c"
 549  007A  35A6        	clr [38].3
 550  007B              #line 550 "c:\users\tech\desktop\codetector\co.c"
 550  007B  3626        	clr [38].4
 551  007C              #line 551 "c:\users\tech\desktop\codetector\co.c"
 551  007C  36A6        	clr [38].5
 553  007D              #line 553 "c:\users\tech\desktop\codetector\co.c"
 553  007D  1F00     E  	clr rb
 553  007E  3EA5        	sz [37].5
 553  007F  1480     E  	inc rb
 553  0080              	;
 553  0080  3400     R  	clr _opamp1
 553  0081  3C00     E  	sz rb.0
 553  0082  3000     R  	set _opamp1
 560  0083              #line 560 "c:\users\tech\desktop\codetector\co.c"
 560  0083  0700     R  	mov a,_VA1OS1[0]
 560  0084  0080     E  	mov rd,a
 560  0085  0700     R  	mov a,_VA0OS1[0]
 560  0086  0080     E  	mov ra,a
 560  0087              _L12:
 557  0087              #line 557 "c:\users\tech\desktop\codetector\co.c"
 557  0087  1F00     E  	clr rc
 557  0088  3EA5        	sz [37].5
 557  0089  1480     E  	inc rc
 557  008A  3C00     E  	sz rb.0
 557  008B  2800     R  	jmp _LI6
 557  008C  3C00     E  	sz rc.0
 557  008D  2800     R  	jmp _L40
 557  008E  2800     R  	jmp _LI7
 557  008F              _LI6:
 557  008F  3800     E  	snz rc.0
 557  0090  2800     R  	jmp _L40
 557  0091              _LI7:
 558  0091              #line 558 "c:\users\tech\desktop\codetector\co.c"
 558  0091  14A6        	inc [38]
 559  0092              #line 559 "c:\users\tech\desktop\codetector\co.c"
 559  0092  0726        	mov a,[38]
 559  0093  0080     E  	mov ra,a
 559  0094  0F00        	mov a,0
 559  0095  0200     E  	sub a,ra
 559  0096  0080     E  	mov rc,a
 559  0097  0700     E  	mov a,rc
 559  0098  0580     E  	orm a,ra
 559  0099  1A80     E  	rlc ra
 559  009A  1F00     E  	clr ra
"File: co.c          Assembler  Version HGASM0202      Page 6

 559  009B  1A80     E  	rlc ra
 560  009C              #line 560 "c:\users\tech\desktop\codetector\co.c"
 560  009C  0F3E        	mov a,62
 560  009D  0200     E  	sub a,rd
 560  009E  3B8A        	snz sc
 560  009F  2800     R  	jmp _L12
 560  00A0              _L40:
 560  00A0  0700     E  	mov a,ra
 560  00A1  0080     R  	mov _VA0OS1[0],a
 563  00A2              #line 563 "c:\users\tech\desktop\codetector\co.c"
 563  00A2  3C26        	sz [38].0
 563  00A3  2800     R  	jmp _L14
 563  00A4  3CA6        	sz [38].1
 563  00A5  2800     R  	jmp _L14
 563  00A6  3D26        	sz [38].2
 563  00A7  2800     R  	jmp _L14
 563  00A8  3DA6        	sz [38].3
 563  00A9  2800     R  	jmp _L14
 563  00AA  3E26        	sz [38].4
 563  00AB  2800     R  	jmp _L14
 563  00AC  0726        	mov a,[38]
 563  00AD  0080     E  	mov ra,a
 563  00AE              _L14:
 566  00AE              #line 566 "c:\users\tech\desktop\codetector\co.c"
 566  00AE  3026        	set [38].0
 567  00AF              #line 567 "c:\users\tech\desktop\codetector\co.c"
 567  00AF  30A6        	set [38].1
 568  00B0              #line 568 "c:\users\tech\desktop\codetector\co.c"
 568  00B0  3126        	set [38].2
 569  00B1              #line 569 "c:\users\tech\desktop\codetector\co.c"
 569  00B1  31A6        	set [38].3
 570  00B2              #line 570 "c:\users\tech\desktop\codetector\co.c"
 570  00B2  3226        	set [38].4
 571  00B3              #line 571 "c:\users\tech\desktop\codetector\co.c"
 571  00B3  32A6        	set [38].5
 573  00B4              #line 573 "c:\users\tech\desktop\codetector\co.c"
 573  00B4  1F00     E  	clr ra
 573  00B5  3EA5        	sz [37].5
 573  00B6  1480     E  	inc ra
 573  00B7              	;
 573  00B7  3400     R  	clr _opamp1
 573  00B8  3C00     E  	sz ra.0
 573  00B9  3000     R  	set _opamp1
 577  00BA              #line 577 "c:\users\tech\desktop\codetector\co.c"
 577  00BA  0726        	mov a,[38]
 577  00BB  0080     E  	mov rb,a
 577  00BC  0F00        	mov a,0
 577  00BD  0200     E  	sub a,rb
 577  00BE  0080     E  	mov rc,a
 577  00BF  0700     E  	mov a,rc
 577  00C0  0580     E  	orm a,rb
 577  00C1  1800     E  	rla rb
 577  00C2  0E01        	and a,1
 577  00C3  0080     R  	mov _VA1OS1[0],a
 577  00C4              _L18:
 579  00C4              #line 579 "c:\users\tech\desktop\codetector\co.c"
 579  00C4  1F00     E  	clr rb
 579  00C5  3EA5        	sz [37].5
 579  00C6  1480     E  	inc rb
 579  00C7  3C00     E  	sz ra.0
"File: co.c          Assembler  Version HGASM0202      Page 7

 579  00C8  2800     R  	jmp _LI8
 579  00C9  3C00     E  	sz rb.0
 579  00CA  2800     R  	jmp _L23
 579  00CB  2800     R  	jmp _LI9
 579  00CC              _LI8:
 579  00CC  3800     E  	snz rb.0
 579  00CD  2800     R  	jmp _L23
 579  00CE              _LI9:
 580  00CE              #line 580 "c:\users\tech\desktop\codetector\co.c"
 580  00CE  15A6        	dec [38]
 581  00CF              #line 581 "c:\users\tech\desktop\codetector\co.c"
 581  00CF  0726        	mov a,[38]
 581  00D0  0080     E  	mov rb,a
 581  00D1  0F00        	mov a,0
 581  00D2  0200     E  	sub a,rb
 581  00D3  0080     E  	mov rc,a
 581  00D4  0700     E  	mov a,rc
 581  00D5  0580     E  	orm a,rb
 582  00D6              #line 582 "c:\users\tech\desktop\codetector\co.c"
 582  00D6  3C00     E  	sz rb.7
 582  00D7  2800     R  	jmp _L18
 582  00D8              _L23:
 585  00D8              #line 585 "c:\users\tech\desktop\codetector\co.c"
 585  00D8  3C26        	sz [38].0
 585  00D9  2800     R  	jmp _L33
 585  00DA  3CA6        	sz [38].1
 585  00DB  2800     R  	jmp _L33
 585  00DC  3D26        	sz [38].2
 585  00DD  2800     R  	jmp _L33
 585  00DE  3DA6        	sz [38].3
 585  00DF  2800     R  	jmp _L33
 585  00E0  3E26        	sz [38].4
 585  00E1  2800     R  	jmp _L33
 585  00E2  1F00     E  	clr rb
 585  00E3  3EA6        	sz [38].5
 585  00E4  1480     E  	inc rb
 585  00E5  1F00     E  	clr rc
 585  00E6  2800     R  	jmp _L20
 585  00E7              _L33:
 585  00E7  0F01        	mov a,1
 585  00E8  0080     E  	mov rb,a
 585  00E9  1F00     E  	clr rc
 585  00EA              _L20:
 585  00EA  0700     E  	mov a,rb
 585  00EB  0080     R  	mov _VA1OS2[0],a
 589  00EC              #line 589 "c:\users\tech\desktop\codetector\co.c"
 589  00EC  0700     R  	mov a,_VA0OS1[0]
 589  00ED  0080     E  	mov rd,a
 589  00EE  1F00     E  	clr re
 589  00EF  3F85        	sz acc.7
 589  00F0  1F80     E  	set re
 589  00F1  0700     E  	mov a,rd
 589  00F2  0380     E  	addm a,rb
 589  00F3  0700     E  	mov a,re
 589  00F4  1380     E  	adcm a,rc
 589  00F5  0700     E  	mov a,rb
 589  00F6  0080     E  	mov rd,a
 589  00F7  0700     E  	mov a,rc
 589  00F8  0080     E  	mov re,a
 589  00F9  1A80     E  	rlc re
"File: co.c          Assembler  Version HGASM0202      Page 8

 589  00FA  1F00     E  	clr rd
 589  00FB  1A80     E  	rlc rd
 589  00FC  1F00     E  	clr re
 589  00FD  0700     E  	mov a,rd
 589  00FE  0380     E  	addm a,rb
 589  00FF  0700     E  	mov a,re
 589  0100  1380     E  	adcm a,rc
 589  0101  1A00     E  	rlca rc
 589  0102  1B80     E  	rrc rc
 589  0103  1B80     E  	rrc rb
 589  0104  0700     E  	mov a,rb
 589  0105  0080     E  	mov ra,a
 589  0106  0700     E  	mov a,rb
 589  0107  0080     R  	mov _VA1OS[0],a
 590  0108              #line 590 "c:\users\tech\desktop\codetector\co.c"
 590  0108  0F00        	mov a,0
 590  0109  0280     E  	subm a,ra
 590  010A  0700     E  	mov a,ra
 590  010B  0580     E  	orm a,rb
 590  010C  1800     E  	rla rb
 590  010D  0E01        	and a,1
 590  010E  00A6        	mov [38],a
 595  010F              #line 595 "c:\users\tech\desktop\codetector\co.c"
 595  010F  3725        	clr [37].6
 605  0110              #line 605 "c:\users\tech\desktop\codetector\co.c"
 605  0110  322F        	set [47].4
 608  0111              #line 608 "c:\users\tech\desktop\codetector\co.c"
 608  0111  31B0        	set [48].3
 609  0112              #line 609 "c:\users\tech\desktop\codetector\co.c"
 609  0112  3630        	clr [48].4
 613  0113              #line 613 "c:\users\tech\desktop\codetector\co.c"
 613  0113  3430        	clr [48].0
 614  0114              #line 614 "c:\users\tech\desktop\codetector\co.c"
 614  0114  34B0        	clr [48].1
 615  0115              #line 615 "c:\users\tech\desktop\codetector\co.c"
 615  0115  3530        	clr [48].2
 622  0116              #line 622 "c:\users\tech\desktop\codetector\co.c"
 622  0116  33DD        	set [93].7
 626  0117              #line 626 "c:\users\tech\desktop\codetector\co.c"
 626  0117  1F5E        	clr [94]
 630  0118              #line 630 "c:\users\tech\desktop\codetector\co.c"
 630  0118  1F5F        	clr [95]
 635  0119              #line 635 "c:\users\tech\desktop\codetector\co.c"
 635  0119  345D        	clr [93].0
 638  011A              #line 638 "c:\users\tech\desktop\codetector\co.c"
 638  011A  34DD        	clr [93].1
 638  011B  0003        	ret
 638  011C              _OPAMPset endp
 638  011C              #line 638 "c:\users\tech\desktop\codetector\co.c"
 638  011C              #pragma debug scope 1 1
 638  011C              ___scc equ [18]
 638  011C              ___hircc equ [19]
 638  011C              ___wdtc equ [61]
 638  011C              ___pawu equ [23]
 638  011C              ___sdsw equ [32]
 638  011C              ___sdpgac0 equ [33]
 638  011C              ___sdpgac1 equ [34]
 638  011C              ___vbgrc equ [11]
 638  011C              public _main
 638  011C              #pragma debug scope 3 1
"File: co.c          Assembler  Version HGASM0202      Page 9

  70  011C              #line 70 "c:\users\tech\desktop\codetector\co.c"
  70  011C              IFDEF WITH_DEFAULT_STARTUP
  70  011C              extern _main_initial0:near
  70  011C              extern _main_startup:near
  70  011C              ENDIF
  70  011C              
  70  011C              ROMBANK 0 @start
  70  0000              @start .section com_l 'code'
  70  0000              _main_startup1:
  70  0000              @start .section com_e 'code'
  70  0000  2800     R  	jmp _main
  70  0001              
  70  0000              _main .section 'code'
  70  0000              _main proc
  70  0000  0004[           local _main_2 db 4 dup(?)
            00
            ]
  70  0004              #pragma debug variable 28 3 _main_2+1 "temperatur"
  73  0004              #line 73 "c:\users\tech\desktop\codetector\co.c"
  73  0000  3292        	set [18].5
  74  0001              #line 74 "c:\users\tech\desktop\codetector\co.c"
  74  0001  3312        	set [18].6
  75  0002              #line 75 "c:\users\tech\desktop\codetector\co.c"
  75  0002  3392        	set [18].7
  78  0003              #line 78 "c:\users\tech\desktop\codetector\co.c"
  78  0003  3513        	clr [19].2
  79  0004              #line 79 "c:\users\tech\desktop\codetector\co.c"
  79  0004  3593        	clr [19].3
  82  0005              #line 82 "c:\users\tech\desktop\codetector\co.c"
  82  0005  3413        	clr [19].0
  85  0006              #line 85 "c:\users\tech\desktop\codetector\co.c"
  85  0006  3492        	clr [18].1
  97  0007              #line 97 "c:\users\tech\desktop\codetector\co.c"
  97  0007  35BD        	clr [61].3
  98  0008              #line 98 "c:\users\tech\desktop\codetector\co.c"
  98  0008  323D        	set [61].4
  99  0009              #line 99 "c:\users\tech\desktop\codetector\co.c"
  99  0009  36BD        	clr [61].5
 100  000A              #line 100 "c:\users\tech\desktop\codetector\co.c"
 100  000A  333D        	set [61].6
 101  000B              #line 101 "c:\users\tech\desktop\codetector\co.c"
 101  000B  37BD        	clr [61].7
 104  000C              #line 104 "c:\users\tech\desktop\codetector\co.c"
 104  000C  303D        	set [61].0
 105  000D              #line 105 "c:\users\tech\desktop\codetector\co.c"
 105  000D  30BD        	set [61].1
 106  000E              #line 106 "c:\users\tech\desktop\codetector\co.c"
 106  000E  313D        	set [61].2
 112  000F              #line 112 "c:\users\tech\desktop\codetector\co.c"
 112  000F  1F17        	clr [23]
 120  0010              #line 120 "c:\users\tech\desktop\codetector\co.c"
 120  0010  3292        	set [18].5
 121  0011              #line 121 "c:\users\tech\desktop\codetector\co.c"
 121  0011  3312        	set [18].6
 122  0012              #line 122 "c:\users\tech\desktop\codetector\co.c"
 122  0012  3392        	set [18].7
 125  0013              #line 125 "c:\users\tech\desktop\codetector\co.c"
 125  0013  3513        	clr [19].2
 126  0014              #line 126 "c:\users\tech\desktop\codetector\co.c"
 126  0014  3593        	clr [19].3
"File: co.c          Assembler  Version HGASM0202      Page 10

 129  0015              #line 129 "c:\users\tech\desktop\codetector\co.c"
 129  0015  3413        	clr [19].0
 132  0016              #line 132 "c:\users\tech\desktop\codetector\co.c"
 132  0016  3492        	clr [18].1
 137  0017              #line 137 "c:\users\tech\desktop\codetector\co.c"
 137  0017  3513        	clr [19].2
 138  0018              #line 138 "c:\users\tech\desktop\codetector\co.c"
 138  0018  3593        	clr [19].3
 141  0019              #line 141 "c:\users\tech\desktop\codetector\co.c"
 141  0019  3013        	set [19].0
 144  001A              #line 144 "c:\users\tech\desktop\codetector\co.c"
 144  001A  3092        	set [18].1
 148  001B              #line 148 "c:\users\tech\desktop\codetector\co.c"
 148  001B  3692        	clr [18].5
 149  001C              #line 149 "c:\users\tech\desktop\codetector\co.c"
 149  001C  3712        	clr [18].6
 150  001D              #line 150 "c:\users\tech\desktop\codetector\co.c"
 150  001D  3792        	clr [18].7
 160  001E              #line 160 "c:\users\tech\desktop\codetector\co.c"
 160  001E  33DD        	set [93].7
 164  001F              #line 164 "c:\users\tech\desktop\codetector\co.c"
 164  001F  1F5E        	clr [94]
 168  0020              #line 168 "c:\users\tech\desktop\codetector\co.c"
 168  0020  1F5F        	clr [95]
 173  0021              #line 173 "c:\users\tech\desktop\codetector\co.c"
 173  0021  345D        	clr [93].0
 176  0022              #line 176 "c:\users\tech\desktop\codetector\co.c"
 176  0022  34DD        	clr [93].1
 192  0023              #line 192 "c:\users\tech\desktop\codetector\co.c"
 192  0023  3420        	clr [32].0
 193  0024              #line 193 "c:\users\tech\desktop\codetector\co.c"
 193  0024  34A0        	clr [32].1
 194  0025              #line 194 "c:\users\tech\desktop\codetector\co.c"
 194  0025  3520        	clr [32].2
 195  0026              #line 195 "c:\users\tech\desktop\codetector\co.c"
 195  0026  31A0        	set [32].3
 196  0027              #line 196 "c:\users\tech\desktop\codetector\co.c"
 196  0027  3620        	clr [32].4
 197  0028              #line 197 "c:\users\tech\desktop\codetector\co.c"
 197  0028  36A0        	clr [32].5
 198  0029              #line 198 "c:\users\tech\desktop\codetector\co.c"
 198  0029  3320        	set [32].6
 202  002A              #line 202 "c:\users\tech\desktop\codetector\co.c"
 202  002A  0F01        	mov a,1
 202  002B  00A1        	mov [33],a
 206  002C              #line 206 "c:\users\tech\desktop\codetector\co.c"
 206  002C  0FC1        	mov a,193
 206  002D  00A2        	mov [34],a
 209  002E              #line 209 "c:\users\tech\desktop\codetector\co.c"
 209  002E  3423        	clr [35].0
 210  002F              #line 210 "c:\users\tech\desktop\codetector\co.c"
 210  002F  34A3        	clr [35].1
 213  0030              #line 213 "c:\users\tech\desktop\codetector\co.c"
 213  0030  3425        	clr [37].0
 214  0031              #line 214 "c:\users\tech\desktop\codetector\co.c"
 214  0031  34A5        	clr [37].1
 217  0032              #line 217 "c:\users\tech\desktop\codetector\co.c"
 217  0032  3323        	set [35].6
 221  0033              #line 221 "c:\users\tech\desktop\codetector\co.c"
 221  0033  37A4        	clr [36].7
"File: co.c          Assembler  Version HGASM0202      Page 11

 222  0034              #line 222 "c:\users\tech\desktop\codetector\co.c"
 222  0034  3724        	clr [36].6
 225  0035              #line 225 "c:\users\tech\desktop\codetector\co.c"
 225  0035  37A6        	clr [38].7
 226  0036              #line 226 "c:\users\tech\desktop\codetector\co.c"
 226  0036  3726        	clr [38].6
 231  0037              #line 231 "c:\users\tech\desktop\codetector\co.c"
 231  0037  3C00     R  	sz _FT
 231  0038  2800     R  	jmp _L43
 232  0039              #line 232 "c:\users\tech\desktop\codetector\co.c"
 232  0039  2000     R  	call _OPAMPset
 232  003A              _L43:
 237  003A              #line 237 "c:\users\tech\desktop\codetector\co.c"
 237  003A  3723        	clr [35].6
 240  003B              #line 240 "c:\users\tech\desktop\codetector\co.c"
 240  003B  3725        	clr [37].6
 269  003C              #line 269 "c:\users\tech\desktop\codetector\co.c"
 269  003C  30DD        	set [93].1
 288  003D              #line 288 "c:\users\tech\desktop\codetector\co.c"
 288  003D  3323        	set [35].6
 291  003E              #line 291 "c:\users\tech\desktop\codetector\co.c"
 291  003E  305D        	set [93].0
 295  003F              #line 295 "c:\users\tech\desktop\codetector\co.c"
 295  003F              ;# 295 "c:\users\tech\desktop\codetector\co.c" 1
 295  003F              	IF 1000>263690
 295  003F              ;# 295 "c:\users\tech\desktop\codetector\co.c" 1
 295  003F              	ERRMESSAGE 'the value 1000of the argument exceeds the maxinum 263690'
 295  003F              	ENDIF
 295  003F              ;# 295 "c:\users\tech\desktop\codetector\co.c" 1
 295  003F              	IF 1000<0
 295  003F              ;# 295 "c:\users\tech\desktop\codetector\co.c" 1
 295  003F              	ERRMESSAGE 'the value 1000 of the argument exceeds the mininum 0'
 295  003F              	ENDIF
 295  003F              ;# 295 "c:\users\tech\desktop\codetector\co.c" 1
 295  003F              	IF 1000==0
 295  003F              ;# 295 "c:\users\tech\desktop\codetector\co.c" 1
 295  003F              	JMP $
 295  003F              	ENDIF
 295  003F              ;# 295 "c:\users\tech\desktop\codetector\co.c" 1
 295  003F              	IF 1000==1
 295  003F              ;# 295 "c:\users\tech\desktop\codetector\co.c" 1
 295  003F              	NOP
 295  003F              	ENDIF
 295  003F              ;# 295 "c:\users\tech\desktop\codetector\co.c" 1
 295  003F              	IF 1000==2
 295  003F              ;# 295 "c:\users\tech\desktop\codetector\co.c" 1
 295  003F              	NOP
 295  003F              ;# 295 "c:\users\tech\desktop\codetector\co.c" 1
 295  003F              	NOP
 295  003F              	ENDIF
 295  003F              ;# 295 "c:\users\tech\desktop\codetector\co.c" 1
 295  003F              	IF 1000==3
 295  003F              ;# 295 "c:\users\tech\desktop\codetector\co.c" 1
 295  003F              	NOP
 295  003F              ;# 295 "c:\users\tech\desktop\codetector\co.c" 1
 295  003F              	NOP
 295  003F              ;# 295 "c:\users\tech\desktop\codetector\co.c" 1
 295  003F              	NOP
 295  003F              	ENDIF
 295  003F              ;# 295 "c:\users\tech\desktop\codetector\co.c" 1
"File: co.c          Assembler  Version HGASM0202      Page 12

 295  003F              	IF (1000<8) AND (1000>3)
 295  003F              ;# 295 "c:\users\tech\desktop\codetector\co.c" 1
 295  003F              	CALL __DELAY3 + 7 -1000
 295  003F              	ENDIF
 295  003F              ;# 295 "c:\users\tech\desktop\codetector\co.c" 1
 295  003F              	IF (1000< 0404h) AND (1000>7)
 295  003F              ;# 295 "c:\users\tech\desktop\codetector\co.c" 1
 295  003F  0FF9        	MOV A,1000/4-1
 295  0040              ;# 295 "c:\users\tech\desktop\codetector\co.c" 1
 295  0040  2000     E  	CALL __DELAYX3 + 3 -(1000 MOD 4)
 295  0041              	ENDIF
 295  0041              ;# 295 "c:\users\tech\desktop\codetector\co.c" 1
 295  0041              	IF (1000< 0x40B) AND (1000> 0403h)
 295  0041              ;# 295 "c:\users\tech\desktop\codetector\co.c" 1
 295  0041              	MOV A,0 
 295  0041              ;# 295 "c:\users\tech\desktop\codetector\co.c" 1
 295  0041              	CALL __DELAYX6 + 0x40a -1000
 295  0041              	ENDIF
 295  0041              ;# 295 "c:\users\tech\desktop\codetector\co.c" 1
 295  0041              	IF (1000 >= 0x40b) AND ((((1000-9)%0402h)/4+1)>256)
 295  0041              ;# 295 "c:\users\tech\desktop\codetector\co.c" 1
 295  0041              	MOV A,(1000-9)/0402h
 295  0041              ;# 295 "c:\users\tech\desktop\codetector\co.c" 1
 295  0041              	MOV _builtin_holtek_delay_2,A
 295  0041              ;# 295 "c:\users\tech\desktop\codetector\co.c" 1
 295  0041              	MOV A,0
 295  0041              ;# 295 "c:\users\tech\desktop\codetector\co.c" 1
 295  0041              	CALL __DELAYY5 +5- (((1000-9)%0402h)%6)
 295  0041              	ENDIF
 295  0041              ;# 295 "c:\users\tech\desktop\codetector\co.c" 1
 295  0041              	IF (1000 >= 0x40b) AND ((((1000-9)%0402h)/4+1)<=256)
 295  0041              ;# 295 "c:\users\tech\desktop\codetector\co.c" 1
 295  0041              	MOV A,(1000-9)/0402h
 295  0041              ;# 295 "c:\users\tech\desktop\codetector\co.c" 1
 295  0041              	MOV _builtin_holtek_delay_2,A
 295  0041              ;# 295 "c:\users\tech\desktop\codetector\co.c" 1
 295  0041              	MOV A,((1000-9)%0402h)/4+1
 295  0041              ;# 295 "c:\users\tech\desktop\codetector\co.c" 1
 295  0041              	CALL __DELAYY3 +3-(((1000-9)%0402h)%4)
 295  0041              	ENDIF
 308  0041              #line 308 "c:\users\tech\desktop\codetector\co.c"
 308  0041  34DD        	clr [93].1
 313  0042              #line 313 "c:\users\tech\desktop\codetector\co.c"
 313  0042  0F13        	mov a,19
 313  0043  0080     R  	mov _ppm[0],a
 313  0044  1F00     R  	clr _ppm[1]
 316  0045              #line 316 "c:\users\tech\desktop\codetector\co.c"
 316  0045  1F00     R  	clr _Vdd[0]
 316  0046  1F00     R  	clr _Vdd[1]
 316  0047  1F00     R  	clr _Vdd[2]
 317  0048              #line 317 "c:\users\tech\desktop\codetector\co.c"
 317  0048  1F00     R  	clr _V_ref[0]
 317  0049  1F00     R  	clr _V_ref[1]
 318  004A              #line 318 "c:\users\tech\desktop\codetector\co.c"
 318  004A              ;# 318 "c:\users\tech\desktop\codetector\co.c" 1
 318  004A              	IF 100000>263690
 318  004A              ;# 318 "c:\users\tech\desktop\codetector\co.c" 1
 318  004A              	ERRMESSAGE 'the value 100000of the argument exceeds the maxinum 263690'
 318  004A              	ENDIF
 318  004A              ;# 318 "c:\users\tech\desktop\codetector\co.c" 1
"File: co.c          Assembler  Version HGASM0202      Page 13

 318  004A              	IF 100000<0
 318  004A              ;# 318 "c:\users\tech\desktop\codetector\co.c" 1
 318  004A              	ERRMESSAGE 'the value 100000 of the argument exceeds the mininum 0'
 318  004A              	ENDIF
 318  004A              ;# 318 "c:\users\tech\desktop\codetector\co.c" 1
 318  004A              	IF 100000==0
 318  004A              ;# 318 "c:\users\tech\desktop\codetector\co.c" 1
 318  004A              	JMP $
 318  004A              	ENDIF
 318  004A              ;# 318 "c:\users\tech\desktop\codetector\co.c" 1
 318  004A              	IF 100000==1
 318  004A              ;# 318 "c:\users\tech\desktop\codetector\co.c" 1
 318  004A              	NOP
 318  004A              	ENDIF
 318  004A              ;# 318 "c:\users\tech\desktop\codetector\co.c" 1
 318  004A              	IF 100000==2
 318  004A              ;# 318 "c:\users\tech\desktop\codetector\co.c" 1
 318  004A              	NOP
 318  004A              ;# 318 "c:\users\tech\desktop\codetector\co.c" 1
 318  004A              	NOP
 318  004A              	ENDIF
 318  004A              ;# 318 "c:\users\tech\desktop\codetector\co.c" 1
 318  004A              	IF 100000==3
 318  004A              ;# 318 "c:\users\tech\desktop\codetector\co.c" 1
 318  004A              	NOP
 318  004A              ;# 318 "c:\users\tech\desktop\codetector\co.c" 1
 318  004A              	NOP
 318  004A              ;# 318 "c:\users\tech\desktop\codetector\co.c" 1
 318  004A              	NOP
 318  004A              	ENDIF
 318  004A              ;# 318 "c:\users\tech\desktop\codetector\co.c" 1
 318  004A              	IF (100000<8) AND (100000>3)
 318  004A              ;# 318 "c:\users\tech\desktop\codetector\co.c" 1
 318  004A              	CALL __DELAY3 + 7 -100000
 318  004A              	ENDIF
 318  004A              ;# 318 "c:\users\tech\desktop\codetector\co.c" 1
 318  004A              	IF (100000< 0404h) AND (100000>7)
 318  004A              ;# 318 "c:\users\tech\desktop\codetector\co.c" 1
 318  004A              	MOV A,100000/4-1
 318  004A              ;# 318 "c:\users\tech\desktop\codetector\co.c" 1
 318  004A              	CALL __DELAYX3 + 3 -(100000 MOD 4)
 318  004A              	ENDIF
 318  004A              ;# 318 "c:\users\tech\desktop\codetector\co.c" 1
 318  004A              	IF (100000< 0x40B) AND (100000> 0403h)
 318  004A              ;# 318 "c:\users\tech\desktop\codetector\co.c" 1
 318  004A              	MOV A,0 
 318  004A              ;# 318 "c:\users\tech\desktop\codetector\co.c" 1
 318  004A              	CALL __DELAYX6 + 0x40a -100000
 318  004A              	ENDIF
 318  004A              ;# 318 "c:\users\tech\desktop\codetector\co.c" 1
 318  004A              	IF (100000 >= 0x40b) AND ((((100000-9)%0402h)/4+1)>256)
 318  004A              ;# 318 "c:\users\tech\desktop\codetector\co.c" 1
 318  004A              	MOV A,(100000-9)/0402h
 318  004A              ;# 318 "c:\users\tech\desktop\codetector\co.c" 1
 318  004A              	MOV _builtin_holtek_delay_2,A
 318  004A              ;# 318 "c:\users\tech\desktop\codetector\co.c" 1
 318  004A              	MOV A,0
 318  004A              ;# 318 "c:\users\tech\desktop\codetector\co.c" 1
 318  004A              	CALL __DELAYY5 +5- (((100000-9)%0402h)%6)
 318  004A              	ENDIF
"File: co.c          Assembler  Version HGASM0202      Page 14

 318  004A              ;# 318 "c:\users\tech\desktop\codetector\co.c" 1
 318  004A              	IF (100000 >= 0x40b) AND ((((100000-9)%0402h)/4+1)<=256)
 318  004A              ;# 318 "c:\users\tech\desktop\codetector\co.c" 1
 318  004A  0F61        	MOV A,(100000-9)/0402h
 318  004B              ;# 318 "c:\users\tech\desktop\codetector\co.c" 1
 318  004B  0080     E  	MOV _builtin_holtek_delay_2,A
 318  004C              ;# 318 "c:\users\tech\desktop\codetector\co.c" 1
 318  004C  0F76        	MOV A,((100000-9)%0402h)/4+1
 318  004D              ;# 318 "c:\users\tech\desktop\codetector\co.c" 1
 318  004D  2000     E  	CALL __DELAYY3 +3-(((100000-9)%0402h)%4)
 318  004E              	ENDIF
 320  004E              #line 320 "c:\users\tech\desktop\codetector\co.c"
 320  004E  2000     E  	call _S_ADC_Init
 321  004F              #line 321 "c:\users\tech\desktop\codetector\co.c"
 321  004F  300B        	set [11].0
 321  0050              _L46:
 329  0050              #line 329 "c:\users\tech\desktop\codetector\co.c"
 329  0050  0F01        	mov a,1
 329  0051  2000     E  	call _S_READ_ADC
 329  0052  0F33        	mov a,51
 329  0053  0080     E  	mov _temperature_2[2],a
 329  0054  0F53        	mov a,83
 329  0055  0080     E  	mov _temperature_2[3],a
 329  0056  0F40        	mov a,64
 329  0057  0080     E  	mov _temperature_2[4],a
 329  0058  0700     E  	mov a,ra
 329  0059  0080     E  	mov _temperature_2[0],a
 329  005A  0700     E  	mov a,rb
 329  005B  0080     E  	mov _temperature_2[1],a
 329  005C  2000     E  	call _temperature
 329  005D  0700     E  	mov a,ra
 329  005E  0080     R  	mov _main_2[1],a
 329  005F  0700     E  	mov a,rb
 329  0060  0080     R  	mov _main_2[2],a
 329  0061  0700     E  	mov a,rc
 329  0062  0080     R  	mov _main_2[3],a
 329  0063  1F00     R  	clr _main_2[0]
 329  0064              _L45:
 338  0064              #line 338 "c:\users\tech\desktop\codetector\co.c"
 338  0064              ;# 338 "c:\users\tech\desktop\codetector\co.c" 1
 338  0064  0001        	clr wdt
 341  0065              #line 341 "c:\users\tech\desktop\codetector\co.c"
 341  0065  1F00     E  	clr _builtin_holtek_mant12p[0]
 341  0066  0700     R  	mov a,_main_2[3]
 341  0067  0080     E  	mov _builtin_holtek_mant1[2],a
 341  0068  0700     R  	mov a,_main_2[2]
 341  0069  0080     E  	mov _builtin_holtek_mant1[1],a
 341  006A  0700     R  	mov a,_main_2[1]
 341  006B  0080     E  	mov _builtin_holtek_mant1[0],a
 341  006C  2000     E  	call _builtin_holtek_ftol
 341  006D  0700     E  	mov a,_builtin_holtek_mant12p[0]
 341  006E  0080     E  	mov rg,a
 341  006F  0700     E  	mov a,_builtin_holtek_mant1[2]
 341  0070  0080     E  	mov rf,a
 341  0071  0700     E  	mov a,_builtin_holtek_mant1[1]
 341  0072  0080     E  	mov re,a
 341  0073  0700     E  	mov a,_builtin_holtek_mant1[0]
 341  0074  0080     E  	mov rd,a
 341  0075  0700     E  	mov a,rd
 341  0076  0080     E  	mov _shwoSegment_2[0],a
"File: co.c          Assembler  Version HGASM0202      Page 15

 341  0077  0700     E  	mov a,re
 341  0078  0080     E  	mov _shwoSegment_2[1],a
 341  0079  2000     E  	call _shwoSegment
 341  007A  1480     R  	inc _main_2[0]
 345  007B              #line 345 "c:\users\tech\desktop\codetector\co.c"
 345  007B  0700     R  	mov a,_main_2[0]
 345  007C  0A65        	sub a,101
 345  007D  390A        	snz z
 345  007E  2800     R  	jmp _L45
 345  007F  2800     R  	jmp _L46
 345  0080  2800     R  	jmp $
 345  0081              _main endp
 345  0081              
 345  0081              @dummy endp
 345  0081              
 345  0081              #line 345 "c:\users\tech\desktop\codetector\co.c"
 345  0081              #pragma debug scope 1 1
  61  0081              #line 61 "c:\users\tech\desktop\codetector\co.c"
  61  0081              public _falt
  61  0000              @BITDATASEC .section 'data'
  61  0000  00          _falt	dbit 0
  61  0001              #pragma debug variable 2 1 _falt "falt"
  61  0001              
  61  0000              @HCCINIT .section 'data'
  60  0000              #line 60 "c:\users\tech\desktop\codetector\co.c"
  60  0000              public _V_ntc
  60  0000              @HCCINIT0_V_ntc .section 'data'
  60  0000  0003[       _V_ntc	db 3 dup(0)
            00
            ]
  60  0003              #pragma debug variable 28 1 _V_ntc "V_ntc"
  60  0003              
  60  0000              @HCCINIT .section 'data'
  59  0000              #line 59 "c:\users\tech\desktop\codetector\co.c"
  59  0000              public _tm
  59  0000              @HCCINIT0_tm .section 'data'
  59  0000  0002[       _tm	db 2 dup(0)
            00
            ]
  59  0002              #pragma debug variable 11 1 _tm "tm"
  59  0002              
  59  0000              @HCCINIT .section 'data'
  55  0000              #line 55 "c:\users\tech\desktop\codetector\co.c"
  55  0000              public _V_ref
  55  0000              @HCCINIT0_V_ref .section 'data'
  55  0000  0002[       _V_ref	db 2 dup(0)
            00
            ]
  55  0002              #pragma debug variable 11 1 _V_ref "V_ref"
  55  0002              
  55  0000              @HCCINIT .section 'data'
  54  0000              #line 54 "c:\users\tech\desktop\codetector\co.c"
  54  0000              public _bat_low
  54  0001              @BITDATASEC .section 'data'
  54  0000              _bat_low	dbit 0
  54  0001              #pragma debug variable 2 1 _bat_low "bat_low"
  54  0001              
  54  0000              @HCCINIT .section 'data'
  53  0000              #line 53 "c:\users\tech\desktop\codetector\co.c"
  53  0000              public _Vdd
"File: co.c          Assembler  Version HGASM0202      Page 16

  53  0000              @HCCINIT0_Vdd .section 'data'
  53  0000  0003[       _Vdd	db 3 dup(0)
            00
            ]
  53  0003              #pragma debug variable 28 1 _Vdd "Vdd"
  53  0003              
  53  0000              @HCCINIT .section 'data'
  49  0000              #line 49 "c:\users\tech\desktop\codetector\co.c"
  49  0000              public _co_falt
  49  0001              @BITDATASEC .section 'data'
  49  0000              _co_falt	dbit 0
  49  0001              #pragma debug variable 2 1 _co_falt "co_falt"
  49  0001              
  49  0000              @HCCINIT .section 'data'
  48  0000              #line 48 "c:\users\tech\desktop\codetector\co.c"
  48  0000              public _co
  48  0001              @BITDATASEC .section 'data'
  48  0000              _co	dbit 0
  48  0001              #pragma debug variable 2 1 _co "co"
  48  0001              
  48  0000              @HCCINIT .section 'data'
  47  0000              #line 47 "c:\users\tech\desktop\codetector\co.c"
  47  0000              public _ppm
  47  0000              @HCCINIT0_ppm .section 'data'
  47  0000  0002[       _ppm	db 2 dup(0)
            00
            ]
  47  0002              #pragma debug variable 11 1 _ppm "ppm"
  47  0002              
  47  0000              @HCCINIT .section 'data'
  40  0000              #line 40 "c:\users\tech\desktop\codetector\co.c"
  40  0000              public _opamp1
  40  0001              @BITDATASEC .section 'data'
  40  0000              _opamp1	dbit 0
  40  0001              #pragma debug variable 2 1 _opamp1 "opamp1"
  40  0001              
  40  0000              @HCCINIT .section 'data'
  40  0000              #line 40 "c:\users\tech\desktop\codetector\co.c"
  40  0000              public _opamp0
  40  0001              @BITDATASEC .section 'data'
  40  0000              _opamp0	dbit 0
  40  0001              #pragma debug variable 2 1 _opamp0 "opamp0"
  40  0001              
  40  0000              @HCCINIT .section 'data'
  39  0000              #line 39 "c:\users\tech\desktop\codetector\co.c"
  39  0000              public _VA1OS2
  39  0000              @HCCINIT0_VA1OS2 .section 'data'
  39  0000              _VA1OS2	db 0
  39  0001              #pragma debug variable 7 1 _VA1OS2 "VA1OS2"
  39  0001              
  39  0000              @HCCINIT .section 'data'
  39  0000              #line 39 "c:\users\tech\desktop\codetector\co.c"
  39  0000              public _VA1OS1
  39  0000              @HCCINIT0_VA1OS1 .section 'data'
  39  0000              _VA1OS1	db 0
  39  0001              #pragma debug variable 7 1 _VA1OS1 "VA1OS1"
  39  0001              
  39  0000              @HCCINIT .section 'data'
  39  0000              #line 39 "c:\users\tech\desktop\codetector\co.c"
  39  0000              public _VA1OS
"File: co.c          Assembler  Version HGASM0202      Page 17

  39  0000              @HCCINIT0_VA1OS .section 'data'
  39  0000              _VA1OS	db 0
  39  0001              #pragma debug variable 7 1 _VA1OS "VA1OS"
  39  0001              
  39  0000              @HCCINIT .section 'data'
  38  0000              #line 38 "c:\users\tech\desktop\codetector\co.c"
  38  0000              public _VA0OS2
  38  0000              @HCCINIT0_VA0OS2 .section 'data'
  38  0000              _VA0OS2	db 0
  38  0001              #pragma debug variable 7 1 _VA0OS2 "VA0OS2"
  38  0001              
  38  0000              @HCCINIT .section 'data'
  38  0000              #line 38 "c:\users\tech\desktop\codetector\co.c"
  38  0000              public _VA0OS1
  38  0000              @HCCINIT0_VA0OS1 .section 'data'
  38  0000              _VA0OS1	db 0
  38  0001              #pragma debug variable 7 1 _VA0OS1 "VA0OS1"
  38  0001              
  38  0000              @HCCINIT .section 'data'
  38  0000              #line 38 "c:\users\tech\desktop\codetector\co.c"
  38  0000              public _VA0OS
  38  0000              @HCCINIT0_VA0OS .section 'data'
  38  0000              _VA0OS	db 0
  38  0001              #pragma debug variable 7 1 _VA0OS "VA0OS"
  38  0001              
  38  0000              @HCCINIT .section 'data'
  37  0000              #line 37 "c:\users\tech\desktop\codetector\co.c"
  37  0000              public _V_op1
  37  0000              @HCCINIT0_V_op1 .section 'data'
  37  0000  0002[       _V_op1	db 2 dup(0)
            00
            ]
  37  0002              #pragma debug variable 11 1 _V_op1 "V_op1"
  37  0002              
  37  0000              @HCCINIT .section 'data'
  36  0000              #line 36 "c:\users\tech\desktop\codetector\co.c"
  36  0000              public _V_op0
  36  0000              @HCCINIT0_V_op0 .section 'data'
  36  0000  0002[       _V_op0	db 2 dup(0)
            00
            ]
  36  0002              #pragma debug variable 11 1 _V_op0 "V_op0"
  36  0002              
  36  0000              @HCCINIT .section 'data'
  36  0000              public _FT
  36  0000              @HCCINIT	.section 'data'
  35  0000              #line 35 "c:\users\tech\desktop\codetector\co.c"
  35  0001              @BITDATASEC .section 'data'
  35  0000              _FT	dbit 0
  35  0001              #pragma debug variable 2 1 _FT "FT"
  31  0001              #line 31 "c:\users\tech\desktop\codetector\co.c"
  31  0001              public _buz_delay
  31  0000              @HCCINIT0_buz_delay .section 'data'
  31  0000  0002[       _buz_delay	db 2 dup(0)
            00
            ]
  31  0002              #pragma debug variable 11 1 _buz_delay "buz_delay"
  31  0002              
  31  0000              @HCCINIT .section 'data'
  21  0000              #line 21 "c:\users\tech\desktop\codetector\co.c"
"File: co.c          Assembler  Version HGASM0202      Page 18

  21  0000              public _test
  21  0001              @BITDATASEC .section 'data'
  21  0000              _test	dbit 0
  21  0001              #pragma debug variable 2 1 _test "test"
  21  0001              
  21  0000              @HCCINIT .section 'data'
  20  0000              #line 20 "c:\users\tech\desktop\codetector\co.c"
  20  0000              public _test_tm
  20  0000              @HCCINIT0_test_tm .section 'data'
  20  0000              _test_tm	db 0
  20  0001              #pragma debug variable 7 1 _test_tm "test_tm"
  20  0001              
  20  0000              @HCCINIT .section 'data'
  20  0000              #pragma debug struct_end
  20  0000              #pragma debug struct_end
  20  0000              #pragma debug union_end
  20  0000              #pragma debug union_end
  20  0000              #pragma debug variable 43 1 ___vbgrc "__vbgrc" 1
  20  0000              #pragma debug struct_end
  20  0000              #pragma debug struct_end
  20  0000              #pragma debug union_end
  20  0000              #pragma debug union_end
  20  0000              #pragma debug variable 45 1 ___scc "__scc" 1
  20  0000              #pragma debug struct_end
  20  0000              #pragma debug struct_end
  20  0000              #pragma debug union_end
  20  0000              #pragma debug union_end
  20  0000              #pragma debug variable 47 1 ___hircc "__hircc" 1
  20  0000              #pragma debug struct_end
  20  0000              #pragma debug struct_end
  20  0000              #pragma debug union_end
  20  0000              #pragma debug union_end
  20  0000              #pragma debug variable 49 1 ___pawu "__pawu" 1
  20  0000              #pragma debug struct_end
  20  0000              #pragma debug struct_end
  20  0000              #pragma debug union_end
  20  0000              #pragma debug union_end
  20  0000              #pragma debug variable 51 1 ___sdsw "__sdsw" 1
  20  0000              #pragma debug struct_end
  20  0000              #pragma debug struct_end
  20  0000              #pragma debug union_end
  20  0000              #pragma debug union_end
  20  0000              #pragma debug variable 53 1 ___sdpgac0 "__sdpgac0" 1
  20  0000              #pragma debug struct_end
  20  0000              #pragma debug struct_end
  20  0000              #pragma debug union_end
  20  0000              #pragma debug union_end
  20  0000              #pragma debug variable 55 1 ___sdpgac1 "__sdpgac1" 1
  20  0000              #pragma debug struct_end
  20  0000              #pragma debug struct_end
  20  0000              #pragma debug union_end
  20  0000              #pragma debug union_end
  20  0000              #pragma debug variable 57 1 ___sda0c "__sda0c" 1
  20  0000              #pragma debug struct_end
  20  0000              #pragma debug struct_end
  20  0000              #pragma debug union_end
  20  0000              #pragma debug union_end
  20  0000              #pragma debug variable 59 1 ___sda0vos "__sda0vos" 1
  20  0000              #pragma debug struct_end
  20  0000              #pragma debug struct_end
"File: co.c          Assembler  Version HGASM0202      Page 19

  20  0000              #pragma debug union_end
  20  0000              #pragma debug union_end
  20  0000              #pragma debug variable 61 1 ___sda1c "__sda1c" 1
  20  0000              #pragma debug struct_end
  20  0000              #pragma debug struct_end
  20  0000              #pragma debug union_end
  20  0000              #pragma debug union_end
  20  0000              #pragma debug variable 63 1 ___sda1vos "__sda1vos" 1
  20  0000              #pragma debug struct_end
  20  0000              #pragma debug struct_end
  20  0000              #pragma debug union_end
  20  0000              #pragma debug union_end
  20  0000              #pragma debug variable 65 1 ___sadc0 "__sadc0" 1
  20  0000              #pragma debug struct_end
  20  0000              #pragma debug struct_end
  20  0000              #pragma debug union_end
  20  0000              #pragma debug union_end
  20  0000              #pragma debug variable 67 1 ___sadc1 "__sadc1" 1
  20  0000              #pragma debug struct_end
  20  0000              #pragma debug struct_end
  20  0000              #pragma debug union_end
  20  0000              #pragma debug union_end
  20  0000              #pragma debug variable 69 1 ___wdtc "__wdtc" 1
  20  0000              #pragma debug struct_end
  20  0000              #pragma debug struct_end
  20  0000              #pragma debug union_end
  20  0000              #pragma debug union_end
  20  0000              #pragma debug variable 71 1 ___isgenc "__isgenc" 1
  20  0000              #pragma debug variable 8 1 ___isgdata0 "__isgdata0" 1
  20  0000              #pragma debug variable 8 1 ___isgdata1 "__isgdata1" 1
  70  0000              #line 70 "c:\users\tech\desktop\codetector\co.c"
  70  0000              @code .section at 0 'code'
  70  0000  2800     R  	jmp _main_startup1
  70  0001              
  70  0001              extern _S_ADC_Init:near
  70  0001              extern _S_READ_ADC:near
  70  0001              extern _temperature_2:byte
  70  0001              extern _temperature:near
  70  0001              extern _builtin_holtek_mant1:byte
  70  0001              extern _builtin_holtek_mant12p:byte
  70  0001              extern _builtin_holtek_ftol:near
  70  0001              extern _shwoSegment_2:byte
  70  0001              extern _shwoSegment:near
  70  0001              
  70  0001              ; 
  70  0001              ; Generated by holtek-gcc v3.19, Sun Aug 27 12:26:51 2023
  70  0001              ; Rebuild 718
  70  0001              ; end of file


        0 Errors, 0