"File: OPAMP.h       Assembler  Version HGASM0202      Page 1


   1  0000              ; Generated by holtek-gcc v3.19, Sun Aug 27 18:02:28 2023
   2  0000              ; 
   3  0000              ; Configuration:
   4  0000              ;       with long instruction
   5  0000              ;       Single ROM, Multi-RAM
   6  0000              ;       bits_per_rom_unit:16
   7  0000              ;       with mp1
   8  0000              ;       with tbhp, address(0x9)
   9  0000              ;          Use tabrd-const
  10  0000              ;       
  11  0000              ; SFR address of long-instruction arch:
  12  0000              ;    mp0 = -1,1,0
  13  0000              ;    mp1 = 4,3,2
  14  0000              ;    mp2 = 14,13,12
  15  0000              ;    tbp = 9,7,8
  16  0000              ;    acc = 5
  17  0000              ;    pcl = 6
  18  0000              ;    status = 10
  19  0000              ;    bp = 11
  20  0000              ;    intc = 72
  21  0000              ;       
  22  0000              ;       
  23  0000              ; use 'tabrdc' instead of 'tabrd'
  24  0000              ;       
  25  0000              
  26  0000              #pragma translator "holtek-gcc 4.6.4" "3.19" "build 20130711"
  27  0000              ; Rebuild 718
  28  0000              
  29  0000              ir equ [2]
  30  0000              mp equ [3]
  31  0000              sbp equ [4]
  32  0000              acc equ [5]
  33  0000              bp equ [11]
  34  0000              tblp equ [7]
  35  0000              tbhp equ [9]
  36  0000              status equ [10]
  37  0000              c equ [10].0
  38  0000              ac equ [10].1
  39  0000              z equ [10].2
  40  0000              ov equ [10].3
  41  0000              cz equ [10].6
  42  0000              sc equ [10].7
  43  0000              intc equ [72]
  44  0000              
  45  0000              extern ra:byte
  46  0000              extern rb:byte
  47  0000              extern rc:byte
  48  0000              extern rd:byte
  49  0000              extern re:byte
  50  0000              extern rf:byte
  51  0000              extern rg:byte
  52  0000              extern rh:byte
  53  0000              extern _Crom2Prom:near
  54  0000              extern _Crom2PromNext:near
  55  0000              
  56  0000              RAMBANK 0 @BITDATASEC, @BITDATASEC1
  57  0000              @HCCINIT	.section 'data'
  58  0000              @HCCINIT0	.section 'data'
  59  0000              @BITDATASEC	 .section 'data'
"File: OPAMP.ASM     Assembler  Version HGASM0202      Page 2

  60  0000              @BITDATASEC1	 .section 'data'
  61  0000              
  62  0000              #pragma debug scope 1 1
  63  0000              	extern __DELAY3:near
  64  0000              	extern __DELAYX3:near
  65  0000              	extern __DELAYX6:near
  66  0000              	extern __DELAYY5:near
  67  0000              	extern __DELAYY3:near
  68  0000              	extern _builtin_holtek_delay_2:byte
  69  0000              ___sda0vos equ [36]
  70  0000              ___sda0c equ [35]
  71  0000              ___sda1c equ [37]
  72  0000              ___sda1vos equ [38]
  73  0000              ___sadc0 equ [47]
  74  0000              ___sadc1 equ [48]
  75  0000              ___isgenc equ [93]
  76  0000              ___isgdata0 equ [94]
  77  0000              ___isgdata1 equ [95]
  78  0000              public _OPAMPset
  79  0000              #pragma debug scope 2 1

   8  0000              #line 8 "C:\Users\Tech\Desktop\CODetector\OPAMP\OPAMP.c"
   8  0000              _OPAMPset .section 'code'
   8  0000              _OPAMPset proc
  11  0000              #line 11 "C:\Users\Tech\Desktop\CODetector\OPAMP\OPAMP.c"
  11  0000  3000     R  	set _FT
  18  0001              #line 18 "C:\Users\Tech\Desktop\CODetector\OPAMP\OPAMP.c"
  18  0001  33A4        	set [36].7
  19  0002              #line 19 "C:\Users\Tech\Desktop\CODetector\OPAMP\OPAMP.c"
  19  0002  3324        	set [36].6
  23  0003              #line 23 "C:\Users\Tech\Desktop\CODetector\OPAMP\OPAMP.c"
  23  0003  3424        	clr [36].0
  24  0004              #line 24 "C:\Users\Tech\Desktop\CODetector\OPAMP\OPAMP.c"
  24  0004  34A4        	clr [36].1
  25  0005              #line 25 "C:\Users\Tech\Desktop\CODetector\OPAMP\OPAMP.c"
  25  0005  3524        	clr [36].2
  26  0006              #line 26 "C:\Users\Tech\Desktop\CODetector\OPAMP\OPAMP.c"
  26  0006  35A4        	clr [36].3
  27  0007              #line 27 "C:\Users\Tech\Desktop\CODetector\OPAMP\OPAMP.c"
  27  0007  3624        	clr [36].4
  28  0008              #line 28 "C:\Users\Tech\Desktop\CODetector\OPAMP\OPAMP.c"
  28  0008  36A4        	clr [36].5
  30  0009              #line 30 "C:\Users\Tech\Desktop\CODetector\OPAMP\OPAMP.c"
  30  0009  1F00     E  	clr ra
  30  000A  3EA3        	sz [35].5
  30  000B  1480     E  	inc ra
  30  000C              	;
  30  000C  3400     R  	clr _opamp0
  30  000D  3C00     E  	sz ra.0
  30  000E  3000     R  	set _opamp0
  30  000F              _L2:
  34  000F              #line 34 "C:\Users\Tech\Desktop\CODetector\OPAMP\OPAMP.c"
  34  000F  1F00     E  	clr rb
  34  0010  3EA3        	sz [35].5
  34  0011  1480     E  	inc rb
  34  0012  3C00     E  	sz ra.0
  34  0013  2800     R  	jmp _LI1
  34  0014  3C00     E  	sz rb.0
  34  0015  2800     R  	jmp _L3
  34  0016  2800     R  	jmp _LI2
"File: OPAMP.c       Assembler  Version HGASM0202      Page 3

  34  0017              _LI1:
  34  0017  3800     E  	snz rb.0
  34  0018  2800     R  	jmp _L3
  34  0019              _LI2:
  35  0019              #line 35 "C:\Users\Tech\Desktop\CODetector\OPAMP\OPAMP.c"
  35  0019  1624        	siza [36]
  35  001A  2800     R  	jmp _LI3
  35  001B  2800     R  	jmp _L3
  35  001C              _LI3:
  36  001C              #line 36 "C:\Users\Tech\Desktop\CODetector\OPAMP\OPAMP.c"
  36  001C  14A4        	inc [36]
  36  001D  2800     R  	jmp _L2
  36  001E              _L3:
  39  001E              #line 39 "C:\Users\Tech\Desktop\CODetector\OPAMP\OPAMP.c"
  39  001E  3C24        	sz [36].0
  39  001F  2800     R  	jmp _L5
  39  0020  3CA4        	sz [36].1
  39  0021  2800     R  	jmp _L5
  39  0022  3D24        	sz [36].2
  39  0023  2800     R  	jmp _L5
  39  0024  3DA4        	sz [36].3
  39  0025  2800     R  	jmp _L5
  39  0026  3E24        	sz [36].4
  39  0027  2800     R  	jmp _L5
  39  0028  0724        	mov a,[36]
  39  0029  0080     E  	mov ra,a
  39  002A              _L5:
  42  002A              #line 42 "C:\Users\Tech\Desktop\CODetector\OPAMP\OPAMP.c"
  42  002A  3424        	clr [36].0
  43  002B              #line 43 "C:\Users\Tech\Desktop\CODetector\OPAMP\OPAMP.c"
  43  002B  34A4        	clr [36].1
  44  002C              #line 44 "C:\Users\Tech\Desktop\CODetector\OPAMP\OPAMP.c"
  44  002C  3524        	clr [36].2
  45  002D              #line 45 "C:\Users\Tech\Desktop\CODetector\OPAMP\OPAMP.c"
  45  002D  35A4        	clr [36].3
  46  002E              #line 46 "C:\Users\Tech\Desktop\CODetector\OPAMP\OPAMP.c"
  46  002E  3624        	clr [36].4
  47  002F              #line 47 "C:\Users\Tech\Desktop\CODetector\OPAMP\OPAMP.c"
  47  002F  36A4        	clr [36].5
  49  0030              #line 49 "C:\Users\Tech\Desktop\CODetector\OPAMP\OPAMP.c"
  49  0030  1F00     E  	clr ra
  49  0031  3EA3        	sz [35].5
  49  0032  1480     E  	inc ra
  49  0033              	;
  49  0033  3400     R  	clr _opamp0
  49  0034  3C00     E  	sz ra.0
  49  0035  3000     R  	set _opamp0
  53  0036              #line 53 "C:\Users\Tech\Desktop\CODetector\OPAMP\OPAMP.c"
  53  0036  0724        	mov a,[36]
  53  0037  0080     E  	mov rb,a
  53  0038  0F00        	mov a,0
  53  0039  0200     E  	sub a,rb
  53  003A  0080     E  	mov rc,a
  53  003B  0700     E  	mov a,rc
  53  003C  0580     E  	orm a,rb
  53  003D  1A80     E  	rlc rb
  53  003E  1F00     E  	clr rb
  53  003F  1A80     E  	rlc rb
  53  0040  0700     E  	mov a,rb
  53  0041  0080     E  	mov rd,a
"File: OPAMP.c       Assembler  Version HGASM0202      Page 4

  53  0042  1F00     E  	clr re
  53  0043  0700     E  	mov a,rb
  53  0044  0080     R  	mov _VA0OS1[0],a
  53  0045              _L6:
  55  0045              #line 55 "C:\Users\Tech\Desktop\CODetector\OPAMP\OPAMP.c"
  55  0045  1F00     E  	clr rb
  55  0046  3EA3        	sz [35].5
  55  0047  1480     E  	inc rb
  55  0048  3C00     E  	sz ra.0
  55  0049  2800     R  	jmp _LI4
  55  004A  3C00     E  	sz rb.0
  55  004B  2800     R  	jmp _L11
  55  004C  2800     R  	jmp _LI5
  55  004D              _LI4:
  55  004D  3800     E  	snz rb.0
  55  004E  2800     R  	jmp _L11
  55  004F              _LI5:
  56  004F              #line 56 "C:\Users\Tech\Desktop\CODetector\OPAMP\OPAMP.c"
  56  004F  15A4        	dec [36]
  57  0050              #line 57 "C:\Users\Tech\Desktop\CODetector\OPAMP\OPAMP.c"
  57  0050  0724        	mov a,[36]
  57  0051  0AC0        	sub a,192
  57  0052  390A        	snz z
  57  0053  2800     R  	jmp _L6
  57  0054              _L11:
  60  0054              #line 60 "C:\Users\Tech\Desktop\CODetector\OPAMP\OPAMP.c"
  60  0054  3C24        	sz [36].0
  60  0055  2800     R  	jmp _L28
  60  0056  3CA4        	sz [36].1
  60  0057  2800     R  	jmp _L28
  60  0058  3D24        	sz [36].2
  60  0059  2800     R  	jmp _L28
  60  005A  3DA4        	sz [36].3
  60  005B  2800     R  	jmp _L28
  60  005C  3E24        	sz [36].4
  60  005D  2800     R  	jmp _L28
  60  005E  1F00     E  	clr rb
  60  005F  3EA4        	sz [36].5
  60  0060  1480     E  	inc rb
  60  0061  1F00     E  	clr rc
  60  0062  2800     R  	jmp _L8
  60  0063              _L28:
  60  0063  0F01        	mov a,1
  60  0064  0080     E  	mov rb,a
  60  0065  1F00     E  	clr rc
  60  0066              _L8:
  60  0066  0700     E  	mov a,rb
  60  0067  0080     R  	mov _VA0OS2[0],a
  64  0068              #line 64 "C:\Users\Tech\Desktop\CODetector\OPAMP\OPAMP.c"
  64  0068  0700     E  	mov a,rd
  64  0069  0380     E  	addm a,rb
  64  006A  0700     E  	mov a,re
  64  006B  1380     E  	adcm a,rc
  64  006C  1A00     E  	rlca rc
  64  006D  1B80     E  	rrc rc
  64  006E  1B80     E  	rrc rb
  64  006F  0700     E  	mov a,rb
  64  0070  0080     R  	mov _VA0OS[0],a
  65  0071              #line 65 "C:\Users\Tech\Desktop\CODetector\OPAMP\OPAMP.c"
  65  0071  0700     E  	mov a,rb
"File: OPAMP.c       Assembler  Version HGASM0202      Page 5

  65  0072  00A4        	mov [36],a
  70  0073              #line 70 "C:\Users\Tech\Desktop\CODetector\OPAMP\OPAMP.c"
  70  0073  3723        	clr [35].6
  78  0074              #line 78 "C:\Users\Tech\Desktop\CODetector\OPAMP\OPAMP.c"
  78  0074  3325        	set [37].6
  85  0075              #line 85 "C:\Users\Tech\Desktop\CODetector\OPAMP\OPAMP.c"
  85  0075  33A6        	set [38].7
  86  0076              #line 86 "C:\Users\Tech\Desktop\CODetector\OPAMP\OPAMP.c"
  86  0076  3326        	set [38].6
  90  0077              #line 90 "C:\Users\Tech\Desktop\CODetector\OPAMP\OPAMP.c"
  90  0077  3426        	clr [38].0
  91  0078              #line 91 "C:\Users\Tech\Desktop\CODetector\OPAMP\OPAMP.c"
  91  0078  34A6        	clr [38].1
  92  0079              #line 92 "C:\Users\Tech\Desktop\CODetector\OPAMP\OPAMP.c"
  92  0079  3526        	clr [38].2
  93  007A              #line 93 "C:\Users\Tech\Desktop\CODetector\OPAMP\OPAMP.c"
  93  007A  35A6        	clr [38].3
  94  007B              #line 94 "C:\Users\Tech\Desktop\CODetector\OPAMP\OPAMP.c"
  94  007B  3626        	clr [38].4
  95  007C              #line 95 "C:\Users\Tech\Desktop\CODetector\OPAMP\OPAMP.c"
  95  007C  36A6        	clr [38].5
  97  007D              #line 97 "C:\Users\Tech\Desktop\CODetector\OPAMP\OPAMP.c"
  97  007D  1F00     E  	clr rb
  97  007E  3EA5        	sz [37].5
  97  007F  1480     E  	inc rb
  97  0080              	;
  97  0080  3400     R  	clr _opamp1
  97  0081  3C00     E  	sz rb.0
  97  0082  3000     R  	set _opamp1
 104  0083              #line 104 "C:\Users\Tech\Desktop\CODetector\OPAMP\OPAMP.c"
 104  0083  0700     R  	mov a,_VA1OS1[0]
 104  0084  0080     E  	mov rd,a
 104  0085  0700     R  	mov a,_VA0OS1[0]
 104  0086  0080     E  	mov ra,a
 104  0087              _L12:
 101  0087              #line 101 "C:\Users\Tech\Desktop\CODetector\OPAMP\OPAMP.c"
 101  0087  1F00     E  	clr rc
 101  0088  3EA5        	sz [37].5
 101  0089  1480     E  	inc rc
 101  008A  3C00     E  	sz rb.0
 101  008B  2800     R  	jmp _LI6
 101  008C  3C00     E  	sz rc.0
 101  008D  2800     R  	jmp _L40
 101  008E  2800     R  	jmp _LI7
 101  008F              _LI6:
 101  008F  3800     E  	snz rc.0
 101  0090  2800     R  	jmp _L40
 101  0091              _LI7:
 102  0091              #line 102 "C:\Users\Tech\Desktop\CODetector\OPAMP\OPAMP.c"
 102  0091  14A6        	inc [38]
 103  0092              #line 103 "C:\Users\Tech\Desktop\CODetector\OPAMP\OPAMP.c"
 103  0092  0726        	mov a,[38]
 103  0093  0080     E  	mov ra,a
 103  0094  0F00        	mov a,0
 103  0095  0200     E  	sub a,ra
 103  0096  0080     E  	mov rc,a
 103  0097  0700     E  	mov a,rc
 103  0098  0580     E  	orm a,ra
 103  0099  1A80     E  	rlc ra
 103  009A  1F00     E  	clr ra
"File: OPAMP.c       Assembler  Version HGASM0202      Page 6

 103  009B  1A80     E  	rlc ra
 104  009C              #line 104 "C:\Users\Tech\Desktop\CODetector\OPAMP\OPAMP.c"
 104  009C  0F3E        	mov a,62
 104  009D  0200     E  	sub a,rd
 104  009E  3B8A        	snz sc
 104  009F  2800     R  	jmp _L12
 104  00A0              _L40:
 104  00A0  0700     E  	mov a,ra
 104  00A1  0080     R  	mov _VA0OS1[0],a
 107  00A2              #line 107 "C:\Users\Tech\Desktop\CODetector\OPAMP\OPAMP.c"
 107  00A2  3C26        	sz [38].0
 107  00A3  2800     R  	jmp _L14
 107  00A4  3CA6        	sz [38].1
 107  00A5  2800     R  	jmp _L14
 107  00A6  3D26        	sz [38].2
 107  00A7  2800     R  	jmp _L14
 107  00A8  3DA6        	sz [38].3
 107  00A9  2800     R  	jmp _L14
 107  00AA  3E26        	sz [38].4
 107  00AB  2800     R  	jmp _L14
 107  00AC  0726        	mov a,[38]
 107  00AD  0080     E  	mov ra,a
 107  00AE              _L14:
 110  00AE              #line 110 "C:\Users\Tech\Desktop\CODetector\OPAMP\OPAMP.c"
 110  00AE  3026        	set [38].0
 111  00AF              #line 111 "C:\Users\Tech\Desktop\CODetector\OPAMP\OPAMP.c"
 111  00AF  30A6        	set [38].1
 112  00B0              #line 112 "C:\Users\Tech\Desktop\CODetector\OPAMP\OPAMP.c"
 112  00B0  3126        	set [38].2
 113  00B1              #line 113 "C:\Users\Tech\Desktop\CODetector\OPAMP\OPAMP.c"
 113  00B1  31A6        	set [38].3
 114  00B2              #line 114 "C:\Users\Tech\Desktop\CODetector\OPAMP\OPAMP.c"
 114  00B2  3226        	set [38].4
 115  00B3              #line 115 "C:\Users\Tech\Desktop\CODetector\OPAMP\OPAMP.c"
 115  00B3  32A6        	set [38].5
 117  00B4              #line 117 "C:\Users\Tech\Desktop\CODetector\OPAMP\OPAMP.c"
 117  00B4  1F00     E  	clr ra
 117  00B5  3EA5        	sz [37].5
 117  00B6  1480     E  	inc ra
 117  00B7              	;
 117  00B7  3400     R  	clr _opamp1
 117  00B8  3C00     E  	sz ra.0
 117  00B9  3000     R  	set _opamp1
 121  00BA              #line 121 "C:\Users\Tech\Desktop\CODetector\OPAMP\OPAMP.c"
 121  00BA  0726        	mov a,[38]
 121  00BB  0080     E  	mov rb,a
 121  00BC  0F00        	mov a,0
 121  00BD  0200     E  	sub a,rb
 121  00BE  0080     E  	mov rc,a
 121  00BF  0700     E  	mov a,rc
 121  00C0  0580     E  	orm a,rb
 121  00C1  1800     E  	rla rb
 121  00C2  0E01        	and a,1
 121  00C3  0080     R  	mov _VA1OS1[0],a
 121  00C4              _L18:
 123  00C4              #line 123 "C:\Users\Tech\Desktop\CODetector\OPAMP\OPAMP.c"
 123  00C4  1F00     E  	clr rb
 123  00C5  3EA5        	sz [37].5
 123  00C6  1480     E  	inc rb
 123  00C7  3C00     E  	sz ra.0
"File: OPAMP.c       Assembler  Version HGASM0202      Page 7

 123  00C8  2800     R  	jmp _LI8
 123  00C9  3C00     E  	sz rb.0
 123  00CA  2800     R  	jmp _L23
 123  00CB  2800     R  	jmp _LI9
 123  00CC              _LI8:
 123  00CC  3800     E  	snz rb.0
 123  00CD  2800     R  	jmp _L23
 123  00CE              _LI9:
 124  00CE              #line 124 "C:\Users\Tech\Desktop\CODetector\OPAMP\OPAMP.c"
 124  00CE  15A6        	dec [38]
 125  00CF              #line 125 "C:\Users\Tech\Desktop\CODetector\OPAMP\OPAMP.c"
 125  00CF  0726        	mov a,[38]
 125  00D0  0080     E  	mov rb,a
 125  00D1  0F00        	mov a,0
 125  00D2  0200     E  	sub a,rb
 125  00D3  0080     E  	mov rc,a
 125  00D4  0700     E  	mov a,rc
 125  00D5  0580     E  	orm a,rb
 126  00D6              #line 126 "C:\Users\Tech\Desktop\CODetector\OPAMP\OPAMP.c"
 126  00D6  3C00     E  	sz rb.7
 126  00D7  2800     R  	jmp _L18
 126  00D8              _L23:
 129  00D8              #line 129 "C:\Users\Tech\Desktop\CODetector\OPAMP\OPAMP.c"
 129  00D8  3C26        	sz [38].0
 129  00D9  2800     R  	jmp _L33
 129  00DA  3CA6        	sz [38].1
 129  00DB  2800     R  	jmp _L33
 129  00DC  3D26        	sz [38].2
 129  00DD  2800     R  	jmp _L33
 129  00DE  3DA6        	sz [38].3
 129  00DF  2800     R  	jmp _L33
 129  00E0  3E26        	sz [38].4
 129  00E1  2800     R  	jmp _L33
 129  00E2  1F00     E  	clr rb
 129  00E3  3EA6        	sz [38].5
 129  00E4  1480     E  	inc rb
 129  00E5  1F00     E  	clr rc
 129  00E6  2800     R  	jmp _L20
 129  00E7              _L33:
 129  00E7  0F01        	mov a,1
 129  00E8  0080     E  	mov rb,a
 129  00E9  1F00     E  	clr rc
 129  00EA              _L20:
 129  00EA  0700     E  	mov a,rb
 129  00EB  0080     R  	mov _VA1OS2[0],a
 133  00EC              #line 133 "C:\Users\Tech\Desktop\CODetector\OPAMP\OPAMP.c"
 133  00EC  0700     R  	mov a,_VA0OS1[0]
 133  00ED  0080     E  	mov rd,a
 133  00EE  1F00     E  	clr re
 133  00EF  3F85        	sz acc.7
 133  00F0  1F80     E  	set re
 133  00F1  0700     E  	mov a,rd
 133  00F2  0380     E  	addm a,rb
 133  00F3  0700     E  	mov a,re
 133  00F4  1380     E  	adcm a,rc
 133  00F5  0700     E  	mov a,rb
 133  00F6  0080     E  	mov rd,a
 133  00F7  0700     E  	mov a,rc
 133  00F8  0080     E  	mov re,a
 133  00F9  1A80     E  	rlc re
"File: OPAMP.c       Assembler  Version HGASM0202      Page 8

 133  00FA  1F00     E  	clr rd
 133  00FB  1A80     E  	rlc rd
 133  00FC  1F00     E  	clr re
 133  00FD  0700     E  	mov a,rd
 133  00FE  0380     E  	addm a,rb
 133  00FF  0700     E  	mov a,re
 133  0100  1380     E  	adcm a,rc
 133  0101  1A00     E  	rlca rc
 133  0102  1B80     E  	rrc rc
 133  0103  1B80     E  	rrc rb
 133  0104  0700     E  	mov a,rb
 133  0105  0080     E  	mov ra,a
 133  0106  0700     E  	mov a,rb
 133  0107  0080     R  	mov _VA1OS[0],a
 134  0108              #line 134 "C:\Users\Tech\Desktop\CODetector\OPAMP\OPAMP.c"
 134  0108  0F00        	mov a,0
 134  0109  0280     E  	subm a,ra
 134  010A  0700     E  	mov a,ra
 134  010B  0580     E  	orm a,rb
 134  010C  1800     E  	rla rb
 134  010D  0E01        	and a,1
 134  010E  00A6        	mov [38],a
 139  010F              #line 139 "C:\Users\Tech\Desktop\CODetector\OPAMP\OPAMP.c"
 139  010F  3725        	clr [37].6
 149  0110              #line 149 "C:\Users\Tech\Desktop\CODetector\OPAMP\OPAMP.c"
 149  0110  322F        	set [47].4
 152  0111              #line 152 "C:\Users\Tech\Desktop\CODetector\OPAMP\OPAMP.c"
 152  0111  31B0        	set [48].3
 153  0112              #line 153 "C:\Users\Tech\Desktop\CODetector\OPAMP\OPAMP.c"
 153  0112  3630        	clr [48].4
 157  0113              #line 157 "C:\Users\Tech\Desktop\CODetector\OPAMP\OPAMP.c"
 157  0113  3430        	clr [48].0
 158  0114              #line 158 "C:\Users\Tech\Desktop\CODetector\OPAMP\OPAMP.c"
 158  0114  34B0        	clr [48].1
 159  0115              #line 159 "C:\Users\Tech\Desktop\CODetector\OPAMP\OPAMP.c"
 159  0115  3530        	clr [48].2
 166  0116              #line 166 "C:\Users\Tech\Desktop\CODetector\OPAMP\OPAMP.c"
 166  0116  33DD        	set [93].7
 170  0117              #line 170 "C:\Users\Tech\Desktop\CODetector\OPAMP\OPAMP.c"
 170  0117  1F5E        	clr [94]
 174  0118              #line 174 "C:\Users\Tech\Desktop\CODetector\OPAMP\OPAMP.c"
 174  0118  1F5F        	clr [95]
 179  0119              #line 179 "C:\Users\Tech\Desktop\CODetector\OPAMP\OPAMP.c"
 179  0119  345D        	clr [93].0
 182  011A              #line 182 "C:\Users\Tech\Desktop\CODetector\OPAMP\OPAMP.c"
 182  011A  34DD        	clr [93].1
 182  011B  0003        	ret
 182  011C              _OPAMPset endp
 182  011C              #line 182 "C:\Users\Tech\Desktop\CODetector\OPAMP\OPAMP.c"
 182  011C              #pragma debug scope 1 1
 182  011C              ___sdsw equ [32]
 182  011C              ___sdpgac0 equ [33]
 182  011C              ___sdpgac1 equ [34]
 182  011C              public _OPAMPInit
 182  011C              #pragma debug scope 3 1
 348  011C              #line 348 "C:\Users\Tech\Desktop\CODetector\OPAMP\OPAMP.c"
 348  0000              _OPAMPInit .section 'code'
 348  0000              _OPAMPInit proc
 362  0000              #line 362 "C:\Users\Tech\Desktop\CODetector\OPAMP\OPAMP.c"
 362  0000  3420        	clr [32].0
"File: OPAMP.c       Assembler  Version HGASM0202      Page 9

 363  0001              #line 363 "C:\Users\Tech\Desktop\CODetector\OPAMP\OPAMP.c"
 363  0001  34A0        	clr [32].1
 364  0002              #line 364 "C:\Users\Tech\Desktop\CODetector\OPAMP\OPAMP.c"
 364  0002  3520        	clr [32].2
 365  0003              #line 365 "C:\Users\Tech\Desktop\CODetector\OPAMP\OPAMP.c"
 365  0003  35A0        	clr [32].3
 366  0004              #line 366 "C:\Users\Tech\Desktop\CODetector\OPAMP\OPAMP.c"
 366  0004  3620        	clr [32].4
 367  0005              #line 367 "C:\Users\Tech\Desktop\CODetector\OPAMP\OPAMP.c"
 367  0005  36A0        	clr [32].5
 368  0006              #line 368 "C:\Users\Tech\Desktop\CODetector\OPAMP\OPAMP.c"
 368  0006  3320        	set [32].6
 372  0007              #line 372 "C:\Users\Tech\Desktop\CODetector\OPAMP\OPAMP.c"
 372  0007  0F01        	mov a,1
 372  0008  00A1        	mov [33],a
 376  0009              #line 376 "C:\Users\Tech\Desktop\CODetector\OPAMP\OPAMP.c"
 376  0009  0FC1        	mov a,193
 376  000A  00A2        	mov [34],a
 379  000B              #line 379 "C:\Users\Tech\Desktop\CODetector\OPAMP\OPAMP.c"
 379  000B  3423        	clr [35].0
 380  000C              #line 380 "C:\Users\Tech\Desktop\CODetector\OPAMP\OPAMP.c"
 380  000C  34A3        	clr [35].1
 383  000D              #line 383 "C:\Users\Tech\Desktop\CODetector\OPAMP\OPAMP.c"
 383  000D  3425        	clr [37].0
 384  000E              #line 384 "C:\Users\Tech\Desktop\CODetector\OPAMP\OPAMP.c"
 384  000E  34A5        	clr [37].1
 387  000F              #line 387 "C:\Users\Tech\Desktop\CODetector\OPAMP\OPAMP.c"
 387  000F  3323        	set [35].6
 391  0010              #line 391 "C:\Users\Tech\Desktop\CODetector\OPAMP\OPAMP.c"
 391  0010  37A4        	clr [36].7
 392  0011              #line 392 "C:\Users\Tech\Desktop\CODetector\OPAMP\OPAMP.c"
 392  0011  3724        	clr [36].6
 395  0012              #line 395 "C:\Users\Tech\Desktop\CODetector\OPAMP\OPAMP.c"
 395  0012  37A6        	clr [38].7
 396  0013              #line 396 "C:\Users\Tech\Desktop\CODetector\OPAMP\OPAMP.c"
 396  0013  3726        	clr [38].6
 401  0014              #line 401 "C:\Users\Tech\Desktop\CODetector\OPAMP\OPAMP.c"
 401  0014  3C00     R  	sz _FT
 401  0015  2800     R  	jmp _L43
 402  0016              #line 402 "C:\Users\Tech\Desktop\CODetector\OPAMP\OPAMP.c"
 402  0016  2000     R  	call _OPAMPset
 402  0017              _L43:
 407  0017              #line 407 "C:\Users\Tech\Desktop\CODetector\OPAMP\OPAMP.c"
 407  0017  3723        	clr [35].6
 410  0018              #line 410 "C:\Users\Tech\Desktop\CODetector\OPAMP\OPAMP.c"
 410  0018  3725        	clr [37].6
 410  0019  0003        	ret
 410  001A              _OPAMPInit endp
 410  001A              #line 410 "C:\Users\Tech\Desktop\CODetector\OPAMP\OPAMP.c"
 410  001A              #pragma debug scope 1 1

  18  001A              #line 18 "C:\Users\Tech\Desktop\CODetector\OPAMP\OPAMP.h"
  18  001A              public _opamp1
  18  0000              @BITDATASEC .section 'data'
  18  0000  00          _opamp1	dbit 0
  18  0001              #pragma debug variable 2 1 _opamp1 "opamp1"
  18  0001              
  18  0000              @HCCINIT .section 'data'
  18  0000              #line 18 "C:\Users\Tech\Desktop\CODetector\OPAMP\OPAMP.h"
  18  0000              public _opamp0
"File: OPAMP.h       Assembler  Version HGASM0202      Page 10

  18  0001              @BITDATASEC .section 'data'
  18  0000              _opamp0	dbit 0
  18  0001              #pragma debug variable 2 1 _opamp0 "opamp0"
  18  0001              
  18  0000              @HCCINIT .section 'data'
  17  0000              #line 17 "C:\Users\Tech\Desktop\CODetector\OPAMP\OPAMP.h"
  17  0000              public _VA1OS2
  17  0000              @HCCINIT0_VA1OS2 .section 'data'
  17  0000              _VA1OS2	db 0
  17  0001              #pragma debug variable 7 1 _VA1OS2 "VA1OS2"
  17  0001              
  17  0000              @HCCINIT .section 'data'
  17  0000              #line 17 "C:\Users\Tech\Desktop\CODetector\OPAMP\OPAMP.h"
  17  0000              public _VA1OS1
  17  0000              @HCCINIT0_VA1OS1 .section 'data'
  17  0000              _VA1OS1	db 0
  17  0001              #pragma debug variable 7 1 _VA1OS1 "VA1OS1"
  17  0001              
  17  0000              @HCCINIT .section 'data'
  17  0000              #line 17 "C:\Users\Tech\Desktop\CODetector\OPAMP\OPAMP.h"
  17  0000              public _VA1OS
  17  0000              @HCCINIT0_VA1OS .section 'data'
  17  0000              _VA1OS	db 0
  17  0001              #pragma debug variable 7 1 _VA1OS "VA1OS"
  17  0001              
  17  0000              @HCCINIT .section 'data'
  16  0000              #line 16 "C:\Users\Tech\Desktop\CODetector\OPAMP\OPAMP.h"
  16  0000              public _VA0OS2
  16  0000              @HCCINIT0_VA0OS2 .section 'data'
  16  0000              _VA0OS2	db 0
  16  0001              #pragma debug variable 7 1 _VA0OS2 "VA0OS2"
  16  0001              
  16  0000              @HCCINIT .section 'data'
  16  0000              #line 16 "C:\Users\Tech\Desktop\CODetector\OPAMP\OPAMP.h"
  16  0000              public _VA0OS1
  16  0000              @HCCINIT0_VA0OS1 .section 'data'
  16  0000              _VA0OS1	db 0
  16  0001              #pragma debug variable 7 1 _VA0OS1 "VA0OS1"
  16  0001              
  16  0000              @HCCINIT .section 'data'
  16  0000              #line 16 "C:\Users\Tech\Desktop\CODetector\OPAMP\OPAMP.h"
  16  0000              public _VA0OS
  16  0000              @HCCINIT0_VA0OS .section 'data'
  16  0000              _VA0OS	db 0
  16  0001              #pragma debug variable 7 1 _VA0OS "VA0OS"
  16  0001              
  16  0000              @HCCINIT .section 'data'
  15  0000              #line 15 "C:\Users\Tech\Desktop\CODetector\OPAMP\OPAMP.h"
  15  0000              public _V_op1
  15  0000              @HCCINIT0_V_op1 .section 'data'
  15  0000  0002[       _V_op1	db 2 dup(0)
            00
            ]
  15  0002              #pragma debug variable 11 1 _V_op1 "V_op1"
  15  0002              
  15  0000              @HCCINIT .section 'data'
  14  0000              #line 14 "C:\Users\Tech\Desktop\CODetector\OPAMP\OPAMP.h"
  14  0000              public _V_op0
  14  0000              @HCCINIT0_V_op0 .section 'data'
  14  0000  0002[       _V_op0	db 2 dup(0)
"File: OPAMP.h       Assembler  Version HGASM0202      Page 11

            00
            ]
  14  0002              #pragma debug variable 11 1 _V_op0 "V_op0"
  14  0002              
  14  0000              @HCCINIT .section 'data'
  14  0000              public _FT
  14  0000              @HCCINIT	.section 'data'
  13  0000              #line 13 "C:\Users\Tech\Desktop\CODetector\OPAMP\OPAMP.h"
  13  0001              @BITDATASEC .section 'data'
  13  0000              _FT	dbit 0
  13  0001              #pragma debug variable 2 1 _FT "FT"
  13  0001              #pragma debug struct_end
  13  0001              #pragma debug struct_end
  13  0001              #pragma debug union_end
  13  0001              #pragma debug union_end
  13  0001              #pragma debug variable 43 1 ___sdsw "__sdsw" 1
  13  0001              #pragma debug struct_end
  13  0001              #pragma debug struct_end
  13  0001              #pragma debug union_end
  13  0001              #pragma debug union_end
  13  0001              #pragma debug variable 45 1 ___sdpgac0 "__sdpgac0" 1
  13  0001              #pragma debug struct_end
  13  0001              #pragma debug struct_end
  13  0001              #pragma debug union_end
  13  0001              #pragma debug union_end
  13  0001              #pragma debug variable 47 1 ___sdpgac1 "__sdpgac1" 1
  13  0001              #pragma debug struct_end
  13  0001              #pragma debug struct_end
  13  0001              #pragma debug union_end
  13  0001              #pragma debug union_end
  13  0001              #pragma debug variable 49 1 ___sda0c "__sda0c" 1
  13  0001              #pragma debug struct_end
  13  0001              #pragma debug struct_end
  13  0001              #pragma debug union_end
  13  0001              #pragma debug union_end
  13  0001              #pragma debug variable 51 1 ___sda0vos "__sda0vos" 1
  13  0001              #pragma debug struct_end
  13  0001              #pragma debug struct_end
  13  0001              #pragma debug union_end
  13  0001              #pragma debug union_end
  13  0001              #pragma debug variable 53 1 ___sda1c "__sda1c" 1
  13  0001              #pragma debug struct_end
  13  0001              #pragma debug struct_end
  13  0001              #pragma debug union_end
  13  0001              #pragma debug union_end
  13  0001              #pragma debug variable 55 1 ___sda1vos "__sda1vos" 1
  13  0001              #pragma debug struct_end
  13  0001              #pragma debug struct_end
  13  0001              #pragma debug union_end
  13  0001              #pragma debug union_end
  13  0001              #pragma debug variable 57 1 ___sadc0 "__sadc0" 1
  13  0001              #pragma debug struct_end
  13  0001              #pragma debug struct_end
  13  0001              #pragma debug union_end
  13  0001              #pragma debug union_end
  13  0001              #pragma debug variable 59 1 ___sadc1 "__sadc1" 1
  13  0001              #pragma debug struct_end
  13  0001              #pragma debug struct_end
  13  0001              #pragma debug union_end
  13  0001              #pragma debug union_end
"File: OPAMP.h       Assembler  Version HGASM0202      Page 12

  13  0001              #pragma debug variable 61 1 ___isgenc "__isgenc" 1
  13  0001              #pragma debug variable 8 1 ___isgdata0 "__isgdata0" 1
  13  0001              #pragma debug variable 8 1 ___isgdata1 "__isgdata1" 1
  13  0001              
  13  0001              ; 
  13  0001              ; Generated by holtek-gcc v3.19, Sun Aug 27 18:02:28 2023
  13  0001              ; Rebuild 718
  13  0001              ; end of file


        0 Errors, 0