"File: SevenSegment3DigitComplex.c  Assembler  Version HGASM0202      Page 1


   1  0000              ; Generated by holtek-gcc v3.19, Sun Aug 27 10:54:55 2023
   2  0000              ; 
   3  0000              ; Configuration:
   4  0000              ;       with long instruction
   5  0000              ;       Single ROM, Multi-RAM
   6  0000              ;       bits_per_rom_unit:16
   7  0000              ;       with mp1
   8  0000              ;       with tbhp, address(0x9)
   9  0000              ;          Use tabrd-const
  10  0000              ;       
  11  0000              ; SFR address of long-instruction arch:
  12  0000              ;    mp0 = -1,1,0
  13  0000              ;    mp1 = 4,3,2
  14  0000              ;    mp2 = 14,13,12
  15  0000              ;    tbp = 9,7,8
  16  0000              ;    acc = 5
  17  0000              ;    pcl = 6
  18  0000              ;    status = 10
  19  0000              ;    bp = 11
  20  0000              ;    intc = 72
  21  0000              ;       
  22  0000              ;       
  23  0000              ; use 'tabrdc' instead of 'tabrd'
  24  0000              ;       
  25  0000              
  26  0000              #pragma translator "holtek-gcc 4.6.4" "3.19" "build 20130711"
  27  0000              ; Rebuild 718
  28  0000              
  29  0000              ir equ [2]
  30  0000              mp equ [3]
  31  0000              sbp equ [4]
  32  0000              acc equ [5]
  33  0000              bp equ [11]
  34  0000              tblp equ [7]
  35  0000              tbhp equ [9]
  36  0000              status equ [10]
  37  0000              c equ [10].0
  38  0000              ac equ [10].1
  39  0000              z equ [10].2
  40  0000              ov equ [10].3
  41  0000              cz equ [10].6
  42  0000              sc equ [10].7
  43  0000              intc equ [72]
  44  0000              
  45  0000              extern ra:byte
  46  0000              extern rb:byte
  47  0000              extern rc:byte
  48  0000              extern rd:byte
  49  0000              extern re:byte
  50  0000              extern rf:byte
  51  0000              extern rg:byte
  52  0000              extern rh:byte
  53  0000              extern _Crom2Prom:near
  54  0000              extern _Crom2PromNext:near
  55  0000              
  56  0000              RAMBANK 0 @BITDATASEC, @BITDATASEC1
  57  0000              @HCCINIT	.section 'data'
  58  0000              @HCCINIT0	.section 'data'
  59  0000              @BITDATASEC	 .section 'data'
"File: SevenSegment3DigitComplex.ASM  Assembler  Version HGASM0202      Page 2

  60  0000              @BITDATASEC1	 .section 'data'
  61  0000              
  62  0000              #pragma debug scope 1 1
  63  0000              	extern __DELAY3:near
  64  0000              	extern __DELAYX3:near
  65  0000              	extern __DELAYX6:near
  66  0000              	extern __DELAYY5:near
  67  0000              	extern __DELAYY3:near
  68  0000              	extern _builtin_holtek_delay_2:byte
  69  0000              ___pbc equ [25]
  70  0000              ___pac equ [21]
  71  0000              ___pb equ [24]
  72  0000              ___pa equ [20]
  73  0000              public _errorSeg
  74  0000              #pragma debug scope 2 1

   7  0000              #line 7 "C:\Users\Tech\Desktop\CODetector\sevenSegment3DigitComplex\SevenSegment3DigitComplex.c"
   7  0000              _errorSeg .section 'code'
   7  0000              _errorSeg proc
   8  0000              #line 8 "C:\Users\Tech\Desktop\CODetector\sevenSegment3DigitComplex\SevenSegment3DigitComplex.c"
   8  0000  3119        	set [25].2
   9  0001              #line 9 "C:\Users\Tech\Desktop\CODetector\sevenSegment3DigitComplex\SevenSegment3DigitComplex.c"
   9  0001  3099        	set [25].1
  10  0002              #line 10 "C:\Users\Tech\Desktop\CODetector\sevenSegment3DigitComplex\SevenSegment3DigitComplex.c"
  10  0002  3215        	set [21].4
  11  0003              #line 11 "C:\Users\Tech\Desktop\CODetector\sevenSegment3DigitComplex\SevenSegment3DigitComplex.c"
  11  0003  3015        	set [21].0
  12  0004              #line 12 "C:\Users\Tech\Desktop\CODetector\sevenSegment3DigitComplex\SevenSegment3DigitComplex.c"
  12  0004  3115        	set [21].2
  13  0005              #line 13 "C:\Users\Tech\Desktop\CODetector\sevenSegment3DigitComplex\SevenSegment3DigitComplex.c"
  13  0005  3199        	set [25].3
  14  0006              #line 14 "C:\Users\Tech\Desktop\CODetector\sevenSegment3DigitComplex\SevenSegment3DigitComplex.c"
  14  0006  3519        	clr [25].2
  15  0007              #line 15 "C:\Users\Tech\Desktop\CODetector\sevenSegment3DigitComplex\SevenSegment3DigitComplex.c"
  15  0007  3499        	clr [25].1
  16  0008              #line 16 "C:\Users\Tech\Desktop\CODetector\sevenSegment3DigitComplex\SevenSegment3DigitComplex.c"
  16  0008  3515        	clr [21].2
  17  0009              #line 17 "C:\Users\Tech\Desktop\CODetector\sevenSegment3DigitComplex\SevenSegment3DigitComplex.c"
  17  0009  3599        	clr [25].3
  18  000A              #line 18 "C:\Users\Tech\Desktop\CODetector\sevenSegment3DigitComplex\SevenSegment3DigitComplex.c"
  18  000A  3518        	clr [24].2
  19  000B              #line 19 "C:\Users\Tech\Desktop\CODetector\sevenSegment3DigitComplex\SevenSegment3DigitComplex.c"
  19  000B  3098        	set [24].1
  20  000C              #line 20 "C:\Users\Tech\Desktop\CODetector\sevenSegment3DigitComplex\SevenSegment3DigitComplex.c"
  20  000C  3114        	set [20].2
  21  000D              #line 21 "C:\Users\Tech\Desktop\CODetector\sevenSegment3DigitComplex\SevenSegment3DigitComplex.c"
  21  000D  3198        	set [24].3
  22  000E              #line 22 "C:\Users\Tech\Desktop\CODetector\sevenSegment3DigitComplex\SevenSegment3DigitComplex.c"
  22  000E              ;# 22 "C:\Users\Tech\Desktop\CODetector\sevenSegment3DigitComplex\SevenSegment3DigitComplex.c" 1
  22  000E              	IF 1000>263690
  22  000E              ;# 22 "C:\Users\Tech\Desktop\CODetector\sevenSegment3DigitComplex\SevenSegment3DigitComplex.c" 1
  22  000E              	ERRMESSAGE 'the value 1000of the argument exceeds the maxinum 263690'
  22  000E              	ENDIF
  22  000E              ;# 22 "C:\Users\Tech\Desktop\CODetector\sevenSegment3DigitComplex\SevenSegment3DigitComplex.c" 1
  22  000E              	IF 1000<0
  22  000E              ;# 22 "C:\Users\Tech\Desktop\CODetector\sevenSegment3DigitComplex\SevenSegment3DigitComplex.c" 1
  22  000E              	ERRMESSAGE 'the value 1000 of the argument exceeds the mininum 0'
  22  000E              	ENDIF
  22  000E              ;# 22 "C:\Users\Tech\Desktop\CODetector\sevenSegment3DigitComplex\SevenSegment3DigitComplex.c" 1
  22  000E              	IF 1000==0
"File: SevenSegment3DigitComplex.c  Assembler  Version HGASM0202      Page 3

  22  000E              ;# 22 "C:\Users\Tech\Desktop\CODetector\sevenSegment3DigitComplex\SevenSegment3DigitComplex.c" 1
  22  000E              	JMP $
  22  000E              	ENDIF
  22  000E              ;# 22 "C:\Users\Tech\Desktop\CODetector\sevenSegment3DigitComplex\SevenSegment3DigitComplex.c" 1
  22  000E              	IF 1000==1
  22  000E              ;# 22 "C:\Users\Tech\Desktop\CODetector\sevenSegment3DigitComplex\SevenSegment3DigitComplex.c" 1
  22  000E              	NOP
  22  000E              	ENDIF
  22  000E              ;# 22 "C:\Users\Tech\Desktop\CODetector\sevenSegment3DigitComplex\SevenSegment3DigitComplex.c" 1
  22  000E              	IF 1000==2
  22  000E              ;# 22 "C:\Users\Tech\Desktop\CODetector\sevenSegment3DigitComplex\SevenSegment3DigitComplex.c" 1
  22  000E              	NOP
  22  000E              ;# 22 "C:\Users\Tech\Desktop\CODetector\sevenSegment3DigitComplex\SevenSegment3DigitComplex.c" 1
  22  000E              	NOP
  22  000E              	ENDIF
  22  000E              ;# 22 "C:\Users\Tech\Desktop\CODetector\sevenSegment3DigitComplex\SevenSegment3DigitComplex.c" 1
  22  000E              	IF 1000==3
  22  000E              ;# 22 "C:\Users\Tech\Desktop\CODetector\sevenSegment3DigitComplex\SevenSegment3DigitComplex.c" 1
  22  000E              	NOP
  22  000E              ;# 22 "C:\Users\Tech\Desktop\CODetector\sevenSegment3DigitComplex\SevenSegment3DigitComplex.c" 1
  22  000E              	NOP
  22  000E              ;# 22 "C:\Users\Tech\Desktop\CODetector\sevenSegment3DigitComplex\SevenSegment3DigitComplex.c" 1
  22  000E              	NOP
  22  000E              	ENDIF
  22  000E              ;# 22 "C:\Users\Tech\Desktop\CODetector\sevenSegment3DigitComplex\SevenSegment3DigitComplex.c" 1
  22  000E              	IF (1000<8) AND (1000>3)
  22  000E              ;# 22 "C:\Users\Tech\Desktop\CODetector\sevenSegment3DigitComplex\SevenSegment3DigitComplex.c" 1
  22  000E              	CALL __DELAY3 + 7 -1000
  22  000E              	ENDIF
  22  000E              ;# 22 "C:\Users\Tech\Desktop\CODetector\sevenSegment3DigitComplex\SevenSegment3DigitComplex.c" 1
  22  000E              	IF (1000< 0404h) AND (1000>7)
  22  000E              ;# 22 "C:\Users\Tech\Desktop\CODetector\sevenSegment3DigitComplex\SevenSegment3DigitComplex.c" 1
  22  000E  0FF9        	MOV A,1000/4-1
  22  000F              ;# 22 "C:\Users\Tech\Desktop\CODetector\sevenSegment3DigitComplex\SevenSegment3DigitComplex.c" 1
  22  000F  2000     E  	CALL __DELAYX3 + 3 -(1000 MOD 4)
  22  0010              	ENDIF
  22  0010              ;# 22 "C:\Users\Tech\Desktop\CODetector\sevenSegment3DigitComplex\SevenSegment3DigitComplex.c" 1
  22  0010              	IF (1000< 0x40B) AND (1000> 0403h)
  22  0010              ;# 22 "C:\Users\Tech\Desktop\CODetector\sevenSegment3DigitComplex\SevenSegment3DigitComplex.c" 1
  22  0010              	MOV A,0 
  22  0010              ;# 22 "C:\Users\Tech\Desktop\CODetector\sevenSegment3DigitComplex\SevenSegment3DigitComplex.c" 1
  22  0010              	CALL __DELAYX6 + 0x40a -1000
  22  0010              	ENDIF
  22  0010              ;# 22 "C:\Users\Tech\Desktop\CODetector\sevenSegment3DigitComplex\SevenSegment3DigitComplex.c" 1
  22  0010              	IF (1000 >= 0x40b) AND ((((1000-9)%0402h)/4+1)>256)
  22  0010              ;# 22 "C:\Users\Tech\Desktop\CODetector\sevenSegment3DigitComplex\SevenSegment3DigitComplex.c" 1
  22  0010              	MOV A,(1000-9)/0402h
  22  0010              ;# 22 "C:\Users\Tech\Desktop\CODetector\sevenSegment3DigitComplex\SevenSegment3DigitComplex.c" 1
  22  0010              	MOV _builtin_holtek_delay_2,A
  22  0010              ;# 22 "C:\Users\Tech\Desktop\CODetector\sevenSegment3DigitComplex\SevenSegment3DigitComplex.c" 1
  22  0010              	MOV A,0
  22  0010              ;# 22 "C:\Users\Tech\Desktop\CODetector\sevenSegment3DigitComplex\SevenSegment3DigitComplex.c" 1
  22  0010              	CALL __DELAYY5 +5- (((1000-9)%0402h)%6)
  22  0010              	ENDIF
  22  0010              ;# 22 "C:\Users\Tech\Desktop\CODetector\sevenSegment3DigitComplex\SevenSegment3DigitComplex.c" 1
  22  0010              	IF (1000 >= 0x40b) AND ((((1000-9)%0402h)/4+1)<=256)
  22  0010              ;# 22 "C:\Users\Tech\Desktop\CODetector\sevenSegment3DigitComplex\SevenSegment3DigitComplex.c" 1
  22  0010              	MOV A,(1000-9)/0402h
  22  0010              ;# 22 "C:\Users\Tech\Desktop\CODetector\sevenSegment3DigitComplex\SevenSegment3DigitComplex.c" 1
  22  0010              	MOV _builtin_holtek_delay_2,A
"File: SevenSegment3DigitComplex.c  Assembler  Version HGASM0202      Page 4

  22  0010              ;# 22 "C:\Users\Tech\Desktop\CODetector\sevenSegment3DigitComplex\SevenSegment3DigitComplex.c" 1
  22  0010              	MOV A,((1000-9)%0402h)/4+1
  22  0010              ;# 22 "C:\Users\Tech\Desktop\CODetector\sevenSegment3DigitComplex\SevenSegment3DigitComplex.c" 1
  22  0010              	CALL __DELAYY3 +3-(((1000-9)%0402h)%4)
  22  0010              	ENDIF
  23  0010              #line 23 "C:\Users\Tech\Desktop\CODetector\sevenSegment3DigitComplex\SevenSegment3DigitComplex.c"
  23  0010  3119        	set [25].2
  24  0011              #line 24 "C:\Users\Tech\Desktop\CODetector\sevenSegment3DigitComplex\SevenSegment3DigitComplex.c"
  24  0011  3099        	set [25].1
  25  0012              #line 25 "C:\Users\Tech\Desktop\CODetector\sevenSegment3DigitComplex\SevenSegment3DigitComplex.c"
  25  0012  3215        	set [21].4
  26  0013              #line 26 "C:\Users\Tech\Desktop\CODetector\sevenSegment3DigitComplex\SevenSegment3DigitComplex.c"
  26  0013  3015        	set [21].0
  27  0014              #line 27 "C:\Users\Tech\Desktop\CODetector\sevenSegment3DigitComplex\SevenSegment3DigitComplex.c"
  27  0014  3115        	set [21].2
  28  0015              #line 28 "C:\Users\Tech\Desktop\CODetector\sevenSegment3DigitComplex\SevenSegment3DigitComplex.c"
  28  0015  3199        	set [25].3
  29  0016              #line 29 "C:\Users\Tech\Desktop\CODetector\sevenSegment3DigitComplex\SevenSegment3DigitComplex.c"
  29  0016  3499        	clr [25].1
  30  0017              #line 30 "C:\Users\Tech\Desktop\CODetector\sevenSegment3DigitComplex\SevenSegment3DigitComplex.c"
  30  0017  3615        	clr [21].4
  31  0018              #line 31 "C:\Users\Tech\Desktop\CODetector\sevenSegment3DigitComplex\SevenSegment3DigitComplex.c"
  31  0018  3415        	clr [21].0
  32  0019              #line 32 "C:\Users\Tech\Desktop\CODetector\sevenSegment3DigitComplex\SevenSegment3DigitComplex.c"
  32  0019  3498        	clr [24].1
  33  001A              #line 33 "C:\Users\Tech\Desktop\CODetector\sevenSegment3DigitComplex\SevenSegment3DigitComplex.c"
  33  001A  3214        	set [20].4
  34  001B              #line 34 "C:\Users\Tech\Desktop\CODetector\sevenSegment3DigitComplex\SevenSegment3DigitComplex.c"
  34  001B  3014        	set [20].0
  35  001C              #line 35 "C:\Users\Tech\Desktop\CODetector\sevenSegment3DigitComplex\SevenSegment3DigitComplex.c"
  35  001C              ;# 35 "C:\Users\Tech\Desktop\CODetector\sevenSegment3DigitComplex\SevenSegment3DigitComplex.c" 1
  35  001C              	IF 1000>263690
  35  001C              ;# 35 "C:\Users\Tech\Desktop\CODetector\sevenSegment3DigitComplex\SevenSegment3DigitComplex.c" 1
  35  001C              	ERRMESSAGE 'the value 1000of the argument exceeds the maxinum 263690'
  35  001C              	ENDIF
  35  001C              ;# 35 "C:\Users\Tech\Desktop\CODetector\sevenSegment3DigitComplex\SevenSegment3DigitComplex.c" 1
  35  001C              	IF 1000<0
  35  001C              ;# 35 "C:\Users\Tech\Desktop\CODetector\sevenSegment3DigitComplex\SevenSegment3DigitComplex.c" 1
  35  001C              	ERRMESSAGE 'the value 1000 of the argument exceeds the mininum 0'
  35  001C              	ENDIF
  35  001C              ;# 35 "C:\Users\Tech\Desktop\CODetector\sevenSegment3DigitComplex\SevenSegment3DigitComplex.c" 1
  35  001C              	IF 1000==0
  35  001C              ;# 35 "C:\Users\Tech\Desktop\CODetector\sevenSegment3DigitComplex\SevenSegment3DigitComplex.c" 1
  35  001C              	JMP $
  35  001C              	ENDIF
  35  001C              ;# 35 "C:\Users\Tech\Desktop\CODetector\sevenSegment3DigitComplex\SevenSegment3DigitComplex.c" 1
  35  001C              	IF 1000==1
  35  001C              ;# 35 "C:\Users\Tech\Desktop\CODetector\sevenSegment3DigitComplex\SevenSegment3DigitComplex.c" 1
  35  001C              	NOP
  35  001C              	ENDIF
  35  001C              ;# 35 "C:\Users\Tech\Desktop\CODetector\sevenSegment3DigitComplex\SevenSegment3DigitComplex.c" 1
  35  001C              	IF 1000==2
  35  001C              ;# 35 "C:\Users\Tech\Desktop\CODetector\sevenSegment3DigitComplex\SevenSegment3DigitComplex.c" 1
  35  001C              	NOP
  35  001C              ;# 35 "C:\Users\Tech\Desktop\CODetector\sevenSegment3DigitComplex\SevenSegment3DigitComplex.c" 1
  35  001C              	NOP
  35  001C              	ENDIF
  35  001C              ;# 35 "C:\Users\Tech\Desktop\CODetector\sevenSegment3DigitComplex\SevenSegment3DigitComplex.c" 1
  35  001C              	IF 1000==3
  35  001C              ;# 35 "C:\Users\Tech\Desktop\CODetector\sevenSegment3DigitComplex\SevenSegment3DigitComplex.c" 1
"File: SevenSegment3DigitComplex.c  Assembler  Version HGASM0202      Page 5

  35  001C              	NOP
  35  001C              ;# 35 "C:\Users\Tech\Desktop\CODetector\sevenSegment3DigitComplex\SevenSegment3DigitComplex.c" 1
  35  001C              	NOP
  35  001C              ;# 35 "C:\Users\Tech\Desktop\CODetector\sevenSegment3DigitComplex\SevenSegment3DigitComplex.c" 1
  35  001C              	NOP
  35  001C              	ENDIF
  35  001C              ;# 35 "C:\Users\Tech\Desktop\CODetector\sevenSegment3DigitComplex\SevenSegment3DigitComplex.c" 1
  35  001C              	IF (1000<8) AND (1000>3)
  35  001C              ;# 35 "C:\Users\Tech\Desktop\CODetector\sevenSegment3DigitComplex\SevenSegment3DigitComplex.c" 1
  35  001C              	CALL __DELAY3 + 7 -1000
  35  001C              	ENDIF
  35  001C              ;# 35 "C:\Users\Tech\Desktop\CODetector\sevenSegment3DigitComplex\SevenSegment3DigitComplex.c" 1
  35  001C              	IF (1000< 0404h) AND (1000>7)
  35  001C              ;# 35 "C:\Users\Tech\Desktop\CODetector\sevenSegment3DigitComplex\SevenSegment3DigitComplex.c" 1
  35  001C  0FF9        	MOV A,1000/4-1
  35  001D              ;# 35 "C:\Users\Tech\Desktop\CODetector\sevenSegment3DigitComplex\SevenSegment3DigitComplex.c" 1
  35  001D  2000     E  	CALL __DELAYX3 + 3 -(1000 MOD 4)
  35  001E              	ENDIF
  35  001E              ;# 35 "C:\Users\Tech\Desktop\CODetector\sevenSegment3DigitComplex\SevenSegment3DigitComplex.c" 1
  35  001E              	IF (1000< 0x40B) AND (1000> 0403h)
  35  001E              ;# 35 "C:\Users\Tech\Desktop\CODetector\sevenSegment3DigitComplex\SevenSegment3DigitComplex.c" 1
  35  001E              	MOV A,0 
  35  001E              ;# 35 "C:\Users\Tech\Desktop\CODetector\sevenSegment3DigitComplex\SevenSegment3DigitComplex.c" 1
  35  001E              	CALL __DELAYX6 + 0x40a -1000
  35  001E              	ENDIF
  35  001E              ;# 35 "C:\Users\Tech\Desktop\CODetector\sevenSegment3DigitComplex\SevenSegment3DigitComplex.c" 1
  35  001E              	IF (1000 >= 0x40b) AND ((((1000-9)%0402h)/4+1)>256)
  35  001E              ;# 35 "C:\Users\Tech\Desktop\CODetector\sevenSegment3DigitComplex\SevenSegment3DigitComplex.c" 1
  35  001E              	MOV A,(1000-9)/0402h
  35  001E              ;# 35 "C:\Users\Tech\Desktop\CODetector\sevenSegment3DigitComplex\SevenSegment3DigitComplex.c" 1
  35  001E              	MOV _builtin_holtek_delay_2,A
  35  001E              ;# 35 "C:\Users\Tech\Desktop\CODetector\sevenSegment3DigitComplex\SevenSegment3DigitComplex.c" 1
  35  001E              	MOV A,0
  35  001E              ;# 35 "C:\Users\Tech\Desktop\CODetector\sevenSegment3DigitComplex\SevenSegment3DigitComplex.c" 1
  35  001E              	CALL __DELAYY5 +5- (((1000-9)%0402h)%6)
  35  001E              	ENDIF
  35  001E              ;# 35 "C:\Users\Tech\Desktop\CODetector\sevenSegment3DigitComplex\SevenSegment3DigitComplex.c" 1
  35  001E              	IF (1000 >= 0x40b) AND ((((1000-9)%0402h)/4+1)<=256)
  35  001E              ;# 35 "C:\Users\Tech\Desktop\CODetector\sevenSegment3DigitComplex\SevenSegment3DigitComplex.c" 1
  35  001E              	MOV A,(1000-9)/0402h
  35  001E              ;# 35 "C:\Users\Tech\Desktop\CODetector\sevenSegment3DigitComplex\SevenSegment3DigitComplex.c" 1
  35  001E              	MOV _builtin_holtek_delay_2,A
  35  001E              ;# 35 "C:\Users\Tech\Desktop\CODetector\sevenSegment3DigitComplex\SevenSegment3DigitComplex.c" 1
  35  001E              	MOV A,((1000-9)%0402h)/4+1
  35  001E              ;# 35 "C:\Users\Tech\Desktop\CODetector\sevenSegment3DigitComplex\SevenSegment3DigitComplex.c" 1
  35  001E              	CALL __DELAYY3 +3-(((1000-9)%0402h)%4)
  35  001E              	ENDIF
  36  001E              #line 36 "C:\Users\Tech\Desktop\CODetector\sevenSegment3DigitComplex\SevenSegment3DigitComplex.c"
  36  001E  3119        	set [25].2
  37  001F              #line 37 "C:\Users\Tech\Desktop\CODetector\sevenSegment3DigitComplex\SevenSegment3DigitComplex.c"
  37  001F  3099        	set [25].1
  38  0020              #line 38 "C:\Users\Tech\Desktop\CODetector\sevenSegment3DigitComplex\SevenSegment3DigitComplex.c"
  38  0020  3215        	set [21].4
  39  0021              #line 39 "C:\Users\Tech\Desktop\CODetector\sevenSegment3DigitComplex\SevenSegment3DigitComplex.c"
  39  0021  3015        	set [21].0
  40  0022              #line 40 "C:\Users\Tech\Desktop\CODetector\sevenSegment3DigitComplex\SevenSegment3DigitComplex.c"
  40  0022  3115        	set [21].2
  41  0023              #line 41 "C:\Users\Tech\Desktop\CODetector\sevenSegment3DigitComplex\SevenSegment3DigitComplex.c"
  41  0023  3199        	set [25].3
  42  0024              #line 42 "C:\Users\Tech\Desktop\CODetector\sevenSegment3DigitComplex\SevenSegment3DigitComplex.c"
"File: SevenSegment3DigitComplex.c  Assembler  Version HGASM0202      Page 6

  42  0024  3519        	clr [25].2
  43  0025              #line 43 "C:\Users\Tech\Desktop\CODetector\sevenSegment3DigitComplex\SevenSegment3DigitComplex.c"
  43  0025  3499        	clr [25].1
  44  0026              #line 44 "C:\Users\Tech\Desktop\CODetector\sevenSegment3DigitComplex\SevenSegment3DigitComplex.c"
  44  0026  3599        	clr [25].3
  45  0027              #line 45 "C:\Users\Tech\Desktop\CODetector\sevenSegment3DigitComplex\SevenSegment3DigitComplex.c"
  45  0027  3118        	set [24].2
  46  0028              #line 46 "C:\Users\Tech\Desktop\CODetector\sevenSegment3DigitComplex\SevenSegment3DigitComplex.c"
  46  0028  3498        	clr [24].1
  47  0029              #line 47 "C:\Users\Tech\Desktop\CODetector\sevenSegment3DigitComplex\SevenSegment3DigitComplex.c"
  47  0029  3598        	clr [24].3
  48  002A              #line 48 "C:\Users\Tech\Desktop\CODetector\sevenSegment3DigitComplex\SevenSegment3DigitComplex.c"
  48  002A              ;# 48 "C:\Users\Tech\Desktop\CODetector\sevenSegment3DigitComplex\SevenSegment3DigitComplex.c" 1
  48  002A              	IF 1000>263690
  48  002A              ;# 48 "C:\Users\Tech\Desktop\CODetector\sevenSegment3DigitComplex\SevenSegment3DigitComplex.c" 1
  48  002A              	ERRMESSAGE 'the value 1000of the argument exceeds the maxinum 263690'
  48  002A              	ENDIF
  48  002A              ;# 48 "C:\Users\Tech\Desktop\CODetector\sevenSegment3DigitComplex\SevenSegment3DigitComplex.c" 1
  48  002A              	IF 1000<0
  48  002A              ;# 48 "C:\Users\Tech\Desktop\CODetector\sevenSegment3DigitComplex\SevenSegment3DigitComplex.c" 1
  48  002A              	ERRMESSAGE 'the value 1000 of the argument exceeds the mininum 0'
  48  002A              	ENDIF
  48  002A              ;# 48 "C:\Users\Tech\Desktop\CODetector\sevenSegment3DigitComplex\SevenSegment3DigitComplex.c" 1
  48  002A              	IF 1000==0
  48  002A              ;# 48 "C:\Users\Tech\Desktop\CODetector\sevenSegment3DigitComplex\SevenSegment3DigitComplex.c" 1
  48  002A              	JMP $
  48  002A              	ENDIF
  48  002A              ;# 48 "C:\Users\Tech\Desktop\CODetector\sevenSegment3DigitComplex\SevenSegment3DigitComplex.c" 1
  48  002A              	IF 1000==1
  48  002A              ;# 48 "C:\Users\Tech\Desktop\CODetector\sevenSegment3DigitComplex\SevenSegment3DigitComplex.c" 1
  48  002A              	NOP
  48  002A              	ENDIF
  48  002A              ;# 48 "C:\Users\Tech\Desktop\CODetector\sevenSegment3DigitComplex\SevenSegment3DigitComplex.c" 1
  48  002A              	IF 1000==2
  48  002A              ;# 48 "C:\Users\Tech\Desktop\CODetector\sevenSegment3DigitComplex\SevenSegment3DigitComplex.c" 1
  48  002A              	NOP
  48  002A              ;# 48 "C:\Users\Tech\Desktop\CODetector\sevenSegment3DigitComplex\SevenSegment3DigitComplex.c" 1
  48  002A              	NOP
  48  002A              	ENDIF
  48  002A              ;# 48 "C:\Users\Tech\Desktop\CODetector\sevenSegment3DigitComplex\SevenSegment3DigitComplex.c" 1
  48  002A              	IF 1000==3
  48  002A              ;# 48 "C:\Users\Tech\Desktop\CODetector\sevenSegment3DigitComplex\SevenSegment3DigitComplex.c" 1
  48  002A              	NOP
  48  002A              ;# 48 "C:\Users\Tech\Desktop\CODetector\sevenSegment3DigitComplex\SevenSegment3DigitComplex.c" 1
  48  002A              	NOP
  48  002A              ;# 48 "C:\Users\Tech\Desktop\CODetector\sevenSegment3DigitComplex\SevenSegment3DigitComplex.c" 1
  48  002A              	NOP
  48  002A              	ENDIF
  48  002A              ;# 48 "C:\Users\Tech\Desktop\CODetector\sevenSegment3DigitComplex\SevenSegment3DigitComplex.c" 1
  48  002A              	IF (1000<8) AND (1000>3)
  48  002A              ;# 48 "C:\Users\Tech\Desktop\CODetector\sevenSegment3DigitComplex\SevenSegment3DigitComplex.c" 1
  48  002A              	CALL __DELAY3 + 7 -1000
  48  002A              	ENDIF
  48  002A              ;# 48 "C:\Users\Tech\Desktop\CODetector\sevenSegment3DigitComplex\SevenSegment3DigitComplex.c" 1
  48  002A              	IF (1000< 0404h) AND (1000>7)
  48  002A              ;# 48 "C:\Users\Tech\Desktop\CODetector\sevenSegment3DigitComplex\SevenSegment3DigitComplex.c" 1
  48  002A  0FF9        	MOV A,1000/4-1
  48  002B              ;# 48 "C:\Users\Tech\Desktop\CODetector\sevenSegment3DigitComplex\SevenSegment3DigitComplex.c" 1
  48  002B  2000     E  	CALL __DELAYX3 + 3 -(1000 MOD 4)
  48  002C              	ENDIF
"File: SevenSegment3DigitComplex.c  Assembler  Version HGASM0202      Page 7

  48  002C              ;# 48 "C:\Users\Tech\Desktop\CODetector\sevenSegment3DigitComplex\SevenSegment3DigitComplex.c" 1
  48  002C              	IF (1000< 0x40B) AND (1000> 0403h)
  48  002C              ;# 48 "C:\Users\Tech\Desktop\CODetector\sevenSegment3DigitComplex\SevenSegment3DigitComplex.c" 1
  48  002C              	MOV A,0 
  48  002C              ;# 48 "C:\Users\Tech\Desktop\CODetector\sevenSegment3DigitComplex\SevenSegment3DigitComplex.c" 1
  48  002C              	CALL __DELAYX6 + 0x40a -1000
  48  002C              	ENDIF
  48  002C              ;# 48 "C:\Users\Tech\Desktop\CODetector\sevenSegment3DigitComplex\SevenSegment3DigitComplex.c" 1
  48  002C              	IF (1000 >= 0x40b) AND ((((1000-9)%0402h)/4+1)>256)
  48  002C              ;# 48 "C:\Users\Tech\Desktop\CODetector\sevenSegment3DigitComplex\SevenSegment3DigitComplex.c" 1
  48  002C              	MOV A,(1000-9)/0402h
  48  002C              ;# 48 "C:\Users\Tech\Desktop\CODetector\sevenSegment3DigitComplex\SevenSegment3DigitComplex.c" 1
  48  002C              	MOV _builtin_holtek_delay_2,A
  48  002C              ;# 48 "C:\Users\Tech\Desktop\CODetector\sevenSegment3DigitComplex\SevenSegment3DigitComplex.c" 1
  48  002C              	MOV A,0
  48  002C              ;# 48 "C:\Users\Tech\Desktop\CODetector\sevenSegment3DigitComplex\SevenSegment3DigitComplex.c" 1
  48  002C              	CALL __DELAYY5 +5- (((1000-9)%0402h)%6)
  48  002C              	ENDIF
  48  002C              ;# 48 "C:\Users\Tech\Desktop\CODetector\sevenSegment3DigitComplex\SevenSegment3DigitComplex.c" 1
  48  002C              	IF (1000 >= 0x40b) AND ((((1000-9)%0402h)/4+1)<=256)
  48  002C              ;# 48 "C:\Users\Tech\Desktop\CODetector\sevenSegment3DigitComplex\SevenSegment3DigitComplex.c" 1
  48  002C              	MOV A,(1000-9)/0402h
  48  002C              ;# 48 "C:\Users\Tech\Desktop\CODetector\sevenSegment3DigitComplex\SevenSegment3DigitComplex.c" 1
  48  002C              	MOV _builtin_holtek_delay_2,A
  48  002C              ;# 48 "C:\Users\Tech\Desktop\CODetector\sevenSegment3DigitComplex\SevenSegment3DigitComplex.c" 1
  48  002C              	MOV A,((1000-9)%0402h)/4+1
  48  002C              ;# 48 "C:\Users\Tech\Desktop\CODetector\sevenSegment3DigitComplex\SevenSegment3DigitComplex.c" 1
  48  002C              	CALL __DELAYY3 +3-(((1000-9)%0402h)%4)
  48  002C              	ENDIF
  49  002C              #line 49 "C:\Users\Tech\Desktop\CODetector\sevenSegment3DigitComplex\SevenSegment3DigitComplex.c"
  49  002C  3119        	set [25].2
  50  002D              #line 50 "C:\Users\Tech\Desktop\CODetector\sevenSegment3DigitComplex\SevenSegment3DigitComplex.c"
  50  002D  3099        	set [25].1
  51  002E              #line 51 "C:\Users\Tech\Desktop\CODetector\sevenSegment3DigitComplex\SevenSegment3DigitComplex.c"
  51  002E  3215        	set [21].4
  52  002F              #line 52 "C:\Users\Tech\Desktop\CODetector\sevenSegment3DigitComplex\SevenSegment3DigitComplex.c"
  52  002F  3015        	set [21].0
  53  0030              #line 53 "C:\Users\Tech\Desktop\CODetector\sevenSegment3DigitComplex\SevenSegment3DigitComplex.c"
  53  0030  3115        	set [21].2
  54  0031              #line 54 "C:\Users\Tech\Desktop\CODetector\sevenSegment3DigitComplex\SevenSegment3DigitComplex.c"
  54  0031  3199        	set [25].3
  55  0032              #line 55 "C:\Users\Tech\Desktop\CODetector\sevenSegment3DigitComplex\SevenSegment3DigitComplex.c"
  55  0032  3499        	clr [25].1
  56  0033              #line 56 "C:\Users\Tech\Desktop\CODetector\sevenSegment3DigitComplex\SevenSegment3DigitComplex.c"
  56  0033  3515        	clr [21].2
  57  0034              #line 57 "C:\Users\Tech\Desktop\CODetector\sevenSegment3DigitComplex\SevenSegment3DigitComplex.c"
  57  0034  3498        	clr [24].1
  58  0035              #line 58 "C:\Users\Tech\Desktop\CODetector\sevenSegment3DigitComplex\SevenSegment3DigitComplex.c"
  58  0035  3114        	set [20].2
  59  0036              #line 59 "C:\Users\Tech\Desktop\CODetector\sevenSegment3DigitComplex\SevenSegment3DigitComplex.c"
  59  0036              ;# 59 "C:\Users\Tech\Desktop\CODetector\sevenSegment3DigitComplex\SevenSegment3DigitComplex.c" 1
  59  0036              	IF 1000>263690
  59  0036              ;# 59 "C:\Users\Tech\Desktop\CODetector\sevenSegment3DigitComplex\SevenSegment3DigitComplex.c" 1
  59  0036              	ERRMESSAGE 'the value 1000of the argument exceeds the maxinum 263690'
  59  0036              	ENDIF
  59  0036              ;# 59 "C:\Users\Tech\Desktop\CODetector\sevenSegment3DigitComplex\SevenSegment3DigitComplex.c" 1
  59  0036              	IF 1000<0
  59  0036              ;# 59 "C:\Users\Tech\Desktop\CODetector\sevenSegment3DigitComplex\SevenSegment3DigitComplex.c" 1
  59  0036              	ERRMESSAGE 'the value 1000 of the argument exceeds the mininum 0'
  59  0036              	ENDIF
"File: SevenSegment3DigitComplex.c  Assembler  Version HGASM0202      Page 8

  59  0036              ;# 59 "C:\Users\Tech\Desktop\CODetector\sevenSegment3DigitComplex\SevenSegment3DigitComplex.c" 1
  59  0036              	IF 1000==0
  59  0036              ;# 59 "C:\Users\Tech\Desktop\CODetector\sevenSegment3DigitComplex\SevenSegment3DigitComplex.c" 1
  59  0036              	JMP $
  59  0036              	ENDIF
  59  0036              ;# 59 "C:\Users\Tech\Desktop\CODetector\sevenSegment3DigitComplex\SevenSegment3DigitComplex.c" 1
  59  0036              	IF 1000==1
  59  0036              ;# 59 "C:\Users\Tech\Desktop\CODetector\sevenSegment3DigitComplex\SevenSegment3DigitComplex.c" 1
  59  0036              	NOP
  59  0036              	ENDIF
  59  0036              ;# 59 "C:\Users\Tech\Desktop\CODetector\sevenSegment3DigitComplex\SevenSegment3DigitComplex.c" 1
  59  0036              	IF 1000==2
  59  0036              ;# 59 "C:\Users\Tech\Desktop\CODetector\sevenSegment3DigitComplex\SevenSegment3DigitComplex.c" 1
  59  0036              	NOP
  59  0036              ;# 59 "C:\Users\Tech\Desktop\CODetector\sevenSegment3DigitComplex\SevenSegment3DigitComplex.c" 1
  59  0036              	NOP
  59  0036              	ENDIF
  59  0036              ;# 59 "C:\Users\Tech\Desktop\CODetector\sevenSegment3DigitComplex\SevenSegment3DigitComplex.c" 1
  59  0036              	IF 1000==3
  59  0036              ;# 59 "C:\Users\Tech\Desktop\CODetector\sevenSegment3DigitComplex\SevenSegment3DigitComplex.c" 1
  59  0036              	NOP
  59  0036              ;# 59 "C:\Users\Tech\Desktop\CODetector\sevenSegment3DigitComplex\SevenSegment3DigitComplex.c" 1
  59  0036              	NOP
  59  0036              ;# 59 "C:\Users\Tech\Desktop\CODetector\sevenSegment3DigitComplex\SevenSegment3DigitComplex.c" 1
  59  0036              	NOP
  59  0036              	ENDIF
  59  0036              ;# 59 "C:\Users\Tech\Desktop\CODetector\sevenSegment3DigitComplex\SevenSegment3DigitComplex.c" 1
  59  0036              	IF (1000<8) AND (1000>3)
  59  0036              ;# 59 "C:\Users\Tech\Desktop\CODetector\sevenSegment3DigitComplex\SevenSegment3DigitComplex.c" 1
  59  0036              	CALL __DELAY3 + 7 -1000
  59  0036              	ENDIF
  59  0036              ;# 59 "C:\Users\Tech\Desktop\CODetector\sevenSegment3DigitComplex\SevenSegment3DigitComplex.c" 1
  59  0036              	IF (1000< 0404h) AND (1000>7)
  59  0036              ;# 59 "C:\Users\Tech\Desktop\CODetector\sevenSegment3DigitComplex\SevenSegment3DigitComplex.c" 1
  59  0036  0FF9        	MOV A,1000/4-1
  59  0037              ;# 59 "C:\Users\Tech\Desktop\CODetector\sevenSegment3DigitComplex\SevenSegment3DigitComplex.c" 1
  59  0037  2000     E  	CALL __DELAYX3 + 3 -(1000 MOD 4)
  59  0038              	ENDIF
  59  0038              ;# 59 "C:\Users\Tech\Desktop\CODetector\sevenSegment3DigitComplex\SevenSegment3DigitComplex.c" 1
  59  0038              	IF (1000< 0x40B) AND (1000> 0403h)
  59  0038              ;# 59 "C:\Users\Tech\Desktop\CODetector\sevenSegment3DigitComplex\SevenSegment3DigitComplex.c" 1
  59  0038              	MOV A,0 
  59  0038              ;# 59 "C:\Users\Tech\Desktop\CODetector\sevenSegment3DigitComplex\SevenSegment3DigitComplex.c" 1
  59  0038              	CALL __DELAYX6 + 0x40a -1000
  59  0038              	ENDIF
  59  0038              ;# 59 "C:\Users\Tech\Desktop\CODetector\sevenSegment3DigitComplex\SevenSegment3DigitComplex.c" 1
  59  0038              	IF (1000 >= 0x40b) AND ((((1000-9)%0402h)/4+1)>256)
  59  0038              ;# 59 "C:\Users\Tech\Desktop\CODetector\sevenSegment3DigitComplex\SevenSegment3DigitComplex.c" 1
  59  0038              	MOV A,(1000-9)/0402h
  59  0038              ;# 59 "C:\Users\Tech\Desktop\CODetector\sevenSegment3DigitComplex\SevenSegment3DigitComplex.c" 1
  59  0038              	MOV _builtin_holtek_delay_2,A
  59  0038              ;# 59 "C:\Users\Tech\Desktop\CODetector\sevenSegment3DigitComplex\SevenSegment3DigitComplex.c" 1
  59  0038              	MOV A,0
  59  0038              ;# 59 "C:\Users\Tech\Desktop\CODetector\sevenSegment3DigitComplex\SevenSegment3DigitComplex.c" 1
  59  0038              	CALL __DELAYY5 +5- (((1000-9)%0402h)%6)
  59  0038              	ENDIF
  59  0038              ;# 59 "C:\Users\Tech\Desktop\CODetector\sevenSegment3DigitComplex\SevenSegment3DigitComplex.c" 1
  59  0038              	IF (1000 >= 0x40b) AND ((((1000-9)%0402h)/4+1)<=256)
  59  0038              ;# 59 "C:\Users\Tech\Desktop\CODetector\sevenSegment3DigitComplex\SevenSegment3DigitComplex.c" 1
  59  0038              	MOV A,(1000-9)/0402h
"File: SevenSegment3DigitComplex.c  Assembler  Version HGASM0202      Page 9

  59  0038              ;# 59 "C:\Users\Tech\Desktop\CODetector\sevenSegment3DigitComplex\SevenSegment3DigitComplex.c" 1
  59  0038              	MOV _builtin_holtek_delay_2,A
  59  0038              ;# 59 "C:\Users\Tech\Desktop\CODetector\sevenSegment3DigitComplex\SevenSegment3DigitComplex.c" 1
  59  0038              	MOV A,((1000-9)%0402h)/4+1
  59  0038              ;# 59 "C:\Users\Tech\Desktop\CODetector\sevenSegment3DigitComplex\SevenSegment3DigitComplex.c" 1
  59  0038              	CALL __DELAYY3 +3-(((1000-9)%0402h)%4)
  59  0038              	ENDIF
  59  0038  0003        	ret
  59  0039              _errorSeg endp
  59  0039              #line 59 "C:\Users\Tech\Desktop\CODetector\sevenSegment3DigitComplex\SevenSegment3DigitComplex.c"
  59  0039              #pragma debug scope 1 1
  59  0039              public _error1Seg
  59  0039              #pragma debug scope 3 1
  67  0039              #line 67 "C:\Users\Tech\Desktop\CODetector\sevenSegment3DigitComplex\SevenSegment3DigitComplex.c"
  67  0000              _error1Seg .section 'code'
  67  0000              _error1Seg proc
  68  0000              #line 68 "C:\Users\Tech\Desktop\CODetector\sevenSegment3DigitComplex\SevenSegment3DigitComplex.c"
  68  0000  3119        	set [25].2
  69  0001              #line 69 "C:\Users\Tech\Desktop\CODetector\sevenSegment3DigitComplex\SevenSegment3DigitComplex.c"
  69  0001  3099        	set [25].1
  70  0002              #line 70 "C:\Users\Tech\Desktop\CODetector\sevenSegment3DigitComplex\SevenSegment3DigitComplex.c"
  70  0002  3215        	set [21].4
  71  0003              #line 71 "C:\Users\Tech\Desktop\CODetector\sevenSegment3DigitComplex\SevenSegment3DigitComplex.c"
  71  0003  3015        	set [21].0
  72  0004              #line 72 "C:\Users\Tech\Desktop\CODetector\sevenSegment3DigitComplex\SevenSegment3DigitComplex.c"
  72  0004  3115        	set [21].2
  73  0005              #line 73 "C:\Users\Tech\Desktop\CODetector\sevenSegment3DigitComplex\SevenSegment3DigitComplex.c"
  73  0005  3199        	set [25].3
  74  0006              #line 74 "C:\Users\Tech\Desktop\CODetector\sevenSegment3DigitComplex\SevenSegment3DigitComplex.c"
  74  0006  3519        	clr [25].2
  75  0007              #line 75 "C:\Users\Tech\Desktop\CODetector\sevenSegment3DigitComplex\SevenSegment3DigitComplex.c"
  75  0007  3499        	clr [25].1
  76  0008              #line 76 "C:\Users\Tech\Desktop\CODetector\sevenSegment3DigitComplex\SevenSegment3DigitComplex.c"
  76  0008  3515        	clr [21].2
  77  0009              #line 77 "C:\Users\Tech\Desktop\CODetector\sevenSegment3DigitComplex\SevenSegment3DigitComplex.c"
  77  0009  3599        	clr [25].3
  78  000A              #line 78 "C:\Users\Tech\Desktop\CODetector\sevenSegment3DigitComplex\SevenSegment3DigitComplex.c"
  78  000A  3518        	clr [24].2
  79  000B              #line 79 "C:\Users\Tech\Desktop\CODetector\sevenSegment3DigitComplex\SevenSegment3DigitComplex.c"
  79  000B  3098        	set [24].1
  80  000C              #line 80 "C:\Users\Tech\Desktop\CODetector\sevenSegment3DigitComplex\SevenSegment3DigitComplex.c"
  80  000C  3114        	set [20].2
  81  000D              #line 81 "C:\Users\Tech\Desktop\CODetector\sevenSegment3DigitComplex\SevenSegment3DigitComplex.c"
  81  000D  3198        	set [24].3
  82  000E              #line 82 "C:\Users\Tech\Desktop\CODetector\sevenSegment3DigitComplex\SevenSegment3DigitComplex.c"
  82  000E              ;# 82 "C:\Users\Tech\Desktop\CODetector\sevenSegment3DigitComplex\SevenSegment3DigitComplex.c" 1
  82  000E              	IF 1000>263690
  82  000E              ;# 82 "C:\Users\Tech\Desktop\CODetector\sevenSegment3DigitComplex\SevenSegment3DigitComplex.c" 1
  82  000E              	ERRMESSAGE 'the value 1000of the argument exceeds the maxinum 263690'
  82  000E              	ENDIF
  82  000E              ;# 82 "C:\Users\Tech\Desktop\CODetector\sevenSegment3DigitComplex\SevenSegment3DigitComplex.c" 1
  82  000E              	IF 1000<0
  82  000E              ;# 82 "C:\Users\Tech\Desktop\CODetector\sevenSegment3DigitComplex\SevenSegment3DigitComplex.c" 1
  82  000E              	ERRMESSAGE 'the value 1000 of the argument exceeds the mininum 0'
  82  000E              	ENDIF
  82  000E              ;# 82 "C:\Users\Tech\Desktop\CODetector\sevenSegment3DigitComplex\SevenSegment3DigitComplex.c" 1
  82  000E              	IF 1000==0
  82  000E              ;# 82 "C:\Users\Tech\Desktop\CODetector\sevenSegment3DigitComplex\SevenSegment3DigitComplex.c" 1
  82  000E              	JMP $
  82  000E              	ENDIF
"File: SevenSegment3DigitComplex.c  Assembler  Version HGASM0202      Page 10

  82  000E              ;# 82 "C:\Users\Tech\Desktop\CODetector\sevenSegment3DigitComplex\SevenSegment3DigitComplex.c" 1
  82  000E              	IF 1000==1
  82  000E              ;# 82 "C:\Users\Tech\Desktop\CODetector\sevenSegment3DigitComplex\SevenSegment3DigitComplex.c" 1
  82  000E              	NOP
  82  000E              	ENDIF
  82  000E              ;# 82 "C:\Users\Tech\Desktop\CODetector\sevenSegment3DigitComplex\SevenSegment3DigitComplex.c" 1
  82  000E              	IF 1000==2
  82  000E              ;# 82 "C:\Users\Tech\Desktop\CODetector\sevenSegment3DigitComplex\SevenSegment3DigitComplex.c" 1
  82  000E              	NOP
  82  000E              ;# 82 "C:\Users\Tech\Desktop\CODetector\sevenSegment3DigitComplex\SevenSegment3DigitComplex.c" 1
  82  000E              	NOP
  82  000E              	ENDIF
  82  000E              ;# 82 "C:\Users\Tech\Desktop\CODetector\sevenSegment3DigitComplex\SevenSegment3DigitComplex.c" 1
  82  000E              	IF 1000==3
  82  000E              ;# 82 "C:\Users\Tech\Desktop\CODetector\sevenSegment3DigitComplex\SevenSegment3DigitComplex.c" 1
  82  000E              	NOP
  82  000E              ;# 82 "C:\Users\Tech\Desktop\CODetector\sevenSegment3DigitComplex\SevenSegment3DigitComplex.c" 1
  82  000E              	NOP
  82  000E              ;# 82 "C:\Users\Tech\Desktop\CODetector\sevenSegment3DigitComplex\SevenSegment3DigitComplex.c" 1
  82  000E              	NOP
  82  000E              	ENDIF
  82  000E              ;# 82 "C:\Users\Tech\Desktop\CODetector\sevenSegment3DigitComplex\SevenSegment3DigitComplex.c" 1
  82  000E              	IF (1000<8) AND (1000>3)
  82  000E              ;# 82 "C:\Users\Tech\Desktop\CODetector\sevenSegment3DigitComplex\SevenSegment3DigitComplex.c" 1
  82  000E              	CALL __DELAY3 + 7 -1000
  82  000E              	ENDIF
  82  000E              ;# 82 "C:\Users\Tech\Desktop\CODetector\sevenSegment3DigitComplex\SevenSegment3DigitComplex.c" 1
  82  000E              	IF (1000< 0404h) AND (1000>7)
  82  000E              ;# 82 "C:\Users\Tech\Desktop\CODetector\sevenSegment3DigitComplex\SevenSegment3DigitComplex.c" 1
  82  000E  0FF9        	MOV A,1000/4-1
  82  000F              ;# 82 "C:\Users\Tech\Desktop\CODetector\sevenSegment3DigitComplex\SevenSegment3DigitComplex.c" 1
  82  000F  2000     E  	CALL __DELAYX3 + 3 -(1000 MOD 4)
  82  0010              	ENDIF
  82  0010              ;# 82 "C:\Users\Tech\Desktop\CODetector\sevenSegment3DigitComplex\SevenSegment3DigitComplex.c" 1
  82  0010              	IF (1000< 0x40B) AND (1000> 0403h)
  82  0010              ;# 82 "C:\Users\Tech\Desktop\CODetector\sevenSegment3DigitComplex\SevenSegment3DigitComplex.c" 1
  82  0010              	MOV A,0 
  82  0010              ;# 82 "C:\Users\Tech\Desktop\CODetector\sevenSegment3DigitComplex\SevenSegment3DigitComplex.c" 1
  82  0010              	CALL __DELAYX6 + 0x40a -1000
  82  0010              	ENDIF
  82  0010              ;# 82 "C:\Users\Tech\Desktop\CODetector\sevenSegment3DigitComplex\SevenSegment3DigitComplex.c" 1
  82  0010              	IF (1000 >= 0x40b) AND ((((1000-9)%0402h)/4+1)>256)
  82  0010              ;# 82 "C:\Users\Tech\Desktop\CODetector\sevenSegment3DigitComplex\SevenSegment3DigitComplex.c" 1
  82  0010              	MOV A,(1000-9)/0402h
  82  0010              ;# 82 "C:\Users\Tech\Desktop\CODetector\sevenSegment3DigitComplex\SevenSegment3DigitComplex.c" 1
  82  0010              	MOV _builtin_holtek_delay_2,A
  82  0010              ;# 82 "C:\Users\Tech\Desktop\CODetector\sevenSegment3DigitComplex\SevenSegment3DigitComplex.c" 1
  82  0010              	MOV A,0
  82  0010              ;# 82 "C:\Users\Tech\Desktop\CODetector\sevenSegment3DigitComplex\SevenSegment3DigitComplex.c" 1
  82  0010              	CALL __DELAYY5 +5- (((1000-9)%0402h)%6)
  82  0010              	ENDIF
  82  0010              ;# 82 "C:\Users\Tech\Desktop\CODetector\sevenSegment3DigitComplex\SevenSegment3DigitComplex.c" 1
  82  0010              	IF (1000 >= 0x40b) AND ((((1000-9)%0402h)/4+1)<=256)
  82  0010              ;# 82 "C:\Users\Tech\Desktop\CODetector\sevenSegment3DigitComplex\SevenSegment3DigitComplex.c" 1
  82  0010              	MOV A,(1000-9)/0402h
  82  0010              ;# 82 "C:\Users\Tech\Desktop\CODetector\sevenSegment3DigitComplex\SevenSegment3DigitComplex.c" 1
  82  0010              	MOV _builtin_holtek_delay_2,A
  82  0010              ;# 82 "C:\Users\Tech\Desktop\CODetector\sevenSegment3DigitComplex\SevenSegment3DigitComplex.c" 1
  82  0010              	MOV A,((1000-9)%0402h)/4+1
  82  0010              ;# 82 "C:\Users\Tech\Desktop\CODetector\sevenSegment3DigitComplex\SevenSegment3DigitComplex.c" 1
"File: SevenSegment3DigitComplex.c  Assembler  Version HGASM0202      Page 11

  82  0010              	CALL __DELAYY3 +3-(((1000-9)%0402h)%4)
  82  0010              	ENDIF
  83  0010              #line 83 "C:\Users\Tech\Desktop\CODetector\sevenSegment3DigitComplex\SevenSegment3DigitComplex.c"
  83  0010  3119        	set [25].2
  84  0011              #line 84 "C:\Users\Tech\Desktop\CODetector\sevenSegment3DigitComplex\SevenSegment3DigitComplex.c"
  84  0011  3099        	set [25].1
  85  0012              #line 85 "C:\Users\Tech\Desktop\CODetector\sevenSegment3DigitComplex\SevenSegment3DigitComplex.c"
  85  0012  3215        	set [21].4
  86  0013              #line 86 "C:\Users\Tech\Desktop\CODetector\sevenSegment3DigitComplex\SevenSegment3DigitComplex.c"
  86  0013  3015        	set [21].0
  87  0014              #line 87 "C:\Users\Tech\Desktop\CODetector\sevenSegment3DigitComplex\SevenSegment3DigitComplex.c"
  87  0014  3115        	set [21].2
  88  0015              #line 88 "C:\Users\Tech\Desktop\CODetector\sevenSegment3DigitComplex\SevenSegment3DigitComplex.c"
  88  0015  3199        	set [25].3
  89  0016              #line 89 "C:\Users\Tech\Desktop\CODetector\sevenSegment3DigitComplex\SevenSegment3DigitComplex.c"
  89  0016  3499        	clr [25].1
  90  0017              #line 90 "C:\Users\Tech\Desktop\CODetector\sevenSegment3DigitComplex\SevenSegment3DigitComplex.c"
  90  0017  3615        	clr [21].4
  91  0018              #line 91 "C:\Users\Tech\Desktop\CODetector\sevenSegment3DigitComplex\SevenSegment3DigitComplex.c"
  91  0018  3415        	clr [21].0
  92  0019              #line 92 "C:\Users\Tech\Desktop\CODetector\sevenSegment3DigitComplex\SevenSegment3DigitComplex.c"
  92  0019  3498        	clr [24].1
  93  001A              #line 93 "C:\Users\Tech\Desktop\CODetector\sevenSegment3DigitComplex\SevenSegment3DigitComplex.c"
  93  001A  3214        	set [20].4
  94  001B              #line 94 "C:\Users\Tech\Desktop\CODetector\sevenSegment3DigitComplex\SevenSegment3DigitComplex.c"
  94  001B  3014        	set [20].0
  95  001C              #line 95 "C:\Users\Tech\Desktop\CODetector\sevenSegment3DigitComplex\SevenSegment3DigitComplex.c"
  95  001C              ;# 95 "C:\Users\Tech\Desktop\CODetector\sevenSegment3DigitComplex\SevenSegment3DigitComplex.c" 1
  95  001C              	IF 1000>263690
  95  001C              ;# 95 "C:\Users\Tech\Desktop\CODetector\sevenSegment3DigitComplex\SevenSegment3DigitComplex.c" 1
  95  001C              	ERRMESSAGE 'the value 1000of the argument exceeds the maxinum 263690'
  95  001C              	ENDIF
  95  001C              ;# 95 "C:\Users\Tech\Desktop\CODetector\sevenSegment3DigitComplex\SevenSegment3DigitComplex.c" 1
  95  001C              	IF 1000<0
  95  001C              ;# 95 "C:\Users\Tech\Desktop\CODetector\sevenSegment3DigitComplex\SevenSegment3DigitComplex.c" 1
  95  001C              	ERRMESSAGE 'the value 1000 of the argument exceeds the mininum 0'
  95  001C              	ENDIF
  95  001C              ;# 95 "C:\Users\Tech\Desktop\CODetector\sevenSegment3DigitComplex\SevenSegment3DigitComplex.c" 1
  95  001C              	IF 1000==0
  95  001C              ;# 95 "C:\Users\Tech\Desktop\CODetector\sevenSegment3DigitComplex\SevenSegment3DigitComplex.c" 1
  95  001C              	JMP $
  95  001C              	ENDIF
  95  001C              ;# 95 "C:\Users\Tech\Desktop\CODetector\sevenSegment3DigitComplex\SevenSegment3DigitComplex.c" 1
  95  001C              	IF 1000==1
  95  001C              ;# 95 "C:\Users\Tech\Desktop\CODetector\sevenSegment3DigitComplex\SevenSegment3DigitComplex.c" 1
  95  001C              	NOP
  95  001C              	ENDIF
  95  001C              ;# 95 "C:\Users\Tech\Desktop\CODetector\sevenSegment3DigitComplex\SevenSegment3DigitComplex.c" 1
  95  001C              	IF 1000==2
  95  001C              ;# 95 "C:\Users\Tech\Desktop\CODetector\sevenSegment3DigitComplex\SevenSegment3DigitComplex.c" 1
  95  001C              	NOP
  95  001C              ;# 95 "C:\Users\Tech\Desktop\CODetector\sevenSegment3DigitComplex\SevenSegment3DigitComplex.c" 1
  95  001C              	NOP
  95  001C              	ENDIF
  95  001C              ;# 95 "C:\Users\Tech\Desktop\CODetector\sevenSegment3DigitComplex\SevenSegment3DigitComplex.c" 1
  95  001C              	IF 1000==3
  95  001C              ;# 95 "C:\Users\Tech\Desktop\CODetector\sevenSegment3DigitComplex\SevenSegment3DigitComplex.c" 1
  95  001C              	NOP
  95  001C              ;# 95 "C:\Users\Tech\Desktop\CODetector\sevenSegment3DigitComplex\SevenSegment3DigitComplex.c" 1
  95  001C              	NOP
"File: SevenSegment3DigitComplex.c  Assembler  Version HGASM0202      Page 12

  95  001C              ;# 95 "C:\Users\Tech\Desktop\CODetector\sevenSegment3DigitComplex\SevenSegment3DigitComplex.c" 1
  95  001C              	NOP
  95  001C              	ENDIF
  95  001C              ;# 95 "C:\Users\Tech\Desktop\CODetector\sevenSegment3DigitComplex\SevenSegment3DigitComplex.c" 1
  95  001C              	IF (1000<8) AND (1000>3)
  95  001C              ;# 95 "C:\Users\Tech\Desktop\CODetector\sevenSegment3DigitComplex\SevenSegment3DigitComplex.c" 1
  95  001C              	CALL __DELAY3 + 7 -1000
  95  001C              	ENDIF
  95  001C              ;# 95 "C:\Users\Tech\Desktop\CODetector\sevenSegment3DigitComplex\SevenSegment3DigitComplex.c" 1
  95  001C              	IF (1000< 0404h) AND (1000>7)
  95  001C              ;# 95 "C:\Users\Tech\Desktop\CODetector\sevenSegment3DigitComplex\SevenSegment3DigitComplex.c" 1
  95  001C  0FF9        	MOV A,1000/4-1
  95  001D              ;# 95 "C:\Users\Tech\Desktop\CODetector\sevenSegment3DigitComplex\SevenSegment3DigitComplex.c" 1
  95  001D  2000     E  	CALL __DELAYX3 + 3 -(1000 MOD 4)
  95  001E              	ENDIF
  95  001E              ;# 95 "C:\Users\Tech\Desktop\CODetector\sevenSegment3DigitComplex\SevenSegment3DigitComplex.c" 1
  95  001E              	IF (1000< 0x40B) AND (1000> 0403h)
  95  001E              ;# 95 "C:\Users\Tech\Desktop\CODetector\sevenSegment3DigitComplex\SevenSegment3DigitComplex.c" 1
  95  001E              	MOV A,0 
  95  001E              ;# 95 "C:\Users\Tech\Desktop\CODetector\sevenSegment3DigitComplex\SevenSegment3DigitComplex.c" 1
  95  001E              	CALL __DELAYX6 + 0x40a -1000
  95  001E              	ENDIF
  95  001E              ;# 95 "C:\Users\Tech\Desktop\CODetector\sevenSegment3DigitComplex\SevenSegment3DigitComplex.c" 1
  95  001E              	IF (1000 >= 0x40b) AND ((((1000-9)%0402h)/4+1)>256)
  95  001E              ;# 95 "C:\Users\Tech\Desktop\CODetector\sevenSegment3DigitComplex\SevenSegment3DigitComplex.c" 1
  95  001E              	MOV A,(1000-9)/0402h
  95  001E              ;# 95 "C:\Users\Tech\Desktop\CODetector\sevenSegment3DigitComplex\SevenSegment3DigitComplex.c" 1
  95  001E              	MOV _builtin_holtek_delay_2,A
  95  001E              ;# 95 "C:\Users\Tech\Desktop\CODetector\sevenSegment3DigitComplex\SevenSegment3DigitComplex.c" 1
  95  001E              	MOV A,0
  95  001E              ;# 95 "C:\Users\Tech\Desktop\CODetector\sevenSegment3DigitComplex\SevenSegment3DigitComplex.c" 1
  95  001E              	CALL __DELAYY5 +5- (((1000-9)%0402h)%6)
  95  001E              	ENDIF
  95  001E              ;# 95 "C:\Users\Tech\Desktop\CODetector\sevenSegment3DigitComplex\SevenSegment3DigitComplex.c" 1
  95  001E              	IF (1000 >= 0x40b) AND ((((1000-9)%0402h)/4+1)<=256)
  95  001E              ;# 95 "C:\Users\Tech\Desktop\CODetector\sevenSegment3DigitComplex\SevenSegment3DigitComplex.c" 1
  95  001E              	MOV A,(1000-9)/0402h
  95  001E              ;# 95 "C:\Users\Tech\Desktop\CODetector\sevenSegment3DigitComplex\SevenSegment3DigitComplex.c" 1
  95  001E              	MOV _builtin_holtek_delay_2,A
  95  001E              ;# 95 "C:\Users\Tech\Desktop\CODetector\sevenSegment3DigitComplex\SevenSegment3DigitComplex.c" 1
  95  001E              	MOV A,((1000-9)%0402h)/4+1
  95  001E              ;# 95 "C:\Users\Tech\Desktop\CODetector\sevenSegment3DigitComplex\SevenSegment3DigitComplex.c" 1
  95  001E              	CALL __DELAYY3 +3-(((1000-9)%0402h)%4)
  95  001E              	ENDIF
  96  001E              #line 96 "C:\Users\Tech\Desktop\CODetector\sevenSegment3DigitComplex\SevenSegment3DigitComplex.c"
  96  001E  3119        	set [25].2
  97  001F              #line 97 "C:\Users\Tech\Desktop\CODetector\sevenSegment3DigitComplex\SevenSegment3DigitComplex.c"
  97  001F  3099        	set [25].1
  98  0020              #line 98 "C:\Users\Tech\Desktop\CODetector\sevenSegment3DigitComplex\SevenSegment3DigitComplex.c"
  98  0020  3215        	set [21].4
  99  0021              #line 99 "C:\Users\Tech\Desktop\CODetector\sevenSegment3DigitComplex\SevenSegment3DigitComplex.c"
  99  0021  3015        	set [21].0
 100  0022              #line 100 "C:\Users\Tech\Desktop\CODetector\sevenSegment3DigitComplex\SevenSegment3DigitComplex.c"
 100  0022  3115        	set [21].2
 101  0023              #line 101 "C:\Users\Tech\Desktop\CODetector\sevenSegment3DigitComplex\SevenSegment3DigitComplex.c"
 101  0023  3199        	set [25].3
 102  0024              #line 102 "C:\Users\Tech\Desktop\CODetector\sevenSegment3DigitComplex\SevenSegment3DigitComplex.c"
 102  0024  3519        	clr [25].2
 103  0025              #line 103 "C:\Users\Tech\Desktop\CODetector\sevenSegment3DigitComplex\SevenSegment3DigitComplex.c"
 103  0025  3499        	clr [25].1
"File: SevenSegment3DigitComplex.c  Assembler  Version HGASM0202      Page 13

 104  0026              #line 104 "C:\Users\Tech\Desktop\CODetector\sevenSegment3DigitComplex\SevenSegment3DigitComplex.c"
 104  0026  3599        	clr [25].3
 105  0027              #line 105 "C:\Users\Tech\Desktop\CODetector\sevenSegment3DigitComplex\SevenSegment3DigitComplex.c"
 105  0027  3118        	set [24].2
 106  0028              #line 106 "C:\Users\Tech\Desktop\CODetector\sevenSegment3DigitComplex\SevenSegment3DigitComplex.c"
 106  0028  3498        	clr [24].1
 107  0029              #line 107 "C:\Users\Tech\Desktop\CODetector\sevenSegment3DigitComplex\SevenSegment3DigitComplex.c"
 107  0029  3598        	clr [24].3
 108  002A              #line 108 "C:\Users\Tech\Desktop\CODetector\sevenSegment3DigitComplex\SevenSegment3DigitComplex.c"
 108  002A              ;# 108 "C:\Users\Tech\Desktop\CODetector\sevenSegment3DigitComplex\SevenSegment3DigitComplex.c" 1
 108  002A              	IF 1000>263690
 108  002A              ;# 108 "C:\Users\Tech\Desktop\CODetector\sevenSegment3DigitComplex\SevenSegment3DigitComplex.c" 1
 108  002A              	ERRMESSAGE 'the value 1000of the argument exceeds the maxinum 263690'
 108  002A              	ENDIF
 108  002A              ;# 108 "C:\Users\Tech\Desktop\CODetector\sevenSegment3DigitComplex\SevenSegment3DigitComplex.c" 1
 108  002A              	IF 1000<0
 108  002A              ;# 108 "C:\Users\Tech\Desktop\CODetector\sevenSegment3DigitComplex\SevenSegment3DigitComplex.c" 1
 108  002A              	ERRMESSAGE 'the value 1000 of the argument exceeds the mininum 0'
 108  002A              	ENDIF
 108  002A              ;# 108 "C:\Users\Tech\Desktop\CODetector\sevenSegment3DigitComplex\SevenSegment3DigitComplex.c" 1
 108  002A              	IF 1000==0
 108  002A              ;# 108 "C:\Users\Tech\Desktop\CODetector\sevenSegment3DigitComplex\SevenSegment3DigitComplex.c" 1
 108  002A              	JMP $
 108  002A              	ENDIF
 108  002A              ;# 108 "C:\Users\Tech\Desktop\CODetector\sevenSegment3DigitComplex\SevenSegment3DigitComplex.c" 1
 108  002A              	IF 1000==1
 108  002A              ;# 108 "C:\Users\Tech\Desktop\CODetector\sevenSegment3DigitComplex\SevenSegment3DigitComplex.c" 1
 108  002A              	NOP
 108  002A              	ENDIF
 108  002A              ;# 108 "C:\Users\Tech\Desktop\CODetector\sevenSegment3DigitComplex\SevenSegment3DigitComplex.c" 1
 108  002A              	IF 1000==2
 108  002A              ;# 108 "C:\Users\Tech\Desktop\CODetector\sevenSegment3DigitComplex\SevenSegment3DigitComplex.c" 1
 108  002A              	NOP
 108  002A              ;# 108 "C:\Users\Tech\Desktop\CODetector\sevenSegment3DigitComplex\SevenSegment3DigitComplex.c" 1
 108  002A              	NOP
 108  002A              	ENDIF
 108  002A              ;# 108 "C:\Users\Tech\Desktop\CODetector\sevenSegment3DigitComplex\SevenSegment3DigitComplex.c" 1
 108  002A              	IF 1000==3
 108  002A              ;# 108 "C:\Users\Tech\Desktop\CODetector\sevenSegment3DigitComplex\SevenSegment3DigitComplex.c" 1
 108  002A              	NOP
 108  002A              ;# 108 "C:\Users\Tech\Desktop\CODetector\sevenSegment3DigitComplex\SevenSegment3DigitComplex.c" 1
 108  002A              	NOP
 108  002A              ;# 108 "C:\Users\Tech\Desktop\CODetector\sevenSegment3DigitComplex\SevenSegment3DigitComplex.c" 1
 108  002A              	NOP
 108  002A              	ENDIF
 108  002A              ;# 108 "C:\Users\Tech\Desktop\CODetector\sevenSegment3DigitComplex\SevenSegment3DigitComplex.c" 1
 108  002A              	IF (1000<8) AND (1000>3)
 108  002A              ;# 108 "C:\Users\Tech\Desktop\CODetector\sevenSegment3DigitComplex\SevenSegment3DigitComplex.c" 1
 108  002A              	CALL __DELAY3 + 7 -1000
 108  002A              	ENDIF
 108  002A              ;# 108 "C:\Users\Tech\Desktop\CODetector\sevenSegment3DigitComplex\SevenSegment3DigitComplex.c" 1
 108  002A              	IF (1000< 0404h) AND (1000>7)
 108  002A              ;# 108 "C:\Users\Tech\Desktop\CODetector\sevenSegment3DigitComplex\SevenSegment3DigitComplex.c" 1
 108  002A  0FF9        	MOV A,1000/4-1
 108  002B              ;# 108 "C:\Users\Tech\Desktop\CODetector\sevenSegment3DigitComplex\SevenSegment3DigitComplex.c" 1
 108  002B  2000     E  	CALL __DELAYX3 + 3 -(1000 MOD 4)
 108  002C              	ENDIF
 108  002C              ;# 108 "C:\Users\Tech\Desktop\CODetector\sevenSegment3DigitComplex\SevenSegment3DigitComplex.c" 1
 108  002C              	IF (1000< 0x40B) AND (1000> 0403h)
 108  002C              ;# 108 "C:\Users\Tech\Desktop\CODetector\sevenSegment3DigitComplex\SevenSegment3DigitComplex.c" 1
"File: SevenSegment3DigitComplex.c  Assembler  Version HGASM0202      Page 14

 108  002C              	MOV A,0 
 108  002C              ;# 108 "C:\Users\Tech\Desktop\CODetector\sevenSegment3DigitComplex\SevenSegment3DigitComplex.c" 1
 108  002C              	CALL __DELAYX6 + 0x40a -1000
 108  002C              	ENDIF
 108  002C              ;# 108 "C:\Users\Tech\Desktop\CODetector\sevenSegment3DigitComplex\SevenSegment3DigitComplex.c" 1
 108  002C              	IF (1000 >= 0x40b) AND ((((1000-9)%0402h)/4+1)>256)
 108  002C              ;# 108 "C:\Users\Tech\Desktop\CODetector\sevenSegment3DigitComplex\SevenSegment3DigitComplex.c" 1
 108  002C              	MOV A,(1000-9)/0402h
 108  002C              ;# 108 "C:\Users\Tech\Desktop\CODetector\sevenSegment3DigitComplex\SevenSegment3DigitComplex.c" 1
 108  002C              	MOV _builtin_holtek_delay_2,A
 108  002C              ;# 108 "C:\Users\Tech\Desktop\CODetector\sevenSegment3DigitComplex\SevenSegment3DigitComplex.c" 1
 108  002C              	MOV A,0
 108  002C              ;# 108 "C:\Users\Tech\Desktop\CODetector\sevenSegment3DigitComplex\SevenSegment3DigitComplex.c" 1
 108  002C              	CALL __DELAYY5 +5- (((1000-9)%0402h)%6)
 108  002C              	ENDIF
 108  002C              ;# 108 "C:\Users\Tech\Desktop\CODetector\sevenSegment3DigitComplex\SevenSegment3DigitComplex.c" 1
 108  002C              	IF (1000 >= 0x40b) AND ((((1000-9)%0402h)/4+1)<=256)
 108  002C              ;# 108 "C:\Users\Tech\Desktop\CODetector\sevenSegment3DigitComplex\SevenSegment3DigitComplex.c" 1
 108  002C              	MOV A,(1000-9)/0402h
 108  002C              ;# 108 "C:\Users\Tech\Desktop\CODetector\sevenSegment3DigitComplex\SevenSegment3DigitComplex.c" 1
 108  002C              	MOV _builtin_holtek_delay_2,A
 108  002C              ;# 108 "C:\Users\Tech\Desktop\CODetector\sevenSegment3DigitComplex\SevenSegment3DigitComplex.c" 1
 108  002C              	MOV A,((1000-9)%0402h)/4+1
 108  002C              ;# 108 "C:\Users\Tech\Desktop\CODetector\sevenSegment3DigitComplex\SevenSegment3DigitComplex.c" 1
 108  002C              	CALL __DELAYY3 +3-(((1000-9)%0402h)%4)
 108  002C              	ENDIF
 109  002C              #line 109 "C:\Users\Tech\Desktop\CODetector\sevenSegment3DigitComplex\SevenSegment3DigitComplex.c"
 109  002C  3119        	set [25].2
 110  002D              #line 110 "C:\Users\Tech\Desktop\CODetector\sevenSegment3DigitComplex\SevenSegment3DigitComplex.c"
 110  002D  3099        	set [25].1
 111  002E              #line 111 "C:\Users\Tech\Desktop\CODetector\sevenSegment3DigitComplex\SevenSegment3DigitComplex.c"
 111  002E  3215        	set [21].4
 112  002F              #line 112 "C:\Users\Tech\Desktop\CODetector\sevenSegment3DigitComplex\SevenSegment3DigitComplex.c"
 112  002F  3015        	set [21].0
 113  0030              #line 113 "C:\Users\Tech\Desktop\CODetector\sevenSegment3DigitComplex\SevenSegment3DigitComplex.c"
 113  0030  3115        	set [21].2
 114  0031              #line 114 "C:\Users\Tech\Desktop\CODetector\sevenSegment3DigitComplex\SevenSegment3DigitComplex.c"
 114  0031  3199        	set [25].3
 115  0032              #line 115 "C:\Users\Tech\Desktop\CODetector\sevenSegment3DigitComplex\SevenSegment3DigitComplex.c"
 115  0032  3499        	clr [25].1
 116  0033              #line 116 "C:\Users\Tech\Desktop\CODetector\sevenSegment3DigitComplex\SevenSegment3DigitComplex.c"
 116  0033  3515        	clr [21].2
 117  0034              #line 117 "C:\Users\Tech\Desktop\CODetector\sevenSegment3DigitComplex\SevenSegment3DigitComplex.c"
 117  0034  3498        	clr [24].1
 118  0035              #line 118 "C:\Users\Tech\Desktop\CODetector\sevenSegment3DigitComplex\SevenSegment3DigitComplex.c"
 118  0035  3114        	set [20].2
 119  0036              #line 119 "C:\Users\Tech\Desktop\CODetector\sevenSegment3DigitComplex\SevenSegment3DigitComplex.c"
 119  0036              ;# 119 "C:\Users\Tech\Desktop\CODetector\sevenSegment3DigitComplex\SevenSegment3DigitComplex.c" 1
 119  0036              	IF 1000>263690
 119  0036              ;# 119 "C:\Users\Tech\Desktop\CODetector\sevenSegment3DigitComplex\SevenSegment3DigitComplex.c" 1
 119  0036              	ERRMESSAGE 'the value 1000of the argument exceeds the maxinum 263690'
 119  0036              	ENDIF
 119  0036              ;# 119 "C:\Users\Tech\Desktop\CODetector\sevenSegment3DigitComplex\SevenSegment3DigitComplex.c" 1
 119  0036              	IF 1000<0
 119  0036              ;# 119 "C:\Users\Tech\Desktop\CODetector\sevenSegment3DigitComplex\SevenSegment3DigitComplex.c" 1
 119  0036              	ERRMESSAGE 'the value 1000 of the argument exceeds the mininum 0'
 119  0036              	ENDIF
 119  0036              ;# 119 "C:\Users\Tech\Desktop\CODetector\sevenSegment3DigitComplex\SevenSegment3DigitComplex.c" 1
 119  0036              	IF 1000==0
 119  0036              ;# 119 "C:\Users\Tech\Desktop\CODetector\sevenSegment3DigitComplex\SevenSegment3DigitComplex.c" 1
"File: SevenSegment3DigitComplex.c  Assembler  Version HGASM0202      Page 15

 119  0036              	JMP $
 119  0036              	ENDIF
 119  0036              ;# 119 "C:\Users\Tech\Desktop\CODetector\sevenSegment3DigitComplex\SevenSegment3DigitComplex.c" 1
 119  0036              	IF 1000==1
 119  0036              ;# 119 "C:\Users\Tech\Desktop\CODetector\sevenSegment3DigitComplex\SevenSegment3DigitComplex.c" 1
 119  0036              	NOP
 119  0036              	ENDIF
 119  0036              ;# 119 "C:\Users\Tech\Desktop\CODetector\sevenSegment3DigitComplex\SevenSegment3DigitComplex.c" 1
 119  0036              	IF 1000==2
 119  0036              ;# 119 "C:\Users\Tech\Desktop\CODetector\sevenSegment3DigitComplex\SevenSegment3DigitComplex.c" 1
 119  0036              	NOP
 119  0036              ;# 119 "C:\Users\Tech\Desktop\CODetector\sevenSegment3DigitComplex\SevenSegment3DigitComplex.c" 1
 119  0036              	NOP
 119  0036              	ENDIF
 119  0036              ;# 119 "C:\Users\Tech\Desktop\CODetector\sevenSegment3DigitComplex\SevenSegment3DigitComplex.c" 1
 119  0036              	IF 1000==3
 119  0036              ;# 119 "C:\Users\Tech\Desktop\CODetector\sevenSegment3DigitComplex\SevenSegment3DigitComplex.c" 1
 119  0036              	NOP
 119  0036              ;# 119 "C:\Users\Tech\Desktop\CODetector\sevenSegment3DigitComplex\SevenSegment3DigitComplex.c" 1
 119  0036              	NOP
 119  0036              ;# 119 "C:\Users\Tech\Desktop\CODetector\sevenSegment3DigitComplex\SevenSegment3DigitComplex.c" 1
 119  0036              	NOP
 119  0036              	ENDIF
 119  0036              ;# 119 "C:\Users\Tech\Desktop\CODetector\sevenSegment3DigitComplex\SevenSegment3DigitComplex.c" 1
 119  0036              	IF (1000<8) AND (1000>3)
 119  0036              ;# 119 "C:\Users\Tech\Desktop\CODetector\sevenSegment3DigitComplex\SevenSegment3DigitComplex.c" 1
 119  0036              	CALL __DELAY3 + 7 -1000
 119  0036              	ENDIF
 119  0036              ;# 119 "C:\Users\Tech\Desktop\CODetector\sevenSegment3DigitComplex\SevenSegment3DigitComplex.c" 1
 119  0036              	IF (1000< 0404h) AND (1000>7)
 119  0036              ;# 119 "C:\Users\Tech\Desktop\CODetector\sevenSegment3DigitComplex\SevenSegment3DigitComplex.c" 1
 119  0036  0FF9        	MOV A,1000/4-1
 119  0037              ;# 119 "C:\Users\Tech\Desktop\CODetector\sevenSegment3DigitComplex\SevenSegment3DigitComplex.c" 1
 119  0037  2000     E  	CALL __DELAYX3 + 3 -(1000 MOD 4)
 119  0038              	ENDIF
 119  0038              ;# 119 "C:\Users\Tech\Desktop\CODetector\sevenSegment3DigitComplex\SevenSegment3DigitComplex.c" 1
 119  0038              	IF (1000< 0x40B) AND (1000> 0403h)
 119  0038              ;# 119 "C:\Users\Tech\Desktop\CODetector\sevenSegment3DigitComplex\SevenSegment3DigitComplex.c" 1
 119  0038              	MOV A,0 
 119  0038              ;# 119 "C:\Users\Tech\Desktop\CODetector\sevenSegment3DigitComplex\SevenSegment3DigitComplex.c" 1
 119  0038              	CALL __DELAYX6 + 0x40a -1000
 119  0038              	ENDIF
 119  0038              ;# 119 "C:\Users\Tech\Desktop\CODetector\sevenSegment3DigitComplex\SevenSegment3DigitComplex.c" 1
 119  0038              	IF (1000 >= 0x40b) AND ((((1000-9)%0402h)/4+1)>256)
 119  0038              ;# 119 "C:\Users\Tech\Desktop\CODetector\sevenSegment3DigitComplex\SevenSegment3DigitComplex.c" 1
 119  0038              	MOV A,(1000-9)/0402h
 119  0038              ;# 119 "C:\Users\Tech\Desktop\CODetector\sevenSegment3DigitComplex\SevenSegment3DigitComplex.c" 1
 119  0038              	MOV _builtin_holtek_delay_2,A
 119  0038              ;# 119 "C:\Users\Tech\Desktop\CODetector\sevenSegment3DigitComplex\SevenSegment3DigitComplex.c" 1
 119  0038              	MOV A,0
 119  0038              ;# 119 "C:\Users\Tech\Desktop\CODetector\sevenSegment3DigitComplex\SevenSegment3DigitComplex.c" 1
 119  0038              	CALL __DELAYY5 +5- (((1000-9)%0402h)%6)
 119  0038              	ENDIF
 119  0038              ;# 119 "C:\Users\Tech\Desktop\CODetector\sevenSegment3DigitComplex\SevenSegment3DigitComplex.c" 1
 119  0038              	IF (1000 >= 0x40b) AND ((((1000-9)%0402h)/4+1)<=256)
 119  0038              ;# 119 "C:\Users\Tech\Desktop\CODetector\sevenSegment3DigitComplex\SevenSegment3DigitComplex.c" 1
 119  0038              	MOV A,(1000-9)/0402h
 119  0038              ;# 119 "C:\Users\Tech\Desktop\CODetector\sevenSegment3DigitComplex\SevenSegment3DigitComplex.c" 1
 119  0038              	MOV _builtin_holtek_delay_2,A
 119  0038              ;# 119 "C:\Users\Tech\Desktop\CODetector\sevenSegment3DigitComplex\SevenSegment3DigitComplex.c" 1
"File: SevenSegment3DigitComplex.c  Assembler  Version HGASM0202      Page 16

 119  0038              	MOV A,((1000-9)%0402h)/4+1
 119  0038              ;# 119 "C:\Users\Tech\Desktop\CODetector\sevenSegment3DigitComplex\SevenSegment3DigitComplex.c" 1
 119  0038              	CALL __DELAYY3 +3-(((1000-9)%0402h)%4)
 119  0038              	ENDIF
 121  0038              #line 121 "C:\Users\Tech\Desktop\CODetector\sevenSegment3DigitComplex\SevenSegment3DigitComplex.c"
 121  0038  3119        	set [25].2
 122  0039              #line 122 "C:\Users\Tech\Desktop\CODetector\sevenSegment3DigitComplex\SevenSegment3DigitComplex.c"
 122  0039  3099        	set [25].1
 123  003A              #line 123 "C:\Users\Tech\Desktop\CODetector\sevenSegment3DigitComplex\SevenSegment3DigitComplex.c"
 123  003A  3215        	set [21].4
 124  003B              #line 124 "C:\Users\Tech\Desktop\CODetector\sevenSegment3DigitComplex\SevenSegment3DigitComplex.c"
 124  003B  3015        	set [21].0
 125  003C              #line 125 "C:\Users\Tech\Desktop\CODetector\sevenSegment3DigitComplex\SevenSegment3DigitComplex.c"
 125  003C  3115        	set [21].2
 126  003D              #line 126 "C:\Users\Tech\Desktop\CODetector\sevenSegment3DigitComplex\SevenSegment3DigitComplex.c"
 126  003D  3199        	set [25].3
 129  003E              #line 129 "C:\Users\Tech\Desktop\CODetector\sevenSegment3DigitComplex\SevenSegment3DigitComplex.c"
 129  003E  3499        	clr [25].1
 130  003F              #line 130 "C:\Users\Tech\Desktop\CODetector\sevenSegment3DigitComplex\SevenSegment3DigitComplex.c"
 130  003F  3415        	clr [21].0
 131  0040              #line 131 "C:\Users\Tech\Desktop\CODetector\sevenSegment3DigitComplex\SevenSegment3DigitComplex.c"
 131  0040  3515        	clr [21].2
 132  0041              #line 132 "C:\Users\Tech\Desktop\CODetector\sevenSegment3DigitComplex\SevenSegment3DigitComplex.c"
 132  0041  3098        	set [24].1
 133  0042              #line 133 "C:\Users\Tech\Desktop\CODetector\sevenSegment3DigitComplex\SevenSegment3DigitComplex.c"
 133  0042  3414        	clr [20].0
 134  0043              #line 134 "C:\Users\Tech\Desktop\CODetector\sevenSegment3DigitComplex\SevenSegment3DigitComplex.c"
 134  0043  3514        	clr [20].2
 135  0044              #line 135 "C:\Users\Tech\Desktop\CODetector\sevenSegment3DigitComplex\SevenSegment3DigitComplex.c"
 135  0044              ;# 135 "C:\Users\Tech\Desktop\CODetector\sevenSegment3DigitComplex\SevenSegment3DigitComplex.c" 1
 135  0044              	IF 1000>263690
 135  0044              ;# 135 "C:\Users\Tech\Desktop\CODetector\sevenSegment3DigitComplex\SevenSegment3DigitComplex.c" 1
 135  0044              	ERRMESSAGE 'the value 1000of the argument exceeds the maxinum 263690'
 135  0044              	ENDIF
 135  0044              ;# 135 "C:\Users\Tech\Desktop\CODetector\sevenSegment3DigitComplex\SevenSegment3DigitComplex.c" 1
 135  0044              	IF 1000<0
 135  0044              ;# 135 "C:\Users\Tech\Desktop\CODetector\sevenSegment3DigitComplex\SevenSegment3DigitComplex.c" 1
 135  0044              	ERRMESSAGE 'the value 1000 of the argument exceeds the mininum 0'
 135  0044              	ENDIF
 135  0044              ;# 135 "C:\Users\Tech\Desktop\CODetector\sevenSegment3DigitComplex\SevenSegment3DigitComplex.c" 1
 135  0044              	IF 1000==0
 135  0044              ;# 135 "C:\Users\Tech\Desktop\CODetector\sevenSegment3DigitComplex\SevenSegment3DigitComplex.c" 1
 135  0044              	JMP $
 135  0044              	ENDIF
 135  0044              ;# 135 "C:\Users\Tech\Desktop\CODetector\sevenSegment3DigitComplex\SevenSegment3DigitComplex.c" 1
 135  0044              	IF 1000==1
 135  0044              ;# 135 "C:\Users\Tech\Desktop\CODetector\sevenSegment3DigitComplex\SevenSegment3DigitComplex.c" 1
 135  0044              	NOP
 135  0044              	ENDIF
 135  0044              ;# 135 "C:\Users\Tech\Desktop\CODetector\sevenSegment3DigitComplex\SevenSegment3DigitComplex.c" 1
 135  0044              	IF 1000==2
 135  0044              ;# 135 "C:\Users\Tech\Desktop\CODetector\sevenSegment3DigitComplex\SevenSegment3DigitComplex.c" 1
 135  0044              	NOP
 135  0044              ;# 135 "C:\Users\Tech\Desktop\CODetector\sevenSegment3DigitComplex\SevenSegment3DigitComplex.c" 1
 135  0044              	NOP
 135  0044              	ENDIF
 135  0044              ;# 135 "C:\Users\Tech\Desktop\CODetector\sevenSegment3DigitComplex\SevenSegment3DigitComplex.c" 1
 135  0044              	IF 1000==3
 135  0044              ;# 135 "C:\Users\Tech\Desktop\CODetector\sevenSegment3DigitComplex\SevenSegment3DigitComplex.c" 1
 135  0044              	NOP
"File: SevenSegment3DigitComplex.c  Assembler  Version HGASM0202      Page 17

 135  0044              ;# 135 "C:\Users\Tech\Desktop\CODetector\sevenSegment3DigitComplex\SevenSegment3DigitComplex.c" 1
 135  0044              	NOP
 135  0044              ;# 135 "C:\Users\Tech\Desktop\CODetector\sevenSegment3DigitComplex\SevenSegment3DigitComplex.c" 1
 135  0044              	NOP
 135  0044              	ENDIF
 135  0044              ;# 135 "C:\Users\Tech\Desktop\CODetector\sevenSegment3DigitComplex\SevenSegment3DigitComplex.c" 1
 135  0044              	IF (1000<8) AND (1000>3)
 135  0044              ;# 135 "C:\Users\Tech\Desktop\CODetector\sevenSegment3DigitComplex\SevenSegment3DigitComplex.c" 1
 135  0044              	CALL __DELAY3 + 7 -1000
 135  0044              	ENDIF
 135  0044              ;# 135 "C:\Users\Tech\Desktop\CODetector\sevenSegment3DigitComplex\SevenSegment3DigitComplex.c" 1
 135  0044              	IF (1000< 0404h) AND (1000>7)
 135  0044              ;# 135 "C:\Users\Tech\Desktop\CODetector\sevenSegment3DigitComplex\SevenSegment3DigitComplex.c" 1
 135  0044  0FF9        	MOV A,1000/4-1
 135  0045              ;# 135 "C:\Users\Tech\Desktop\CODetector\sevenSegment3DigitComplex\SevenSegment3DigitComplex.c" 1
 135  0045  2000     E  	CALL __DELAYX3 + 3 -(1000 MOD 4)
 135  0046              	ENDIF
 135  0046              ;# 135 "C:\Users\Tech\Desktop\CODetector\sevenSegment3DigitComplex\SevenSegment3DigitComplex.c" 1
 135  0046              	IF (1000< 0x40B) AND (1000> 0403h)
 135  0046              ;# 135 "C:\Users\Tech\Desktop\CODetector\sevenSegment3DigitComplex\SevenSegment3DigitComplex.c" 1
 135  0046              	MOV A,0 
 135  0046              ;# 135 "C:\Users\Tech\Desktop\CODetector\sevenSegment3DigitComplex\SevenSegment3DigitComplex.c" 1
 135  0046              	CALL __DELAYX6 + 0x40a -1000
 135  0046              	ENDIF
 135  0046              ;# 135 "C:\Users\Tech\Desktop\CODetector\sevenSegment3DigitComplex\SevenSegment3DigitComplex.c" 1
 135  0046              	IF (1000 >= 0x40b) AND ((((1000-9)%0402h)/4+1)>256)
 135  0046              ;# 135 "C:\Users\Tech\Desktop\CODetector\sevenSegment3DigitComplex\SevenSegment3DigitComplex.c" 1
 135  0046              	MOV A,(1000-9)/0402h
 135  0046              ;# 135 "C:\Users\Tech\Desktop\CODetector\sevenSegment3DigitComplex\SevenSegment3DigitComplex.c" 1
 135  0046              	MOV _builtin_holtek_delay_2,A
 135  0046              ;# 135 "C:\Users\Tech\Desktop\CODetector\sevenSegment3DigitComplex\SevenSegment3DigitComplex.c" 1
 135  0046              	MOV A,0
 135  0046              ;# 135 "C:\Users\Tech\Desktop\CODetector\sevenSegment3DigitComplex\SevenSegment3DigitComplex.c" 1
 135  0046              	CALL __DELAYY5 +5- (((1000-9)%0402h)%6)
 135  0046              	ENDIF
 135  0046              ;# 135 "C:\Users\Tech\Desktop\CODetector\sevenSegment3DigitComplex\SevenSegment3DigitComplex.c" 1
 135  0046              	IF (1000 >= 0x40b) AND ((((1000-9)%0402h)/4+1)<=256)
 135  0046              ;# 135 "C:\Users\Tech\Desktop\CODetector\sevenSegment3DigitComplex\SevenSegment3DigitComplex.c" 1
 135  0046              	MOV A,(1000-9)/0402h
 135  0046              ;# 135 "C:\Users\Tech\Desktop\CODetector\sevenSegment3DigitComplex\SevenSegment3DigitComplex.c" 1
 135  0046              	MOV _builtin_holtek_delay_2,A
 135  0046              ;# 135 "C:\Users\Tech\Desktop\CODetector\sevenSegment3DigitComplex\SevenSegment3DigitComplex.c" 1
 135  0046              	MOV A,((1000-9)%0402h)/4+1
 135  0046              ;# 135 "C:\Users\Tech\Desktop\CODetector\sevenSegment3DigitComplex\SevenSegment3DigitComplex.c" 1
 135  0046              	CALL __DELAYY3 +3-(((1000-9)%0402h)%4)
 135  0046              	ENDIF
 135  0046  0003        	ret
 135  0047              _error1Seg endp
 135  0047              #line 135 "C:\Users\Tech\Desktop\CODetector\sevenSegment3DigitComplex\SevenSegment3DigitComplex.c"
 135  0047              #pragma debug scope 1 1
 135  0047              public _ziroDigit1
 135  0047              #pragma debug scope 4 1
 139  0047              #line 139 "C:\Users\Tech\Desktop\CODetector\sevenSegment3DigitComplex\SevenSegment3DigitComplex.c"
 139  0000              _ziroDigit1 .section 'code'
 139  0000              _ziroDigit1 proc
 141  0000              #line 141 "C:\Users\Tech\Desktop\CODetector\sevenSegment3DigitComplex\SevenSegment3DigitComplex.c"
 141  0000  3119        	set [25].2
 142  0001              #line 142 "C:\Users\Tech\Desktop\CODetector\sevenSegment3DigitComplex\SevenSegment3DigitComplex.c"
 142  0001  3099        	set [25].1
 143  0002              #line 143 "C:\Users\Tech\Desktop\CODetector\sevenSegment3DigitComplex\SevenSegment3DigitComplex.c"
"File: SevenSegment3DigitComplex.c  Assembler  Version HGASM0202      Page 18

 143  0002  3215        	set [21].4
 144  0003              #line 144 "C:\Users\Tech\Desktop\CODetector\sevenSegment3DigitComplex\SevenSegment3DigitComplex.c"
 144  0003  3015        	set [21].0
 145  0004              #line 145 "C:\Users\Tech\Desktop\CODetector\sevenSegment3DigitComplex\SevenSegment3DigitComplex.c"
 145  0004  3115        	set [21].2
 146  0005              #line 146 "C:\Users\Tech\Desktop\CODetector\sevenSegment3DigitComplex\SevenSegment3DigitComplex.c"
 146  0005  3199        	set [25].3
 150  0006              #line 150 "C:\Users\Tech\Desktop\CODetector\sevenSegment3DigitComplex\SevenSegment3DigitComplex.c"
 150  0006              ;# 150 "C:\Users\Tech\Desktop\CODetector\sevenSegment3DigitComplex\SevenSegment3DigitComplex.c" 1
 150  0006              	IF 1000>263690
 150  0006              ;# 150 "C:\Users\Tech\Desktop\CODetector\sevenSegment3DigitComplex\SevenSegment3DigitComplex.c" 1
 150  0006              	ERRMESSAGE 'the value 1000of the argument exceeds the maxinum 263690'
 150  0006              	ENDIF
 150  0006              ;# 150 "C:\Users\Tech\Desktop\CODetector\sevenSegment3DigitComplex\SevenSegment3DigitComplex.c" 1
 150  0006              	IF 1000<0
 150  0006              ;# 150 "C:\Users\Tech\Desktop\CODetector\sevenSegment3DigitComplex\SevenSegment3DigitComplex.c" 1
 150  0006              	ERRMESSAGE 'the value 1000 of the argument exceeds the mininum 0'
 150  0006              	ENDIF
 150  0006              ;# 150 "C:\Users\Tech\Desktop\CODetector\sevenSegment3DigitComplex\SevenSegment3DigitComplex.c" 1
 150  0006              	IF 1000==0
 150  0006              ;# 150 "C:\Users\Tech\Desktop\CODetector\sevenSegment3DigitComplex\SevenSegment3DigitComplex.c" 1
 150  0006              	JMP $
 150  0006              	ENDIF
 150  0006              ;# 150 "C:\Users\Tech\Desktop\CODetector\sevenSegment3DigitComplex\SevenSegment3DigitComplex.c" 1
 150  0006              	IF 1000==1
 150  0006              ;# 150 "C:\Users\Tech\Desktop\CODetector\sevenSegment3DigitComplex\SevenSegment3DigitComplex.c" 1
 150  0006              	NOP
 150  0006              	ENDIF
 150  0006              ;# 150 "C:\Users\Tech\Desktop\CODetector\sevenSegment3DigitComplex\SevenSegment3DigitComplex.c" 1
 150  0006              	IF 1000==2
 150  0006              ;# 150 "C:\Users\Tech\Desktop\CODetector\sevenSegment3DigitComplex\SevenSegment3DigitComplex.c" 1
 150  0006              	NOP
 150  0006              ;# 150 "C:\Users\Tech\Desktop\CODetector\sevenSegment3DigitComplex\SevenSegment3DigitComplex.c" 1
 150  0006              	NOP
 150  0006              	ENDIF
 150  0006              ;# 150 "C:\Users\Tech\Desktop\CODetector\sevenSegment3DigitComplex\SevenSegment3DigitComplex.c" 1
 150  0006              	IF 1000==3
 150  0006              ;# 150 "C:\Users\Tech\Desktop\CODetector\sevenSegment3DigitComplex\SevenSegment3DigitComplex.c" 1
 150  0006              	NOP
 150  0006              ;# 150 "C:\Users\Tech\Desktop\CODetector\sevenSegment3DigitComplex\SevenSegment3DigitComplex.c" 1
 150  0006              	NOP
 150  0006              ;# 150 "C:\Users\Tech\Desktop\CODetector\sevenSegment3DigitComplex\SevenSegment3DigitComplex.c" 1
 150  0006              	NOP
 150  0006              	ENDIF
 150  0006              ;# 150 "C:\Users\Tech\Desktop\CODetector\sevenSegment3DigitComplex\SevenSegment3DigitComplex.c" 1
 150  0006              	IF (1000<8) AND (1000>3)
 150  0006              ;# 150 "C:\Users\Tech\Desktop\CODetector\sevenSegment3DigitComplex\SevenSegment3DigitComplex.c" 1
 150  0006              	CALL __DELAY3 + 7 -1000
 150  0006              	ENDIF
 150  0006              ;# 150 "C:\Users\Tech\Desktop\CODetector\sevenSegment3DigitComplex\SevenSegment3DigitComplex.c" 1
 150  0006              	IF (1000< 0404h) AND (1000>7)
 150  0006              ;# 150 "C:\Users\Tech\Desktop\CODetector\sevenSegment3DigitComplex\SevenSegment3DigitComplex.c" 1
 150  0006  0FF9        	MOV A,1000/4-1
 150  0007              ;# 150 "C:\Users\Tech\Desktop\CODetector\sevenSegment3DigitComplex\SevenSegment3DigitComplex.c" 1
 150  0007  2000     E  	CALL __DELAYX3 + 3 -(1000 MOD 4)
 150  0008              	ENDIF
 150  0008              ;# 150 "C:\Users\Tech\Desktop\CODetector\sevenSegment3DigitComplex\SevenSegment3DigitComplex.c" 1
 150  0008              	IF (1000< 0x40B) AND (1000> 0403h)
 150  0008              ;# 150 "C:\Users\Tech\Desktop\CODetector\sevenSegment3DigitComplex\SevenSegment3DigitComplex.c" 1
 150  0008              	MOV A,0 
"File: SevenSegment3DigitComplex.c  Assembler  Version HGASM0202      Page 19

 150  0008              ;# 150 "C:\Users\Tech\Desktop\CODetector\sevenSegment3DigitComplex\SevenSegment3DigitComplex.c" 1
 150  0008              	CALL __DELAYX6 + 0x40a -1000
 150  0008              	ENDIF
 150  0008              ;# 150 "C:\Users\Tech\Desktop\CODetector\sevenSegment3DigitComplex\SevenSegment3DigitComplex.c" 1
 150  0008              	IF (1000 >= 0x40b) AND ((((1000-9)%0402h)/4+1)>256)
 150  0008              ;# 150 "C:\Users\Tech\Desktop\CODetector\sevenSegment3DigitComplex\SevenSegment3DigitComplex.c" 1
 150  0008              	MOV A,(1000-9)/0402h
 150  0008              ;# 150 "C:\Users\Tech\Desktop\CODetector\sevenSegment3DigitComplex\SevenSegment3DigitComplex.c" 1
 150  0008              	MOV _builtin_holtek_delay_2,A
 150  0008              ;# 150 "C:\Users\Tech\Desktop\CODetector\sevenSegment3DigitComplex\SevenSegment3DigitComplex.c" 1
 150  0008              	MOV A,0
 150  0008              ;# 150 "C:\Users\Tech\Desktop\CODetector\sevenSegment3DigitComplex\SevenSegment3DigitComplex.c" 1
 150  0008              	CALL __DELAYY5 +5- (((1000-9)%0402h)%6)
 150  0008              	ENDIF
 150  0008              ;# 150 "C:\Users\Tech\Desktop\CODetector\sevenSegment3DigitComplex\SevenSegment3DigitComplex.c" 1
 150  0008              	IF (1000 >= 0x40b) AND ((((1000-9)%0402h)/4+1)<=256)
 150  0008              ;# 150 "C:\Users\Tech\Desktop\CODetector\sevenSegment3DigitComplex\SevenSegment3DigitComplex.c" 1
 150  0008              	MOV A,(1000-9)/0402h
 150  0008              ;# 150 "C:\Users\Tech\Desktop\CODetector\sevenSegment3DigitComplex\SevenSegment3DigitComplex.c" 1
 150  0008              	MOV _builtin_holtek_delay_2,A
 150  0008              ;# 150 "C:\Users\Tech\Desktop\CODetector\sevenSegment3DigitComplex\SevenSegment3DigitComplex.c" 1
 150  0008              	MOV A,((1000-9)%0402h)/4+1
 150  0008              ;# 150 "C:\Users\Tech\Desktop\CODetector\sevenSegment3DigitComplex\SevenSegment3DigitComplex.c" 1
 150  0008              	CALL __DELAYY3 +3-(((1000-9)%0402h)%4)
 150  0008              	ENDIF
 151  0008              #line 151 "C:\Users\Tech\Desktop\CODetector\sevenSegment3DigitComplex\SevenSegment3DigitComplex.c"
 151  0008  3519        	clr [25].2
 152  0009              #line 152 "C:\Users\Tech\Desktop\CODetector\sevenSegment3DigitComplex\SevenSegment3DigitComplex.c"
 152  0009  3499        	clr [25].1
 153  000A              #line 153 "C:\Users\Tech\Desktop\CODetector\sevenSegment3DigitComplex\SevenSegment3DigitComplex.c"
 153  000A  3615        	clr [21].4
 154  000B              #line 154 "C:\Users\Tech\Desktop\CODetector\sevenSegment3DigitComplex\SevenSegment3DigitComplex.c"
 154  000B  3415        	clr [21].0
 155  000C              #line 155 "C:\Users\Tech\Desktop\CODetector\sevenSegment3DigitComplex\SevenSegment3DigitComplex.c"
 155  000C  3515        	clr [21].2
 156  000D              #line 156 "C:\Users\Tech\Desktop\CODetector\sevenSegment3DigitComplex\SevenSegment3DigitComplex.c"
 156  000D  3599        	clr [25].3
 157  000E              #line 157 "C:\Users\Tech\Desktop\CODetector\sevenSegment3DigitComplex\SevenSegment3DigitComplex.c"
 157  000E  3518        	clr [24].2
 158  000F              #line 158 "C:\Users\Tech\Desktop\CODetector\sevenSegment3DigitComplex\SevenSegment3DigitComplex.c"
 158  000F  3098        	set [24].1
 159  0010              #line 159 "C:\Users\Tech\Desktop\CODetector\sevenSegment3DigitComplex\SevenSegment3DigitComplex.c"
 159  0010  3214        	set [20].4
 160  0011              #line 160 "C:\Users\Tech\Desktop\CODetector\sevenSegment3DigitComplex\SevenSegment3DigitComplex.c"
 160  0011  3014        	set [20].0
 161  0012              #line 161 "C:\Users\Tech\Desktop\CODetector\sevenSegment3DigitComplex\SevenSegment3DigitComplex.c"
 161  0012  3114        	set [20].2
 162  0013              #line 162 "C:\Users\Tech\Desktop\CODetector\sevenSegment3DigitComplex\SevenSegment3DigitComplex.c"
 162  0013  3198        	set [24].3
 164  0014              #line 164 "C:\Users\Tech\Desktop\CODetector\sevenSegment3DigitComplex\SevenSegment3DigitComplex.c"
 164  0014              ;# 164 "C:\Users\Tech\Desktop\CODetector\sevenSegment3DigitComplex\SevenSegment3DigitComplex.c" 1
 164  0014              	IF 1000>263690
 164  0014              ;# 164 "C:\Users\Tech\Desktop\CODetector\sevenSegment3DigitComplex\SevenSegment3DigitComplex.c" 1
 164  0014              	ERRMESSAGE 'the value 1000of the argument exceeds the maxinum 263690'
 164  0014              	ENDIF
 164  0014              ;# 164 "C:\Users\Tech\Desktop\CODetector\sevenSegment3DigitComplex\SevenSegment3DigitComplex.c" 1
 164  0014              	IF 1000<0
 164  0014              ;# 164 "C:\Users\Tech\Desktop\CODetector\sevenSegment3DigitComplex\SevenSegment3DigitComplex.c" 1
 164  0014              	ERRMESSAGE 'the value 1000 of the argument exceeds the mininum 0'
 164  0014              	ENDIF
"File: SevenSegment3DigitComplex.c  Assembler  Version HGASM0202      Page 20

 164  0014              ;# 164 "C:\Users\Tech\Desktop\CODetector\sevenSegment3DigitComplex\SevenSegment3DigitComplex.c" 1
 164  0014              	IF 1000==0
 164  0014              ;# 164 "C:\Users\Tech\Desktop\CODetector\sevenSegment3DigitComplex\SevenSegment3DigitComplex.c" 1
 164  0014              	JMP $
 164  0014              	ENDIF
 164  0014              ;# 164 "C:\Users\Tech\Desktop\CODetector\sevenSegment3DigitComplex\SevenSegment3DigitComplex.c" 1
 164  0014              	IF 1000==1
 164  0014              ;# 164 "C:\Users\Tech\Desktop\CODetector\sevenSegment3DigitComplex\SevenSegment3DigitComplex.c" 1
 164  0014              	NOP
 164  0014              	ENDIF
 164  0014              ;# 164 "C:\Users\Tech\Desktop\CODetector\sevenSegment3DigitComplex\SevenSegment3DigitComplex.c" 1
 164  0014              	IF 1000==2
 164  0014              ;# 164 "C:\Users\Tech\Desktop\CODetector\sevenSegment3DigitComplex\SevenSegment3DigitComplex.c" 1
 164  0014              	NOP
 164  0014              ;# 164 "C:\Users\Tech\Desktop\CODetector\sevenSegment3DigitComplex\SevenSegment3DigitComplex.c" 1
 164  0014              	NOP
 164  0014              	ENDIF
 164  0014              ;# 164 "C:\Users\Tech\Desktop\CODetector\sevenSegment3DigitComplex\SevenSegment3DigitComplex.c" 1
 164  0014              	IF 1000==3
 164  0014              ;# 164 "C:\Users\Tech\Desktop\CODetector\sevenSegment3DigitComplex\SevenSegment3DigitComplex.c" 1
 164  0014              	NOP
 164  0014              ;# 164 "C:\Users\Tech\Desktop\CODetector\sevenSegment3DigitComplex\SevenSegment3DigitComplex.c" 1
 164  0014              	NOP
 164  0014              ;# 164 "C:\Users\Tech\Desktop\CODetector\sevenSegment3DigitComplex\SevenSegment3DigitComplex.c" 1
 164  0014              	NOP
 164  0014              	ENDIF
 164  0014              ;# 164 "C:\Users\Tech\Desktop\CODetector\sevenSegment3DigitComplex\SevenSegment3DigitComplex.c" 1
 164  0014              	IF (1000<8) AND (1000>3)
 164  0014              ;# 164 "C:\Users\Tech\Desktop\CODetector\sevenSegment3DigitComplex\SevenSegment3DigitComplex.c" 1
 164  0014              	CALL __DELAY3 + 7 -1000
 164  0014              	ENDIF
 164  0014              ;# 164 "C:\Users\Tech\Desktop\CODetector\sevenSegment3DigitComplex\SevenSegment3DigitComplex.c" 1
 164  0014              	IF (1000< 0404h) AND (1000>7)
 164  0014              ;# 164 "C:\Users\Tech\Desktop\CODetector\sevenSegment3DigitComplex\SevenSegment3DigitComplex.c" 1
 164  0014  0FF9        	MOV A,1000/4-1
 164  0015              ;# 164 "C:\Users\Tech\Desktop\CODetector\sevenSegment3DigitComplex\SevenSegment3DigitComplex.c" 1
 164  0015  2000     E  	CALL __DELAYX3 + 3 -(1000 MOD 4)
 164  0016              	ENDIF
 164  0016              ;# 164 "C:\Users\Tech\Desktop\CODetector\sevenSegment3DigitComplex\SevenSegment3DigitComplex.c" 1
 164  0016              	IF (1000< 0x40B) AND (1000> 0403h)
 164  0016              ;# 164 "C:\Users\Tech\Desktop\CODetector\sevenSegment3DigitComplex\SevenSegment3DigitComplex.c" 1
 164  0016              	MOV A,0 
 164  0016              ;# 164 "C:\Users\Tech\Desktop\CODetector\sevenSegment3DigitComplex\SevenSegment3DigitComplex.c" 1
 164  0016              	CALL __DELAYX6 + 0x40a -1000
 164  0016              	ENDIF
 164  0016              ;# 164 "C:\Users\Tech\Desktop\CODetector\sevenSegment3DigitComplex\SevenSegment3DigitComplex.c" 1
 164  0016              	IF (1000 >= 0x40b) AND ((((1000-9)%0402h)/4+1)>256)
 164  0016              ;# 164 "C:\Users\Tech\Desktop\CODetector\sevenSegment3DigitComplex\SevenSegment3DigitComplex.c" 1
 164  0016              	MOV A,(1000-9)/0402h
 164  0016              ;# 164 "C:\Users\Tech\Desktop\CODetector\sevenSegment3DigitComplex\SevenSegment3DigitComplex.c" 1
 164  0016              	MOV _builtin_holtek_delay_2,A
 164  0016              ;# 164 "C:\Users\Tech\Desktop\CODetector\sevenSegment3DigitComplex\SevenSegment3DigitComplex.c" 1
 164  0016              	MOV A,0
 164  0016              ;# 164 "C:\Users\Tech\Desktop\CODetector\sevenSegment3DigitComplex\SevenSegment3DigitComplex.c" 1
 164  0016              	CALL __DELAYY5 +5- (((1000-9)%0402h)%6)
 164  0016              	ENDIF
 164  0016              ;# 164 "C:\Users\Tech\Desktop\CODetector\sevenSegment3DigitComplex\SevenSegment3DigitComplex.c" 1
 164  0016              	IF (1000 >= 0x40b) AND ((((1000-9)%0402h)/4+1)<=256)
 164  0016              ;# 164 "C:\Users\Tech\Desktop\CODetector\sevenSegment3DigitComplex\SevenSegment3DigitComplex.c" 1
 164  0016              	MOV A,(1000-9)/0402h
"File: SevenSegment3DigitComplex.c  Assembler  Version HGASM0202      Page 21

 164  0016              ;# 164 "C:\Users\Tech\Desktop\CODetector\sevenSegment3DigitComplex\SevenSegment3DigitComplex.c" 1
 164  0016              	MOV _builtin_holtek_delay_2,A
 164  0016              ;# 164 "C:\Users\Tech\Desktop\CODetector\sevenSegment3DigitComplex\SevenSegment3DigitComplex.c" 1
 164  0016              	MOV A,((1000-9)%0402h)/4+1
 164  0016              ;# 164 "C:\Users\Tech\Desktop\CODetector\sevenSegment3DigitComplex\SevenSegment3DigitComplex.c" 1
 164  0016              	CALL __DELAYY3 +3-(((1000-9)%0402h)%4)
 164  0016              	ENDIF
 165  0016              #line 165 "C:\Users\Tech\Desktop\CODetector\sevenSegment3DigitComplex\SevenSegment3DigitComplex.c"
 165  0016  3119        	set [25].2
 166  0017              #line 166 "C:\Users\Tech\Desktop\CODetector\sevenSegment3DigitComplex\SevenSegment3DigitComplex.c"
 166  0017  3099        	set [25].1
 167  0018              #line 167 "C:\Users\Tech\Desktop\CODetector\sevenSegment3DigitComplex\SevenSegment3DigitComplex.c"
 167  0018  3215        	set [21].4
 168  0019              #line 168 "C:\Users\Tech\Desktop\CODetector\sevenSegment3DigitComplex\SevenSegment3DigitComplex.c"
 168  0019  3015        	set [21].0
 169  001A              #line 169 "C:\Users\Tech\Desktop\CODetector\sevenSegment3DigitComplex\SevenSegment3DigitComplex.c"
 169  001A  3115        	set [21].2
 170  001B              #line 170 "C:\Users\Tech\Desktop\CODetector\sevenSegment3DigitComplex\SevenSegment3DigitComplex.c"
 170  001B  3199        	set [25].3
 171  001C              #line 171 "C:\Users\Tech\Desktop\CODetector\sevenSegment3DigitComplex\SevenSegment3DigitComplex.c"
 171  001C  3415        	clr [21].0
 172  001D              #line 172 "C:\Users\Tech\Desktop\CODetector\sevenSegment3DigitComplex\SevenSegment3DigitComplex.c"
 172  001D  3499        	clr [25].1
 173  001E              #line 173 "C:\Users\Tech\Desktop\CODetector\sevenSegment3DigitComplex\SevenSegment3DigitComplex.c"
 173  001E  3414        	clr [20].0
 174  001F              #line 174 "C:\Users\Tech\Desktop\CODetector\sevenSegment3DigitComplex\SevenSegment3DigitComplex.c"
 174  001F  3498        	clr [24].1
 175  0020              #line 175 "C:\Users\Tech\Desktop\CODetector\sevenSegment3DigitComplex\SevenSegment3DigitComplex.c"
 175  0020              ;# 175 "C:\Users\Tech\Desktop\CODetector\sevenSegment3DigitComplex\SevenSegment3DigitComplex.c" 1
 175  0020              	IF 1000>263690
 175  0020              ;# 175 "C:\Users\Tech\Desktop\CODetector\sevenSegment3DigitComplex\SevenSegment3DigitComplex.c" 1
 175  0020              	ERRMESSAGE 'the value 1000of the argument exceeds the maxinum 263690'
 175  0020              	ENDIF
 175  0020              ;# 175 "C:\Users\Tech\Desktop\CODetector\sevenSegment3DigitComplex\SevenSegment3DigitComplex.c" 1
 175  0020              	IF 1000<0
 175  0020              ;# 175 "C:\Users\Tech\Desktop\CODetector\sevenSegment3DigitComplex\SevenSegment3DigitComplex.c" 1
 175  0020              	ERRMESSAGE 'the value 1000 of the argument exceeds the mininum 0'
 175  0020              	ENDIF
 175  0020              ;# 175 "C:\Users\Tech\Desktop\CODetector\sevenSegment3DigitComplex\SevenSegment3DigitComplex.c" 1
 175  0020              	IF 1000==0
 175  0020              ;# 175 "C:\Users\Tech\Desktop\CODetector\sevenSegment3DigitComplex\SevenSegment3DigitComplex.c" 1
 175  0020              	JMP $
 175  0020              	ENDIF
 175  0020              ;# 175 "C:\Users\Tech\Desktop\CODetector\sevenSegment3DigitComplex\SevenSegment3DigitComplex.c" 1
 175  0020              	IF 1000==1
 175  0020              ;# 175 "C:\Users\Tech\Desktop\CODetector\sevenSegment3DigitComplex\SevenSegment3DigitComplex.c" 1
 175  0020              	NOP
 175  0020              	ENDIF
 175  0020              ;# 175 "C:\Users\Tech\Desktop\CODetector\sevenSegment3DigitComplex\SevenSegment3DigitComplex.c" 1
 175  0020              	IF 1000==2
 175  0020              ;# 175 "C:\Users\Tech\Desktop\CODetector\sevenSegment3DigitComplex\SevenSegment3DigitComplex.c" 1
 175  0020              	NOP
 175  0020              ;# 175 "C:\Users\Tech\Desktop\CODetector\sevenSegment3DigitComplex\SevenSegment3DigitComplex.c" 1
 175  0020              	NOP
 175  0020              	ENDIF
 175  0020              ;# 175 "C:\Users\Tech\Desktop\CODetector\sevenSegment3DigitComplex\SevenSegment3DigitComplex.c" 1
 175  0020              	IF 1000==3
 175  0020              ;# 175 "C:\Users\Tech\Desktop\CODetector\sevenSegment3DigitComplex\SevenSegment3DigitComplex.c" 1
 175  0020              	NOP
 175  0020              ;# 175 "C:\Users\Tech\Desktop\CODetector\sevenSegment3DigitComplex\SevenSegment3DigitComplex.c" 1
"File: SevenSegment3DigitComplex.c  Assembler  Version HGASM0202      Page 22

 175  0020              	NOP
 175  0020              ;# 175 "C:\Users\Tech\Desktop\CODetector\sevenSegment3DigitComplex\SevenSegment3DigitComplex.c" 1
 175  0020              	NOP
 175  0020              	ENDIF
 175  0020              ;# 175 "C:\Users\Tech\Desktop\CODetector\sevenSegment3DigitComplex\SevenSegment3DigitComplex.c" 1
 175  0020              	IF (1000<8) AND (1000>3)
 175  0020              ;# 175 "C:\Users\Tech\Desktop\CODetector\sevenSegment3DigitComplex\SevenSegment3DigitComplex.c" 1
 175  0020              	CALL __DELAY3 + 7 -1000
 175  0020              	ENDIF
 175  0020              ;# 175 "C:\Users\Tech\Desktop\CODetector\sevenSegment3DigitComplex\SevenSegment3DigitComplex.c" 1
 175  0020              	IF (1000< 0404h) AND (1000>7)
 175  0020              ;# 175 "C:\Users\Tech\Desktop\CODetector\sevenSegment3DigitComplex\SevenSegment3DigitComplex.c" 1
 175  0020  0FF9        	MOV A,1000/4-1
 175  0021              ;# 175 "C:\Users\Tech\Desktop\CODetector\sevenSegment3DigitComplex\SevenSegment3DigitComplex.c" 1
 175  0021  2000     E  	CALL __DELAYX3 + 3 -(1000 MOD 4)
 175  0022              	ENDIF
 175  0022              ;# 175 "C:\Users\Tech\Desktop\CODetector\sevenSegment3DigitComplex\SevenSegment3DigitComplex.c" 1
 175  0022              	IF (1000< 0x40B) AND (1000> 0403h)
 175  0022              ;# 175 "C:\Users\Tech\Desktop\CODetector\sevenSegment3DigitComplex\SevenSegment3DigitComplex.c" 1
 175  0022              	MOV A,0 
 175  0022              ;# 175 "C:\Users\Tech\Desktop\CODetector\sevenSegment3DigitComplex\SevenSegment3DigitComplex.c" 1
 175  0022              	CALL __DELAYX6 + 0x40a -1000
 175  0022              	ENDIF
 175  0022              ;# 175 "C:\Users\Tech\Desktop\CODetector\sevenSegment3DigitComplex\SevenSegment3DigitComplex.c" 1
 175  0022              	IF (1000 >= 0x40b) AND ((((1000-9)%0402h)/4+1)>256)
 175  0022              ;# 175 "C:\Users\Tech\Desktop\CODetector\sevenSegment3DigitComplex\SevenSegment3DigitComplex.c" 1
 175  0022              	MOV A,(1000-9)/0402h
 175  0022              ;# 175 "C:\Users\Tech\Desktop\CODetector\sevenSegment3DigitComplex\SevenSegment3DigitComplex.c" 1
 175  0022              	MOV _builtin_holtek_delay_2,A
 175  0022              ;# 175 "C:\Users\Tech\Desktop\CODetector\sevenSegment3DigitComplex\SevenSegment3DigitComplex.c" 1
 175  0022              	MOV A,0
 175  0022              ;# 175 "C:\Users\Tech\Desktop\CODetector\sevenSegment3DigitComplex\SevenSegment3DigitComplex.c" 1
 175  0022              	CALL __DELAYY5 +5- (((1000-9)%0402h)%6)
 175  0022              	ENDIF
 175  0022              ;# 175 "C:\Users\Tech\Desktop\CODetector\sevenSegment3DigitComplex\SevenSegment3DigitComplex.c" 1
 175  0022              	IF (1000 >= 0x40b) AND ((((1000-9)%0402h)/4+1)<=256)
 175  0022              ;# 175 "C:\Users\Tech\Desktop\CODetector\sevenSegment3DigitComplex\SevenSegment3DigitComplex.c" 1
 175  0022              	MOV A,(1000-9)/0402h
 175  0022              ;# 175 "C:\Users\Tech\Desktop\CODetector\sevenSegment3DigitComplex\SevenSegment3DigitComplex.c" 1
 175  0022              	MOV _builtin_holtek_delay_2,A
 175  0022              ;# 175 "C:\Users\Tech\Desktop\CODetector\sevenSegment3DigitComplex\SevenSegment3DigitComplex.c" 1
 175  0022              	MOV A,((1000-9)%0402h)/4+1
 175  0022              ;# 175 "C:\Users\Tech\Desktop\CODetector\sevenSegment3DigitComplex\SevenSegment3DigitComplex.c" 1
 175  0022              	CALL __DELAYY3 +3-(((1000-9)%0402h)%4)
 175  0022              	ENDIF
 177  0022              #line 177 "C:\Users\Tech\Desktop\CODetector\sevenSegment3DigitComplex\SevenSegment3DigitComplex.c"
 177  0022  3119        	set [25].2
 178  0023              #line 178 "C:\Users\Tech\Desktop\CODetector\sevenSegment3DigitComplex\SevenSegment3DigitComplex.c"
 178  0023  3099        	set [25].1
 179  0024              #line 179 "C:\Users\Tech\Desktop\CODetector\sevenSegment3DigitComplex\SevenSegment3DigitComplex.c"
 179  0024  3215        	set [21].4
 180  0025              #line 180 "C:\Users\Tech\Desktop\CODetector\sevenSegment3DigitComplex\SevenSegment3DigitComplex.c"
 180  0025  3015        	set [21].0
 181  0026              #line 181 "C:\Users\Tech\Desktop\CODetector\sevenSegment3DigitComplex\SevenSegment3DigitComplex.c"
 181  0026  3115        	set [21].2
 182  0027              #line 182 "C:\Users\Tech\Desktop\CODetector\sevenSegment3DigitComplex\SevenSegment3DigitComplex.c"
 182  0027  3199        	set [25].3
 183  0028              #line 183 "C:\Users\Tech\Desktop\CODetector\sevenSegment3DigitComplex\SevenSegment3DigitComplex.c"
 183  0028  3499        	clr [25].1
 184  0029              #line 184 "C:\Users\Tech\Desktop\CODetector\sevenSegment3DigitComplex\SevenSegment3DigitComplex.c"
"File: SevenSegment3DigitComplex.c  Assembler  Version HGASM0202      Page 23

 184  0029  3615        	clr [21].4
 185  002A              #line 185 "C:\Users\Tech\Desktop\CODetector\sevenSegment3DigitComplex\SevenSegment3DigitComplex.c"
 185  002A  3498        	clr [24].1
 186  002B              #line 186 "C:\Users\Tech\Desktop\CODetector\sevenSegment3DigitComplex\SevenSegment3DigitComplex.c"
 186  002B  3214        	set [20].4
 187  002C              #line 187 "C:\Users\Tech\Desktop\CODetector\sevenSegment3DigitComplex\SevenSegment3DigitComplex.c"
 187  002C              ;# 187 "C:\Users\Tech\Desktop\CODetector\sevenSegment3DigitComplex\SevenSegment3DigitComplex.c" 1
 187  002C              	IF 1000>263690
 187  002C              ;# 187 "C:\Users\Tech\Desktop\CODetector\sevenSegment3DigitComplex\SevenSegment3DigitComplex.c" 1
 187  002C              	ERRMESSAGE 'the value 1000of the argument exceeds the maxinum 263690'
 187  002C              	ENDIF
 187  002C              ;# 187 "C:\Users\Tech\Desktop\CODetector\sevenSegment3DigitComplex\SevenSegment3DigitComplex.c" 1
 187  002C              	IF 1000<0
 187  002C              ;# 187 "C:\Users\Tech\Desktop\CODetector\sevenSegment3DigitComplex\SevenSegment3DigitComplex.c" 1
 187  002C              	ERRMESSAGE 'the value 1000 of the argument exceeds the mininum 0'
 187  002C              	ENDIF
 187  002C              ;# 187 "C:\Users\Tech\Desktop\CODetector\sevenSegment3DigitComplex\SevenSegment3DigitComplex.c" 1
 187  002C              	IF 1000==0
 187  002C              ;# 187 "C:\Users\Tech\Desktop\CODetector\sevenSegment3DigitComplex\SevenSegment3DigitComplex.c" 1
 187  002C              	JMP $
 187  002C              	ENDIF
 187  002C              ;# 187 "C:\Users\Tech\Desktop\CODetector\sevenSegment3DigitComplex\SevenSegment3DigitComplex.c" 1
 187  002C              	IF 1000==1
 187  002C              ;# 187 "C:\Users\Tech\Desktop\CODetector\sevenSegment3DigitComplex\SevenSegment3DigitComplex.c" 1
 187  002C              	NOP
 187  002C              	ENDIF
 187  002C              ;# 187 "C:\Users\Tech\Desktop\CODetector\sevenSegment3DigitComplex\SevenSegment3DigitComplex.c" 1
 187  002C              	IF 1000==2
 187  002C              ;# 187 "C:\Users\Tech\Desktop\CODetector\sevenSegment3DigitComplex\SevenSegment3DigitComplex.c" 1
 187  002C              	NOP
 187  002C              ;# 187 "C:\Users\Tech\Desktop\CODetector\sevenSegment3DigitComplex\SevenSegment3DigitComplex.c" 1
 187  002C              	NOP
 187  002C              	ENDIF
 187  002C              ;# 187 "C:\Users\Tech\Desktop\CODetector\sevenSegment3DigitComplex\SevenSegment3DigitComplex.c" 1
 187  002C              	IF 1000==3
 187  002C              ;# 187 "C:\Users\Tech\Desktop\CODetector\sevenSegment3DigitComplex\SevenSegment3DigitComplex.c" 1
 187  002C              	NOP
 187  002C              ;# 187 "C:\Users\Tech\Desktop\CODetector\sevenSegment3DigitComplex\SevenSegment3DigitComplex.c" 1
 187  002C              	NOP
 187  002C              ;# 187 "C:\Users\Tech\Desktop\CODetector\sevenSegment3DigitComplex\SevenSegment3DigitComplex.c" 1
 187  002C              	NOP
 187  002C              	ENDIF
 187  002C              ;# 187 "C:\Users\Tech\Desktop\CODetector\sevenSegment3DigitComplex\SevenSegment3DigitComplex.c" 1
 187  002C              	IF (1000<8) AND (1000>3)
 187  002C              ;# 187 "C:\Users\Tech\Desktop\CODetector\sevenSegment3DigitComplex\SevenSegment3DigitComplex.c" 1
 187  002C              	CALL __DELAY3 + 7 -1000
 187  002C              	ENDIF
 187  002C              ;# 187 "C:\Users\Tech\Desktop\CODetector\sevenSegment3DigitComplex\SevenSegment3DigitComplex.c" 1
 187  002C              	IF (1000< 0404h) AND (1000>7)
 187  002C              ;# 187 "C:\Users\Tech\Desktop\CODetector\sevenSegment3DigitComplex\SevenSegment3DigitComplex.c" 1
 187  002C  0FF9        	MOV A,1000/4-1
 187  002D              ;# 187 "C:\Users\Tech\Desktop\CODetector\sevenSegment3DigitComplex\SevenSegment3DigitComplex.c" 1
 187  002D  2000     E  	CALL __DELAYX3 + 3 -(1000 MOD 4)
 187  002E              	ENDIF
 187  002E              ;# 187 "C:\Users\Tech\Desktop\CODetector\sevenSegment3DigitComplex\SevenSegment3DigitComplex.c" 1
 187  002E              	IF (1000< 0x40B) AND (1000> 0403h)
 187  002E              ;# 187 "C:\Users\Tech\Desktop\CODetector\sevenSegment3DigitComplex\SevenSegment3DigitComplex.c" 1
 187  002E              	MOV A,0 
 187  002E              ;# 187 "C:\Users\Tech\Desktop\CODetector\sevenSegment3DigitComplex\SevenSegment3DigitComplex.c" 1
 187  002E              	CALL __DELAYX6 + 0x40a -1000
"File: SevenSegment3DigitComplex.c  Assembler  Version HGASM0202      Page 24

 187  002E              	ENDIF
 187  002E              ;# 187 "C:\Users\Tech\Desktop\CODetector\sevenSegment3DigitComplex\SevenSegment3DigitComplex.c" 1
 187  002E              	IF (1000 >= 0x40b) AND ((((1000-9)%0402h)/4+1)>256)
 187  002E              ;# 187 "C:\Users\Tech\Desktop\CODetector\sevenSegment3DigitComplex\SevenSegment3DigitComplex.c" 1
 187  002E              	MOV A,(1000-9)/0402h
 187  002E              ;# 187 "C:\Users\Tech\Desktop\CODetector\sevenSegment3DigitComplex\SevenSegment3DigitComplex.c" 1
 187  002E              	MOV _builtin_holtek_delay_2,A
 187  002E              ;# 187 "C:\Users\Tech\Desktop\CODetector\sevenSegment3DigitComplex\SevenSegment3DigitComplex.c" 1
 187  002E              	MOV A,0
 187  002E              ;# 187 "C:\Users\Tech\Desktop\CODetector\sevenSegment3DigitComplex\SevenSegment3DigitComplex.c" 1
 187  002E              	CALL __DELAYY5 +5- (((1000-9)%0402h)%6)
 187  002E              	ENDIF
 187  002E              ;# 187 "C:\Users\Tech\Desktop\CODetector\sevenSegment3DigitComplex\SevenSegment3DigitComplex.c" 1
 187  002E              	IF (1000 >= 0x40b) AND ((((1000-9)%0402h)/4+1)<=256)
 187  002E              ;# 187 "C:\Users\Tech\Desktop\CODetector\sevenSegment3DigitComplex\SevenSegment3DigitComplex.c" 1
 187  002E              	MOV A,(1000-9)/0402h
 187  002E              ;# 187 "C:\Users\Tech\Desktop\CODetector\sevenSegment3DigitComplex\SevenSegment3DigitComplex.c" 1
 187  002E              	MOV _builtin_holtek_delay_2,A
 187  002E              ;# 187 "C:\Users\Tech\Desktop\CODetector\sevenSegment3DigitComplex\SevenSegment3DigitComplex.c" 1
 187  002E              	MOV A,((1000-9)%0402h)/4+1
 187  002E              ;# 187 "C:\Users\Tech\Desktop\CODetector\sevenSegment3DigitComplex\SevenSegment3DigitComplex.c" 1
 187  002E              	CALL __DELAYY3 +3-(((1000-9)%0402h)%4)
 187  002E              	ENDIF
 187  002E  0003        	ret
 187  002F              _ziroDigit1 endp
 187  002F              #line 187 "C:\Users\Tech\Desktop\CODetector\sevenSegment3DigitComplex\SevenSegment3DigitComplex.c"
 187  002F              #pragma debug scope 1 1
 187  002F              public _ziroDigit2
 187  002F              #pragma debug scope 5 1
 190  002F              #line 190 "C:\Users\Tech\Desktop\CODetector\sevenSegment3DigitComplex\SevenSegment3DigitComplex.c"
 190  0000              _ziroDigit2 .section 'code'
 190  0000              _ziroDigit2 proc
 192  0000              #line 192 "C:\Users\Tech\Desktop\CODetector\sevenSegment3DigitComplex\SevenSegment3DigitComplex.c"
 192  0000  3119        	set [25].2
 193  0001              #line 193 "C:\Users\Tech\Desktop\CODetector\sevenSegment3DigitComplex\SevenSegment3DigitComplex.c"
 193  0001  3099        	set [25].1
 194  0002              #line 194 "C:\Users\Tech\Desktop\CODetector\sevenSegment3DigitComplex\SevenSegment3DigitComplex.c"
 194  0002  3215        	set [21].4
 195  0003              #line 195 "C:\Users\Tech\Desktop\CODetector\sevenSegment3DigitComplex\SevenSegment3DigitComplex.c"
 195  0003  3015        	set [21].0
 196  0004              #line 196 "C:\Users\Tech\Desktop\CODetector\sevenSegment3DigitComplex\SevenSegment3DigitComplex.c"
 196  0004  3115        	set [21].2
 197  0005              #line 197 "C:\Users\Tech\Desktop\CODetector\sevenSegment3DigitComplex\SevenSegment3DigitComplex.c"
 197  0005  3199        	set [25].3
 200  0006              #line 200 "C:\Users\Tech\Desktop\CODetector\sevenSegment3DigitComplex\SevenSegment3DigitComplex.c"
 200  0006  3519        	clr [25].2
 201  0007              #line 201 "C:\Users\Tech\Desktop\CODetector\sevenSegment3DigitComplex\SevenSegment3DigitComplex.c"
 201  0007  3499        	clr [25].1
 202  0008              #line 202 "C:\Users\Tech\Desktop\CODetector\sevenSegment3DigitComplex\SevenSegment3DigitComplex.c"
 202  0008  3615        	clr [21].4
 203  0009              #line 203 "C:\Users\Tech\Desktop\CODetector\sevenSegment3DigitComplex\SevenSegment3DigitComplex.c"
 203  0009  3415        	clr [21].0
 204  000A              #line 204 "C:\Users\Tech\Desktop\CODetector\sevenSegment3DigitComplex\SevenSegment3DigitComplex.c"
 204  000A  3515        	clr [21].2
 205  000B              #line 205 "C:\Users\Tech\Desktop\CODetector\sevenSegment3DigitComplex\SevenSegment3DigitComplex.c"
 205  000B  3599        	clr [25].3
 206  000C              #line 206 "C:\Users\Tech\Desktop\CODetector\sevenSegment3DigitComplex\SevenSegment3DigitComplex.c"
 206  000C  3118        	set [24].2
 207  000D              #line 207 "C:\Users\Tech\Desktop\CODetector\sevenSegment3DigitComplex\SevenSegment3DigitComplex.c"
 207  000D  3498        	clr [24].1
"File: SevenSegment3DigitComplex.c  Assembler  Version HGASM0202      Page 25

 208  000E              #line 208 "C:\Users\Tech\Desktop\CODetector\sevenSegment3DigitComplex\SevenSegment3DigitComplex.c"
 208  000E  3614        	clr [20].4
 209  000F              #line 209 "C:\Users\Tech\Desktop\CODetector\sevenSegment3DigitComplex\SevenSegment3DigitComplex.c"
 209  000F  3414        	clr [20].0
 210  0010              #line 210 "C:\Users\Tech\Desktop\CODetector\sevenSegment3DigitComplex\SevenSegment3DigitComplex.c"
 210  0010  3514        	clr [20].2
 211  0011              #line 211 "C:\Users\Tech\Desktop\CODetector\sevenSegment3DigitComplex\SevenSegment3DigitComplex.c"
 211  0011  3598        	clr [24].3
 212  0012              #line 212 "C:\Users\Tech\Desktop\CODetector\sevenSegment3DigitComplex\SevenSegment3DigitComplex.c"
 212  0012              ;# 212 "C:\Users\Tech\Desktop\CODetector\sevenSegment3DigitComplex\SevenSegment3DigitComplex.c" 1
 212  0012              	IF 1000>263690
 212  0012              ;# 212 "C:\Users\Tech\Desktop\CODetector\sevenSegment3DigitComplex\SevenSegment3DigitComplex.c" 1
 212  0012              	ERRMESSAGE 'the value 1000of the argument exceeds the maxinum 263690'
 212  0012              	ENDIF
 212  0012              ;# 212 "C:\Users\Tech\Desktop\CODetector\sevenSegment3DigitComplex\SevenSegment3DigitComplex.c" 1
 212  0012              	IF 1000<0
 212  0012              ;# 212 "C:\Users\Tech\Desktop\CODetector\sevenSegment3DigitComplex\SevenSegment3DigitComplex.c" 1
 212  0012              	ERRMESSAGE 'the value 1000 of the argument exceeds the mininum 0'
 212  0012              	ENDIF
 212  0012              ;# 212 "C:\Users\Tech\Desktop\CODetector\sevenSegment3DigitComplex\SevenSegment3DigitComplex.c" 1
 212  0012              	IF 1000==0
 212  0012              ;# 212 "C:\Users\Tech\Desktop\CODetector\sevenSegment3DigitComplex\SevenSegment3DigitComplex.c" 1
 212  0012              	JMP $
 212  0012              	ENDIF
 212  0012              ;# 212 "C:\Users\Tech\Desktop\CODetector\sevenSegment3DigitComplex\SevenSegment3DigitComplex.c" 1
 212  0012              	IF 1000==1
 212  0012              ;# 212 "C:\Users\Tech\Desktop\CODetector\sevenSegment3DigitComplex\SevenSegment3DigitComplex.c" 1
 212  0012              	NOP
 212  0012              	ENDIF
 212  0012              ;# 212 "C:\Users\Tech\Desktop\CODetector\sevenSegment3DigitComplex\SevenSegment3DigitComplex.c" 1
 212  0012              	IF 1000==2
 212  0012              ;# 212 "C:\Users\Tech\Desktop\CODetector\sevenSegment3DigitComplex\SevenSegment3DigitComplex.c" 1
 212  0012              	NOP
 212  0012              ;# 212 "C:\Users\Tech\Desktop\CODetector\sevenSegment3DigitComplex\SevenSegment3DigitComplex.c" 1
 212  0012              	NOP
 212  0012              	ENDIF
 212  0012              ;# 212 "C:\Users\Tech\Desktop\CODetector\sevenSegment3DigitComplex\SevenSegment3DigitComplex.c" 1
 212  0012              	IF 1000==3
 212  0012              ;# 212 "C:\Users\Tech\Desktop\CODetector\sevenSegment3DigitComplex\SevenSegment3DigitComplex.c" 1
 212  0012              	NOP
 212  0012              ;# 212 "C:\Users\Tech\Desktop\CODetector\sevenSegment3DigitComplex\SevenSegment3DigitComplex.c" 1
 212  0012              	NOP
 212  0012              ;# 212 "C:\Users\Tech\Desktop\CODetector\sevenSegment3DigitComplex\SevenSegment3DigitComplex.c" 1
 212  0012              	NOP
 212  0012              	ENDIF
 212  0012              ;# 212 "C:\Users\Tech\Desktop\CODetector\sevenSegment3DigitComplex\SevenSegment3DigitComplex.c" 1
 212  0012              	IF (1000<8) AND (1000>3)
 212  0012              ;# 212 "C:\Users\Tech\Desktop\CODetector\sevenSegment3DigitComplex\SevenSegment3DigitComplex.c" 1
 212  0012              	CALL __DELAY3 + 7 -1000
 212  0012              	ENDIF
 212  0012              ;# 212 "C:\Users\Tech\Desktop\CODetector\sevenSegment3DigitComplex\SevenSegment3DigitComplex.c" 1
 212  0012              	IF (1000< 0404h) AND (1000>7)
 212  0012              ;# 212 "C:\Users\Tech\Desktop\CODetector\sevenSegment3DigitComplex\SevenSegment3DigitComplex.c" 1
 212  0012  0FF9        	MOV A,1000/4-1
 212  0013              ;# 212 "C:\Users\Tech\Desktop\CODetector\sevenSegment3DigitComplex\SevenSegment3DigitComplex.c" 1
 212  0013  2000     E  	CALL __DELAYX3 + 3 -(1000 MOD 4)
 212  0014              	ENDIF
 212  0014              ;# 212 "C:\Users\Tech\Desktop\CODetector\sevenSegment3DigitComplex\SevenSegment3DigitComplex.c" 1
 212  0014              	IF (1000< 0x40B) AND (1000> 0403h)
 212  0014              ;# 212 "C:\Users\Tech\Desktop\CODetector\sevenSegment3DigitComplex\SevenSegment3DigitComplex.c" 1
"File: SevenSegment3DigitComplex.c  Assembler  Version HGASM0202      Page 26

 212  0014              	MOV A,0 
 212  0014              ;# 212 "C:\Users\Tech\Desktop\CODetector\sevenSegment3DigitComplex\SevenSegment3DigitComplex.c" 1
 212  0014              	CALL __DELAYX6 + 0x40a -1000
 212  0014              	ENDIF
 212  0014              ;# 212 "C:\Users\Tech\Desktop\CODetector\sevenSegment3DigitComplex\SevenSegment3DigitComplex.c" 1
 212  0014              	IF (1000 >= 0x40b) AND ((((1000-9)%0402h)/4+1)>256)
 212  0014              ;# 212 "C:\Users\Tech\Desktop\CODetector\sevenSegment3DigitComplex\SevenSegment3DigitComplex.c" 1
 212  0014              	MOV A,(1000-9)/0402h
 212  0014              ;# 212 "C:\Users\Tech\Desktop\CODetector\sevenSegment3DigitComplex\SevenSegment3DigitComplex.c" 1
 212  0014              	MOV _builtin_holtek_delay_2,A
 212  0014              ;# 212 "C:\Users\Tech\Desktop\CODetector\sevenSegment3DigitComplex\SevenSegment3DigitComplex.c" 1
 212  0014              	MOV A,0
 212  0014              ;# 212 "C:\Users\Tech\Desktop\CODetector\sevenSegment3DigitComplex\SevenSegment3DigitComplex.c" 1
 212  0014              	CALL __DELAYY5 +5- (((1000-9)%0402h)%6)
 212  0014              	ENDIF
 212  0014              ;# 212 "C:\Users\Tech\Desktop\CODetector\sevenSegment3DigitComplex\SevenSegment3DigitComplex.c" 1
 212  0014              	IF (1000 >= 0x40b) AND ((((1000-9)%0402h)/4+1)<=256)
 212  0014              ;# 212 "C:\Users\Tech\Desktop\CODetector\sevenSegment3DigitComplex\SevenSegment3DigitComplex.c" 1
 212  0014              	MOV A,(1000-9)/0402h
 212  0014              ;# 212 "C:\Users\Tech\Desktop\CODetector\sevenSegment3DigitComplex\SevenSegment3DigitComplex.c" 1
 212  0014              	MOV _builtin_holtek_delay_2,A
 212  0014              ;# 212 "C:\Users\Tech\Desktop\CODetector\sevenSegment3DigitComplex\SevenSegment3DigitComplex.c" 1
 212  0014              	MOV A,((1000-9)%0402h)/4+1
 212  0014              ;# 212 "C:\Users\Tech\Desktop\CODetector\sevenSegment3DigitComplex\SevenSegment3DigitComplex.c" 1
 212  0014              	CALL __DELAYY3 +3-(((1000-9)%0402h)%4)
 212  0014              	ENDIF
 213  0014              #line 213 "C:\Users\Tech\Desktop\CODetector\sevenSegment3DigitComplex\SevenSegment3DigitComplex.c"
 213  0014  3119        	set [25].2
 214  0015              #line 214 "C:\Users\Tech\Desktop\CODetector\sevenSegment3DigitComplex\SevenSegment3DigitComplex.c"
 214  0015  3099        	set [25].1
 215  0016              #line 215 "C:\Users\Tech\Desktop\CODetector\sevenSegment3DigitComplex\SevenSegment3DigitComplex.c"
 215  0016  3215        	set [21].4
 216  0017              #line 216 "C:\Users\Tech\Desktop\CODetector\sevenSegment3DigitComplex\SevenSegment3DigitComplex.c"
 216  0017  3015        	set [21].0
 217  0018              #line 217 "C:\Users\Tech\Desktop\CODetector\sevenSegment3DigitComplex\SevenSegment3DigitComplex.c"
 217  0018  3115        	set [21].2
 218  0019              #line 218 "C:\Users\Tech\Desktop\CODetector\sevenSegment3DigitComplex\SevenSegment3DigitComplex.c"
 218  0019  3199        	set [25].3
 219  001A              #line 219 "C:\Users\Tech\Desktop\CODetector\sevenSegment3DigitComplex\SevenSegment3DigitComplex.c"
 219  001A  3599        	clr [25].3
 220  001B              #line 220 "C:\Users\Tech\Desktop\CODetector\sevenSegment3DigitComplex\SevenSegment3DigitComplex.c"
 220  001B  3499        	clr [25].1
 221  001C              #line 221 "C:\Users\Tech\Desktop\CODetector\sevenSegment3DigitComplex\SevenSegment3DigitComplex.c"
 221  001C  3598        	clr [24].3
 222  001D              #line 222 "C:\Users\Tech\Desktop\CODetector\sevenSegment3DigitComplex\SevenSegment3DigitComplex.c"
 222  001D  3498        	clr [24].1
 223  001E              #line 223 "C:\Users\Tech\Desktop\CODetector\sevenSegment3DigitComplex\SevenSegment3DigitComplex.c"
 223  001E              ;# 223 "C:\Users\Tech\Desktop\CODetector\sevenSegment3DigitComplex\SevenSegment3DigitComplex.c" 1
 223  001E              	IF 1000>263690
 223  001E              ;# 223 "C:\Users\Tech\Desktop\CODetector\sevenSegment3DigitComplex\SevenSegment3DigitComplex.c" 1
 223  001E              	ERRMESSAGE 'the value 1000of the argument exceeds the maxinum 263690'
 223  001E              	ENDIF
 223  001E              ;# 223 "C:\Users\Tech\Desktop\CODetector\sevenSegment3DigitComplex\SevenSegment3DigitComplex.c" 1
 223  001E              	IF 1000<0
 223  001E              ;# 223 "C:\Users\Tech\Desktop\CODetector\sevenSegment3DigitComplex\SevenSegment3DigitComplex.c" 1
 223  001E              	ERRMESSAGE 'the value 1000 of the argument exceeds the mininum 0'
 223  001E              	ENDIF
 223  001E              ;# 223 "C:\Users\Tech\Desktop\CODetector\sevenSegment3DigitComplex\SevenSegment3DigitComplex.c" 1
 223  001E              	IF 1000==0
 223  001E              ;# 223 "C:\Users\Tech\Desktop\CODetector\sevenSegment3DigitComplex\SevenSegment3DigitComplex.c" 1
"File: SevenSegment3DigitComplex.c  Assembler  Version HGASM0202      Page 27

 223  001E              	JMP $
 223  001E              	ENDIF
 223  001E              ;# 223 "C:\Users\Tech\Desktop\CODetector\sevenSegment3DigitComplex\SevenSegment3DigitComplex.c" 1
 223  001E              	IF 1000==1
 223  001E              ;# 223 "C:\Users\Tech\Desktop\CODetector\sevenSegment3DigitComplex\SevenSegment3DigitComplex.c" 1
 223  001E              	NOP
 223  001E              	ENDIF
 223  001E              ;# 223 "C:\Users\Tech\Desktop\CODetector\sevenSegment3DigitComplex\SevenSegment3DigitComplex.c" 1
 223  001E              	IF 1000==2
 223  001E              ;# 223 "C:\Users\Tech\Desktop\CODetector\sevenSegment3DigitComplex\SevenSegment3DigitComplex.c" 1
 223  001E              	NOP
 223  001E              ;# 223 "C:\Users\Tech\Desktop\CODetector\sevenSegment3DigitComplex\SevenSegment3DigitComplex.c" 1
 223  001E              	NOP
 223  001E              	ENDIF
 223  001E              ;# 223 "C:\Users\Tech\Desktop\CODetector\sevenSegment3DigitComplex\SevenSegment3DigitComplex.c" 1
 223  001E              	IF 1000==3
 223  001E              ;# 223 "C:\Users\Tech\Desktop\CODetector\sevenSegment3DigitComplex\SevenSegment3DigitComplex.c" 1
 223  001E              	NOP
 223  001E              ;# 223 "C:\Users\Tech\Desktop\CODetector\sevenSegment3DigitComplex\SevenSegment3DigitComplex.c" 1
 223  001E              	NOP
 223  001E              ;# 223 "C:\Users\Tech\Desktop\CODetector\sevenSegment3DigitComplex\SevenSegment3DigitComplex.c" 1
 223  001E              	NOP
 223  001E              	ENDIF
 223  001E              ;# 223 "C:\Users\Tech\Desktop\CODetector\sevenSegment3DigitComplex\SevenSegment3DigitComplex.c" 1
 223  001E              	IF (1000<8) AND (1000>3)
 223  001E              ;# 223 "C:\Users\Tech\Desktop\CODetector\sevenSegment3DigitComplex\SevenSegment3DigitComplex.c" 1
 223  001E              	CALL __DELAY3 + 7 -1000
 223  001E              	ENDIF
 223  001E              ;# 223 "C:\Users\Tech\Desktop\CODetector\sevenSegment3DigitComplex\SevenSegment3DigitComplex.c" 1
 223  001E              	IF (1000< 0404h) AND (1000>7)
 223  001E              ;# 223 "C:\Users\Tech\Desktop\CODetector\sevenSegment3DigitComplex\SevenSegment3DigitComplex.c" 1
 223  001E  0FF9        	MOV A,1000/4-1
 223  001F              ;# 223 "C:\Users\Tech\Desktop\CODetector\sevenSegment3DigitComplex\SevenSegment3DigitComplex.c" 1
 223  001F  2000     E  	CALL __DELAYX3 + 3 -(1000 MOD 4)
 223  0020              	ENDIF
 223  0020              ;# 223 "C:\Users\Tech\Desktop\CODetector\sevenSegment3DigitComplex\SevenSegment3DigitComplex.c" 1
 223  0020              	IF (1000< 0x40B) AND (1000> 0403h)
 223  0020              ;# 223 "C:\Users\Tech\Desktop\CODetector\sevenSegment3DigitComplex\SevenSegment3DigitComplex.c" 1
 223  0020              	MOV A,0 
 223  0020              ;# 223 "C:\Users\Tech\Desktop\CODetector\sevenSegment3DigitComplex\SevenSegment3DigitComplex.c" 1
 223  0020              	CALL __DELAYX6 + 0x40a -1000
 223  0020              	ENDIF
 223  0020              ;# 223 "C:\Users\Tech\Desktop\CODetector\sevenSegment3DigitComplex\SevenSegment3DigitComplex.c" 1
 223  0020              	IF (1000 >= 0x40b) AND ((((1000-9)%0402h)/4+1)>256)
 223  0020              ;# 223 "C:\Users\Tech\Desktop\CODetector\sevenSegment3DigitComplex\SevenSegment3DigitComplex.c" 1
 223  0020              	MOV A,(1000-9)/0402h
 223  0020              ;# 223 "C:\Users\Tech\Desktop\CODetector\sevenSegment3DigitComplex\SevenSegment3DigitComplex.c" 1
 223  0020              	MOV _builtin_holtek_delay_2,A
 223  0020              ;# 223 "C:\Users\Tech\Desktop\CODetector\sevenSegment3DigitComplex\SevenSegment3DigitComplex.c" 1
 223  0020              	MOV A,0
 223  0020              ;# 223 "C:\Users\Tech\Desktop\CODetector\sevenSegment3DigitComplex\SevenSegment3DigitComplex.c" 1
 223  0020              	CALL __DELAYY5 +5- (((1000-9)%0402h)%6)
 223  0020              	ENDIF
 223  0020              ;# 223 "C:\Users\Tech\Desktop\CODetector\sevenSegment3DigitComplex\SevenSegment3DigitComplex.c" 1
 223  0020              	IF (1000 >= 0x40b) AND ((((1000-9)%0402h)/4+1)<=256)
 223  0020              ;# 223 "C:\Users\Tech\Desktop\CODetector\sevenSegment3DigitComplex\SevenSegment3DigitComplex.c" 1
 223  0020              	MOV A,(1000-9)/0402h
 223  0020              ;# 223 "C:\Users\Tech\Desktop\CODetector\sevenSegment3DigitComplex\SevenSegment3DigitComplex.c" 1
 223  0020              	MOV _builtin_holtek_delay_2,A
 223  0020              ;# 223 "C:\Users\Tech\Desktop\CODetector\sevenSegment3DigitComplex\SevenSegment3DigitComplex.c" 1
"File: SevenSegment3DigitComplex.c  Assembler  Version HGASM0202      Page 28

 223  0020              	MOV A,((1000-9)%0402h)/4+1
 223  0020              ;# 223 "C:\Users\Tech\Desktop\CODetector\sevenSegment3DigitComplex\SevenSegment3DigitComplex.c" 1
 223  0020              	CALL __DELAYY3 +3-(((1000-9)%0402h)%4)
 223  0020              	ENDIF
 225  0020              #line 225 "C:\Users\Tech\Desktop\CODetector\sevenSegment3DigitComplex\SevenSegment3DigitComplex.c"
 225  0020  3119        	set [25].2
 226  0021              #line 226 "C:\Users\Tech\Desktop\CODetector\sevenSegment3DigitComplex\SevenSegment3DigitComplex.c"
 226  0021  3099        	set [25].1
 227  0022              #line 227 "C:\Users\Tech\Desktop\CODetector\sevenSegment3DigitComplex\SevenSegment3DigitComplex.c"
 227  0022  3215        	set [21].4
 228  0023              #line 228 "C:\Users\Tech\Desktop\CODetector\sevenSegment3DigitComplex\SevenSegment3DigitComplex.c"
 228  0023  3015        	set [21].0
 229  0024              #line 229 "C:\Users\Tech\Desktop\CODetector\sevenSegment3DigitComplex\SevenSegment3DigitComplex.c"
 229  0024  3115        	set [21].2
 230  0025              #line 230 "C:\Users\Tech\Desktop\CODetector\sevenSegment3DigitComplex\SevenSegment3DigitComplex.c"
 230  0025  3199        	set [25].3
 231  0026              #line 231 "C:\Users\Tech\Desktop\CODetector\sevenSegment3DigitComplex\SevenSegment3DigitComplex.c"
 231  0026  3515        	clr [21].2
 232  0027              #line 232 "C:\Users\Tech\Desktop\CODetector\sevenSegment3DigitComplex\SevenSegment3DigitComplex.c"
 232  0027  3499        	clr [25].1
 233  0028              #line 233 "C:\Users\Tech\Desktop\CODetector\sevenSegment3DigitComplex\SevenSegment3DigitComplex.c"
 233  0028  3498        	clr [24].1
 234  0029              #line 234 "C:\Users\Tech\Desktop\CODetector\sevenSegment3DigitComplex\SevenSegment3DigitComplex.c"
 234  0029  3114        	set [20].2
 235  002A              #line 235 "C:\Users\Tech\Desktop\CODetector\sevenSegment3DigitComplex\SevenSegment3DigitComplex.c"
 235  002A              ;# 235 "C:\Users\Tech\Desktop\CODetector\sevenSegment3DigitComplex\SevenSegment3DigitComplex.c" 1
 235  002A              	IF 1000>263690
 235  002A              ;# 235 "C:\Users\Tech\Desktop\CODetector\sevenSegment3DigitComplex\SevenSegment3DigitComplex.c" 1
 235  002A              	ERRMESSAGE 'the value 1000of the argument exceeds the maxinum 263690'
 235  002A              	ENDIF
 235  002A              ;# 235 "C:\Users\Tech\Desktop\CODetector\sevenSegment3DigitComplex\SevenSegment3DigitComplex.c" 1
 235  002A              	IF 1000<0
 235  002A              ;# 235 "C:\Users\Tech\Desktop\CODetector\sevenSegment3DigitComplex\SevenSegment3DigitComplex.c" 1
 235  002A              	ERRMESSAGE 'the value 1000 of the argument exceeds the mininum 0'
 235  002A              	ENDIF
 235  002A              ;# 235 "C:\Users\Tech\Desktop\CODetector\sevenSegment3DigitComplex\SevenSegment3DigitComplex.c" 1
 235  002A              	IF 1000==0
 235  002A              ;# 235 "C:\Users\Tech\Desktop\CODetector\sevenSegment3DigitComplex\SevenSegment3DigitComplex.c" 1
 235  002A              	JMP $
 235  002A              	ENDIF
 235  002A              ;# 235 "C:\Users\Tech\Desktop\CODetector\sevenSegment3DigitComplex\SevenSegment3DigitComplex.c" 1
 235  002A              	IF 1000==1
 235  002A              ;# 235 "C:\Users\Tech\Desktop\CODetector\sevenSegment3DigitComplex\SevenSegment3DigitComplex.c" 1
 235  002A              	NOP
 235  002A              	ENDIF
 235  002A              ;# 235 "C:\Users\Tech\Desktop\CODetector\sevenSegment3DigitComplex\SevenSegment3DigitComplex.c" 1
 235  002A              	IF 1000==2
 235  002A              ;# 235 "C:\Users\Tech\Desktop\CODetector\sevenSegment3DigitComplex\SevenSegment3DigitComplex.c" 1
 235  002A              	NOP
 235  002A              ;# 235 "C:\Users\Tech\Desktop\CODetector\sevenSegment3DigitComplex\SevenSegment3DigitComplex.c" 1
 235  002A              	NOP
 235  002A              	ENDIF
 235  002A              ;# 235 "C:\Users\Tech\Desktop\CODetector\sevenSegment3DigitComplex\SevenSegment3DigitComplex.c" 1
 235  002A              	IF 1000==3
 235  002A              ;# 235 "C:\Users\Tech\Desktop\CODetector\sevenSegment3DigitComplex\SevenSegment3DigitComplex.c" 1
 235  002A              	NOP
 235  002A              ;# 235 "C:\Users\Tech\Desktop\CODetector\sevenSegment3DigitComplex\SevenSegment3DigitComplex.c" 1
 235  002A              	NOP
 235  002A              ;# 235 "C:\Users\Tech\Desktop\CODetector\sevenSegment3DigitComplex\SevenSegment3DigitComplex.c" 1
 235  002A              	NOP
"File: SevenSegment3DigitComplex.c  Assembler  Version HGASM0202      Page 29

 235  002A              	ENDIF
 235  002A              ;# 235 "C:\Users\Tech\Desktop\CODetector\sevenSegment3DigitComplex\SevenSegment3DigitComplex.c" 1
 235  002A              	IF (1000<8) AND (1000>3)
 235  002A              ;# 235 "C:\Users\Tech\Desktop\CODetector\sevenSegment3DigitComplex\SevenSegment3DigitComplex.c" 1
 235  002A              	CALL __DELAY3 + 7 -1000
 235  002A              	ENDIF
 235  002A              ;# 235 "C:\Users\Tech\Desktop\CODetector\sevenSegment3DigitComplex\SevenSegment3DigitComplex.c" 1
 235  002A              	IF (1000< 0404h) AND (1000>7)
 235  002A              ;# 235 "C:\Users\Tech\Desktop\CODetector\sevenSegment3DigitComplex\SevenSegment3DigitComplex.c" 1
 235  002A  0FF9        	MOV A,1000/4-1
 235  002B              ;# 235 "C:\Users\Tech\Desktop\CODetector\sevenSegment3DigitComplex\SevenSegment3DigitComplex.c" 1
 235  002B  2000     E  	CALL __DELAYX3 + 3 -(1000 MOD 4)
 235  002C              	ENDIF
 235  002C              ;# 235 "C:\Users\Tech\Desktop\CODetector\sevenSegment3DigitComplex\SevenSegment3DigitComplex.c" 1
 235  002C              	IF (1000< 0x40B) AND (1000> 0403h)
 235  002C              ;# 235 "C:\Users\Tech\Desktop\CODetector\sevenSegment3DigitComplex\SevenSegment3DigitComplex.c" 1
 235  002C              	MOV A,0 
 235  002C              ;# 235 "C:\Users\Tech\Desktop\CODetector\sevenSegment3DigitComplex\SevenSegment3DigitComplex.c" 1
 235  002C              	CALL __DELAYX6 + 0x40a -1000
 235  002C              	ENDIF
 235  002C              ;# 235 "C:\Users\Tech\Desktop\CODetector\sevenSegment3DigitComplex\SevenSegment3DigitComplex.c" 1
 235  002C              	IF (1000 >= 0x40b) AND ((((1000-9)%0402h)/4+1)>256)
 235  002C              ;# 235 "C:\Users\Tech\Desktop\CODetector\sevenSegment3DigitComplex\SevenSegment3DigitComplex.c" 1
 235  002C              	MOV A,(1000-9)/0402h
 235  002C              ;# 235 "C:\Users\Tech\Desktop\CODetector\sevenSegment3DigitComplex\SevenSegment3DigitComplex.c" 1
 235  002C              	MOV _builtin_holtek_delay_2,A
 235  002C              ;# 235 "C:\Users\Tech\Desktop\CODetector\sevenSegment3DigitComplex\SevenSegment3DigitComplex.c" 1
 235  002C              	MOV A,0
 235  002C              ;# 235 "C:\Users\Tech\Desktop\CODetector\sevenSegment3DigitComplex\SevenSegment3DigitComplex.c" 1
 235  002C              	CALL __DELAYY5 +5- (((1000-9)%0402h)%6)
 235  002C              	ENDIF
 235  002C              ;# 235 "C:\Users\Tech\Desktop\CODetector\sevenSegment3DigitComplex\SevenSegment3DigitComplex.c" 1
 235  002C              	IF (1000 >= 0x40b) AND ((((1000-9)%0402h)/4+1)<=256)
 235  002C              ;# 235 "C:\Users\Tech\Desktop\CODetector\sevenSegment3DigitComplex\SevenSegment3DigitComplex.c" 1
 235  002C              	MOV A,(1000-9)/0402h
 235  002C              ;# 235 "C:\Users\Tech\Desktop\CODetector\sevenSegment3DigitComplex\SevenSegment3DigitComplex.c" 1
 235  002C              	MOV _builtin_holtek_delay_2,A
 235  002C              ;# 235 "C:\Users\Tech\Desktop\CODetector\sevenSegment3DigitComplex\SevenSegment3DigitComplex.c" 1
 235  002C              	MOV A,((1000-9)%0402h)/4+1
 235  002C              ;# 235 "C:\Users\Tech\Desktop\CODetector\sevenSegment3DigitComplex\SevenSegment3DigitComplex.c" 1
 235  002C              	CALL __DELAYY3 +3-(((1000-9)%0402h)%4)
 235  002C              	ENDIF
 235  002C  0003        	ret
 235  002D              _ziroDigit2 endp
 235  002D              #line 235 "C:\Users\Tech\Desktop\CODetector\sevenSegment3DigitComplex\SevenSegment3DigitComplex.c"
 235  002D              #pragma debug scope 1 1
 235  002D              public _ziroDigit3
 235  002D              #pragma debug scope 6 1
 242  002D              #line 242 "C:\Users\Tech\Desktop\CODetector\sevenSegment3DigitComplex\SevenSegment3DigitComplex.c"
 242  0000              _ziroDigit3 .section 'code'
 242  0000              _ziroDigit3 proc
 243  0000              #line 243 "C:\Users\Tech\Desktop\CODetector\sevenSegment3DigitComplex\SevenSegment3DigitComplex.c"
 243  0000  3119        	set [25].2
 244  0001              #line 244 "C:\Users\Tech\Desktop\CODetector\sevenSegment3DigitComplex\SevenSegment3DigitComplex.c"
 244  0001  3099        	set [25].1
 245  0002              #line 245 "C:\Users\Tech\Desktop\CODetector\sevenSegment3DigitComplex\SevenSegment3DigitComplex.c"
 245  0002  3215        	set [21].4
 246  0003              #line 246 "C:\Users\Tech\Desktop\CODetector\sevenSegment3DigitComplex\SevenSegment3DigitComplex.c"
 246  0003  3015        	set [21].0
 247  0004              #line 247 "C:\Users\Tech\Desktop\CODetector\sevenSegment3DigitComplex\SevenSegment3DigitComplex.c"
"File: SevenSegment3DigitComplex.c  Assembler  Version HGASM0202      Page 30

 247  0004  3115        	set [21].2
 248  0005              #line 248 "C:\Users\Tech\Desktop\CODetector\sevenSegment3DigitComplex\SevenSegment3DigitComplex.c"
 248  0005  3199        	set [25].3
 251  0006              #line 251 "C:\Users\Tech\Desktop\CODetector\sevenSegment3DigitComplex\SevenSegment3DigitComplex.c"
 251  0006  3499        	clr [25].1
 252  0007              #line 252 "C:\Users\Tech\Desktop\CODetector\sevenSegment3DigitComplex\SevenSegment3DigitComplex.c"
 252  0007  3615        	clr [21].4
 253  0008              #line 253 "C:\Users\Tech\Desktop\CODetector\sevenSegment3DigitComplex\SevenSegment3DigitComplex.c"
 253  0008  3415        	clr [21].0
 254  0009              #line 254 "C:\Users\Tech\Desktop\CODetector\sevenSegment3DigitComplex\SevenSegment3DigitComplex.c"
 254  0009  3515        	clr [21].2
 255  000A              #line 255 "C:\Users\Tech\Desktop\CODetector\sevenSegment3DigitComplex\SevenSegment3DigitComplex.c"
 255  000A  3599        	clr [25].3
 256  000B              #line 256 "C:\Users\Tech\Desktop\CODetector\sevenSegment3DigitComplex\SevenSegment3DigitComplex.c"
 256  000B  3098        	set [24].1
 257  000C              #line 257 "C:\Users\Tech\Desktop\CODetector\sevenSegment3DigitComplex\SevenSegment3DigitComplex.c"
 257  000C  3614        	clr [20].4
 258  000D              #line 258 "C:\Users\Tech\Desktop\CODetector\sevenSegment3DigitComplex\SevenSegment3DigitComplex.c"
 258  000D  3414        	clr [20].0
 259  000E              #line 259 "C:\Users\Tech\Desktop\CODetector\sevenSegment3DigitComplex\SevenSegment3DigitComplex.c"
 259  000E  3514        	clr [20].2
 260  000F              #line 260 "C:\Users\Tech\Desktop\CODetector\sevenSegment3DigitComplex\SevenSegment3DigitComplex.c"
 260  000F  3598        	clr [24].3
 261  0010              #line 261 "C:\Users\Tech\Desktop\CODetector\sevenSegment3DigitComplex\SevenSegment3DigitComplex.c"
 261  0010              ;# 261 "C:\Users\Tech\Desktop\CODetector\sevenSegment3DigitComplex\SevenSegment3DigitComplex.c" 1
 261  0010              	IF 1000>263690
 261  0010              ;# 261 "C:\Users\Tech\Desktop\CODetector\sevenSegment3DigitComplex\SevenSegment3DigitComplex.c" 1
 261  0010              	ERRMESSAGE 'the value 1000of the argument exceeds the maxinum 263690'
 261  0010              	ENDIF
 261  0010              ;# 261 "C:\Users\Tech\Desktop\CODetector\sevenSegment3DigitComplex\SevenSegment3DigitComplex.c" 1
 261  0010              	IF 1000<0
 261  0010              ;# 261 "C:\Users\Tech\Desktop\CODetector\sevenSegment3DigitComplex\SevenSegment3DigitComplex.c" 1
 261  0010              	ERRMESSAGE 'the value 1000 of the argument exceeds the mininum 0'
 261  0010              	ENDIF
 261  0010              ;# 261 "C:\Users\Tech\Desktop\CODetector\sevenSegment3DigitComplex\SevenSegment3DigitComplex.c" 1
 261  0010              	IF 1000==0
 261  0010              ;# 261 "C:\Users\Tech\Desktop\CODetector\sevenSegment3DigitComplex\SevenSegment3DigitComplex.c" 1
 261  0010              	JMP $
 261  0010              	ENDIF
 261  0010              ;# 261 "C:\Users\Tech\Desktop\CODetector\sevenSegment3DigitComplex\SevenSegment3DigitComplex.c" 1
 261  0010              	IF 1000==1
 261  0010              ;# 261 "C:\Users\Tech\Desktop\CODetector\sevenSegment3DigitComplex\SevenSegment3DigitComplex.c" 1
 261  0010              	NOP
 261  0010              	ENDIF
 261  0010              ;# 261 "C:\Users\Tech\Desktop\CODetector\sevenSegment3DigitComplex\SevenSegment3DigitComplex.c" 1
 261  0010              	IF 1000==2
 261  0010              ;# 261 "C:\Users\Tech\Desktop\CODetector\sevenSegment3DigitComplex\SevenSegment3DigitComplex.c" 1
 261  0010              	NOP
 261  0010              ;# 261 "C:\Users\Tech\Desktop\CODetector\sevenSegment3DigitComplex\SevenSegment3DigitComplex.c" 1
 261  0010              	NOP
 261  0010              	ENDIF
 261  0010              ;# 261 "C:\Users\Tech\Desktop\CODetector\sevenSegment3DigitComplex\SevenSegment3DigitComplex.c" 1
 261  0010              	IF 1000==3
 261  0010              ;# 261 "C:\Users\Tech\Desktop\CODetector\sevenSegment3DigitComplex\SevenSegment3DigitComplex.c" 1
 261  0010              	NOP
 261  0010              ;# 261 "C:\Users\Tech\Desktop\CODetector\sevenSegment3DigitComplex\SevenSegment3DigitComplex.c" 1
 261  0010              	NOP
 261  0010              ;# 261 "C:\Users\Tech\Desktop\CODetector\sevenSegment3DigitComplex\SevenSegment3DigitComplex.c" 1
 261  0010              	NOP
 261  0010              	ENDIF
"File: SevenSegment3DigitComplex.c  Assembler  Version HGASM0202      Page 31

 261  0010              ;# 261 "C:\Users\Tech\Desktop\CODetector\sevenSegment3DigitComplex\SevenSegment3DigitComplex.c" 1
 261  0010              	IF (1000<8) AND (1000>3)
 261  0010              ;# 261 "C:\Users\Tech\Desktop\CODetector\sevenSegment3DigitComplex\SevenSegment3DigitComplex.c" 1
 261  0010              	CALL __DELAY3 + 7 -1000
 261  0010              	ENDIF
 261  0010              ;# 261 "C:\Users\Tech\Desktop\CODetector\sevenSegment3DigitComplex\SevenSegment3DigitComplex.c" 1
 261  0010              	IF (1000< 0404h) AND (1000>7)
 261  0010              ;# 261 "C:\Users\Tech\Desktop\CODetector\sevenSegment3DigitComplex\SevenSegment3DigitComplex.c" 1
 261  0010  0FF9        	MOV A,1000/4-1
 261  0011              ;# 261 "C:\Users\Tech\Desktop\CODetector\sevenSegment3DigitComplex\SevenSegment3DigitComplex.c" 1
 261  0011  2000     E  	CALL __DELAYX3 + 3 -(1000 MOD 4)
 261  0012              	ENDIF
 261  0012              ;# 261 "C:\Users\Tech\Desktop\CODetector\sevenSegment3DigitComplex\SevenSegment3DigitComplex.c" 1
 261  0012              	IF (1000< 0x40B) AND (1000> 0403h)
 261  0012              ;# 261 "C:\Users\Tech\Desktop\CODetector\sevenSegment3DigitComplex\SevenSegment3DigitComplex.c" 1
 261  0012              	MOV A,0 
 261  0012              ;# 261 "C:\Users\Tech\Desktop\CODetector\sevenSegment3DigitComplex\SevenSegment3DigitComplex.c" 1
 261  0012              	CALL __DELAYX6 + 0x40a -1000
 261  0012              	ENDIF
 261  0012              ;# 261 "C:\Users\Tech\Desktop\CODetector\sevenSegment3DigitComplex\SevenSegment3DigitComplex.c" 1
 261  0012              	IF (1000 >= 0x40b) AND ((((1000-9)%0402h)/4+1)>256)
 261  0012              ;# 261 "C:\Users\Tech\Desktop\CODetector\sevenSegment3DigitComplex\SevenSegment3DigitComplex.c" 1
 261  0012              	MOV A,(1000-9)/0402h
 261  0012              ;# 261 "C:\Users\Tech\Desktop\CODetector\sevenSegment3DigitComplex\SevenSegment3DigitComplex.c" 1
 261  0012              	MOV _builtin_holtek_delay_2,A
 261  0012              ;# 261 "C:\Users\Tech\Desktop\CODetector\sevenSegment3DigitComplex\SevenSegment3DigitComplex.c" 1
 261  0012              	MOV A,0
 261  0012              ;# 261 "C:\Users\Tech\Desktop\CODetector\sevenSegment3DigitComplex\SevenSegment3DigitComplex.c" 1
 261  0012              	CALL __DELAYY5 +5- (((1000-9)%0402h)%6)
 261  0012              	ENDIF
 261  0012              ;# 261 "C:\Users\Tech\Desktop\CODetector\sevenSegment3DigitComplex\SevenSegment3DigitComplex.c" 1
 261  0012              	IF (1000 >= 0x40b) AND ((((1000-9)%0402h)/4+1)<=256)
 261  0012              ;# 261 "C:\Users\Tech\Desktop\CODetector\sevenSegment3DigitComplex\SevenSegment3DigitComplex.c" 1
 261  0012              	MOV A,(1000-9)/0402h
 261  0012              ;# 261 "C:\Users\Tech\Desktop\CODetector\sevenSegment3DigitComplex\SevenSegment3DigitComplex.c" 1
 261  0012              	MOV _builtin_holtek_delay_2,A
 261  0012              ;# 261 "C:\Users\Tech\Desktop\CODetector\sevenSegment3DigitComplex\SevenSegment3DigitComplex.c" 1
 261  0012              	MOV A,((1000-9)%0402h)/4+1
 261  0012              ;# 261 "C:\Users\Tech\Desktop\CODetector\sevenSegment3DigitComplex\SevenSegment3DigitComplex.c" 1
 261  0012              	CALL __DELAYY3 +3-(((1000-9)%0402h)%4)
 261  0012              	ENDIF
 262  0012              #line 262 "C:\Users\Tech\Desktop\CODetector\sevenSegment3DigitComplex\SevenSegment3DigitComplex.c"
 262  0012  3119        	set [25].2
 263  0013              #line 263 "C:\Users\Tech\Desktop\CODetector\sevenSegment3DigitComplex\SevenSegment3DigitComplex.c"
 263  0013  3099        	set [25].1
 264  0014              #line 264 "C:\Users\Tech\Desktop\CODetector\sevenSegment3DigitComplex\SevenSegment3DigitComplex.c"
 264  0014  3215        	set [21].4
 265  0015              #line 265 "C:\Users\Tech\Desktop\CODetector\sevenSegment3DigitComplex\SevenSegment3DigitComplex.c"
 265  0015  3015        	set [21].0
 266  0016              #line 266 "C:\Users\Tech\Desktop\CODetector\sevenSegment3DigitComplex\SevenSegment3DigitComplex.c"
 266  0016  3115        	set [21].2
 267  0017              #line 267 "C:\Users\Tech\Desktop\CODetector\sevenSegment3DigitComplex\SevenSegment3DigitComplex.c"
 267  0017  3199        	set [25].3
 268  0018              #line 268 "C:\Users\Tech\Desktop\CODetector\sevenSegment3DigitComplex\SevenSegment3DigitComplex.c"
 268  0018  3615        	clr [21].4
 269  0019              #line 269 "C:\Users\Tech\Desktop\CODetector\sevenSegment3DigitComplex\SevenSegment3DigitComplex.c"
 269  0019  3415        	clr [21].0
 270  001A              #line 270 "C:\Users\Tech\Desktop\CODetector\sevenSegment3DigitComplex\SevenSegment3DigitComplex.c"
 270  001A  3515        	clr [21].2
 271  001B              #line 271 "C:\Users\Tech\Desktop\CODetector\sevenSegment3DigitComplex\SevenSegment3DigitComplex.c"
"File: SevenSegment3DigitComplex.c  Assembler  Version HGASM0202      Page 32

 271  001B  3214        	set [20].4
 272  001C              #line 272 "C:\Users\Tech\Desktop\CODetector\sevenSegment3DigitComplex\SevenSegment3DigitComplex.c"
 272  001C  3414        	clr [20].0
 273  001D              #line 273 "C:\Users\Tech\Desktop\CODetector\sevenSegment3DigitComplex\SevenSegment3DigitComplex.c"
 273  001D  3514        	clr [20].2
 274  001E              #line 274 "C:\Users\Tech\Desktop\CODetector\sevenSegment3DigitComplex\SevenSegment3DigitComplex.c"
 274  001E              ;# 274 "C:\Users\Tech\Desktop\CODetector\sevenSegment3DigitComplex\SevenSegment3DigitComplex.c" 1
 274  001E              	IF 1000>263690
 274  001E              ;# 274 "C:\Users\Tech\Desktop\CODetector\sevenSegment3DigitComplex\SevenSegment3DigitComplex.c" 1
 274  001E              	ERRMESSAGE 'the value 1000of the argument exceeds the maxinum 263690'
 274  001E              	ENDIF
 274  001E              ;# 274 "C:\Users\Tech\Desktop\CODetector\sevenSegment3DigitComplex\SevenSegment3DigitComplex.c" 1
 274  001E              	IF 1000<0
 274  001E              ;# 274 "C:\Users\Tech\Desktop\CODetector\sevenSegment3DigitComplex\SevenSegment3DigitComplex.c" 1
 274  001E              	ERRMESSAGE 'the value 1000 of the argument exceeds the mininum 0'
 274  001E              	ENDIF
 274  001E              ;# 274 "C:\Users\Tech\Desktop\CODetector\sevenSegment3DigitComplex\SevenSegment3DigitComplex.c" 1
 274  001E              	IF 1000==0
 274  001E              ;# 274 "C:\Users\Tech\Desktop\CODetector\sevenSegment3DigitComplex\SevenSegment3DigitComplex.c" 1
 274  001E              	JMP $
 274  001E              	ENDIF
 274  001E              ;# 274 "C:\Users\Tech\Desktop\CODetector\sevenSegment3DigitComplex\SevenSegment3DigitComplex.c" 1
 274  001E              	IF 1000==1
 274  001E              ;# 274 "C:\Users\Tech\Desktop\CODetector\sevenSegment3DigitComplex\SevenSegment3DigitComplex.c" 1
 274  001E              	NOP
 274  001E              	ENDIF
 274  001E              ;# 274 "C:\Users\Tech\Desktop\CODetector\sevenSegment3DigitComplex\SevenSegment3DigitComplex.c" 1
 274  001E              	IF 1000==2
 274  001E              ;# 274 "C:\Users\Tech\Desktop\CODetector\sevenSegment3DigitComplex\SevenSegment3DigitComplex.c" 1
 274  001E              	NOP
 274  001E              ;# 274 "C:\Users\Tech\Desktop\CODetector\sevenSegment3DigitComplex\SevenSegment3DigitComplex.c" 1
 274  001E              	NOP
 274  001E              	ENDIF
 274  001E              ;# 274 "C:\Users\Tech\Desktop\CODetector\sevenSegment3DigitComplex\SevenSegment3DigitComplex.c" 1
 274  001E              	IF 1000==3
 274  001E              ;# 274 "C:\Users\Tech\Desktop\CODetector\sevenSegment3DigitComplex\SevenSegment3DigitComplex.c" 1
 274  001E              	NOP
 274  001E              ;# 274 "C:\Users\Tech\Desktop\CODetector\sevenSegment3DigitComplex\SevenSegment3DigitComplex.c" 1
 274  001E              	NOP
 274  001E              ;# 274 "C:\Users\Tech\Desktop\CODetector\sevenSegment3DigitComplex\SevenSegment3DigitComplex.c" 1
 274  001E              	NOP
 274  001E              	ENDIF
 274  001E              ;# 274 "C:\Users\Tech\Desktop\CODetector\sevenSegment3DigitComplex\SevenSegment3DigitComplex.c" 1
 274  001E              	IF (1000<8) AND (1000>3)
 274  001E              ;# 274 "C:\Users\Tech\Desktop\CODetector\sevenSegment3DigitComplex\SevenSegment3DigitComplex.c" 1
 274  001E              	CALL __DELAY3 + 7 -1000
 274  001E              	ENDIF
 274  001E              ;# 274 "C:\Users\Tech\Desktop\CODetector\sevenSegment3DigitComplex\SevenSegment3DigitComplex.c" 1
 274  001E              	IF (1000< 0404h) AND (1000>7)
 274  001E              ;# 274 "C:\Users\Tech\Desktop\CODetector\sevenSegment3DigitComplex\SevenSegment3DigitComplex.c" 1
 274  001E  0FF9        	MOV A,1000/4-1
 274  001F              ;# 274 "C:\Users\Tech\Desktop\CODetector\sevenSegment3DigitComplex\SevenSegment3DigitComplex.c" 1
 274  001F  2000     E  	CALL __DELAYX3 + 3 -(1000 MOD 4)
 274  0020              	ENDIF
 274  0020              ;# 274 "C:\Users\Tech\Desktop\CODetector\sevenSegment3DigitComplex\SevenSegment3DigitComplex.c" 1
 274  0020              	IF (1000< 0x40B) AND (1000> 0403h)
 274  0020              ;# 274 "C:\Users\Tech\Desktop\CODetector\sevenSegment3DigitComplex\SevenSegment3DigitComplex.c" 1
 274  0020              	MOV A,0 
 274  0020              ;# 274 "C:\Users\Tech\Desktop\CODetector\sevenSegment3DigitComplex\SevenSegment3DigitComplex.c" 1
 274  0020              	CALL __DELAYX6 + 0x40a -1000
"File: SevenSegment3DigitComplex.c  Assembler  Version HGASM0202      Page 33

 274  0020              	ENDIF
 274  0020              ;# 274 "C:\Users\Tech\Desktop\CODetector\sevenSegment3DigitComplex\SevenSegment3DigitComplex.c" 1
 274  0020              	IF (1000 >= 0x40b) AND ((((1000-9)%0402h)/4+1)>256)
 274  0020              ;# 274 "C:\Users\Tech\Desktop\CODetector\sevenSegment3DigitComplex\SevenSegment3DigitComplex.c" 1
 274  0020              	MOV A,(1000-9)/0402h
 274  0020              ;# 274 "C:\Users\Tech\Desktop\CODetector\sevenSegment3DigitComplex\SevenSegment3DigitComplex.c" 1
 274  0020              	MOV _builtin_holtek_delay_2,A
 274  0020              ;# 274 "C:\Users\Tech\Desktop\CODetector\sevenSegment3DigitComplex\SevenSegment3DigitComplex.c" 1
 274  0020              	MOV A,0
 274  0020              ;# 274 "C:\Users\Tech\Desktop\CODetector\sevenSegment3DigitComplex\SevenSegment3DigitComplex.c" 1
 274  0020              	CALL __DELAYY5 +5- (((1000-9)%0402h)%6)
 274  0020              	ENDIF
 274  0020              ;# 274 "C:\Users\Tech\Desktop\CODetector\sevenSegment3DigitComplex\SevenSegment3DigitComplex.c" 1
 274  0020              	IF (1000 >= 0x40b) AND ((((1000-9)%0402h)/4+1)<=256)
 274  0020              ;# 274 "C:\Users\Tech\Desktop\CODetector\sevenSegment3DigitComplex\SevenSegment3DigitComplex.c" 1
 274  0020              	MOV A,(1000-9)/0402h
 274  0020              ;# 274 "C:\Users\Tech\Desktop\CODetector\sevenSegment3DigitComplex\SevenSegment3DigitComplex.c" 1
 274  0020              	MOV _builtin_holtek_delay_2,A
 274  0020              ;# 274 "C:\Users\Tech\Desktop\CODetector\sevenSegment3DigitComplex\SevenSegment3DigitComplex.c" 1
 274  0020              	MOV A,((1000-9)%0402h)/4+1
 274  0020              ;# 274 "C:\Users\Tech\Desktop\CODetector\sevenSegment3DigitComplex\SevenSegment3DigitComplex.c" 1
 274  0020              	CALL __DELAYY3 +3-(((1000-9)%0402h)%4)
 274  0020              	ENDIF
 275  0020              #line 275 "C:\Users\Tech\Desktop\CODetector\sevenSegment3DigitComplex\SevenSegment3DigitComplex.c"
 275  0020  3119        	set [25].2
 276  0021              #line 276 "C:\Users\Tech\Desktop\CODetector\sevenSegment3DigitComplex\SevenSegment3DigitComplex.c"
 276  0021  3099        	set [25].1
 277  0022              #line 277 "C:\Users\Tech\Desktop\CODetector\sevenSegment3DigitComplex\SevenSegment3DigitComplex.c"
 277  0022  3215        	set [21].4
 278  0023              #line 278 "C:\Users\Tech\Desktop\CODetector\sevenSegment3DigitComplex\SevenSegment3DigitComplex.c"
 278  0023  3015        	set [21].0
 279  0024              #line 279 "C:\Users\Tech\Desktop\CODetector\sevenSegment3DigitComplex\SevenSegment3DigitComplex.c"
 279  0024  3115        	set [21].2
 280  0025              #line 280 "C:\Users\Tech\Desktop\CODetector\sevenSegment3DigitComplex\SevenSegment3DigitComplex.c"
 280  0025  3199        	set [25].3
 281  0026              #line 281 "C:\Users\Tech\Desktop\CODetector\sevenSegment3DigitComplex\SevenSegment3DigitComplex.c"
 281  0026  3615        	clr [21].4
 282  0027              #line 282 "C:\Users\Tech\Desktop\CODetector\sevenSegment3DigitComplex\SevenSegment3DigitComplex.c"
 282  0027  3599        	clr [25].3
 283  0028              #line 283 "C:\Users\Tech\Desktop\CODetector\sevenSegment3DigitComplex\SevenSegment3DigitComplex.c"
 283  0028  3614        	clr [20].4
 284  0029              #line 284 "C:\Users\Tech\Desktop\CODetector\sevenSegment3DigitComplex\SevenSegment3DigitComplex.c"
 284  0029  3598        	clr [24].3
 285  002A              #line 285 "C:\Users\Tech\Desktop\CODetector\sevenSegment3DigitComplex\SevenSegment3DigitComplex.c"
 285  002A              ;# 285 "C:\Users\Tech\Desktop\CODetector\sevenSegment3DigitComplex\SevenSegment3DigitComplex.c" 1
 285  002A              	IF 1000>263690
 285  002A              ;# 285 "C:\Users\Tech\Desktop\CODetector\sevenSegment3DigitComplex\SevenSegment3DigitComplex.c" 1
 285  002A              	ERRMESSAGE 'the value 1000of the argument exceeds the maxinum 263690'
 285  002A              	ENDIF
 285  002A              ;# 285 "C:\Users\Tech\Desktop\CODetector\sevenSegment3DigitComplex\SevenSegment3DigitComplex.c" 1
 285  002A              	IF 1000<0
 285  002A              ;# 285 "C:\Users\Tech\Desktop\CODetector\sevenSegment3DigitComplex\SevenSegment3DigitComplex.c" 1
 285  002A              	ERRMESSAGE 'the value 1000 of the argument exceeds the mininum 0'
 285  002A              	ENDIF
 285  002A              ;# 285 "C:\Users\Tech\Desktop\CODetector\sevenSegment3DigitComplex\SevenSegment3DigitComplex.c" 1
 285  002A              	IF 1000==0
 285  002A              ;# 285 "C:\Users\Tech\Desktop\CODetector\sevenSegment3DigitComplex\SevenSegment3DigitComplex.c" 1
 285  002A              	JMP $
 285  002A              	ENDIF
 285  002A              ;# 285 "C:\Users\Tech\Desktop\CODetector\sevenSegment3DigitComplex\SevenSegment3DigitComplex.c" 1
"File: SevenSegment3DigitComplex.c  Assembler  Version HGASM0202      Page 34

 285  002A              	IF 1000==1
 285  002A              ;# 285 "C:\Users\Tech\Desktop\CODetector\sevenSegment3DigitComplex\SevenSegment3DigitComplex.c" 1
 285  002A              	NOP
 285  002A              	ENDIF
 285  002A              ;# 285 "C:\Users\Tech\Desktop\CODetector\sevenSegment3DigitComplex\SevenSegment3DigitComplex.c" 1
 285  002A              	IF 1000==2
 285  002A              ;# 285 "C:\Users\Tech\Desktop\CODetector\sevenSegment3DigitComplex\SevenSegment3DigitComplex.c" 1
 285  002A              	NOP
 285  002A              ;# 285 "C:\Users\Tech\Desktop\CODetector\sevenSegment3DigitComplex\SevenSegment3DigitComplex.c" 1
 285  002A              	NOP
 285  002A              	ENDIF
 285  002A              ;# 285 "C:\Users\Tech\Desktop\CODetector\sevenSegment3DigitComplex\SevenSegment3DigitComplex.c" 1
 285  002A              	IF 1000==3
 285  002A              ;# 285 "C:\Users\Tech\Desktop\CODetector\sevenSegment3DigitComplex\SevenSegment3DigitComplex.c" 1
 285  002A              	NOP
 285  002A              ;# 285 "C:\Users\Tech\Desktop\CODetector\sevenSegment3DigitComplex\SevenSegment3DigitComplex.c" 1
 285  002A              	NOP
 285  002A              ;# 285 "C:\Users\Tech\Desktop\CODetector\sevenSegment3DigitComplex\SevenSegment3DigitComplex.c" 1
 285  002A              	NOP
 285  002A              	ENDIF
 285  002A              ;# 285 "C:\Users\Tech\Desktop\CODetector\sevenSegment3DigitComplex\SevenSegment3DigitComplex.c" 1
 285  002A              	IF (1000<8) AND (1000>3)
 285  002A              ;# 285 "C:\Users\Tech\Desktop\CODetector\sevenSegment3DigitComplex\SevenSegment3DigitComplex.c" 1
 285  002A              	CALL __DELAY3 + 7 -1000
 285  002A              	ENDIF
 285  002A              ;# 285 "C:\Users\Tech\Desktop\CODetector\sevenSegment3DigitComplex\SevenSegment3DigitComplex.c" 1
 285  002A              	IF (1000< 0404h) AND (1000>7)
 285  002A              ;# 285 "C:\Users\Tech\Desktop\CODetector\sevenSegment3DigitComplex\SevenSegment3DigitComplex.c" 1
 285  002A  0FF9        	MOV A,1000/4-1
 285  002B              ;# 285 "C:\Users\Tech\Desktop\CODetector\sevenSegment3DigitComplex\SevenSegment3DigitComplex.c" 1
 285  002B  2000     E  	CALL __DELAYX3 + 3 -(1000 MOD 4)
 285  002C              	ENDIF
 285  002C              ;# 285 "C:\Users\Tech\Desktop\CODetector\sevenSegment3DigitComplex\SevenSegment3DigitComplex.c" 1
 285  002C              	IF (1000< 0x40B) AND (1000> 0403h)
 285  002C              ;# 285 "C:\Users\Tech\Desktop\CODetector\sevenSegment3DigitComplex\SevenSegment3DigitComplex.c" 1
 285  002C              	MOV A,0 
 285  002C              ;# 285 "C:\Users\Tech\Desktop\CODetector\sevenSegment3DigitComplex\SevenSegment3DigitComplex.c" 1
 285  002C              	CALL __DELAYX6 + 0x40a -1000
 285  002C              	ENDIF
 285  002C              ;# 285 "C:\Users\Tech\Desktop\CODetector\sevenSegment3DigitComplex\SevenSegment3DigitComplex.c" 1
 285  002C              	IF (1000 >= 0x40b) AND ((((1000-9)%0402h)/4+1)>256)
 285  002C              ;# 285 "C:\Users\Tech\Desktop\CODetector\sevenSegment3DigitComplex\SevenSegment3DigitComplex.c" 1
 285  002C              	MOV A,(1000-9)/0402h
 285  002C              ;# 285 "C:\Users\Tech\Desktop\CODetector\sevenSegment3DigitComplex\SevenSegment3DigitComplex.c" 1
 285  002C              	MOV _builtin_holtek_delay_2,A
 285  002C              ;# 285 "C:\Users\Tech\Desktop\CODetector\sevenSegment3DigitComplex\SevenSegment3DigitComplex.c" 1
 285  002C              	MOV A,0
 285  002C              ;# 285 "C:\Users\Tech\Desktop\CODetector\sevenSegment3DigitComplex\SevenSegment3DigitComplex.c" 1
 285  002C              	CALL __DELAYY5 +5- (((1000-9)%0402h)%6)
 285  002C              	ENDIF
 285  002C              ;# 285 "C:\Users\Tech\Desktop\CODetector\sevenSegment3DigitComplex\SevenSegment3DigitComplex.c" 1
 285  002C              	IF (1000 >= 0x40b) AND ((((1000-9)%0402h)/4+1)<=256)
 285  002C              ;# 285 "C:\Users\Tech\Desktop\CODetector\sevenSegment3DigitComplex\SevenSegment3DigitComplex.c" 1
 285  002C              	MOV A,(1000-9)/0402h
 285  002C              ;# 285 "C:\Users\Tech\Desktop\CODetector\sevenSegment3DigitComplex\SevenSegment3DigitComplex.c" 1
 285  002C              	MOV _builtin_holtek_delay_2,A
 285  002C              ;# 285 "C:\Users\Tech\Desktop\CODetector\sevenSegment3DigitComplex\SevenSegment3DigitComplex.c" 1
 285  002C              	MOV A,((1000-9)%0402h)/4+1
 285  002C              ;# 285 "C:\Users\Tech\Desktop\CODetector\sevenSegment3DigitComplex\SevenSegment3DigitComplex.c" 1
 285  002C              	CALL __DELAYY3 +3-(((1000-9)%0402h)%4)
"File: SevenSegment3DigitComplex.c  Assembler  Version HGASM0202      Page 35

 285  002C              	ENDIF
 285  002C  0003        	ret
 285  002D              _ziroDigit3 endp
 285  002D              #line 285 "C:\Users\Tech\Desktop\CODetector\sevenSegment3DigitComplex\SevenSegment3DigitComplex.c"
 285  002D              #pragma debug scope 1 1
 285  002D              public _oneDigit1
 285  002D              #pragma debug scope 7 1
 290  002D              #line 290 "C:\Users\Tech\Desktop\CODetector\sevenSegment3DigitComplex\SevenSegment3DigitComplex.c"
 290  0000              _oneDigit1 .section 'code'
 290  0000              _oneDigit1 proc
 291  0000              #line 291 "C:\Users\Tech\Desktop\CODetector\sevenSegment3DigitComplex\SevenSegment3DigitComplex.c"
 291  0000  3119        	set [25].2
 292  0001              #line 292 "C:\Users\Tech\Desktop\CODetector\sevenSegment3DigitComplex\SevenSegment3DigitComplex.c"
 292  0001  3099        	set [25].1
 293  0002              #line 293 "C:\Users\Tech\Desktop\CODetector\sevenSegment3DigitComplex\SevenSegment3DigitComplex.c"
 293  0002  3215        	set [21].4
 294  0003              #line 294 "C:\Users\Tech\Desktop\CODetector\sevenSegment3DigitComplex\SevenSegment3DigitComplex.c"
 294  0003  3015        	set [21].0
 295  0004              #line 295 "C:\Users\Tech\Desktop\CODetector\sevenSegment3DigitComplex\SevenSegment3DigitComplex.c"
 295  0004  3115        	set [21].2
 296  0005              #line 296 "C:\Users\Tech\Desktop\CODetector\sevenSegment3DigitComplex\SevenSegment3DigitComplex.c"
 296  0005  3199        	set [25].3
 300  0006              #line 300 "C:\Users\Tech\Desktop\CODetector\sevenSegment3DigitComplex\SevenSegment3DigitComplex.c"
 300  0006  3519        	clr [25].2
 301  0007              #line 301 "C:\Users\Tech\Desktop\CODetector\sevenSegment3DigitComplex\SevenSegment3DigitComplex.c"
 301  0007  3615        	clr [21].4
 302  0008              #line 302 "C:\Users\Tech\Desktop\CODetector\sevenSegment3DigitComplex\SevenSegment3DigitComplex.c"
 302  0008  3415        	clr [21].0
 303  0009              #line 303 "C:\Users\Tech\Desktop\CODetector\sevenSegment3DigitComplex\SevenSegment3DigitComplex.c"
 303  0009  3518        	clr [24].2
 304  000A              #line 304 "C:\Users\Tech\Desktop\CODetector\sevenSegment3DigitComplex\SevenSegment3DigitComplex.c"
 304  000A  3214        	set [20].4
 305  000B              #line 305 "C:\Users\Tech\Desktop\CODetector\sevenSegment3DigitComplex\SevenSegment3DigitComplex.c"
 305  000B  3014        	set [20].0
 306  000C              #line 306 "C:\Users\Tech\Desktop\CODetector\sevenSegment3DigitComplex\SevenSegment3DigitComplex.c"
 306  000C              ;# 306 "C:\Users\Tech\Desktop\CODetector\sevenSegment3DigitComplex\SevenSegment3DigitComplex.c" 1
 306  000C              	IF 1000>263690
 306  000C              ;# 306 "C:\Users\Tech\Desktop\CODetector\sevenSegment3DigitComplex\SevenSegment3DigitComplex.c" 1
 306  000C              	ERRMESSAGE 'the value 1000of the argument exceeds the maxinum 263690'
 306  000C              	ENDIF
 306  000C              ;# 306 "C:\Users\Tech\Desktop\CODetector\sevenSegment3DigitComplex\SevenSegment3DigitComplex.c" 1
 306  000C              	IF 1000<0
 306  000C              ;# 306 "C:\Users\Tech\Desktop\CODetector\sevenSegment3DigitComplex\SevenSegment3DigitComplex.c" 1
 306  000C              	ERRMESSAGE 'the value 1000 of the argument exceeds the mininum 0'
 306  000C              	ENDIF
 306  000C              ;# 306 "C:\Users\Tech\Desktop\CODetector\sevenSegment3DigitComplex\SevenSegment3DigitComplex.c" 1
 306  000C              	IF 1000==0
 306  000C              ;# 306 "C:\Users\Tech\Desktop\CODetector\sevenSegment3DigitComplex\SevenSegment3DigitComplex.c" 1
 306  000C              	JMP $
 306  000C              	ENDIF
 306  000C              ;# 306 "C:\Users\Tech\Desktop\CODetector\sevenSegment3DigitComplex\SevenSegment3DigitComplex.c" 1
 306  000C              	IF 1000==1
 306  000C              ;# 306 "C:\Users\Tech\Desktop\CODetector\sevenSegment3DigitComplex\SevenSegment3DigitComplex.c" 1
 306  000C              	NOP
 306  000C              	ENDIF
 306  000C              ;# 306 "C:\Users\Tech\Desktop\CODetector\sevenSegment3DigitComplex\SevenSegment3DigitComplex.c" 1
 306  000C              	IF 1000==2
 306  000C              ;# 306 "C:\Users\Tech\Desktop\CODetector\sevenSegment3DigitComplex\SevenSegment3DigitComplex.c" 1
 306  000C              	NOP
 306  000C              ;# 306 "C:\Users\Tech\Desktop\CODetector\sevenSegment3DigitComplex\SevenSegment3DigitComplex.c" 1
"File: SevenSegment3DigitComplex.c  Assembler  Version HGASM0202      Page 36

 306  000C              	NOP
 306  000C              	ENDIF
 306  000C              ;# 306 "C:\Users\Tech\Desktop\CODetector\sevenSegment3DigitComplex\SevenSegment3DigitComplex.c" 1
 306  000C              	IF 1000==3
 306  000C              ;# 306 "C:\Users\Tech\Desktop\CODetector\sevenSegment3DigitComplex\SevenSegment3DigitComplex.c" 1
 306  000C              	NOP
 306  000C              ;# 306 "C:\Users\Tech\Desktop\CODetector\sevenSegment3DigitComplex\SevenSegment3DigitComplex.c" 1
 306  000C              	NOP
 306  000C              ;# 306 "C:\Users\Tech\Desktop\CODetector\sevenSegment3DigitComplex\SevenSegment3DigitComplex.c" 1
 306  000C              	NOP
 306  000C              	ENDIF
 306  000C              ;# 306 "C:\Users\Tech\Desktop\CODetector\sevenSegment3DigitComplex\SevenSegment3DigitComplex.c" 1
 306  000C              	IF (1000<8) AND (1000>3)
 306  000C              ;# 306 "C:\Users\Tech\Desktop\CODetector\sevenSegment3DigitComplex\SevenSegment3DigitComplex.c" 1
 306  000C              	CALL __DELAY3 + 7 -1000
 306  000C              	ENDIF
 306  000C              ;# 306 "C:\Users\Tech\Desktop\CODetector\sevenSegment3DigitComplex\SevenSegment3DigitComplex.c" 1
 306  000C              	IF (1000< 0404h) AND (1000>7)
 306  000C              ;# 306 "C:\Users\Tech\Desktop\CODetector\sevenSegment3DigitComplex\SevenSegment3DigitComplex.c" 1
 306  000C  0FF9        	MOV A,1000/4-1
 306  000D              ;# 306 "C:\Users\Tech\Desktop\CODetector\sevenSegment3DigitComplex\SevenSegment3DigitComplex.c" 1
 306  000D  2000     E  	CALL __DELAYX3 + 3 -(1000 MOD 4)
 306  000E              	ENDIF
 306  000E              ;# 306 "C:\Users\Tech\Desktop\CODetector\sevenSegment3DigitComplex\SevenSegment3DigitComplex.c" 1
 306  000E              	IF (1000< 0x40B) AND (1000> 0403h)
 306  000E              ;# 306 "C:\Users\Tech\Desktop\CODetector\sevenSegment3DigitComplex\SevenSegment3DigitComplex.c" 1
 306  000E              	MOV A,0 
 306  000E              ;# 306 "C:\Users\Tech\Desktop\CODetector\sevenSegment3DigitComplex\SevenSegment3DigitComplex.c" 1
 306  000E              	CALL __DELAYX6 + 0x40a -1000
 306  000E              	ENDIF
 306  000E              ;# 306 "C:\Users\Tech\Desktop\CODetector\sevenSegment3DigitComplex\SevenSegment3DigitComplex.c" 1
 306  000E              	IF (1000 >= 0x40b) AND ((((1000-9)%0402h)/4+1)>256)
 306  000E              ;# 306 "C:\Users\Tech\Desktop\CODetector\sevenSegment3DigitComplex\SevenSegment3DigitComplex.c" 1
 306  000E              	MOV A,(1000-9)/0402h
 306  000E              ;# 306 "C:\Users\Tech\Desktop\CODetector\sevenSegment3DigitComplex\SevenSegment3DigitComplex.c" 1
 306  000E              	MOV _builtin_holtek_delay_2,A
 306  000E              ;# 306 "C:\Users\Tech\Desktop\CODetector\sevenSegment3DigitComplex\SevenSegment3DigitComplex.c" 1
 306  000E              	MOV A,0
 306  000E              ;# 306 "C:\Users\Tech\Desktop\CODetector\sevenSegment3DigitComplex\SevenSegment3DigitComplex.c" 1
 306  000E              	CALL __DELAYY5 +5- (((1000-9)%0402h)%6)
 306  000E              	ENDIF
 306  000E              ;# 306 "C:\Users\Tech\Desktop\CODetector\sevenSegment3DigitComplex\SevenSegment3DigitComplex.c" 1
 306  000E              	IF (1000 >= 0x40b) AND ((((1000-9)%0402h)/4+1)<=256)
 306  000E              ;# 306 "C:\Users\Tech\Desktop\CODetector\sevenSegment3DigitComplex\SevenSegment3DigitComplex.c" 1
 306  000E              	MOV A,(1000-9)/0402h
 306  000E              ;# 306 "C:\Users\Tech\Desktop\CODetector\sevenSegment3DigitComplex\SevenSegment3DigitComplex.c" 1
 306  000E              	MOV _builtin_holtek_delay_2,A
 306  000E              ;# 306 "C:\Users\Tech\Desktop\CODetector\sevenSegment3DigitComplex\SevenSegment3DigitComplex.c" 1
 306  000E              	MOV A,((1000-9)%0402h)/4+1
 306  000E              ;# 306 "C:\Users\Tech\Desktop\CODetector\sevenSegment3DigitComplex\SevenSegment3DigitComplex.c" 1
 306  000E              	CALL __DELAYY3 +3-(((1000-9)%0402h)%4)
 306  000E              	ENDIF
 306  000E  0003        	ret
 306  000F              _oneDigit1 endp
 306  000F              #line 306 "C:\Users\Tech\Desktop\CODetector\sevenSegment3DigitComplex\SevenSegment3DigitComplex.c"
 306  000F              #pragma debug scope 1 1
 306  000F              public _oneDigit2
 306  000F              #pragma debug scope 8 1
 308  000F              #line 308 "C:\Users\Tech\Desktop\CODetector\sevenSegment3DigitComplex\SevenSegment3DigitComplex.c"
 308  0000              _oneDigit2 .section 'code'
"File: SevenSegment3DigitComplex.c  Assembler  Version HGASM0202      Page 37

 308  0000              _oneDigit2 proc
 309  0000              #line 309 "C:\Users\Tech\Desktop\CODetector\sevenSegment3DigitComplex\SevenSegment3DigitComplex.c"
 309  0000  3119        	set [25].2
 310  0001              #line 310 "C:\Users\Tech\Desktop\CODetector\sevenSegment3DigitComplex\SevenSegment3DigitComplex.c"
 310  0001  3099        	set [25].1
 311  0002              #line 311 "C:\Users\Tech\Desktop\CODetector\sevenSegment3DigitComplex\SevenSegment3DigitComplex.c"
 311  0002  3215        	set [21].4
 312  0003              #line 312 "C:\Users\Tech\Desktop\CODetector\sevenSegment3DigitComplex\SevenSegment3DigitComplex.c"
 312  0003  3015        	set [21].0
 313  0004              #line 313 "C:\Users\Tech\Desktop\CODetector\sevenSegment3DigitComplex\SevenSegment3DigitComplex.c"
 313  0004  3115        	set [21].2
 314  0005              #line 314 "C:\Users\Tech\Desktop\CODetector\sevenSegment3DigitComplex\SevenSegment3DigitComplex.c"
 314  0005  3199        	set [25].3
 316  0006              #line 316 "C:\Users\Tech\Desktop\CODetector\sevenSegment3DigitComplex\SevenSegment3DigitComplex.c"
 316  0006  3519        	clr [25].2
 317  0007              #line 317 "C:\Users\Tech\Desktop\CODetector\sevenSegment3DigitComplex\SevenSegment3DigitComplex.c"
 317  0007  3615        	clr [21].4
 318  0008              #line 318 "C:\Users\Tech\Desktop\CODetector\sevenSegment3DigitComplex\SevenSegment3DigitComplex.c"
 318  0008  3415        	clr [21].0
 319  0009              #line 319 "C:\Users\Tech\Desktop\CODetector\sevenSegment3DigitComplex\SevenSegment3DigitComplex.c"
 319  0009  3118        	set [24].2
 320  000A              #line 320 "C:\Users\Tech\Desktop\CODetector\sevenSegment3DigitComplex\SevenSegment3DigitComplex.c"
 320  000A  3614        	clr [20].4
 321  000B              #line 321 "C:\Users\Tech\Desktop\CODetector\sevenSegment3DigitComplex\SevenSegment3DigitComplex.c"
 321  000B  3414        	clr [20].0
 322  000C              #line 322 "C:\Users\Tech\Desktop\CODetector\sevenSegment3DigitComplex\SevenSegment3DigitComplex.c"
 322  000C              ;# 322 "C:\Users\Tech\Desktop\CODetector\sevenSegment3DigitComplex\SevenSegment3DigitComplex.c" 1
 322  000C              	IF 1000>263690
 322  000C              ;# 322 "C:\Users\Tech\Desktop\CODetector\sevenSegment3DigitComplex\SevenSegment3DigitComplex.c" 1
 322  000C              	ERRMESSAGE 'the value 1000of the argument exceeds the maxinum 263690'
 322  000C              	ENDIF
 322  000C              ;# 322 "C:\Users\Tech\Desktop\CODetector\sevenSegment3DigitComplex\SevenSegment3DigitComplex.c" 1
 322  000C              	IF 1000<0
 322  000C              ;# 322 "C:\Users\Tech\Desktop\CODetector\sevenSegment3DigitComplex\SevenSegment3DigitComplex.c" 1
 322  000C              	ERRMESSAGE 'the value 1000 of the argument exceeds the mininum 0'
 322  000C              	ENDIF
 322  000C              ;# 322 "C:\Users\Tech\Desktop\CODetector\sevenSegment3DigitComplex\SevenSegment3DigitComplex.c" 1
 322  000C              	IF 1000==0
 322  000C              ;# 322 "C:\Users\Tech\Desktop\CODetector\sevenSegment3DigitComplex\SevenSegment3DigitComplex.c" 1
 322  000C              	JMP $
 322  000C              	ENDIF
 322  000C              ;# 322 "C:\Users\Tech\Desktop\CODetector\sevenSegment3DigitComplex\SevenSegment3DigitComplex.c" 1
 322  000C              	IF 1000==1
 322  000C              ;# 322 "C:\Users\Tech\Desktop\CODetector\sevenSegment3DigitComplex\SevenSegment3DigitComplex.c" 1
 322  000C              	NOP
 322  000C              	ENDIF
 322  000C              ;# 322 "C:\Users\Tech\Desktop\CODetector\sevenSegment3DigitComplex\SevenSegment3DigitComplex.c" 1
 322  000C              	IF 1000==2
 322  000C              ;# 322 "C:\Users\Tech\Desktop\CODetector\sevenSegment3DigitComplex\SevenSegment3DigitComplex.c" 1
 322  000C              	NOP
 322  000C              ;# 322 "C:\Users\Tech\Desktop\CODetector\sevenSegment3DigitComplex\SevenSegment3DigitComplex.c" 1
 322  000C              	NOP
 322  000C              	ENDIF
 322  000C              ;# 322 "C:\Users\Tech\Desktop\CODetector\sevenSegment3DigitComplex\SevenSegment3DigitComplex.c" 1
 322  000C              	IF 1000==3
 322  000C              ;# 322 "C:\Users\Tech\Desktop\CODetector\sevenSegment3DigitComplex\SevenSegment3DigitComplex.c" 1
 322  000C              	NOP
 322  000C              ;# 322 "C:\Users\Tech\Desktop\CODetector\sevenSegment3DigitComplex\SevenSegment3DigitComplex.c" 1
 322  000C              	NOP
 322  000C              ;# 322 "C:\Users\Tech\Desktop\CODetector\sevenSegment3DigitComplex\SevenSegment3DigitComplex.c" 1
"File: SevenSegment3DigitComplex.c  Assembler  Version HGASM0202      Page 38

 322  000C              	NOP
 322  000C              	ENDIF
 322  000C              ;# 322 "C:\Users\Tech\Desktop\CODetector\sevenSegment3DigitComplex\SevenSegment3DigitComplex.c" 1
 322  000C              	IF (1000<8) AND (1000>3)
 322  000C              ;# 322 "C:\Users\Tech\Desktop\CODetector\sevenSegment3DigitComplex\SevenSegment3DigitComplex.c" 1
 322  000C              	CALL __DELAY3 + 7 -1000
 322  000C              	ENDIF
 322  000C              ;# 322 "C:\Users\Tech\Desktop\CODetector\sevenSegment3DigitComplex\SevenSegment3DigitComplex.c" 1
 322  000C              	IF (1000< 0404h) AND (1000>7)
 322  000C              ;# 322 "C:\Users\Tech\Desktop\CODetector\sevenSegment3DigitComplex\SevenSegment3DigitComplex.c" 1
 322  000C  0FF9        	MOV A,1000/4-1
 322  000D              ;# 322 "C:\Users\Tech\Desktop\CODetector\sevenSegment3DigitComplex\SevenSegment3DigitComplex.c" 1
 322  000D  2000     E  	CALL __DELAYX3 + 3 -(1000 MOD 4)
 322  000E              	ENDIF
 322  000E              ;# 322 "C:\Users\Tech\Desktop\CODetector\sevenSegment3DigitComplex\SevenSegment3DigitComplex.c" 1
 322  000E              	IF (1000< 0x40B) AND (1000> 0403h)
 322  000E              ;# 322 "C:\Users\Tech\Desktop\CODetector\sevenSegment3DigitComplex\SevenSegment3DigitComplex.c" 1
 322  000E              	MOV A,0 
 322  000E              ;# 322 "C:\Users\Tech\Desktop\CODetector\sevenSegment3DigitComplex\SevenSegment3DigitComplex.c" 1
 322  000E              	CALL __DELAYX6 + 0x40a -1000
 322  000E              	ENDIF
 322  000E              ;# 322 "C:\Users\Tech\Desktop\CODetector\sevenSegment3DigitComplex\SevenSegment3DigitComplex.c" 1
 322  000E              	IF (1000 >= 0x40b) AND ((((1000-9)%0402h)/4+1)>256)
 322  000E              ;# 322 "C:\Users\Tech\Desktop\CODetector\sevenSegment3DigitComplex\SevenSegment3DigitComplex.c" 1
 322  000E              	MOV A,(1000-9)/0402h
 322  000E              ;# 322 "C:\Users\Tech\Desktop\CODetector\sevenSegment3DigitComplex\SevenSegment3DigitComplex.c" 1
 322  000E              	MOV _builtin_holtek_delay_2,A
 322  000E              ;# 322 "C:\Users\Tech\Desktop\CODetector\sevenSegment3DigitComplex\SevenSegment3DigitComplex.c" 1
 322  000E              	MOV A,0
 322  000E              ;# 322 "C:\Users\Tech\Desktop\CODetector\sevenSegment3DigitComplex\SevenSegment3DigitComplex.c" 1
 322  000E              	CALL __DELAYY5 +5- (((1000-9)%0402h)%6)
 322  000E              	ENDIF
 322  000E              ;# 322 "C:\Users\Tech\Desktop\CODetector\sevenSegment3DigitComplex\SevenSegment3DigitComplex.c" 1
 322  000E              	IF (1000 >= 0x40b) AND ((((1000-9)%0402h)/4+1)<=256)
 322  000E              ;# 322 "C:\Users\Tech\Desktop\CODetector\sevenSegment3DigitComplex\SevenSegment3DigitComplex.c" 1
 322  000E              	MOV A,(1000-9)/0402h
 322  000E              ;# 322 "C:\Users\Tech\Desktop\CODetector\sevenSegment3DigitComplex\SevenSegment3DigitComplex.c" 1
 322  000E              	MOV _builtin_holtek_delay_2,A
 322  000E              ;# 322 "C:\Users\Tech\Desktop\CODetector\sevenSegment3DigitComplex\SevenSegment3DigitComplex.c" 1
 322  000E              	MOV A,((1000-9)%0402h)/4+1
 322  000E              ;# 322 "C:\Users\Tech\Desktop\CODetector\sevenSegment3DigitComplex\SevenSegment3DigitComplex.c" 1
 322  000E              	CALL __DELAYY3 +3-(((1000-9)%0402h)%4)
 322  000E              	ENDIF
 322  000E  0003        	ret
 322  000F              _oneDigit2 endp
 322  000F              #line 322 "C:\Users\Tech\Desktop\CODetector\sevenSegment3DigitComplex\SevenSegment3DigitComplex.c"
 322  000F              #pragma debug scope 1 1
 322  000F              public _oneDigit3
 322  000F              #pragma debug scope 9 1
 325  000F              #line 325 "C:\Users\Tech\Desktop\CODetector\sevenSegment3DigitComplex\SevenSegment3DigitComplex.c"
 325  0000              _oneDigit3 .section 'code'
 325  0000              _oneDigit3 proc
 326  0000              #line 326 "C:\Users\Tech\Desktop\CODetector\sevenSegment3DigitComplex\SevenSegment3DigitComplex.c"
 326  0000  3119        	set [25].2
 327  0001              #line 327 "C:\Users\Tech\Desktop\CODetector\sevenSegment3DigitComplex\SevenSegment3DigitComplex.c"
 327  0001  3099        	set [25].1
 328  0002              #line 328 "C:\Users\Tech\Desktop\CODetector\sevenSegment3DigitComplex\SevenSegment3DigitComplex.c"
 328  0002  3215        	set [21].4
 329  0003              #line 329 "C:\Users\Tech\Desktop\CODetector\sevenSegment3DigitComplex\SevenSegment3DigitComplex.c"
 329  0003  3015        	set [21].0
"File: SevenSegment3DigitComplex.c  Assembler  Version HGASM0202      Page 39

 330  0004              #line 330 "C:\Users\Tech\Desktop\CODetector\sevenSegment3DigitComplex\SevenSegment3DigitComplex.c"
 330  0004  3115        	set [21].2
 331  0005              #line 331 "C:\Users\Tech\Desktop\CODetector\sevenSegment3DigitComplex\SevenSegment3DigitComplex.c"
 331  0005  3199        	set [25].3
 334  0006              #line 334 "C:\Users\Tech\Desktop\CODetector\sevenSegment3DigitComplex\SevenSegment3DigitComplex.c"
 334  0006  3499        	clr [25].1
 335  0007              #line 335 "C:\Users\Tech\Desktop\CODetector\sevenSegment3DigitComplex\SevenSegment3DigitComplex.c"
 335  0007  3415        	clr [21].0
 336  0008              #line 336 "C:\Users\Tech\Desktop\CODetector\sevenSegment3DigitComplex\SevenSegment3DigitComplex.c"
 336  0008  3515        	clr [21].2
 337  0009              #line 337 "C:\Users\Tech\Desktop\CODetector\sevenSegment3DigitComplex\SevenSegment3DigitComplex.c"
 337  0009  3098        	set [24].1
 338  000A              #line 338 "C:\Users\Tech\Desktop\CODetector\sevenSegment3DigitComplex\SevenSegment3DigitComplex.c"
 338  000A  3414        	clr [20].0
 339  000B              #line 339 "C:\Users\Tech\Desktop\CODetector\sevenSegment3DigitComplex\SevenSegment3DigitComplex.c"
 339  000B  3514        	clr [20].2
 340  000C              #line 340 "C:\Users\Tech\Desktop\CODetector\sevenSegment3DigitComplex\SevenSegment3DigitComplex.c"
 340  000C              ;# 340 "C:\Users\Tech\Desktop\CODetector\sevenSegment3DigitComplex\SevenSegment3DigitComplex.c" 1
 340  000C              	IF 1000>263690
 340  000C              ;# 340 "C:\Users\Tech\Desktop\CODetector\sevenSegment3DigitComplex\SevenSegment3DigitComplex.c" 1
 340  000C              	ERRMESSAGE 'the value 1000of the argument exceeds the maxinum 263690'
 340  000C              	ENDIF
 340  000C              ;# 340 "C:\Users\Tech\Desktop\CODetector\sevenSegment3DigitComplex\SevenSegment3DigitComplex.c" 1
 340  000C              	IF 1000<0
 340  000C              ;# 340 "C:\Users\Tech\Desktop\CODetector\sevenSegment3DigitComplex\SevenSegment3DigitComplex.c" 1
 340  000C              	ERRMESSAGE 'the value 1000 of the argument exceeds the mininum 0'
 340  000C              	ENDIF
 340  000C              ;# 340 "C:\Users\Tech\Desktop\CODetector\sevenSegment3DigitComplex\SevenSegment3DigitComplex.c" 1
 340  000C              	IF 1000==0
 340  000C              ;# 340 "C:\Users\Tech\Desktop\CODetector\sevenSegment3DigitComplex\SevenSegment3DigitComplex.c" 1
 340  000C              	JMP $
 340  000C              	ENDIF
 340  000C              ;# 340 "C:\Users\Tech\Desktop\CODetector\sevenSegment3DigitComplex\SevenSegment3DigitComplex.c" 1
 340  000C              	IF 1000==1
 340  000C              ;# 340 "C:\Users\Tech\Desktop\CODetector\sevenSegment3DigitComplex\SevenSegment3DigitComplex.c" 1
 340  000C              	NOP
 340  000C              	ENDIF
 340  000C              ;# 340 "C:\Users\Tech\Desktop\CODetector\sevenSegment3DigitComplex\SevenSegment3DigitComplex.c" 1
 340  000C              	IF 1000==2
 340  000C              ;# 340 "C:\Users\Tech\Desktop\CODetector\sevenSegment3DigitComplex\SevenSegment3DigitComplex.c" 1
 340  000C              	NOP
 340  000C              ;# 340 "C:\Users\Tech\Desktop\CODetector\sevenSegment3DigitComplex\SevenSegment3DigitComplex.c" 1
 340  000C              	NOP
 340  000C              	ENDIF
 340  000C              ;# 340 "C:\Users\Tech\Desktop\CODetector\sevenSegment3DigitComplex\SevenSegment3DigitComplex.c" 1
 340  000C              	IF 1000==3
 340  000C              ;# 340 "C:\Users\Tech\Desktop\CODetector\sevenSegment3DigitComplex\SevenSegment3DigitComplex.c" 1
 340  000C              	NOP
 340  000C              ;# 340 "C:\Users\Tech\Desktop\CODetector\sevenSegment3DigitComplex\SevenSegment3DigitComplex.c" 1
 340  000C              	NOP
 340  000C              ;# 340 "C:\Users\Tech\Desktop\CODetector\sevenSegment3DigitComplex\SevenSegment3DigitComplex.c" 1
 340  000C              	NOP
 340  000C              	ENDIF
 340  000C              ;# 340 "C:\Users\Tech\Desktop\CODetector\sevenSegment3DigitComplex\SevenSegment3DigitComplex.c" 1
 340  000C              	IF (1000<8) AND (1000>3)
 340  000C              ;# 340 "C:\Users\Tech\Desktop\CODetector\sevenSegment3DigitComplex\SevenSegment3DigitComplex.c" 1
 340  000C              	CALL __DELAY3 + 7 -1000
 340  000C              	ENDIF
 340  000C              ;# 340 "C:\Users\Tech\Desktop\CODetector\sevenSegment3DigitComplex\SevenSegment3DigitComplex.c" 1
 340  000C              	IF (1000< 0404h) AND (1000>7)
"File: SevenSegment3DigitComplex.c  Assembler  Version HGASM0202      Page 40

 340  000C              ;# 340 "C:\Users\Tech\Desktop\CODetector\sevenSegment3DigitComplex\SevenSegment3DigitComplex.c" 1
 340  000C  0FF9        	MOV A,1000/4-1
 340  000D              ;# 340 "C:\Users\Tech\Desktop\CODetector\sevenSegment3DigitComplex\SevenSegment3DigitComplex.c" 1
 340  000D  2000     E  	CALL __DELAYX3 + 3 -(1000 MOD 4)
 340  000E              	ENDIF
 340  000E              ;# 340 "C:\Users\Tech\Desktop\CODetector\sevenSegment3DigitComplex\SevenSegment3DigitComplex.c" 1
 340  000E              	IF (1000< 0x40B) AND (1000> 0403h)
 340  000E              ;# 340 "C:\Users\Tech\Desktop\CODetector\sevenSegment3DigitComplex\SevenSegment3DigitComplex.c" 1
 340  000E              	MOV A,0 
 340  000E              ;# 340 "C:\Users\Tech\Desktop\CODetector\sevenSegment3DigitComplex\SevenSegment3DigitComplex.c" 1
 340  000E              	CALL __DELAYX6 + 0x40a -1000
 340  000E              	ENDIF
 340  000E              ;# 340 "C:\Users\Tech\Desktop\CODetector\sevenSegment3DigitComplex\SevenSegment3DigitComplex.c" 1
 340  000E              	IF (1000 >= 0x40b) AND ((((1000-9)%0402h)/4+1)>256)
 340  000E              ;# 340 "C:\Users\Tech\Desktop\CODetector\sevenSegment3DigitComplex\SevenSegment3DigitComplex.c" 1
 340  000E              	MOV A,(1000-9)/0402h
 340  000E              ;# 340 "C:\Users\Tech\Desktop\CODetector\sevenSegment3DigitComplex\SevenSegment3DigitComplex.c" 1
 340  000E              	MOV _builtin_holtek_delay_2,A
 340  000E              ;# 340 "C:\Users\Tech\Desktop\CODetector\sevenSegment3DigitComplex\SevenSegment3DigitComplex.c" 1
 340  000E              	MOV A,0
 340  000E              ;# 340 "C:\Users\Tech\Desktop\CODetector\sevenSegment3DigitComplex\SevenSegment3DigitComplex.c" 1
 340  000E              	CALL __DELAYY5 +5- (((1000-9)%0402h)%6)
 340  000E              	ENDIF
 340  000E              ;# 340 "C:\Users\Tech\Desktop\CODetector\sevenSegment3DigitComplex\SevenSegment3DigitComplex.c" 1
 340  000E              	IF (1000 >= 0x40b) AND ((((1000-9)%0402h)/4+1)<=256)
 340  000E              ;# 340 "C:\Users\Tech\Desktop\CODetector\sevenSegment3DigitComplex\SevenSegment3DigitComplex.c" 1
 340  000E              	MOV A,(1000-9)/0402h
 340  000E              ;# 340 "C:\Users\Tech\Desktop\CODetector\sevenSegment3DigitComplex\SevenSegment3DigitComplex.c" 1
 340  000E              	MOV _builtin_holtek_delay_2,A
 340  000E              ;# 340 "C:\Users\Tech\Desktop\CODetector\sevenSegment3DigitComplex\SevenSegment3DigitComplex.c" 1
 340  000E              	MOV A,((1000-9)%0402h)/4+1
 340  000E              ;# 340 "C:\Users\Tech\Desktop\CODetector\sevenSegment3DigitComplex\SevenSegment3DigitComplex.c" 1
 340  000E              	CALL __DELAYY3 +3-(((1000-9)%0402h)%4)
 340  000E              	ENDIF
 343  000E              #line 343 "C:\Users\Tech\Desktop\CODetector\sevenSegment3DigitComplex\SevenSegment3DigitComplex.c"
 343  000E  3119        	set [25].2
 344  000F              #line 344 "C:\Users\Tech\Desktop\CODetector\sevenSegment3DigitComplex\SevenSegment3DigitComplex.c"
 344  000F  3099        	set [25].1
 345  0010              #line 345 "C:\Users\Tech\Desktop\CODetector\sevenSegment3DigitComplex\SevenSegment3DigitComplex.c"
 345  0010  3215        	set [21].4
 346  0011              #line 346 "C:\Users\Tech\Desktop\CODetector\sevenSegment3DigitComplex\SevenSegment3DigitComplex.c"
 346  0011  3015        	set [21].0
 347  0012              #line 347 "C:\Users\Tech\Desktop\CODetector\sevenSegment3DigitComplex\SevenSegment3DigitComplex.c"
 347  0012  3115        	set [21].2
 348  0013              #line 348 "C:\Users\Tech\Desktop\CODetector\sevenSegment3DigitComplex\SevenSegment3DigitComplex.c"
 348  0013  3199        	set [25].3
 348  0014  0003        	ret
 348  0015              _oneDigit3 endp
 348  0015              #line 348 "C:\Users\Tech\Desktop\CODetector\sevenSegment3DigitComplex\SevenSegment3DigitComplex.c"
 348  0015              #pragma debug scope 1 1
 348  0015              public _towDigit1
 348  0015              #pragma debug scope 10 1
 353  0015              #line 353 "C:\Users\Tech\Desktop\CODetector\sevenSegment3DigitComplex\SevenSegment3DigitComplex.c"
 353  0000              _towDigit1 .section 'code'
 353  0000              _towDigit1 proc
 354  0000              #line 354 "C:\Users\Tech\Desktop\CODetector\sevenSegment3DigitComplex\SevenSegment3DigitComplex.c"
 354  0000  3119        	set [25].2
 355  0001              #line 355 "C:\Users\Tech\Desktop\CODetector\sevenSegment3DigitComplex\SevenSegment3DigitComplex.c"
 355  0001  3099        	set [25].1
 356  0002              #line 356 "C:\Users\Tech\Desktop\CODetector\sevenSegment3DigitComplex\SevenSegment3DigitComplex.c"
"File: SevenSegment3DigitComplex.c  Assembler  Version HGASM0202      Page 41

 356  0002  3215        	set [21].4
 357  0003              #line 357 "C:\Users\Tech\Desktop\CODetector\sevenSegment3DigitComplex\SevenSegment3DigitComplex.c"
 357  0003  3015        	set [21].0
 358  0004              #line 358 "C:\Users\Tech\Desktop\CODetector\sevenSegment3DigitComplex\SevenSegment3DigitComplex.c"
 358  0004  3115        	set [21].2
 359  0005              #line 359 "C:\Users\Tech\Desktop\CODetector\sevenSegment3DigitComplex\SevenSegment3DigitComplex.c"
 359  0005  3199        	set [25].3
 362  0006              #line 362 "C:\Users\Tech\Desktop\CODetector\sevenSegment3DigitComplex\SevenSegment3DigitComplex.c"
 362  0006  3519        	clr [25].2
 363  0007              #line 363 "C:\Users\Tech\Desktop\CODetector\sevenSegment3DigitComplex\SevenSegment3DigitComplex.c"
 363  0007  3499        	clr [25].1
 364  0008              #line 364 "C:\Users\Tech\Desktop\CODetector\sevenSegment3DigitComplex\SevenSegment3DigitComplex.c"
 364  0008  3615        	clr [21].4
 365  0009              #line 365 "C:\Users\Tech\Desktop\CODetector\sevenSegment3DigitComplex\SevenSegment3DigitComplex.c"
 365  0009  3515        	clr [21].2
 366  000A              #line 366 "C:\Users\Tech\Desktop\CODetector\sevenSegment3DigitComplex\SevenSegment3DigitComplex.c"
 366  000A  3599        	clr [25].3
 367  000B              #line 367 "C:\Users\Tech\Desktop\CODetector\sevenSegment3DigitComplex\SevenSegment3DigitComplex.c"
 367  000B  3518        	clr [24].2
 368  000C              #line 368 "C:\Users\Tech\Desktop\CODetector\sevenSegment3DigitComplex\SevenSegment3DigitComplex.c"
 368  000C  3098        	set [24].1
 369  000D              #line 369 "C:\Users\Tech\Desktop\CODetector\sevenSegment3DigitComplex\SevenSegment3DigitComplex.c"
 369  000D  3214        	set [20].4
 370  000E              #line 370 "C:\Users\Tech\Desktop\CODetector\sevenSegment3DigitComplex\SevenSegment3DigitComplex.c"
 370  000E  3114        	set [20].2
 371  000F              #line 371 "C:\Users\Tech\Desktop\CODetector\sevenSegment3DigitComplex\SevenSegment3DigitComplex.c"
 371  000F  3198        	set [24].3
 373  0010              #line 373 "C:\Users\Tech\Desktop\CODetector\sevenSegment3DigitComplex\SevenSegment3DigitComplex.c"
 373  0010              ;# 373 "C:\Users\Tech\Desktop\CODetector\sevenSegment3DigitComplex\SevenSegment3DigitComplex.c" 1
 373  0010              	IF 1000>263690
 373  0010              ;# 373 "C:\Users\Tech\Desktop\CODetector\sevenSegment3DigitComplex\SevenSegment3DigitComplex.c" 1
 373  0010              	ERRMESSAGE 'the value 1000of the argument exceeds the maxinum 263690'
 373  0010              	ENDIF
 373  0010              ;# 373 "C:\Users\Tech\Desktop\CODetector\sevenSegment3DigitComplex\SevenSegment3DigitComplex.c" 1
 373  0010              	IF 1000<0
 373  0010              ;# 373 "C:\Users\Tech\Desktop\CODetector\sevenSegment3DigitComplex\SevenSegment3DigitComplex.c" 1
 373  0010              	ERRMESSAGE 'the value 1000 of the argument exceeds the mininum 0'
 373  0010              	ENDIF
 373  0010              ;# 373 "C:\Users\Tech\Desktop\CODetector\sevenSegment3DigitComplex\SevenSegment3DigitComplex.c" 1
 373  0010              	IF 1000==0
 373  0010              ;# 373 "C:\Users\Tech\Desktop\CODetector\sevenSegment3DigitComplex\SevenSegment3DigitComplex.c" 1
 373  0010              	JMP $
 373  0010              	ENDIF
 373  0010              ;# 373 "C:\Users\Tech\Desktop\CODetector\sevenSegment3DigitComplex\SevenSegment3DigitComplex.c" 1
 373  0010              	IF 1000==1
 373  0010              ;# 373 "C:\Users\Tech\Desktop\CODetector\sevenSegment3DigitComplex\SevenSegment3DigitComplex.c" 1
 373  0010              	NOP
 373  0010              	ENDIF
 373  0010              ;# 373 "C:\Users\Tech\Desktop\CODetector\sevenSegment3DigitComplex\SevenSegment3DigitComplex.c" 1
 373  0010              	IF 1000==2
 373  0010              ;# 373 "C:\Users\Tech\Desktop\CODetector\sevenSegment3DigitComplex\SevenSegment3DigitComplex.c" 1
 373  0010              	NOP
 373  0010              ;# 373 "C:\Users\Tech\Desktop\CODetector\sevenSegment3DigitComplex\SevenSegment3DigitComplex.c" 1
 373  0010              	NOP
 373  0010              	ENDIF
 373  0010              ;# 373 "C:\Users\Tech\Desktop\CODetector\sevenSegment3DigitComplex\SevenSegment3DigitComplex.c" 1
 373  0010              	IF 1000==3
 373  0010              ;# 373 "C:\Users\Tech\Desktop\CODetector\sevenSegment3DigitComplex\SevenSegment3DigitComplex.c" 1
 373  0010              	NOP
 373  0010              ;# 373 "C:\Users\Tech\Desktop\CODetector\sevenSegment3DigitComplex\SevenSegment3DigitComplex.c" 1
"File: SevenSegment3DigitComplex.c  Assembler  Version HGASM0202      Page 42

 373  0010              	NOP
 373  0010              ;# 373 "C:\Users\Tech\Desktop\CODetector\sevenSegment3DigitComplex\SevenSegment3DigitComplex.c" 1
 373  0010              	NOP
 373  0010              	ENDIF
 373  0010              ;# 373 "C:\Users\Tech\Desktop\CODetector\sevenSegment3DigitComplex\SevenSegment3DigitComplex.c" 1
 373  0010              	IF (1000<8) AND (1000>3)
 373  0010              ;# 373 "C:\Users\Tech\Desktop\CODetector\sevenSegment3DigitComplex\SevenSegment3DigitComplex.c" 1
 373  0010              	CALL __DELAY3 + 7 -1000
 373  0010              	ENDIF
 373  0010              ;# 373 "C:\Users\Tech\Desktop\CODetector\sevenSegment3DigitComplex\SevenSegment3DigitComplex.c" 1
 373  0010              	IF (1000< 0404h) AND (1000>7)
 373  0010              ;# 373 "C:\Users\Tech\Desktop\CODetector\sevenSegment3DigitComplex\SevenSegment3DigitComplex.c" 1
 373  0010  0FF9        	MOV A,1000/4-1
 373  0011              ;# 373 "C:\Users\Tech\Desktop\CODetector\sevenSegment3DigitComplex\SevenSegment3DigitComplex.c" 1
 373  0011  2000     E  	CALL __DELAYX3 + 3 -(1000 MOD 4)
 373  0012              	ENDIF
 373  0012              ;# 373 "C:\Users\Tech\Desktop\CODetector\sevenSegment3DigitComplex\SevenSegment3DigitComplex.c" 1
 373  0012              	IF (1000< 0x40B) AND (1000> 0403h)
 373  0012              ;# 373 "C:\Users\Tech\Desktop\CODetector\sevenSegment3DigitComplex\SevenSegment3DigitComplex.c" 1
 373  0012              	MOV A,0 
 373  0012              ;# 373 "C:\Users\Tech\Desktop\CODetector\sevenSegment3DigitComplex\SevenSegment3DigitComplex.c" 1
 373  0012              	CALL __DELAYX6 + 0x40a -1000
 373  0012              	ENDIF
 373  0012              ;# 373 "C:\Users\Tech\Desktop\CODetector\sevenSegment3DigitComplex\SevenSegment3DigitComplex.c" 1
 373  0012              	IF (1000 >= 0x40b) AND ((((1000-9)%0402h)/4+1)>256)
 373  0012              ;# 373 "C:\Users\Tech\Desktop\CODetector\sevenSegment3DigitComplex\SevenSegment3DigitComplex.c" 1
 373  0012              	MOV A,(1000-9)/0402h
 373  0012              ;# 373 "C:\Users\Tech\Desktop\CODetector\sevenSegment3DigitComplex\SevenSegment3DigitComplex.c" 1
 373  0012              	MOV _builtin_holtek_delay_2,A
 373  0012              ;# 373 "C:\Users\Tech\Desktop\CODetector\sevenSegment3DigitComplex\SevenSegment3DigitComplex.c" 1
 373  0012              	MOV A,0
 373  0012              ;# 373 "C:\Users\Tech\Desktop\CODetector\sevenSegment3DigitComplex\SevenSegment3DigitComplex.c" 1
 373  0012              	CALL __DELAYY5 +5- (((1000-9)%0402h)%6)
 373  0012              	ENDIF
 373  0012              ;# 373 "C:\Users\Tech\Desktop\CODetector\sevenSegment3DigitComplex\SevenSegment3DigitComplex.c" 1
 373  0012              	IF (1000 >= 0x40b) AND ((((1000-9)%0402h)/4+1)<=256)
 373  0012              ;# 373 "C:\Users\Tech\Desktop\CODetector\sevenSegment3DigitComplex\SevenSegment3DigitComplex.c" 1
 373  0012              	MOV A,(1000-9)/0402h
 373  0012              ;# 373 "C:\Users\Tech\Desktop\CODetector\sevenSegment3DigitComplex\SevenSegment3DigitComplex.c" 1
 373  0012              	MOV _builtin_holtek_delay_2,A
 373  0012              ;# 373 "C:\Users\Tech\Desktop\CODetector\sevenSegment3DigitComplex\SevenSegment3DigitComplex.c" 1
 373  0012              	MOV A,((1000-9)%0402h)/4+1
 373  0012              ;# 373 "C:\Users\Tech\Desktop\CODetector\sevenSegment3DigitComplex\SevenSegment3DigitComplex.c" 1
 373  0012              	CALL __DELAYY3 +3-(((1000-9)%0402h)%4)
 373  0012              	ENDIF
 375  0012              #line 375 "C:\Users\Tech\Desktop\CODetector\sevenSegment3DigitComplex\SevenSegment3DigitComplex.c"
 375  0012  3119        	set [25].2
 376  0013              #line 376 "C:\Users\Tech\Desktop\CODetector\sevenSegment3DigitComplex\SevenSegment3DigitComplex.c"
 376  0013  3099        	set [25].1
 377  0014              #line 377 "C:\Users\Tech\Desktop\CODetector\sevenSegment3DigitComplex\SevenSegment3DigitComplex.c"
 377  0014  3215        	set [21].4
 378  0015              #line 378 "C:\Users\Tech\Desktop\CODetector\sevenSegment3DigitComplex\SevenSegment3DigitComplex.c"
 378  0015  3015        	set [21].0
 379  0016              #line 379 "C:\Users\Tech\Desktop\CODetector\sevenSegment3DigitComplex\SevenSegment3DigitComplex.c"
 379  0016  3115        	set [21].2
 380  0017              #line 380 "C:\Users\Tech\Desktop\CODetector\sevenSegment3DigitComplex\SevenSegment3DigitComplex.c"
 380  0017  3199        	set [25].3
 382  0018              #line 382 "C:\Users\Tech\Desktop\CODetector\sevenSegment3DigitComplex\SevenSegment3DigitComplex.c"
 382  0018  3499        	clr [25].1
 383  0019              #line 383 "C:\Users\Tech\Desktop\CODetector\sevenSegment3DigitComplex\SevenSegment3DigitComplex.c"
"File: SevenSegment3DigitComplex.c  Assembler  Version HGASM0202      Page 43

 383  0019  3415        	clr [21].0
 384  001A              #line 384 "C:\Users\Tech\Desktop\CODetector\sevenSegment3DigitComplex\SevenSegment3DigitComplex.c"
 384  001A  3498        	clr [24].1
 385  001B              #line 385 "C:\Users\Tech\Desktop\CODetector\sevenSegment3DigitComplex\SevenSegment3DigitComplex.c"
 385  001B  3014        	set [20].0
 387  001C              #line 387 "C:\Users\Tech\Desktop\CODetector\sevenSegment3DigitComplex\SevenSegment3DigitComplex.c"
 387  001C              ;# 387 "C:\Users\Tech\Desktop\CODetector\sevenSegment3DigitComplex\SevenSegment3DigitComplex.c" 1
 387  001C              	IF 1000>263690
 387  001C              ;# 387 "C:\Users\Tech\Desktop\CODetector\sevenSegment3DigitComplex\SevenSegment3DigitComplex.c" 1
 387  001C              	ERRMESSAGE 'the value 1000of the argument exceeds the maxinum 263690'
 387  001C              	ENDIF
 387  001C              ;# 387 "C:\Users\Tech\Desktop\CODetector\sevenSegment3DigitComplex\SevenSegment3DigitComplex.c" 1
 387  001C              	IF 1000<0
 387  001C              ;# 387 "C:\Users\Tech\Desktop\CODetector\sevenSegment3DigitComplex\SevenSegment3DigitComplex.c" 1
 387  001C              	ERRMESSAGE 'the value 1000 of the argument exceeds the mininum 0'
 387  001C              	ENDIF
 387  001C              ;# 387 "C:\Users\Tech\Desktop\CODetector\sevenSegment3DigitComplex\SevenSegment3DigitComplex.c" 1
 387  001C              	IF 1000==0
 387  001C              ;# 387 "C:\Users\Tech\Desktop\CODetector\sevenSegment3DigitComplex\SevenSegment3DigitComplex.c" 1
 387  001C              	JMP $
 387  001C              	ENDIF
 387  001C              ;# 387 "C:\Users\Tech\Desktop\CODetector\sevenSegment3DigitComplex\SevenSegment3DigitComplex.c" 1
 387  001C              	IF 1000==1
 387  001C              ;# 387 "C:\Users\Tech\Desktop\CODetector\sevenSegment3DigitComplex\SevenSegment3DigitComplex.c" 1
 387  001C              	NOP
 387  001C              	ENDIF
 387  001C              ;# 387 "C:\Users\Tech\Desktop\CODetector\sevenSegment3DigitComplex\SevenSegment3DigitComplex.c" 1
 387  001C              	IF 1000==2
 387  001C              ;# 387 "C:\Users\Tech\Desktop\CODetector\sevenSegment3DigitComplex\SevenSegment3DigitComplex.c" 1
 387  001C              	NOP
 387  001C              ;# 387 "C:\Users\Tech\Desktop\CODetector\sevenSegment3DigitComplex\SevenSegment3DigitComplex.c" 1
 387  001C              	NOP
 387  001C              	ENDIF
 387  001C              ;# 387 "C:\Users\Tech\Desktop\CODetector\sevenSegment3DigitComplex\SevenSegment3DigitComplex.c" 1
 387  001C              	IF 1000==3
 387  001C              ;# 387 "C:\Users\Tech\Desktop\CODetector\sevenSegment3DigitComplex\SevenSegment3DigitComplex.c" 1
 387  001C              	NOP
 387  001C              ;# 387 "C:\Users\Tech\Desktop\CODetector\sevenSegment3DigitComplex\SevenSegment3DigitComplex.c" 1
 387  001C              	NOP
 387  001C              ;# 387 "C:\Users\Tech\Desktop\CODetector\sevenSegment3DigitComplex\SevenSegment3DigitComplex.c" 1
 387  001C              	NOP
 387  001C              	ENDIF
 387  001C              ;# 387 "C:\Users\Tech\Desktop\CODetector\sevenSegment3DigitComplex\SevenSegment3DigitComplex.c" 1
 387  001C              	IF (1000<8) AND (1000>3)
 387  001C              ;# 387 "C:\Users\Tech\Desktop\CODetector\sevenSegment3DigitComplex\SevenSegment3DigitComplex.c" 1
 387  001C              	CALL __DELAY3 + 7 -1000
 387  001C              	ENDIF
 387  001C              ;# 387 "C:\Users\Tech\Desktop\CODetector\sevenSegment3DigitComplex\SevenSegment3DigitComplex.c" 1
 387  001C              	IF (1000< 0404h) AND (1000>7)
 387  001C              ;# 387 "C:\Users\Tech\Desktop\CODetector\sevenSegment3DigitComplex\SevenSegment3DigitComplex.c" 1
 387  001C  0FF9        	MOV A,1000/4-1
 387  001D              ;# 387 "C:\Users\Tech\Desktop\CODetector\sevenSegment3DigitComplex\SevenSegment3DigitComplex.c" 1
 387  001D  2000     E  	CALL __DELAYX3 + 3 -(1000 MOD 4)
 387  001E              	ENDIF
 387  001E              ;# 387 "C:\Users\Tech\Desktop\CODetector\sevenSegment3DigitComplex\SevenSegment3DigitComplex.c" 1
 387  001E              	IF (1000< 0x40B) AND (1000> 0403h)
 387  001E              ;# 387 "C:\Users\Tech\Desktop\CODetector\sevenSegment3DigitComplex\SevenSegment3DigitComplex.c" 1
 387  001E              	MOV A,0 
 387  001E              ;# 387 "C:\Users\Tech\Desktop\CODetector\sevenSegment3DigitComplex\SevenSegment3DigitComplex.c" 1
 387  001E              	CALL __DELAYX6 + 0x40a -1000
"File: SevenSegment3DigitComplex.c  Assembler  Version HGASM0202      Page 44

 387  001E              	ENDIF
 387  001E              ;# 387 "C:\Users\Tech\Desktop\CODetector\sevenSegment3DigitComplex\SevenSegment3DigitComplex.c" 1
 387  001E              	IF (1000 >= 0x40b) AND ((((1000-9)%0402h)/4+1)>256)
 387  001E              ;# 387 "C:\Users\Tech\Desktop\CODetector\sevenSegment3DigitComplex\SevenSegment3DigitComplex.c" 1
 387  001E              	MOV A,(1000-9)/0402h
 387  001E              ;# 387 "C:\Users\Tech\Desktop\CODetector\sevenSegment3DigitComplex\SevenSegment3DigitComplex.c" 1
 387  001E              	MOV _builtin_holtek_delay_2,A
 387  001E              ;# 387 "C:\Users\Tech\Desktop\CODetector\sevenSegment3DigitComplex\SevenSegment3DigitComplex.c" 1
 387  001E              	MOV A,0
 387  001E              ;# 387 "C:\Users\Tech\Desktop\CODetector\sevenSegment3DigitComplex\SevenSegment3DigitComplex.c" 1
 387  001E              	CALL __DELAYY5 +5- (((1000-9)%0402h)%6)
 387  001E              	ENDIF
 387  001E              ;# 387 "C:\Users\Tech\Desktop\CODetector\sevenSegment3DigitComplex\SevenSegment3DigitComplex.c" 1
 387  001E              	IF (1000 >= 0x40b) AND ((((1000-9)%0402h)/4+1)<=256)
 387  001E              ;# 387 "C:\Users\Tech\Desktop\CODetector\sevenSegment3DigitComplex\SevenSegment3DigitComplex.c" 1
 387  001E              	MOV A,(1000-9)/0402h
 387  001E              ;# 387 "C:\Users\Tech\Desktop\CODetector\sevenSegment3DigitComplex\SevenSegment3DigitComplex.c" 1
 387  001E              	MOV _builtin_holtek_delay_2,A
 387  001E              ;# 387 "C:\Users\Tech\Desktop\CODetector\sevenSegment3DigitComplex\SevenSegment3DigitComplex.c" 1
 387  001E              	MOV A,((1000-9)%0402h)/4+1
 387  001E              ;# 387 "C:\Users\Tech\Desktop\CODetector\sevenSegment3DigitComplex\SevenSegment3DigitComplex.c" 1
 387  001E              	CALL __DELAYY3 +3-(((1000-9)%0402h)%4)
 387  001E              	ENDIF
 387  001E  0003        	ret
 387  001F              _towDigit1 endp
 387  001F              #line 387 "C:\Users\Tech\Desktop\CODetector\sevenSegment3DigitComplex\SevenSegment3DigitComplex.c"
 387  001F              #pragma debug scope 1 1
 387  001F              public _towDigit2
 387  001F              #pragma debug scope 11 1
 390  001F              #line 390 "C:\Users\Tech\Desktop\CODetector\sevenSegment3DigitComplex\SevenSegment3DigitComplex.c"
 390  0000              _towDigit2 .section 'code'
 390  0000              _towDigit2 proc
 391  0000              #line 391 "C:\Users\Tech\Desktop\CODetector\sevenSegment3DigitComplex\SevenSegment3DigitComplex.c"
 391  0000  3119        	set [25].2
 392  0001              #line 392 "C:\Users\Tech\Desktop\CODetector\sevenSegment3DigitComplex\SevenSegment3DigitComplex.c"
 392  0001  3099        	set [25].1
 393  0002              #line 393 "C:\Users\Tech\Desktop\CODetector\sevenSegment3DigitComplex\SevenSegment3DigitComplex.c"
 393  0002  3215        	set [21].4
 394  0003              #line 394 "C:\Users\Tech\Desktop\CODetector\sevenSegment3DigitComplex\SevenSegment3DigitComplex.c"
 394  0003  3015        	set [21].0
 395  0004              #line 395 "C:\Users\Tech\Desktop\CODetector\sevenSegment3DigitComplex\SevenSegment3DigitComplex.c"
 395  0004  3115        	set [21].2
 396  0005              #line 396 "C:\Users\Tech\Desktop\CODetector\sevenSegment3DigitComplex\SevenSegment3DigitComplex.c"
 396  0005  3199        	set [25].3
 399  0006              #line 399 "C:\Users\Tech\Desktop\CODetector\sevenSegment3DigitComplex\SevenSegment3DigitComplex.c"
 399  0006  3519        	clr [25].2
 400  0007              #line 400 "C:\Users\Tech\Desktop\CODetector\sevenSegment3DigitComplex\SevenSegment3DigitComplex.c"
 400  0007  3499        	clr [25].1
 401  0008              #line 401 "C:\Users\Tech\Desktop\CODetector\sevenSegment3DigitComplex\SevenSegment3DigitComplex.c"
 401  0008  3615        	clr [21].4
 402  0009              #line 402 "C:\Users\Tech\Desktop\CODetector\sevenSegment3DigitComplex\SevenSegment3DigitComplex.c"
 402  0009  3515        	clr [21].2
 403  000A              #line 403 "C:\Users\Tech\Desktop\CODetector\sevenSegment3DigitComplex\SevenSegment3DigitComplex.c"
 403  000A  3599        	clr [25].3
 405  000B              #line 405 "C:\Users\Tech\Desktop\CODetector\sevenSegment3DigitComplex\SevenSegment3DigitComplex.c"
 405  000B  3118        	set [24].2
 406  000C              #line 406 "C:\Users\Tech\Desktop\CODetector\sevenSegment3DigitComplex\SevenSegment3DigitComplex.c"
 406  000C  3498        	clr [24].1
 407  000D              #line 407 "C:\Users\Tech\Desktop\CODetector\sevenSegment3DigitComplex\SevenSegment3DigitComplex.c"
 407  000D  3614        	clr [20].4
"File: SevenSegment3DigitComplex.c  Assembler  Version HGASM0202      Page 45

 408  000E              #line 408 "C:\Users\Tech\Desktop\CODetector\sevenSegment3DigitComplex\SevenSegment3DigitComplex.c"
 408  000E  3514        	clr [20].2
 409  000F              #line 409 "C:\Users\Tech\Desktop\CODetector\sevenSegment3DigitComplex\SevenSegment3DigitComplex.c"
 409  000F  3598        	clr [24].3
 411  0010              #line 411 "C:\Users\Tech\Desktop\CODetector\sevenSegment3DigitComplex\SevenSegment3DigitComplex.c"
 411  0010              ;# 411 "C:\Users\Tech\Desktop\CODetector\sevenSegment3DigitComplex\SevenSegment3DigitComplex.c" 1
 411  0010              	IF 1000>263690
 411  0010              ;# 411 "C:\Users\Tech\Desktop\CODetector\sevenSegment3DigitComplex\SevenSegment3DigitComplex.c" 1
 411  0010              	ERRMESSAGE 'the value 1000of the argument exceeds the maxinum 263690'
 411  0010              	ENDIF
 411  0010              ;# 411 "C:\Users\Tech\Desktop\CODetector\sevenSegment3DigitComplex\SevenSegment3DigitComplex.c" 1
 411  0010              	IF 1000<0
 411  0010              ;# 411 "C:\Users\Tech\Desktop\CODetector\sevenSegment3DigitComplex\SevenSegment3DigitComplex.c" 1
 411  0010              	ERRMESSAGE 'the value 1000 of the argument exceeds the mininum 0'
 411  0010              	ENDIF
 411  0010              ;# 411 "C:\Users\Tech\Desktop\CODetector\sevenSegment3DigitComplex\SevenSegment3DigitComplex.c" 1
 411  0010              	IF 1000==0
 411  0010              ;# 411 "C:\Users\Tech\Desktop\CODetector\sevenSegment3DigitComplex\SevenSegment3DigitComplex.c" 1
 411  0010              	JMP $
 411  0010              	ENDIF
 411  0010              ;# 411 "C:\Users\Tech\Desktop\CODetector\sevenSegment3DigitComplex\SevenSegment3DigitComplex.c" 1
 411  0010              	IF 1000==1
 411  0010              ;# 411 "C:\Users\Tech\Desktop\CODetector\sevenSegment3DigitComplex\SevenSegment3DigitComplex.c" 1
 411  0010              	NOP
 411  0010              	ENDIF
 411  0010              ;# 411 "C:\Users\Tech\Desktop\CODetector\sevenSegment3DigitComplex\SevenSegment3DigitComplex.c" 1
 411  0010              	IF 1000==2
 411  0010              ;# 411 "C:\Users\Tech\Desktop\CODetector\sevenSegment3DigitComplex\SevenSegment3DigitComplex.c" 1
 411  0010              	NOP
 411  0010              ;# 411 "C:\Users\Tech\Desktop\CODetector\sevenSegment3DigitComplex\SevenSegment3DigitComplex.c" 1
 411  0010              	NOP
 411  0010              	ENDIF
 411  0010              ;# 411 "C:\Users\Tech\Desktop\CODetector\sevenSegment3DigitComplex\SevenSegment3DigitComplex.c" 1
 411  0010              	IF 1000==3
 411  0010              ;# 411 "C:\Users\Tech\Desktop\CODetector\sevenSegment3DigitComplex\SevenSegment3DigitComplex.c" 1
 411  0010              	NOP
 411  0010              ;# 411 "C:\Users\Tech\Desktop\CODetector\sevenSegment3DigitComplex\SevenSegment3DigitComplex.c" 1
 411  0010              	NOP
 411  0010              ;# 411 "C:\Users\Tech\Desktop\CODetector\sevenSegment3DigitComplex\SevenSegment3DigitComplex.c" 1
 411  0010              	NOP
 411  0010              	ENDIF
 411  0010              ;# 411 "C:\Users\Tech\Desktop\CODetector\sevenSegment3DigitComplex\SevenSegment3DigitComplex.c" 1
 411  0010              	IF (1000<8) AND (1000>3)
 411  0010              ;# 411 "C:\Users\Tech\Desktop\CODetector\sevenSegment3DigitComplex\SevenSegment3DigitComplex.c" 1
 411  0010              	CALL __DELAY3 + 7 -1000
 411  0010              	ENDIF
 411  0010              ;# 411 "C:\Users\Tech\Desktop\CODetector\sevenSegment3DigitComplex\SevenSegment3DigitComplex.c" 1
 411  0010              	IF (1000< 0404h) AND (1000>7)
 411  0010              ;# 411 "C:\Users\Tech\Desktop\CODetector\sevenSegment3DigitComplex\SevenSegment3DigitComplex.c" 1
 411  0010  0FF9        	MOV A,1000/4-1
 411  0011              ;# 411 "C:\Users\Tech\Desktop\CODetector\sevenSegment3DigitComplex\SevenSegment3DigitComplex.c" 1
 411  0011  2000     E  	CALL __DELAYX3 + 3 -(1000 MOD 4)
 411  0012              	ENDIF
 411  0012              ;# 411 "C:\Users\Tech\Desktop\CODetector\sevenSegment3DigitComplex\SevenSegment3DigitComplex.c" 1
 411  0012              	IF (1000< 0x40B) AND (1000> 0403h)
 411  0012              ;# 411 "C:\Users\Tech\Desktop\CODetector\sevenSegment3DigitComplex\SevenSegment3DigitComplex.c" 1
 411  0012              	MOV A,0 
 411  0012              ;# 411 "C:\Users\Tech\Desktop\CODetector\sevenSegment3DigitComplex\SevenSegment3DigitComplex.c" 1
 411  0012              	CALL __DELAYX6 + 0x40a -1000
 411  0012              	ENDIF
"File: SevenSegment3DigitComplex.c  Assembler  Version HGASM0202      Page 46

 411  0012              ;# 411 "C:\Users\Tech\Desktop\CODetector\sevenSegment3DigitComplex\SevenSegment3DigitComplex.c" 1
 411  0012              	IF (1000 >= 0x40b) AND ((((1000-9)%0402h)/4+1)>256)
 411  0012              ;# 411 "C:\Users\Tech\Desktop\CODetector\sevenSegment3DigitComplex\SevenSegment3DigitComplex.c" 1
 411  0012              	MOV A,(1000-9)/0402h
 411  0012              ;# 411 "C:\Users\Tech\Desktop\CODetector\sevenSegment3DigitComplex\SevenSegment3DigitComplex.c" 1
 411  0012              	MOV _builtin_holtek_delay_2,A
 411  0012              ;# 411 "C:\Users\Tech\Desktop\CODetector\sevenSegment3DigitComplex\SevenSegment3DigitComplex.c" 1
 411  0012              	MOV A,0
 411  0012              ;# 411 "C:\Users\Tech\Desktop\CODetector\sevenSegment3DigitComplex\SevenSegment3DigitComplex.c" 1
 411  0012              	CALL __DELAYY5 +5- (((1000-9)%0402h)%6)
 411  0012              	ENDIF
 411  0012              ;# 411 "C:\Users\Tech\Desktop\CODetector\sevenSegment3DigitComplex\SevenSegment3DigitComplex.c" 1
 411  0012              	IF (1000 >= 0x40b) AND ((((1000-9)%0402h)/4+1)<=256)
 411  0012              ;# 411 "C:\Users\Tech\Desktop\CODetector\sevenSegment3DigitComplex\SevenSegment3DigitComplex.c" 1
 411  0012              	MOV A,(1000-9)/0402h
 411  0012              ;# 411 "C:\Users\Tech\Desktop\CODetector\sevenSegment3DigitComplex\SevenSegment3DigitComplex.c" 1
 411  0012              	MOV _builtin_holtek_delay_2,A
 411  0012              ;# 411 "C:\Users\Tech\Desktop\CODetector\sevenSegment3DigitComplex\SevenSegment3DigitComplex.c" 1
 411  0012              	MOV A,((1000-9)%0402h)/4+1
 411  0012              ;# 411 "C:\Users\Tech\Desktop\CODetector\sevenSegment3DigitComplex\SevenSegment3DigitComplex.c" 1
 411  0012              	CALL __DELAYY3 +3-(((1000-9)%0402h)%4)
 411  0012              	ENDIF
 413  0012              #line 413 "C:\Users\Tech\Desktop\CODetector\sevenSegment3DigitComplex\SevenSegment3DigitComplex.c"
 413  0012  3119        	set [25].2
 414  0013              #line 414 "C:\Users\Tech\Desktop\CODetector\sevenSegment3DigitComplex\SevenSegment3DigitComplex.c"
 414  0013  3099        	set [25].1
 415  0014              #line 415 "C:\Users\Tech\Desktop\CODetector\sevenSegment3DigitComplex\SevenSegment3DigitComplex.c"
 415  0014  3215        	set [21].4
 416  0015              #line 416 "C:\Users\Tech\Desktop\CODetector\sevenSegment3DigitComplex\SevenSegment3DigitComplex.c"
 416  0015  3015        	set [21].0
 417  0016              #line 417 "C:\Users\Tech\Desktop\CODetector\sevenSegment3DigitComplex\SevenSegment3DigitComplex.c"
 417  0016  3115        	set [21].2
 418  0017              #line 418 "C:\Users\Tech\Desktop\CODetector\sevenSegment3DigitComplex\SevenSegment3DigitComplex.c"
 418  0017  3199        	set [25].3
 420  0018              #line 420 "C:\Users\Tech\Desktop\CODetector\sevenSegment3DigitComplex\SevenSegment3DigitComplex.c"
 420  0018  3499        	clr [25].1
 421  0019              #line 421 "C:\Users\Tech\Desktop\CODetector\sevenSegment3DigitComplex\SevenSegment3DigitComplex.c"
 421  0019  3599        	clr [25].3
 422  001A              #line 422 "C:\Users\Tech\Desktop\CODetector\sevenSegment3DigitComplex\SevenSegment3DigitComplex.c"
 422  001A  3498        	clr [24].1
 423  001B              #line 423 "C:\Users\Tech\Desktop\CODetector\sevenSegment3DigitComplex\SevenSegment3DigitComplex.c"
 423  001B  3198        	set [24].3
 425  001C              #line 425 "C:\Users\Tech\Desktop\CODetector\sevenSegment3DigitComplex\SevenSegment3DigitComplex.c"
 425  001C              ;# 425 "C:\Users\Tech\Desktop\CODetector\sevenSegment3DigitComplex\SevenSegment3DigitComplex.c" 1
 425  001C              	IF 1000>263690
 425  001C              ;# 425 "C:\Users\Tech\Desktop\CODetector\sevenSegment3DigitComplex\SevenSegment3DigitComplex.c" 1
 425  001C              	ERRMESSAGE 'the value 1000of the argument exceeds the maxinum 263690'
 425  001C              	ENDIF
 425  001C              ;# 425 "C:\Users\Tech\Desktop\CODetector\sevenSegment3DigitComplex\SevenSegment3DigitComplex.c" 1
 425  001C              	IF 1000<0
 425  001C              ;# 425 "C:\Users\Tech\Desktop\CODetector\sevenSegment3DigitComplex\SevenSegment3DigitComplex.c" 1
 425  001C              	ERRMESSAGE 'the value 1000 of the argument exceeds the mininum 0'
 425  001C              	ENDIF
 425  001C              ;# 425 "C:\Users\Tech\Desktop\CODetector\sevenSegment3DigitComplex\SevenSegment3DigitComplex.c" 1
 425  001C              	IF 1000==0
 425  001C              ;# 425 "C:\Users\Tech\Desktop\CODetector\sevenSegment3DigitComplex\SevenSegment3DigitComplex.c" 1
 425  001C              	JMP $
 425  001C              	ENDIF
 425  001C              ;# 425 "C:\Users\Tech\Desktop\CODetector\sevenSegment3DigitComplex\SevenSegment3DigitComplex.c" 1
 425  001C              	IF 1000==1
"File: SevenSegment3DigitComplex.c  Assembler  Version HGASM0202      Page 47

 425  001C              ;# 425 "C:\Users\Tech\Desktop\CODetector\sevenSegment3DigitComplex\SevenSegment3DigitComplex.c" 1
 425  001C              	NOP
 425  001C              	ENDIF
 425  001C              ;# 425 "C:\Users\Tech\Desktop\CODetector\sevenSegment3DigitComplex\SevenSegment3DigitComplex.c" 1
 425  001C              	IF 1000==2
 425  001C              ;# 425 "C:\Users\Tech\Desktop\CODetector\sevenSegment3DigitComplex\SevenSegment3DigitComplex.c" 1
 425  001C              	NOP
 425  001C              ;# 425 "C:\Users\Tech\Desktop\CODetector\sevenSegment3DigitComplex\SevenSegment3DigitComplex.c" 1
 425  001C              	NOP
 425  001C              	ENDIF
 425  001C              ;# 425 "C:\Users\Tech\Desktop\CODetector\sevenSegment3DigitComplex\SevenSegment3DigitComplex.c" 1
 425  001C              	IF 1000==3
 425  001C              ;# 425 "C:\Users\Tech\Desktop\CODetector\sevenSegment3DigitComplex\SevenSegment3DigitComplex.c" 1
 425  001C              	NOP
 425  001C              ;# 425 "C:\Users\Tech\Desktop\CODetector\sevenSegment3DigitComplex\SevenSegment3DigitComplex.c" 1
 425  001C              	NOP
 425  001C              ;# 425 "C:\Users\Tech\Desktop\CODetector\sevenSegment3DigitComplex\SevenSegment3DigitComplex.c" 1
 425  001C              	NOP
 425  001C              	ENDIF
 425  001C              ;# 425 "C:\Users\Tech\Desktop\CODetector\sevenSegment3DigitComplex\SevenSegment3DigitComplex.c" 1
 425  001C              	IF (1000<8) AND (1000>3)
 425  001C              ;# 425 "C:\Users\Tech\Desktop\CODetector\sevenSegment3DigitComplex\SevenSegment3DigitComplex.c" 1
 425  001C              	CALL __DELAY3 + 7 -1000
 425  001C              	ENDIF
 425  001C              ;# 425 "C:\Users\Tech\Desktop\CODetector\sevenSegment3DigitComplex\SevenSegment3DigitComplex.c" 1
 425  001C              	IF (1000< 0404h) AND (1000>7)
 425  001C              ;# 425 "C:\Users\Tech\Desktop\CODetector\sevenSegment3DigitComplex\SevenSegment3DigitComplex.c" 1
 425  001C  0FF9        	MOV A,1000/4-1
 425  001D              ;# 425 "C:\Users\Tech\Desktop\CODetector\sevenSegment3DigitComplex\SevenSegment3DigitComplex.c" 1
 425  001D  2000     E  	CALL __DELAYX3 + 3 -(1000 MOD 4)
 425  001E              	ENDIF
 425  001E              ;# 425 "C:\Users\Tech\Desktop\CODetector\sevenSegment3DigitComplex\SevenSegment3DigitComplex.c" 1
 425  001E              	IF (1000< 0x40B) AND (1000> 0403h)
 425  001E              ;# 425 "C:\Users\Tech\Desktop\CODetector\sevenSegment3DigitComplex\SevenSegment3DigitComplex.c" 1
 425  001E              	MOV A,0 
 425  001E              ;# 425 "C:\Users\Tech\Desktop\CODetector\sevenSegment3DigitComplex\SevenSegment3DigitComplex.c" 1
 425  001E              	CALL __DELAYX6 + 0x40a -1000
 425  001E              	ENDIF
 425  001E              ;# 425 "C:\Users\Tech\Desktop\CODetector\sevenSegment3DigitComplex\SevenSegment3DigitComplex.c" 1
 425  001E              	IF (1000 >= 0x40b) AND ((((1000-9)%0402h)/4+1)>256)
 425  001E              ;# 425 "C:\Users\Tech\Desktop\CODetector\sevenSegment3DigitComplex\SevenSegment3DigitComplex.c" 1
 425  001E              	MOV A,(1000-9)/0402h
 425  001E              ;# 425 "C:\Users\Tech\Desktop\CODetector\sevenSegment3DigitComplex\SevenSegment3DigitComplex.c" 1
 425  001E              	MOV _builtin_holtek_delay_2,A
 425  001E              ;# 425 "C:\Users\Tech\Desktop\CODetector\sevenSegment3DigitComplex\SevenSegment3DigitComplex.c" 1
 425  001E              	MOV A,0
 425  001E              ;# 425 "C:\Users\Tech\Desktop\CODetector\sevenSegment3DigitComplex\SevenSegment3DigitComplex.c" 1
 425  001E              	CALL __DELAYY5 +5- (((1000-9)%0402h)%6)
 425  001E              	ENDIF
 425  001E              ;# 425 "C:\Users\Tech\Desktop\CODetector\sevenSegment3DigitComplex\SevenSegment3DigitComplex.c" 1
 425  001E              	IF (1000 >= 0x40b) AND ((((1000-9)%0402h)/4+1)<=256)
 425  001E              ;# 425 "C:\Users\Tech\Desktop\CODetector\sevenSegment3DigitComplex\SevenSegment3DigitComplex.c" 1
 425  001E              	MOV A,(1000-9)/0402h
 425  001E              ;# 425 "C:\Users\Tech\Desktop\CODetector\sevenSegment3DigitComplex\SevenSegment3DigitComplex.c" 1
 425  001E              	MOV _builtin_holtek_delay_2,A
 425  001E              ;# 425 "C:\Users\Tech\Desktop\CODetector\sevenSegment3DigitComplex\SevenSegment3DigitComplex.c" 1
 425  001E              	MOV A,((1000-9)%0402h)/4+1
 425  001E              ;# 425 "C:\Users\Tech\Desktop\CODetector\sevenSegment3DigitComplex\SevenSegment3DigitComplex.c" 1
 425  001E              	CALL __DELAYY3 +3-(((1000-9)%0402h)%4)
 425  001E              	ENDIF
"File: SevenSegment3DigitComplex.c  Assembler  Version HGASM0202      Page 48

 425  001E  0003        	ret
 425  001F              _towDigit2 endp
 425  001F              #line 425 "C:\Users\Tech\Desktop\CODetector\sevenSegment3DigitComplex\SevenSegment3DigitComplex.c"
 425  001F              #pragma debug scope 1 1
 425  001F              public _towDigit3
 425  001F              #pragma debug scope 12 1
 428  001F              #line 428 "C:\Users\Tech\Desktop\CODetector\sevenSegment3DigitComplex\SevenSegment3DigitComplex.c"
 428  0000              _towDigit3 .section 'code'
 428  0000              _towDigit3 proc
 430  0000              #line 430 "C:\Users\Tech\Desktop\CODetector\sevenSegment3DigitComplex\SevenSegment3DigitComplex.c"
 430  0000  3119        	set [25].2
 431  0001              #line 431 "C:\Users\Tech\Desktop\CODetector\sevenSegment3DigitComplex\SevenSegment3DigitComplex.c"
 431  0001  3099        	set [25].1
 432  0002              #line 432 "C:\Users\Tech\Desktop\CODetector\sevenSegment3DigitComplex\SevenSegment3DigitComplex.c"
 432  0002  3215        	set [21].4
 433  0003              #line 433 "C:\Users\Tech\Desktop\CODetector\sevenSegment3DigitComplex\SevenSegment3DigitComplex.c"
 433  0003  3015        	set [21].0
 434  0004              #line 434 "C:\Users\Tech\Desktop\CODetector\sevenSegment3DigitComplex\SevenSegment3DigitComplex.c"
 434  0004  3115        	set [21].2
 435  0005              #line 435 "C:\Users\Tech\Desktop\CODetector\sevenSegment3DigitComplex\SevenSegment3DigitComplex.c"
 435  0005  3199        	set [25].3
 438  0006              #line 438 "C:\Users\Tech\Desktop\CODetector\sevenSegment3DigitComplex\SevenSegment3DigitComplex.c"
 438  0006  3499        	clr [25].1
 439  0007              #line 439 "C:\Users\Tech\Desktop\CODetector\sevenSegment3DigitComplex\SevenSegment3DigitComplex.c"
 439  0007  3615        	clr [21].4
 440  0008              #line 440 "C:\Users\Tech\Desktop\CODetector\sevenSegment3DigitComplex\SevenSegment3DigitComplex.c"
 440  0008  3415        	clr [21].0
 441  0009              #line 441 "C:\Users\Tech\Desktop\CODetector\sevenSegment3DigitComplex\SevenSegment3DigitComplex.c"
 441  0009  3599        	clr [25].3
 442  000A              #line 442 "C:\Users\Tech\Desktop\CODetector\sevenSegment3DigitComplex\SevenSegment3DigitComplex.c"
 442  000A  3098        	set [24].1
 443  000B              #line 443 "C:\Users\Tech\Desktop\CODetector\sevenSegment3DigitComplex\SevenSegment3DigitComplex.c"
 443  000B  3614        	clr [20].4
 444  000C              #line 444 "C:\Users\Tech\Desktop\CODetector\sevenSegment3DigitComplex\SevenSegment3DigitComplex.c"
 444  000C  3414        	clr [20].0
 445  000D              #line 445 "C:\Users\Tech\Desktop\CODetector\sevenSegment3DigitComplex\SevenSegment3DigitComplex.c"
 445  000D  3514        	clr [20].2
 446  000E              #line 446 "C:\Users\Tech\Desktop\CODetector\sevenSegment3DigitComplex\SevenSegment3DigitComplex.c"
 446  000E  3598        	clr [24].3
 448  000F              #line 448 "C:\Users\Tech\Desktop\CODetector\sevenSegment3DigitComplex\SevenSegment3DigitComplex.c"
 448  000F              ;# 448 "C:\Users\Tech\Desktop\CODetector\sevenSegment3DigitComplex\SevenSegment3DigitComplex.c" 1
 448  000F              	IF 1000>263690
 448  000F              ;# 448 "C:\Users\Tech\Desktop\CODetector\sevenSegment3DigitComplex\SevenSegment3DigitComplex.c" 1
 448  000F              	ERRMESSAGE 'the value 1000of the argument exceeds the maxinum 263690'
 448  000F              	ENDIF
 448  000F              ;# 448 "C:\Users\Tech\Desktop\CODetector\sevenSegment3DigitComplex\SevenSegment3DigitComplex.c" 1
 448  000F              	IF 1000<0
 448  000F              ;# 448 "C:\Users\Tech\Desktop\CODetector\sevenSegment3DigitComplex\SevenSegment3DigitComplex.c" 1
 448  000F              	ERRMESSAGE 'the value 1000 of the argument exceeds the mininum 0'
 448  000F              	ENDIF
 448  000F              ;# 448 "C:\Users\Tech\Desktop\CODetector\sevenSegment3DigitComplex\SevenSegment3DigitComplex.c" 1
 448  000F              	IF 1000==0
 448  000F              ;# 448 "C:\Users\Tech\Desktop\CODetector\sevenSegment3DigitComplex\SevenSegment3DigitComplex.c" 1
 448  000F              	JMP $
 448  000F              	ENDIF
 448  000F              ;# 448 "C:\Users\Tech\Desktop\CODetector\sevenSegment3DigitComplex\SevenSegment3DigitComplex.c" 1
 448  000F              	IF 1000==1
 448  000F              ;# 448 "C:\Users\Tech\Desktop\CODetector\sevenSegment3DigitComplex\SevenSegment3DigitComplex.c" 1
 448  000F              	NOP
 448  000F              	ENDIF
"File: SevenSegment3DigitComplex.c  Assembler  Version HGASM0202      Page 49

 448  000F              ;# 448 "C:\Users\Tech\Desktop\CODetector\sevenSegment3DigitComplex\SevenSegment3DigitComplex.c" 1
 448  000F              	IF 1000==2
 448  000F              ;# 448 "C:\Users\Tech\Desktop\CODetector\sevenSegment3DigitComplex\SevenSegment3DigitComplex.c" 1
 448  000F              	NOP
 448  000F              ;# 448 "C:\Users\Tech\Desktop\CODetector\sevenSegment3DigitComplex\SevenSegment3DigitComplex.c" 1
 448  000F              	NOP
 448  000F              	ENDIF
 448  000F              ;# 448 "C:\Users\Tech\Desktop\CODetector\sevenSegment3DigitComplex\SevenSegment3DigitComplex.c" 1
 448  000F              	IF 1000==3
 448  000F              ;# 448 "C:\Users\Tech\Desktop\CODetector\sevenSegment3DigitComplex\SevenSegment3DigitComplex.c" 1
 448  000F              	NOP
 448  000F              ;# 448 "C:\Users\Tech\Desktop\CODetector\sevenSegment3DigitComplex\SevenSegment3DigitComplex.c" 1
 448  000F              	NOP
 448  000F              ;# 448 "C:\Users\Tech\Desktop\CODetector\sevenSegment3DigitComplex\SevenSegment3DigitComplex.c" 1
 448  000F              	NOP
 448  000F              	ENDIF
 448  000F              ;# 448 "C:\Users\Tech\Desktop\CODetector\sevenSegment3DigitComplex\SevenSegment3DigitComplex.c" 1
 448  000F              	IF (1000<8) AND (1000>3)
 448  000F              ;# 448 "C:\Users\Tech\Desktop\CODetector\sevenSegment3DigitComplex\SevenSegment3DigitComplex.c" 1
 448  000F              	CALL __DELAY3 + 7 -1000
 448  000F              	ENDIF
 448  000F              ;# 448 "C:\Users\Tech\Desktop\CODetector\sevenSegment3DigitComplex\SevenSegment3DigitComplex.c" 1
 448  000F              	IF (1000< 0404h) AND (1000>7)
 448  000F              ;# 448 "C:\Users\Tech\Desktop\CODetector\sevenSegment3DigitComplex\SevenSegment3DigitComplex.c" 1
 448  000F  0FF9        	MOV A,1000/4-1
 448  0010              ;# 448 "C:\Users\Tech\Desktop\CODetector\sevenSegment3DigitComplex\SevenSegment3DigitComplex.c" 1
 448  0010  2000     E  	CALL __DELAYX3 + 3 -(1000 MOD 4)
 448  0011              	ENDIF
 448  0011              ;# 448 "C:\Users\Tech\Desktop\CODetector\sevenSegment3DigitComplex\SevenSegment3DigitComplex.c" 1
 448  0011              	IF (1000< 0x40B) AND (1000> 0403h)
 448  0011              ;# 448 "C:\Users\Tech\Desktop\CODetector\sevenSegment3DigitComplex\SevenSegment3DigitComplex.c" 1
 448  0011              	MOV A,0 
 448  0011              ;# 448 "C:\Users\Tech\Desktop\CODetector\sevenSegment3DigitComplex\SevenSegment3DigitComplex.c" 1
 448  0011              	CALL __DELAYX6 + 0x40a -1000
 448  0011              	ENDIF
 448  0011              ;# 448 "C:\Users\Tech\Desktop\CODetector\sevenSegment3DigitComplex\SevenSegment3DigitComplex.c" 1
 448  0011              	IF (1000 >= 0x40b) AND ((((1000-9)%0402h)/4+1)>256)
 448  0011              ;# 448 "C:\Users\Tech\Desktop\CODetector\sevenSegment3DigitComplex\SevenSegment3DigitComplex.c" 1
 448  0011              	MOV A,(1000-9)/0402h
 448  0011              ;# 448 "C:\Users\Tech\Desktop\CODetector\sevenSegment3DigitComplex\SevenSegment3DigitComplex.c" 1
 448  0011              	MOV _builtin_holtek_delay_2,A
 448  0011              ;# 448 "C:\Users\Tech\Desktop\CODetector\sevenSegment3DigitComplex\SevenSegment3DigitComplex.c" 1
 448  0011              	MOV A,0
 448  0011              ;# 448 "C:\Users\Tech\Desktop\CODetector\sevenSegment3DigitComplex\SevenSegment3DigitComplex.c" 1
 448  0011              	CALL __DELAYY5 +5- (((1000-9)%0402h)%6)
 448  0011              	ENDIF
 448  0011              ;# 448 "C:\Users\Tech\Desktop\CODetector\sevenSegment3DigitComplex\SevenSegment3DigitComplex.c" 1
 448  0011              	IF (1000 >= 0x40b) AND ((((1000-9)%0402h)/4+1)<=256)
 448  0011              ;# 448 "C:\Users\Tech\Desktop\CODetector\sevenSegment3DigitComplex\SevenSegment3DigitComplex.c" 1
 448  0011              	MOV A,(1000-9)/0402h
 448  0011              ;# 448 "C:\Users\Tech\Desktop\CODetector\sevenSegment3DigitComplex\SevenSegment3DigitComplex.c" 1
 448  0011              	MOV _builtin_holtek_delay_2,A
 448  0011              ;# 448 "C:\Users\Tech\Desktop\CODetector\sevenSegment3DigitComplex\SevenSegment3DigitComplex.c" 1
 448  0011              	MOV A,((1000-9)%0402h)/4+1
 448  0011              ;# 448 "C:\Users\Tech\Desktop\CODetector\sevenSegment3DigitComplex\SevenSegment3DigitComplex.c" 1
 448  0011              	CALL __DELAYY3 +3-(((1000-9)%0402h)%4)
 448  0011              	ENDIF
 450  0011              #line 450 "C:\Users\Tech\Desktop\CODetector\sevenSegment3DigitComplex\SevenSegment3DigitComplex.c"
 450  0011  3119        	set [25].2
 451  0012              #line 451 "C:\Users\Tech\Desktop\CODetector\sevenSegment3DigitComplex\SevenSegment3DigitComplex.c"
"File: SevenSegment3DigitComplex.c  Assembler  Version HGASM0202      Page 50

 451  0012  3099        	set [25].1
 452  0013              #line 452 "C:\Users\Tech\Desktop\CODetector\sevenSegment3DigitComplex\SevenSegment3DigitComplex.c"
 452  0013  3215        	set [21].4
 453  0014              #line 453 "C:\Users\Tech\Desktop\CODetector\sevenSegment3DigitComplex\SevenSegment3DigitComplex.c"
 453  0014  3015        	set [21].0
 454  0015              #line 454 "C:\Users\Tech\Desktop\CODetector\sevenSegment3DigitComplex\SevenSegment3DigitComplex.c"
 454  0015  3115        	set [21].2
 455  0016              #line 455 "C:\Users\Tech\Desktop\CODetector\sevenSegment3DigitComplex\SevenSegment3DigitComplex.c"
 455  0016  3199        	set [25].3
 457  0017              #line 457 "C:\Users\Tech\Desktop\CODetector\sevenSegment3DigitComplex\SevenSegment3DigitComplex.c"
 457  0017  3615        	clr [21].4
 458  0018              #line 458 "C:\Users\Tech\Desktop\CODetector\sevenSegment3DigitComplex\SevenSegment3DigitComplex.c"
 458  0018  3415        	clr [21].0
 459  0019              #line 459 "C:\Users\Tech\Desktop\CODetector\sevenSegment3DigitComplex\SevenSegment3DigitComplex.c"
 459  0019  3599        	clr [25].3
 461  001A              #line 461 "C:\Users\Tech\Desktop\CODetector\sevenSegment3DigitComplex\SevenSegment3DigitComplex.c"
 461  001A  3214        	set [20].4
 462  001B              #line 462 "C:\Users\Tech\Desktop\CODetector\sevenSegment3DigitComplex\SevenSegment3DigitComplex.c"
 462  001B  3414        	clr [20].0
 463  001C              #line 463 "C:\Users\Tech\Desktop\CODetector\sevenSegment3DigitComplex\SevenSegment3DigitComplex.c"
 463  001C  3598        	clr [24].3
 465  001D              #line 465 "C:\Users\Tech\Desktop\CODetector\sevenSegment3DigitComplex\SevenSegment3DigitComplex.c"
 465  001D              ;# 465 "C:\Users\Tech\Desktop\CODetector\sevenSegment3DigitComplex\SevenSegment3DigitComplex.c" 1
 465  001D              	IF 1000>263690
 465  001D              ;# 465 "C:\Users\Tech\Desktop\CODetector\sevenSegment3DigitComplex\SevenSegment3DigitComplex.c" 1
 465  001D              	ERRMESSAGE 'the value 1000of the argument exceeds the maxinum 263690'
 465  001D              	ENDIF
 465  001D              ;# 465 "C:\Users\Tech\Desktop\CODetector\sevenSegment3DigitComplex\SevenSegment3DigitComplex.c" 1
 465  001D              	IF 1000<0
 465  001D              ;# 465 "C:\Users\Tech\Desktop\CODetector\sevenSegment3DigitComplex\SevenSegment3DigitComplex.c" 1
 465  001D              	ERRMESSAGE 'the value 1000 of the argument exceeds the mininum 0'
 465  001D              	ENDIF
 465  001D              ;# 465 "C:\Users\Tech\Desktop\CODetector\sevenSegment3DigitComplex\SevenSegment3DigitComplex.c" 1
 465  001D              	IF 1000==0
 465  001D              ;# 465 "C:\Users\Tech\Desktop\CODetector\sevenSegment3DigitComplex\SevenSegment3DigitComplex.c" 1
 465  001D              	JMP $
 465  001D              	ENDIF
 465  001D              ;# 465 "C:\Users\Tech\Desktop\CODetector\sevenSegment3DigitComplex\SevenSegment3DigitComplex.c" 1
 465  001D              	IF 1000==1
 465  001D              ;# 465 "C:\Users\Tech\Desktop\CODetector\sevenSegment3DigitComplex\SevenSegment3DigitComplex.c" 1
 465  001D              	NOP
 465  001D              	ENDIF
 465  001D              ;# 465 "C:\Users\Tech\Desktop\CODetector\sevenSegment3DigitComplex\SevenSegment3DigitComplex.c" 1
 465  001D              	IF 1000==2
 465  001D              ;# 465 "C:\Users\Tech\Desktop\CODetector\sevenSegment3DigitComplex\SevenSegment3DigitComplex.c" 1
 465  001D              	NOP
 465  001D              ;# 465 "C:\Users\Tech\Desktop\CODetector\sevenSegment3DigitComplex\SevenSegment3DigitComplex.c" 1
 465  001D              	NOP
 465  001D              	ENDIF
 465  001D              ;# 465 "C:\Users\Tech\Desktop\CODetector\sevenSegment3DigitComplex\SevenSegment3DigitComplex.c" 1
 465  001D              	IF 1000==3
 465  001D              ;# 465 "C:\Users\Tech\Desktop\CODetector\sevenSegment3DigitComplex\SevenSegment3DigitComplex.c" 1
 465  001D              	NOP
 465  001D              ;# 465 "C:\Users\Tech\Desktop\CODetector\sevenSegment3DigitComplex\SevenSegment3DigitComplex.c" 1
 465  001D              	NOP
 465  001D              ;# 465 "C:\Users\Tech\Desktop\CODetector\sevenSegment3DigitComplex\SevenSegment3DigitComplex.c" 1
 465  001D              	NOP
 465  001D              	ENDIF
 465  001D              ;# 465 "C:\Users\Tech\Desktop\CODetector\sevenSegment3DigitComplex\SevenSegment3DigitComplex.c" 1
 465  001D              	IF (1000<8) AND (1000>3)
"File: SevenSegment3DigitComplex.c  Assembler  Version HGASM0202      Page 51

 465  001D              ;# 465 "C:\Users\Tech\Desktop\CODetector\sevenSegment3DigitComplex\SevenSegment3DigitComplex.c" 1
 465  001D              	CALL __DELAY3 + 7 -1000
 465  001D              	ENDIF
 465  001D              ;# 465 "C:\Users\Tech\Desktop\CODetector\sevenSegment3DigitComplex\SevenSegment3DigitComplex.c" 1
 465  001D              	IF (1000< 0404h) AND (1000>7)
 465  001D              ;# 465 "C:\Users\Tech\Desktop\CODetector\sevenSegment3DigitComplex\SevenSegment3DigitComplex.c" 1
 465  001D  0FF9        	MOV A,1000/4-1
 465  001E              ;# 465 "C:\Users\Tech\Desktop\CODetector\sevenSegment3DigitComplex\SevenSegment3DigitComplex.c" 1
 465  001E  2000     E  	CALL __DELAYX3 + 3 -(1000 MOD 4)
 465  001F              	ENDIF
 465  001F              ;# 465 "C:\Users\Tech\Desktop\CODetector\sevenSegment3DigitComplex\SevenSegment3DigitComplex.c" 1
 465  001F              	IF (1000< 0x40B) AND (1000> 0403h)
 465  001F              ;# 465 "C:\Users\Tech\Desktop\CODetector\sevenSegment3DigitComplex\SevenSegment3DigitComplex.c" 1
 465  001F              	MOV A,0 
 465  001F              ;# 465 "C:\Users\Tech\Desktop\CODetector\sevenSegment3DigitComplex\SevenSegment3DigitComplex.c" 1
 465  001F              	CALL __DELAYX6 + 0x40a -1000
 465  001F              	ENDIF
 465  001F              ;# 465 "C:\Users\Tech\Desktop\CODetector\sevenSegment3DigitComplex\SevenSegment3DigitComplex.c" 1
 465  001F              	IF (1000 >= 0x40b) AND ((((1000-9)%0402h)/4+1)>256)
 465  001F              ;# 465 "C:\Users\Tech\Desktop\CODetector\sevenSegment3DigitComplex\SevenSegment3DigitComplex.c" 1
 465  001F              	MOV A,(1000-9)/0402h
 465  001F              ;# 465 "C:\Users\Tech\Desktop\CODetector\sevenSegment3DigitComplex\SevenSegment3DigitComplex.c" 1
 465  001F              	MOV _builtin_holtek_delay_2,A
 465  001F              ;# 465 "C:\Users\Tech\Desktop\CODetector\sevenSegment3DigitComplex\SevenSegment3DigitComplex.c" 1
 465  001F              	MOV A,0
 465  001F              ;# 465 "C:\Users\Tech\Desktop\CODetector\sevenSegment3DigitComplex\SevenSegment3DigitComplex.c" 1
 465  001F              	CALL __DELAYY5 +5- (((1000-9)%0402h)%6)
 465  001F              	ENDIF
 465  001F              ;# 465 "C:\Users\Tech\Desktop\CODetector\sevenSegment3DigitComplex\SevenSegment3DigitComplex.c" 1
 465  001F              	IF (1000 >= 0x40b) AND ((((1000-9)%0402h)/4+1)<=256)
 465  001F              ;# 465 "C:\Users\Tech\Desktop\CODetector\sevenSegment3DigitComplex\SevenSegment3DigitComplex.c" 1
 465  001F              	MOV A,(1000-9)/0402h
 465  001F              ;# 465 "C:\Users\Tech\Desktop\CODetector\sevenSegment3DigitComplex\SevenSegment3DigitComplex.c" 1
 465  001F              	MOV _builtin_holtek_delay_2,A
 465  001F              ;# 465 "C:\Users\Tech\Desktop\CODetector\sevenSegment3DigitComplex\SevenSegment3DigitComplex.c" 1
 465  001F              	MOV A,((1000-9)%0402h)/4+1
 465  001F              ;# 465 "C:\Users\Tech\Desktop\CODetector\sevenSegment3DigitComplex\SevenSegment3DigitComplex.c" 1
 465  001F              	CALL __DELAYY3 +3-(((1000-9)%0402h)%4)
 465  001F              	ENDIF
 465  001F  0003        	ret
 465  0020              _towDigit3 endp
 465  0020              #line 465 "C:\Users\Tech\Desktop\CODetector\sevenSegment3DigitComplex\SevenSegment3DigitComplex.c"
 465  0020              #pragma debug scope 1 1
 465  0020              public _threeDigit1
 465  0020              #pragma debug scope 13 1
 469  0020              #line 469 "C:\Users\Tech\Desktop\CODetector\sevenSegment3DigitComplex\SevenSegment3DigitComplex.c"
 469  0000              _threeDigit1 .section 'code'
 469  0000              _threeDigit1 proc
 470  0000              #line 470 "C:\Users\Tech\Desktop\CODetector\sevenSegment3DigitComplex\SevenSegment3DigitComplex.c"
 470  0000  3119        	set [25].2
 471  0001              #line 471 "C:\Users\Tech\Desktop\CODetector\sevenSegment3DigitComplex\SevenSegment3DigitComplex.c"
 471  0001  3099        	set [25].1
 472  0002              #line 472 "C:\Users\Tech\Desktop\CODetector\sevenSegment3DigitComplex\SevenSegment3DigitComplex.c"
 472  0002  3215        	set [21].4
 473  0003              #line 473 "C:\Users\Tech\Desktop\CODetector\sevenSegment3DigitComplex\SevenSegment3DigitComplex.c"
 473  0003  3015        	set [21].0
 474  0004              #line 474 "C:\Users\Tech\Desktop\CODetector\sevenSegment3DigitComplex\SevenSegment3DigitComplex.c"
 474  0004  3115        	set [21].2
 475  0005              #line 475 "C:\Users\Tech\Desktop\CODetector\sevenSegment3DigitComplex\SevenSegment3DigitComplex.c"
 475  0005  3199        	set [25].3
"File: SevenSegment3DigitComplex.c  Assembler  Version HGASM0202      Page 52

 478  0006              #line 478 "C:\Users\Tech\Desktop\CODetector\sevenSegment3DigitComplex\SevenSegment3DigitComplex.c"
 478  0006  3499        	clr [25].1
 479  0007              #line 479 "C:\Users\Tech\Desktop\CODetector\sevenSegment3DigitComplex\SevenSegment3DigitComplex.c"
 479  0007  3519        	clr [25].2
 480  0008              #line 480 "C:\Users\Tech\Desktop\CODetector\sevenSegment3DigitComplex\SevenSegment3DigitComplex.c"
 480  0008  3615        	clr [21].4
 481  0009              #line 481 "C:\Users\Tech\Desktop\CODetector\sevenSegment3DigitComplex\SevenSegment3DigitComplex.c"
 481  0009  3415        	clr [21].0
 482  000A              #line 482 "C:\Users\Tech\Desktop\CODetector\sevenSegment3DigitComplex\SevenSegment3DigitComplex.c"
 482  000A  3515        	clr [21].2
 483  000B              #line 483 "C:\Users\Tech\Desktop\CODetector\sevenSegment3DigitComplex\SevenSegment3DigitComplex.c"
 483  000B  3518        	clr [24].2
 484  000C              #line 484 "C:\Users\Tech\Desktop\CODetector\sevenSegment3DigitComplex\SevenSegment3DigitComplex.c"
 484  000C  3098        	set [24].1
 485  000D              #line 485 "C:\Users\Tech\Desktop\CODetector\sevenSegment3DigitComplex\SevenSegment3DigitComplex.c"
 485  000D  3214        	set [20].4
 486  000E              #line 486 "C:\Users\Tech\Desktop\CODetector\sevenSegment3DigitComplex\SevenSegment3DigitComplex.c"
 486  000E  3014        	set [20].0
 487  000F              #line 487 "C:\Users\Tech\Desktop\CODetector\sevenSegment3DigitComplex\SevenSegment3DigitComplex.c"
 487  000F  3114        	set [20].2
 489  0010              #line 489 "C:\Users\Tech\Desktop\CODetector\sevenSegment3DigitComplex\SevenSegment3DigitComplex.c"
 489  0010              ;# 489 "C:\Users\Tech\Desktop\CODetector\sevenSegment3DigitComplex\SevenSegment3DigitComplex.c" 1
 489  0010              	IF 1000>263690
 489  0010              ;# 489 "C:\Users\Tech\Desktop\CODetector\sevenSegment3DigitComplex\SevenSegment3DigitComplex.c" 1
 489  0010              	ERRMESSAGE 'the value 1000of the argument exceeds the maxinum 263690'
 489  0010              	ENDIF
 489  0010              ;# 489 "C:\Users\Tech\Desktop\CODetector\sevenSegment3DigitComplex\SevenSegment3DigitComplex.c" 1
 489  0010              	IF 1000<0
 489  0010              ;# 489 "C:\Users\Tech\Desktop\CODetector\sevenSegment3DigitComplex\SevenSegment3DigitComplex.c" 1
 489  0010              	ERRMESSAGE 'the value 1000 of the argument exceeds the mininum 0'
 489  0010              	ENDIF
 489  0010              ;# 489 "C:\Users\Tech\Desktop\CODetector\sevenSegment3DigitComplex\SevenSegment3DigitComplex.c" 1
 489  0010              	IF 1000==0
 489  0010              ;# 489 "C:\Users\Tech\Desktop\CODetector\sevenSegment3DigitComplex\SevenSegment3DigitComplex.c" 1
 489  0010              	JMP $
 489  0010              	ENDIF
 489  0010              ;# 489 "C:\Users\Tech\Desktop\CODetector\sevenSegment3DigitComplex\SevenSegment3DigitComplex.c" 1
 489  0010              	IF 1000==1
 489  0010              ;# 489 "C:\Users\Tech\Desktop\CODetector\sevenSegment3DigitComplex\SevenSegment3DigitComplex.c" 1
 489  0010              	NOP
 489  0010              	ENDIF
 489  0010              ;# 489 "C:\Users\Tech\Desktop\CODetector\sevenSegment3DigitComplex\SevenSegment3DigitComplex.c" 1
 489  0010              	IF 1000==2
 489  0010              ;# 489 "C:\Users\Tech\Desktop\CODetector\sevenSegment3DigitComplex\SevenSegment3DigitComplex.c" 1
 489  0010              	NOP
 489  0010              ;# 489 "C:\Users\Tech\Desktop\CODetector\sevenSegment3DigitComplex\SevenSegment3DigitComplex.c" 1
 489  0010              	NOP
 489  0010              	ENDIF
 489  0010              ;# 489 "C:\Users\Tech\Desktop\CODetector\sevenSegment3DigitComplex\SevenSegment3DigitComplex.c" 1
 489  0010              	IF 1000==3
 489  0010              ;# 489 "C:\Users\Tech\Desktop\CODetector\sevenSegment3DigitComplex\SevenSegment3DigitComplex.c" 1
 489  0010              	NOP
 489  0010              ;# 489 "C:\Users\Tech\Desktop\CODetector\sevenSegment3DigitComplex\SevenSegment3DigitComplex.c" 1
 489  0010              	NOP
 489  0010              ;# 489 "C:\Users\Tech\Desktop\CODetector\sevenSegment3DigitComplex\SevenSegment3DigitComplex.c" 1
 489  0010              	NOP
 489  0010              	ENDIF
 489  0010              ;# 489 "C:\Users\Tech\Desktop\CODetector\sevenSegment3DigitComplex\SevenSegment3DigitComplex.c" 1
 489  0010              	IF (1000<8) AND (1000>3)
 489  0010              ;# 489 "C:\Users\Tech\Desktop\CODetector\sevenSegment3DigitComplex\SevenSegment3DigitComplex.c" 1
"File: SevenSegment3DigitComplex.c  Assembler  Version HGASM0202      Page 53

 489  0010              	CALL __DELAY3 + 7 -1000
 489  0010              	ENDIF
 489  0010              ;# 489 "C:\Users\Tech\Desktop\CODetector\sevenSegment3DigitComplex\SevenSegment3DigitComplex.c" 1
 489  0010              	IF (1000< 0404h) AND (1000>7)
 489  0010              ;# 489 "C:\Users\Tech\Desktop\CODetector\sevenSegment3DigitComplex\SevenSegment3DigitComplex.c" 1
 489  0010  0FF9        	MOV A,1000/4-1
 489  0011              ;# 489 "C:\Users\Tech\Desktop\CODetector\sevenSegment3DigitComplex\SevenSegment3DigitComplex.c" 1
 489  0011  2000     E  	CALL __DELAYX3 + 3 -(1000 MOD 4)
 489  0012              	ENDIF
 489  0012              ;# 489 "C:\Users\Tech\Desktop\CODetector\sevenSegment3DigitComplex\SevenSegment3DigitComplex.c" 1
 489  0012              	IF (1000< 0x40B) AND (1000> 0403h)
 489  0012              ;# 489 "C:\Users\Tech\Desktop\CODetector\sevenSegment3DigitComplex\SevenSegment3DigitComplex.c" 1
 489  0012              	MOV A,0 
 489  0012              ;# 489 "C:\Users\Tech\Desktop\CODetector\sevenSegment3DigitComplex\SevenSegment3DigitComplex.c" 1
 489  0012              	CALL __DELAYX6 + 0x40a -1000
 489  0012              	ENDIF
 489  0012              ;# 489 "C:\Users\Tech\Desktop\CODetector\sevenSegment3DigitComplex\SevenSegment3DigitComplex.c" 1
 489  0012              	IF (1000 >= 0x40b) AND ((((1000-9)%0402h)/4+1)>256)
 489  0012              ;# 489 "C:\Users\Tech\Desktop\CODetector\sevenSegment3DigitComplex\SevenSegment3DigitComplex.c" 1
 489  0012              	MOV A,(1000-9)/0402h
 489  0012              ;# 489 "C:\Users\Tech\Desktop\CODetector\sevenSegment3DigitComplex\SevenSegment3DigitComplex.c" 1
 489  0012              	MOV _builtin_holtek_delay_2,A
 489  0012              ;# 489 "C:\Users\Tech\Desktop\CODetector\sevenSegment3DigitComplex\SevenSegment3DigitComplex.c" 1
 489  0012              	MOV A,0
 489  0012              ;# 489 "C:\Users\Tech\Desktop\CODetector\sevenSegment3DigitComplex\SevenSegment3DigitComplex.c" 1
 489  0012              	CALL __DELAYY5 +5- (((1000-9)%0402h)%6)
 489  0012              	ENDIF
 489  0012              ;# 489 "C:\Users\Tech\Desktop\CODetector\sevenSegment3DigitComplex\SevenSegment3DigitComplex.c" 1
 489  0012              	IF (1000 >= 0x40b) AND ((((1000-9)%0402h)/4+1)<=256)
 489  0012              ;# 489 "C:\Users\Tech\Desktop\CODetector\sevenSegment3DigitComplex\SevenSegment3DigitComplex.c" 1
 489  0012              	MOV A,(1000-9)/0402h
 489  0012              ;# 489 "C:\Users\Tech\Desktop\CODetector\sevenSegment3DigitComplex\SevenSegment3DigitComplex.c" 1
 489  0012              	MOV _builtin_holtek_delay_2,A
 489  0012              ;# 489 "C:\Users\Tech\Desktop\CODetector\sevenSegment3DigitComplex\SevenSegment3DigitComplex.c" 1
 489  0012              	MOV A,((1000-9)%0402h)/4+1
 489  0012              ;# 489 "C:\Users\Tech\Desktop\CODetector\sevenSegment3DigitComplex\SevenSegment3DigitComplex.c" 1
 489  0012              	CALL __DELAYY3 +3-(((1000-9)%0402h)%4)
 489  0012              	ENDIF
 490  0012              #line 490 "C:\Users\Tech\Desktop\CODetector\sevenSegment3DigitComplex\SevenSegment3DigitComplex.c"
 490  0012  3119        	set [25].2
 491  0013              #line 491 "C:\Users\Tech\Desktop\CODetector\sevenSegment3DigitComplex\SevenSegment3DigitComplex.c"
 491  0013  3099        	set [25].1
 492  0014              #line 492 "C:\Users\Tech\Desktop\CODetector\sevenSegment3DigitComplex\SevenSegment3DigitComplex.c"
 492  0014  3215        	set [21].4
 493  0015              #line 493 "C:\Users\Tech\Desktop\CODetector\sevenSegment3DigitComplex\SevenSegment3DigitComplex.c"
 493  0015  3015        	set [21].0
 494  0016              #line 494 "C:\Users\Tech\Desktop\CODetector\sevenSegment3DigitComplex\SevenSegment3DigitComplex.c"
 494  0016  3115        	set [21].2
 495  0017              #line 495 "C:\Users\Tech\Desktop\CODetector\sevenSegment3DigitComplex\SevenSegment3DigitComplex.c"
 495  0017  3199        	set [25].3
 497  0018              #line 497 "C:\Users\Tech\Desktop\CODetector\sevenSegment3DigitComplex\SevenSegment3DigitComplex.c"
 497  0018  3119        	set [25].2
 498  0019              #line 498 "C:\Users\Tech\Desktop\CODetector\sevenSegment3DigitComplex\SevenSegment3DigitComplex.c"
 498  0019  3499        	clr [25].1
 499  001A              #line 499 "C:\Users\Tech\Desktop\CODetector\sevenSegment3DigitComplex\SevenSegment3DigitComplex.c"
 499  001A  3215        	set [21].4
 500  001B              #line 500 "C:\Users\Tech\Desktop\CODetector\sevenSegment3DigitComplex\SevenSegment3DigitComplex.c"
 500  001B  3415        	clr [21].0
 501  001C              #line 501 "C:\Users\Tech\Desktop\CODetector\sevenSegment3DigitComplex\SevenSegment3DigitComplex.c"
 501  001C  3115        	set [21].2
"File: SevenSegment3DigitComplex.c  Assembler  Version HGASM0202      Page 54

 502  001D              #line 502 "C:\Users\Tech\Desktop\CODetector\sevenSegment3DigitComplex\SevenSegment3DigitComplex.c"
 502  001D  3199        	set [25].3
 503  001E              #line 503 "C:\Users\Tech\Desktop\CODetector\sevenSegment3DigitComplex\SevenSegment3DigitComplex.c"
 503  001E  3014        	set [20].0
 504  001F              #line 504 "C:\Users\Tech\Desktop\CODetector\sevenSegment3DigitComplex\SevenSegment3DigitComplex.c"
 504  001F  3498        	clr [24].1
 505  0020              #line 505 "C:\Users\Tech\Desktop\CODetector\sevenSegment3DigitComplex\SevenSegment3DigitComplex.c"
 505  0020              ;# 505 "C:\Users\Tech\Desktop\CODetector\sevenSegment3DigitComplex\SevenSegment3DigitComplex.c" 1
 505  0020              	IF 1000>263690
 505  0020              ;# 505 "C:\Users\Tech\Desktop\CODetector\sevenSegment3DigitComplex\SevenSegment3DigitComplex.c" 1
 505  0020              	ERRMESSAGE 'the value 1000of the argument exceeds the maxinum 263690'
 505  0020              	ENDIF
 505  0020              ;# 505 "C:\Users\Tech\Desktop\CODetector\sevenSegment3DigitComplex\SevenSegment3DigitComplex.c" 1
 505  0020              	IF 1000<0
 505  0020              ;# 505 "C:\Users\Tech\Desktop\CODetector\sevenSegment3DigitComplex\SevenSegment3DigitComplex.c" 1
 505  0020              	ERRMESSAGE 'the value 1000 of the argument exceeds the mininum 0'
 505  0020              	ENDIF
 505  0020              ;# 505 "C:\Users\Tech\Desktop\CODetector\sevenSegment3DigitComplex\SevenSegment3DigitComplex.c" 1
 505  0020              	IF 1000==0
 505  0020              ;# 505 "C:\Users\Tech\Desktop\CODetector\sevenSegment3DigitComplex\SevenSegment3DigitComplex.c" 1
 505  0020              	JMP $
 505  0020              	ENDIF
 505  0020              ;# 505 "C:\Users\Tech\Desktop\CODetector\sevenSegment3DigitComplex\SevenSegment3DigitComplex.c" 1
 505  0020              	IF 1000==1
 505  0020              ;# 505 "C:\Users\Tech\Desktop\CODetector\sevenSegment3DigitComplex\SevenSegment3DigitComplex.c" 1
 505  0020              	NOP
 505  0020              	ENDIF
 505  0020              ;# 505 "C:\Users\Tech\Desktop\CODetector\sevenSegment3DigitComplex\SevenSegment3DigitComplex.c" 1
 505  0020              	IF 1000==2
 505  0020              ;# 505 "C:\Users\Tech\Desktop\CODetector\sevenSegment3DigitComplex\SevenSegment3DigitComplex.c" 1
 505  0020              	NOP
 505  0020              ;# 505 "C:\Users\Tech\Desktop\CODetector\sevenSegment3DigitComplex\SevenSegment3DigitComplex.c" 1
 505  0020              	NOP
 505  0020              	ENDIF
 505  0020              ;# 505 "C:\Users\Tech\Desktop\CODetector\sevenSegment3DigitComplex\SevenSegment3DigitComplex.c" 1
 505  0020              	IF 1000==3
 505  0020              ;# 505 "C:\Users\Tech\Desktop\CODetector\sevenSegment3DigitComplex\SevenSegment3DigitComplex.c" 1
 505  0020              	NOP
 505  0020              ;# 505 "C:\Users\Tech\Desktop\CODetector\sevenSegment3DigitComplex\SevenSegment3DigitComplex.c" 1
 505  0020              	NOP
 505  0020              ;# 505 "C:\Users\Tech\Desktop\CODetector\sevenSegment3DigitComplex\SevenSegment3DigitComplex.c" 1
 505  0020              	NOP
 505  0020              	ENDIF
 505  0020              ;# 505 "C:\Users\Tech\Desktop\CODetector\sevenSegment3DigitComplex\SevenSegment3DigitComplex.c" 1
 505  0020              	IF (1000<8) AND (1000>3)
 505  0020              ;# 505 "C:\Users\Tech\Desktop\CODetector\sevenSegment3DigitComplex\SevenSegment3DigitComplex.c" 1
 505  0020              	CALL __DELAY3 + 7 -1000
 505  0020              	ENDIF
 505  0020              ;# 505 "C:\Users\Tech\Desktop\CODetector\sevenSegment3DigitComplex\SevenSegment3DigitComplex.c" 1
 505  0020              	IF (1000< 0404h) AND (1000>7)
 505  0020              ;# 505 "C:\Users\Tech\Desktop\CODetector\sevenSegment3DigitComplex\SevenSegment3DigitComplex.c" 1
 505  0020  0FF9        	MOV A,1000/4-1
 505  0021              ;# 505 "C:\Users\Tech\Desktop\CODetector\sevenSegment3DigitComplex\SevenSegment3DigitComplex.c" 1
 505  0021  2000     E  	CALL __DELAYX3 + 3 -(1000 MOD 4)
 505  0022              	ENDIF
 505  0022              ;# 505 "C:\Users\Tech\Desktop\CODetector\sevenSegment3DigitComplex\SevenSegment3DigitComplex.c" 1
 505  0022              	IF (1000< 0x40B) AND (1000> 0403h)
 505  0022              ;# 505 "C:\Users\Tech\Desktop\CODetector\sevenSegment3DigitComplex\SevenSegment3DigitComplex.c" 1
 505  0022              	MOV A,0 
 505  0022              ;# 505 "C:\Users\Tech\Desktop\CODetector\sevenSegment3DigitComplex\SevenSegment3DigitComplex.c" 1
"File: SevenSegment3DigitComplex.c  Assembler  Version HGASM0202      Page 55

 505  0022              	CALL __DELAYX6 + 0x40a -1000
 505  0022              	ENDIF
 505  0022              ;# 505 "C:\Users\Tech\Desktop\CODetector\sevenSegment3DigitComplex\SevenSegment3DigitComplex.c" 1
 505  0022              	IF (1000 >= 0x40b) AND ((((1000-9)%0402h)/4+1)>256)
 505  0022              ;# 505 "C:\Users\Tech\Desktop\CODetector\sevenSegment3DigitComplex\SevenSegment3DigitComplex.c" 1
 505  0022              	MOV A,(1000-9)/0402h
 505  0022              ;# 505 "C:\Users\Tech\Desktop\CODetector\sevenSegment3DigitComplex\SevenSegment3DigitComplex.c" 1
 505  0022              	MOV _builtin_holtek_delay_2,A
 505  0022              ;# 505 "C:\Users\Tech\Desktop\CODetector\sevenSegment3DigitComplex\SevenSegment3DigitComplex.c" 1
 505  0022              	MOV A,0
 505  0022              ;# 505 "C:\Users\Tech\Desktop\CODetector\sevenSegment3DigitComplex\SevenSegment3DigitComplex.c" 1
 505  0022              	CALL __DELAYY5 +5- (((1000-9)%0402h)%6)
 505  0022              	ENDIF
 505  0022              ;# 505 "C:\Users\Tech\Desktop\CODetector\sevenSegment3DigitComplex\SevenSegment3DigitComplex.c" 1
 505  0022              	IF (1000 >= 0x40b) AND ((((1000-9)%0402h)/4+1)<=256)
 505  0022              ;# 505 "C:\Users\Tech\Desktop\CODetector\sevenSegment3DigitComplex\SevenSegment3DigitComplex.c" 1
 505  0022              	MOV A,(1000-9)/0402h
 505  0022              ;# 505 "C:\Users\Tech\Desktop\CODetector\sevenSegment3DigitComplex\SevenSegment3DigitComplex.c" 1
 505  0022              	MOV _builtin_holtek_delay_2,A
 505  0022              ;# 505 "C:\Users\Tech\Desktop\CODetector\sevenSegment3DigitComplex\SevenSegment3DigitComplex.c" 1
 505  0022              	MOV A,((1000-9)%0402h)/4+1
 505  0022              ;# 505 "C:\Users\Tech\Desktop\CODetector\sevenSegment3DigitComplex\SevenSegment3DigitComplex.c" 1
 505  0022              	CALL __DELAYY3 +3-(((1000-9)%0402h)%4)
 505  0022              	ENDIF
 505  0022  0003        	ret
 505  0023              _threeDigit1 endp
 505  0023              #line 505 "C:\Users\Tech\Desktop\CODetector\sevenSegment3DigitComplex\SevenSegment3DigitComplex.c"
 505  0023              #pragma debug scope 1 1
 505  0023              public _threeDigit2
 505  0023              #pragma debug scope 14 1
 507  0023              #line 507 "C:\Users\Tech\Desktop\CODetector\sevenSegment3DigitComplex\SevenSegment3DigitComplex.c"
 507  0000              _threeDigit2 .section 'code'
 507  0000              _threeDigit2 proc
 508  0000              #line 508 "C:\Users\Tech\Desktop\CODetector\sevenSegment3DigitComplex\SevenSegment3DigitComplex.c"
 508  0000  3119        	set [25].2
 509  0001              #line 509 "C:\Users\Tech\Desktop\CODetector\sevenSegment3DigitComplex\SevenSegment3DigitComplex.c"
 509  0001  3099        	set [25].1
 510  0002              #line 510 "C:\Users\Tech\Desktop\CODetector\sevenSegment3DigitComplex\SevenSegment3DigitComplex.c"
 510  0002  3215        	set [21].4
 511  0003              #line 511 "C:\Users\Tech\Desktop\CODetector\sevenSegment3DigitComplex\SevenSegment3DigitComplex.c"
 511  0003  3015        	set [21].0
 512  0004              #line 512 "C:\Users\Tech\Desktop\CODetector\sevenSegment3DigitComplex\SevenSegment3DigitComplex.c"
 512  0004  3115        	set [21].2
 513  0005              #line 513 "C:\Users\Tech\Desktop\CODetector\sevenSegment3DigitComplex\SevenSegment3DigitComplex.c"
 513  0005  3199        	set [25].3
 516  0006              #line 516 "C:\Users\Tech\Desktop\CODetector\sevenSegment3DigitComplex\SevenSegment3DigitComplex.c"
 516  0006  3519        	clr [25].2
 517  0007              #line 517 "C:\Users\Tech\Desktop\CODetector\sevenSegment3DigitComplex\SevenSegment3DigitComplex.c"
 517  0007  3499        	clr [25].1
 518  0008              #line 518 "C:\Users\Tech\Desktop\CODetector\sevenSegment3DigitComplex\SevenSegment3DigitComplex.c"
 518  0008  3615        	clr [21].4
 519  0009              #line 519 "C:\Users\Tech\Desktop\CODetector\sevenSegment3DigitComplex\SevenSegment3DigitComplex.c"
 519  0009  3415        	clr [21].0
 520  000A              #line 520 "C:\Users\Tech\Desktop\CODetector\sevenSegment3DigitComplex\SevenSegment3DigitComplex.c"
 520  000A  3515        	clr [21].2
 521  000B              #line 521 "C:\Users\Tech\Desktop\CODetector\sevenSegment3DigitComplex\SevenSegment3DigitComplex.c"
 521  000B  3118        	set [24].2
 522  000C              #line 522 "C:\Users\Tech\Desktop\CODetector\sevenSegment3DigitComplex\SevenSegment3DigitComplex.c"
 522  000C  3498        	clr [24].1
 523  000D              #line 523 "C:\Users\Tech\Desktop\CODetector\sevenSegment3DigitComplex\SevenSegment3DigitComplex.c"
"File: SevenSegment3DigitComplex.c  Assembler  Version HGASM0202      Page 56

 523  000D  3614        	clr [20].4
 524  000E              #line 524 "C:\Users\Tech\Desktop\CODetector\sevenSegment3DigitComplex\SevenSegment3DigitComplex.c"
 524  000E  3414        	clr [20].0
 525  000F              #line 525 "C:\Users\Tech\Desktop\CODetector\sevenSegment3DigitComplex\SevenSegment3DigitComplex.c"
 525  000F  3514        	clr [20].2
 526  0010              #line 526 "C:\Users\Tech\Desktop\CODetector\sevenSegment3DigitComplex\SevenSegment3DigitComplex.c"
 526  0010              ;# 526 "C:\Users\Tech\Desktop\CODetector\sevenSegment3DigitComplex\SevenSegment3DigitComplex.c" 1
 526  0010              	IF 1000>263690
 526  0010              ;# 526 "C:\Users\Tech\Desktop\CODetector\sevenSegment3DigitComplex\SevenSegment3DigitComplex.c" 1
 526  0010              	ERRMESSAGE 'the value 1000of the argument exceeds the maxinum 263690'
 526  0010              	ENDIF
 526  0010              ;# 526 "C:\Users\Tech\Desktop\CODetector\sevenSegment3DigitComplex\SevenSegment3DigitComplex.c" 1
 526  0010              	IF 1000<0
 526  0010              ;# 526 "C:\Users\Tech\Desktop\CODetector\sevenSegment3DigitComplex\SevenSegment3DigitComplex.c" 1
 526  0010              	ERRMESSAGE 'the value 1000 of the argument exceeds the mininum 0'
 526  0010              	ENDIF
 526  0010              ;# 526 "C:\Users\Tech\Desktop\CODetector\sevenSegment3DigitComplex\SevenSegment3DigitComplex.c" 1
 526  0010              	IF 1000==0
 526  0010              ;# 526 "C:\Users\Tech\Desktop\CODetector\sevenSegment3DigitComplex\SevenSegment3DigitComplex.c" 1
 526  0010              	JMP $
 526  0010              	ENDIF
 526  0010              ;# 526 "C:\Users\Tech\Desktop\CODetector\sevenSegment3DigitComplex\SevenSegment3DigitComplex.c" 1
 526  0010              	IF 1000==1
 526  0010              ;# 526 "C:\Users\Tech\Desktop\CODetector\sevenSegment3DigitComplex\SevenSegment3DigitComplex.c" 1
 526  0010              	NOP
 526  0010              	ENDIF
 526  0010              ;# 526 "C:\Users\Tech\Desktop\CODetector\sevenSegment3DigitComplex\SevenSegment3DigitComplex.c" 1
 526  0010              	IF 1000==2
 526  0010              ;# 526 "C:\Users\Tech\Desktop\CODetector\sevenSegment3DigitComplex\SevenSegment3DigitComplex.c" 1
 526  0010              	NOP
 526  0010              ;# 526 "C:\Users\Tech\Desktop\CODetector\sevenSegment3DigitComplex\SevenSegment3DigitComplex.c" 1
 526  0010              	NOP
 526  0010              	ENDIF
 526  0010              ;# 526 "C:\Users\Tech\Desktop\CODetector\sevenSegment3DigitComplex\SevenSegment3DigitComplex.c" 1
 526  0010              	IF 1000==3
 526  0010              ;# 526 "C:\Users\Tech\Desktop\CODetector\sevenSegment3DigitComplex\SevenSegment3DigitComplex.c" 1
 526  0010              	NOP
 526  0010              ;# 526 "C:\Users\Tech\Desktop\CODetector\sevenSegment3DigitComplex\SevenSegment3DigitComplex.c" 1
 526  0010              	NOP
 526  0010              ;# 526 "C:\Users\Tech\Desktop\CODetector\sevenSegment3DigitComplex\SevenSegment3DigitComplex.c" 1
 526  0010              	NOP
 526  0010              	ENDIF
 526  0010              ;# 526 "C:\Users\Tech\Desktop\CODetector\sevenSegment3DigitComplex\SevenSegment3DigitComplex.c" 1
 526  0010              	IF (1000<8) AND (1000>3)
 526  0010              ;# 526 "C:\Users\Tech\Desktop\CODetector\sevenSegment3DigitComplex\SevenSegment3DigitComplex.c" 1
 526  0010              	CALL __DELAY3 + 7 -1000
 526  0010              	ENDIF
 526  0010              ;# 526 "C:\Users\Tech\Desktop\CODetector\sevenSegment3DigitComplex\SevenSegment3DigitComplex.c" 1
 526  0010              	IF (1000< 0404h) AND (1000>7)
 526  0010              ;# 526 "C:\Users\Tech\Desktop\CODetector\sevenSegment3DigitComplex\SevenSegment3DigitComplex.c" 1
 526  0010  0FF9        	MOV A,1000/4-1
 526  0011              ;# 526 "C:\Users\Tech\Desktop\CODetector\sevenSegment3DigitComplex\SevenSegment3DigitComplex.c" 1
 526  0011  2000     E  	CALL __DELAYX3 + 3 -(1000 MOD 4)
 526  0012              	ENDIF
 526  0012              ;# 526 "C:\Users\Tech\Desktop\CODetector\sevenSegment3DigitComplex\SevenSegment3DigitComplex.c" 1
 526  0012              	IF (1000< 0x40B) AND (1000> 0403h)
 526  0012              ;# 526 "C:\Users\Tech\Desktop\CODetector\sevenSegment3DigitComplex\SevenSegment3DigitComplex.c" 1
 526  0012              	MOV A,0 
 526  0012              ;# 526 "C:\Users\Tech\Desktop\CODetector\sevenSegment3DigitComplex\SevenSegment3DigitComplex.c" 1
 526  0012              	CALL __DELAYX6 + 0x40a -1000
"File: SevenSegment3DigitComplex.c  Assembler  Version HGASM0202      Page 57

 526  0012              	ENDIF
 526  0012              ;# 526 "C:\Users\Tech\Desktop\CODetector\sevenSegment3DigitComplex\SevenSegment3DigitComplex.c" 1
 526  0012              	IF (1000 >= 0x40b) AND ((((1000-9)%0402h)/4+1)>256)
 526  0012              ;# 526 "C:\Users\Tech\Desktop\CODetector\sevenSegment3DigitComplex\SevenSegment3DigitComplex.c" 1
 526  0012              	MOV A,(1000-9)/0402h
 526  0012              ;# 526 "C:\Users\Tech\Desktop\CODetector\sevenSegment3DigitComplex\SevenSegment3DigitComplex.c" 1
 526  0012              	MOV _builtin_holtek_delay_2,A
 526  0012              ;# 526 "C:\Users\Tech\Desktop\CODetector\sevenSegment3DigitComplex\SevenSegment3DigitComplex.c" 1
 526  0012              	MOV A,0
 526  0012              ;# 526 "C:\Users\Tech\Desktop\CODetector\sevenSegment3DigitComplex\SevenSegment3DigitComplex.c" 1
 526  0012              	CALL __DELAYY5 +5- (((1000-9)%0402h)%6)
 526  0012              	ENDIF
 526  0012              ;# 526 "C:\Users\Tech\Desktop\CODetector\sevenSegment3DigitComplex\SevenSegment3DigitComplex.c" 1
 526  0012              	IF (1000 >= 0x40b) AND ((((1000-9)%0402h)/4+1)<=256)
 526  0012              ;# 526 "C:\Users\Tech\Desktop\CODetector\sevenSegment3DigitComplex\SevenSegment3DigitComplex.c" 1
 526  0012              	MOV A,(1000-9)/0402h
 526  0012              ;# 526 "C:\Users\Tech\Desktop\CODetector\sevenSegment3DigitComplex\SevenSegment3DigitComplex.c" 1
 526  0012              	MOV _builtin_holtek_delay_2,A
 526  0012              ;# 526 "C:\Users\Tech\Desktop\CODetector\sevenSegment3DigitComplex\SevenSegment3DigitComplex.c" 1
 526  0012              	MOV A,((1000-9)%0402h)/4+1
 526  0012              ;# 526 "C:\Users\Tech\Desktop\CODetector\sevenSegment3DigitComplex\SevenSegment3DigitComplex.c" 1
 526  0012              	CALL __DELAYY3 +3-(((1000-9)%0402h)%4)
 526  0012              	ENDIF
 527  0012              #line 527 "C:\Users\Tech\Desktop\CODetector\sevenSegment3DigitComplex\SevenSegment3DigitComplex.c"
 527  0012  3119        	set [25].2
 528  0013              #line 528 "C:\Users\Tech\Desktop\CODetector\sevenSegment3DigitComplex\SevenSegment3DigitComplex.c"
 528  0013  3099        	set [25].1
 529  0014              #line 529 "C:\Users\Tech\Desktop\CODetector\sevenSegment3DigitComplex\SevenSegment3DigitComplex.c"
 529  0014  3215        	set [21].4
 530  0015              #line 530 "C:\Users\Tech\Desktop\CODetector\sevenSegment3DigitComplex\SevenSegment3DigitComplex.c"
 530  0015  3015        	set [21].0
 531  0016              #line 531 "C:\Users\Tech\Desktop\CODetector\sevenSegment3DigitComplex\SevenSegment3DigitComplex.c"
 531  0016  3115        	set [21].2
 532  0017              #line 532 "C:\Users\Tech\Desktop\CODetector\sevenSegment3DigitComplex\SevenSegment3DigitComplex.c"
 532  0017  3199        	set [25].3
 535  0018              #line 535 "C:\Users\Tech\Desktop\CODetector\sevenSegment3DigitComplex\SevenSegment3DigitComplex.c"
 535  0018  3499        	clr [25].1
 536  0019              #line 536 "C:\Users\Tech\Desktop\CODetector\sevenSegment3DigitComplex\SevenSegment3DigitComplex.c"
 536  0019  3599        	clr [25].3
 537  001A              #line 537 "C:\Users\Tech\Desktop\CODetector\sevenSegment3DigitComplex\SevenSegment3DigitComplex.c"
 537  001A  3498        	clr [24].1
 538  001B              #line 538 "C:\Users\Tech\Desktop\CODetector\sevenSegment3DigitComplex\SevenSegment3DigitComplex.c"
 538  001B  3198        	set [24].3
 539  001C              #line 539 "C:\Users\Tech\Desktop\CODetector\sevenSegment3DigitComplex\SevenSegment3DigitComplex.c"
 539  001C              ;# 539 "C:\Users\Tech\Desktop\CODetector\sevenSegment3DigitComplex\SevenSegment3DigitComplex.c" 1
 539  001C              	IF 1000>263690
 539  001C              ;# 539 "C:\Users\Tech\Desktop\CODetector\sevenSegment3DigitComplex\SevenSegment3DigitComplex.c" 1
 539  001C              	ERRMESSAGE 'the value 1000of the argument exceeds the maxinum 263690'
 539  001C              	ENDIF
 539  001C              ;# 539 "C:\Users\Tech\Desktop\CODetector\sevenSegment3DigitComplex\SevenSegment3DigitComplex.c" 1
 539  001C              	IF 1000<0
 539  001C              ;# 539 "C:\Users\Tech\Desktop\CODetector\sevenSegment3DigitComplex\SevenSegment3DigitComplex.c" 1
 539  001C              	ERRMESSAGE 'the value 1000 of the argument exceeds the mininum 0'
 539  001C              	ENDIF
 539  001C              ;# 539 "C:\Users\Tech\Desktop\CODetector\sevenSegment3DigitComplex\SevenSegment3DigitComplex.c" 1
 539  001C              	IF 1000==0
 539  001C              ;# 539 "C:\Users\Tech\Desktop\CODetector\sevenSegment3DigitComplex\SevenSegment3DigitComplex.c" 1
 539  001C              	JMP $
 539  001C              	ENDIF
 539  001C              ;# 539 "C:\Users\Tech\Desktop\CODetector\sevenSegment3DigitComplex\SevenSegment3DigitComplex.c" 1
"File: SevenSegment3DigitComplex.c  Assembler  Version HGASM0202      Page 58

 539  001C              	IF 1000==1
 539  001C              ;# 539 "C:\Users\Tech\Desktop\CODetector\sevenSegment3DigitComplex\SevenSegment3DigitComplex.c" 1
 539  001C              	NOP
 539  001C              	ENDIF
 539  001C              ;# 539 "C:\Users\Tech\Desktop\CODetector\sevenSegment3DigitComplex\SevenSegment3DigitComplex.c" 1
 539  001C              	IF 1000==2
 539  001C              ;# 539 "C:\Users\Tech\Desktop\CODetector\sevenSegment3DigitComplex\SevenSegment3DigitComplex.c" 1
 539  001C              	NOP
 539  001C              ;# 539 "C:\Users\Tech\Desktop\CODetector\sevenSegment3DigitComplex\SevenSegment3DigitComplex.c" 1
 539  001C              	NOP
 539  001C              	ENDIF
 539  001C              ;# 539 "C:\Users\Tech\Desktop\CODetector\sevenSegment3DigitComplex\SevenSegment3DigitComplex.c" 1
 539  001C              	IF 1000==3
 539  001C              ;# 539 "C:\Users\Tech\Desktop\CODetector\sevenSegment3DigitComplex\SevenSegment3DigitComplex.c" 1
 539  001C              	NOP
 539  001C              ;# 539 "C:\Users\Tech\Desktop\CODetector\sevenSegment3DigitComplex\SevenSegment3DigitComplex.c" 1
 539  001C              	NOP
 539  001C              ;# 539 "C:\Users\Tech\Desktop\CODetector\sevenSegment3DigitComplex\SevenSegment3DigitComplex.c" 1
 539  001C              	NOP
 539  001C              	ENDIF
 539  001C              ;# 539 "C:\Users\Tech\Desktop\CODetector\sevenSegment3DigitComplex\SevenSegment3DigitComplex.c" 1
 539  001C              	IF (1000<8) AND (1000>3)
 539  001C              ;# 539 "C:\Users\Tech\Desktop\CODetector\sevenSegment3DigitComplex\SevenSegment3DigitComplex.c" 1
 539  001C              	CALL __DELAY3 + 7 -1000
 539  001C              	ENDIF
 539  001C              ;# 539 "C:\Users\Tech\Desktop\CODetector\sevenSegment3DigitComplex\SevenSegment3DigitComplex.c" 1
 539  001C              	IF (1000< 0404h) AND (1000>7)
 539  001C              ;# 539 "C:\Users\Tech\Desktop\CODetector\sevenSegment3DigitComplex\SevenSegment3DigitComplex.c" 1
 539  001C  0FF9        	MOV A,1000/4-1
 539  001D              ;# 539 "C:\Users\Tech\Desktop\CODetector\sevenSegment3DigitComplex\SevenSegment3DigitComplex.c" 1
 539  001D  2000     E  	CALL __DELAYX3 + 3 -(1000 MOD 4)
 539  001E              	ENDIF
 539  001E              ;# 539 "C:\Users\Tech\Desktop\CODetector\sevenSegment3DigitComplex\SevenSegment3DigitComplex.c" 1
 539  001E              	IF (1000< 0x40B) AND (1000> 0403h)
 539  001E              ;# 539 "C:\Users\Tech\Desktop\CODetector\sevenSegment3DigitComplex\SevenSegment3DigitComplex.c" 1
 539  001E              	MOV A,0 
 539  001E              ;# 539 "C:\Users\Tech\Desktop\CODetector\sevenSegment3DigitComplex\SevenSegment3DigitComplex.c" 1
 539  001E              	CALL __DELAYX6 + 0x40a -1000
 539  001E              	ENDIF
 539  001E              ;# 539 "C:\Users\Tech\Desktop\CODetector\sevenSegment3DigitComplex\SevenSegment3DigitComplex.c" 1
 539  001E              	IF (1000 >= 0x40b) AND ((((1000-9)%0402h)/4+1)>256)
 539  001E              ;# 539 "C:\Users\Tech\Desktop\CODetector\sevenSegment3DigitComplex\SevenSegment3DigitComplex.c" 1
 539  001E              	MOV A,(1000-9)/0402h
 539  001E              ;# 539 "C:\Users\Tech\Desktop\CODetector\sevenSegment3DigitComplex\SevenSegment3DigitComplex.c" 1
 539  001E              	MOV _builtin_holtek_delay_2,A
 539  001E              ;# 539 "C:\Users\Tech\Desktop\CODetector\sevenSegment3DigitComplex\SevenSegment3DigitComplex.c" 1
 539  001E              	MOV A,0
 539  001E              ;# 539 "C:\Users\Tech\Desktop\CODetector\sevenSegment3DigitComplex\SevenSegment3DigitComplex.c" 1
 539  001E              	CALL __DELAYY5 +5- (((1000-9)%0402h)%6)
 539  001E              	ENDIF
 539  001E              ;# 539 "C:\Users\Tech\Desktop\CODetector\sevenSegment3DigitComplex\SevenSegment3DigitComplex.c" 1
 539  001E              	IF (1000 >= 0x40b) AND ((((1000-9)%0402h)/4+1)<=256)
 539  001E              ;# 539 "C:\Users\Tech\Desktop\CODetector\sevenSegment3DigitComplex\SevenSegment3DigitComplex.c" 1
 539  001E              	MOV A,(1000-9)/0402h
 539  001E              ;# 539 "C:\Users\Tech\Desktop\CODetector\sevenSegment3DigitComplex\SevenSegment3DigitComplex.c" 1
 539  001E              	MOV _builtin_holtek_delay_2,A
 539  001E              ;# 539 "C:\Users\Tech\Desktop\CODetector\sevenSegment3DigitComplex\SevenSegment3DigitComplex.c" 1
 539  001E              	MOV A,((1000-9)%0402h)/4+1
 539  001E              ;# 539 "C:\Users\Tech\Desktop\CODetector\sevenSegment3DigitComplex\SevenSegment3DigitComplex.c" 1
 539  001E              	CALL __DELAYY3 +3-(((1000-9)%0402h)%4)
"File: SevenSegment3DigitComplex.c  Assembler  Version HGASM0202      Page 59

 539  001E              	ENDIF
 539  001E  0003        	ret
 539  001F              _threeDigit2 endp
 539  001F              #line 539 "C:\Users\Tech\Desktop\CODetector\sevenSegment3DigitComplex\SevenSegment3DigitComplex.c"
 539  001F              #pragma debug scope 1 1
 539  001F              public _threeDigit3
 539  001F              #pragma debug scope 15 1
 542  001F              #line 542 "C:\Users\Tech\Desktop\CODetector\sevenSegment3DigitComplex\SevenSegment3DigitComplex.c"
 542  0000              _threeDigit3 .section 'code'
 542  0000              _threeDigit3 proc
 543  0000              #line 543 "C:\Users\Tech\Desktop\CODetector\sevenSegment3DigitComplex\SevenSegment3DigitComplex.c"
 543  0000  3119        	set [25].2
 544  0001              #line 544 "C:\Users\Tech\Desktop\CODetector\sevenSegment3DigitComplex\SevenSegment3DigitComplex.c"
 544  0001  3099        	set [25].1
 545  0002              #line 545 "C:\Users\Tech\Desktop\CODetector\sevenSegment3DigitComplex\SevenSegment3DigitComplex.c"
 545  0002  3215        	set [21].4
 546  0003              #line 546 "C:\Users\Tech\Desktop\CODetector\sevenSegment3DigitComplex\SevenSegment3DigitComplex.c"
 546  0003  3015        	set [21].0
 547  0004              #line 547 "C:\Users\Tech\Desktop\CODetector\sevenSegment3DigitComplex\SevenSegment3DigitComplex.c"
 547  0004  3115        	set [21].2
 548  0005              #line 548 "C:\Users\Tech\Desktop\CODetector\sevenSegment3DigitComplex\SevenSegment3DigitComplex.c"
 548  0005  3199        	set [25].3
 552  0006              #line 552 "C:\Users\Tech\Desktop\CODetector\sevenSegment3DigitComplex\SevenSegment3DigitComplex.c"
 552  0006  3499        	clr [25].1
 553  0007              #line 553 "C:\Users\Tech\Desktop\CODetector\sevenSegment3DigitComplex\SevenSegment3DigitComplex.c"
 553  0007  3615        	clr [21].4
 554  0008              #line 554 "C:\Users\Tech\Desktop\CODetector\sevenSegment3DigitComplex\SevenSegment3DigitComplex.c"
 554  0008  3415        	clr [21].0
 555  0009              #line 555 "C:\Users\Tech\Desktop\CODetector\sevenSegment3DigitComplex\SevenSegment3DigitComplex.c"
 555  0009  3515        	clr [21].2
 556  000A              #line 556 "C:\Users\Tech\Desktop\CODetector\sevenSegment3DigitComplex\SevenSegment3DigitComplex.c"
 556  000A  3599        	clr [25].3
 557  000B              #line 557 "C:\Users\Tech\Desktop\CODetector\sevenSegment3DigitComplex\SevenSegment3DigitComplex.c"
 557  000B  3098        	set [24].1
 558  000C              #line 558 "C:\Users\Tech\Desktop\CODetector\sevenSegment3DigitComplex\SevenSegment3DigitComplex.c"
 558  000C  3614        	clr [20].4
 559  000D              #line 559 "C:\Users\Tech\Desktop\CODetector\sevenSegment3DigitComplex\SevenSegment3DigitComplex.c"
 559  000D  3414        	clr [20].0
 560  000E              #line 560 "C:\Users\Tech\Desktop\CODetector\sevenSegment3DigitComplex\SevenSegment3DigitComplex.c"
 560  000E  3514        	clr [20].2
 561  000F              #line 561 "C:\Users\Tech\Desktop\CODetector\sevenSegment3DigitComplex\SevenSegment3DigitComplex.c"
 561  000F  3598        	clr [24].3
 562  0010              #line 562 "C:\Users\Tech\Desktop\CODetector\sevenSegment3DigitComplex\SevenSegment3DigitComplex.c"
 562  0010              ;# 562 "C:\Users\Tech\Desktop\CODetector\sevenSegment3DigitComplex\SevenSegment3DigitComplex.c" 1
 562  0010              	IF 1000>263690
 562  0010              ;# 562 "C:\Users\Tech\Desktop\CODetector\sevenSegment3DigitComplex\SevenSegment3DigitComplex.c" 1
 562  0010              	ERRMESSAGE 'the value 1000of the argument exceeds the maxinum 263690'
 562  0010              	ENDIF
 562  0010              ;# 562 "C:\Users\Tech\Desktop\CODetector\sevenSegment3DigitComplex\SevenSegment3DigitComplex.c" 1
 562  0010              	IF 1000<0
 562  0010              ;# 562 "C:\Users\Tech\Desktop\CODetector\sevenSegment3DigitComplex\SevenSegment3DigitComplex.c" 1
 562  0010              	ERRMESSAGE 'the value 1000 of the argument exceeds the mininum 0'
 562  0010              	ENDIF
 562  0010              ;# 562 "C:\Users\Tech\Desktop\CODetector\sevenSegment3DigitComplex\SevenSegment3DigitComplex.c" 1
 562  0010              	IF 1000==0
 562  0010              ;# 562 "C:\Users\Tech\Desktop\CODetector\sevenSegment3DigitComplex\SevenSegment3DigitComplex.c" 1
 562  0010              	JMP $
 562  0010              	ENDIF
 562  0010              ;# 562 "C:\Users\Tech\Desktop\CODetector\sevenSegment3DigitComplex\SevenSegment3DigitComplex.c" 1
 562  0010              	IF 1000==1
"File: SevenSegment3DigitComplex.c  Assembler  Version HGASM0202      Page 60

 562  0010              ;# 562 "C:\Users\Tech\Desktop\CODetector\sevenSegment3DigitComplex\SevenSegment3DigitComplex.c" 1
 562  0010              	NOP
 562  0010              	ENDIF
 562  0010              ;# 562 "C:\Users\Tech\Desktop\CODetector\sevenSegment3DigitComplex\SevenSegment3DigitComplex.c" 1
 562  0010              	IF 1000==2
 562  0010              ;# 562 "C:\Users\Tech\Desktop\CODetector\sevenSegment3DigitComplex\SevenSegment3DigitComplex.c" 1
 562  0010              	NOP
 562  0010              ;# 562 "C:\Users\Tech\Desktop\CODetector\sevenSegment3DigitComplex\SevenSegment3DigitComplex.c" 1
 562  0010              	NOP
 562  0010              	ENDIF
 562  0010              ;# 562 "C:\Users\Tech\Desktop\CODetector\sevenSegment3DigitComplex\SevenSegment3DigitComplex.c" 1
 562  0010              	IF 1000==3
 562  0010              ;# 562 "C:\Users\Tech\Desktop\CODetector\sevenSegment3DigitComplex\SevenSegment3DigitComplex.c" 1
 562  0010              	NOP
 562  0010              ;# 562 "C:\Users\Tech\Desktop\CODetector\sevenSegment3DigitComplex\SevenSegment3DigitComplex.c" 1
 562  0010              	NOP
 562  0010              ;# 562 "C:\Users\Tech\Desktop\CODetector\sevenSegment3DigitComplex\SevenSegment3DigitComplex.c" 1
 562  0010              	NOP
 562  0010              	ENDIF
 562  0010              ;# 562 "C:\Users\Tech\Desktop\CODetector\sevenSegment3DigitComplex\SevenSegment3DigitComplex.c" 1
 562  0010              	IF (1000<8) AND (1000>3)
 562  0010              ;# 562 "C:\Users\Tech\Desktop\CODetector\sevenSegment3DigitComplex\SevenSegment3DigitComplex.c" 1
 562  0010              	CALL __DELAY3 + 7 -1000
 562  0010              	ENDIF
 562  0010              ;# 562 "C:\Users\Tech\Desktop\CODetector\sevenSegment3DigitComplex\SevenSegment3DigitComplex.c" 1
 562  0010              	IF (1000< 0404h) AND (1000>7)
 562  0010              ;# 562 "C:\Users\Tech\Desktop\CODetector\sevenSegment3DigitComplex\SevenSegment3DigitComplex.c" 1
 562  0010  0FF9        	MOV A,1000/4-1
 562  0011              ;# 562 "C:\Users\Tech\Desktop\CODetector\sevenSegment3DigitComplex\SevenSegment3DigitComplex.c" 1
 562  0011  2000     E  	CALL __DELAYX3 + 3 -(1000 MOD 4)
 562  0012              	ENDIF
 562  0012              ;# 562 "C:\Users\Tech\Desktop\CODetector\sevenSegment3DigitComplex\SevenSegment3DigitComplex.c" 1
 562  0012              	IF (1000< 0x40B) AND (1000> 0403h)
 562  0012              ;# 562 "C:\Users\Tech\Desktop\CODetector\sevenSegment3DigitComplex\SevenSegment3DigitComplex.c" 1
 562  0012              	MOV A,0 
 562  0012              ;# 562 "C:\Users\Tech\Desktop\CODetector\sevenSegment3DigitComplex\SevenSegment3DigitComplex.c" 1
 562  0012              	CALL __DELAYX6 + 0x40a -1000
 562  0012              	ENDIF
 562  0012              ;# 562 "C:\Users\Tech\Desktop\CODetector\sevenSegment3DigitComplex\SevenSegment3DigitComplex.c" 1
 562  0012              	IF (1000 >= 0x40b) AND ((((1000-9)%0402h)/4+1)>256)
 562  0012              ;# 562 "C:\Users\Tech\Desktop\CODetector\sevenSegment3DigitComplex\SevenSegment3DigitComplex.c" 1
 562  0012              	MOV A,(1000-9)/0402h
 562  0012              ;# 562 "C:\Users\Tech\Desktop\CODetector\sevenSegment3DigitComplex\SevenSegment3DigitComplex.c" 1
 562  0012              	MOV _builtin_holtek_delay_2,A
 562  0012              ;# 562 "C:\Users\Tech\Desktop\CODetector\sevenSegment3DigitComplex\SevenSegment3DigitComplex.c" 1
 562  0012              	MOV A,0
 562  0012              ;# 562 "C:\Users\Tech\Desktop\CODetector\sevenSegment3DigitComplex\SevenSegment3DigitComplex.c" 1
 562  0012              	CALL __DELAYY5 +5- (((1000-9)%0402h)%6)
 562  0012              	ENDIF
 562  0012              ;# 562 "C:\Users\Tech\Desktop\CODetector\sevenSegment3DigitComplex\SevenSegment3DigitComplex.c" 1
 562  0012              	IF (1000 >= 0x40b) AND ((((1000-9)%0402h)/4+1)<=256)
 562  0012              ;# 562 "C:\Users\Tech\Desktop\CODetector\sevenSegment3DigitComplex\SevenSegment3DigitComplex.c" 1
 562  0012              	MOV A,(1000-9)/0402h
 562  0012              ;# 562 "C:\Users\Tech\Desktop\CODetector\sevenSegment3DigitComplex\SevenSegment3DigitComplex.c" 1
 562  0012              	MOV _builtin_holtek_delay_2,A
 562  0012              ;# 562 "C:\Users\Tech\Desktop\CODetector\sevenSegment3DigitComplex\SevenSegment3DigitComplex.c" 1
 562  0012              	MOV A,((1000-9)%0402h)/4+1
 562  0012              ;# 562 "C:\Users\Tech\Desktop\CODetector\sevenSegment3DigitComplex\SevenSegment3DigitComplex.c" 1
 562  0012              	CALL __DELAYY3 +3-(((1000-9)%0402h)%4)
 562  0012              	ENDIF
"File: SevenSegment3DigitComplex.c  Assembler  Version HGASM0202      Page 61

 563  0012              #line 563 "C:\Users\Tech\Desktop\CODetector\sevenSegment3DigitComplex\SevenSegment3DigitComplex.c"
 563  0012  3119        	set [25].2
 564  0013              #line 564 "C:\Users\Tech\Desktop\CODetector\sevenSegment3DigitComplex\SevenSegment3DigitComplex.c"
 564  0013  3099        	set [25].1
 565  0014              #line 565 "C:\Users\Tech\Desktop\CODetector\sevenSegment3DigitComplex\SevenSegment3DigitComplex.c"
 565  0014  3215        	set [21].4
 566  0015              #line 566 "C:\Users\Tech\Desktop\CODetector\sevenSegment3DigitComplex\SevenSegment3DigitComplex.c"
 566  0015  3015        	set [21].0
 567  0016              #line 567 "C:\Users\Tech\Desktop\CODetector\sevenSegment3DigitComplex\SevenSegment3DigitComplex.c"
 567  0016  3115        	set [21].2
 568  0017              #line 568 "C:\Users\Tech\Desktop\CODetector\sevenSegment3DigitComplex\SevenSegment3DigitComplex.c"
 568  0017  3199        	set [25].3
 569  0018              #line 569 "C:\Users\Tech\Desktop\CODetector\sevenSegment3DigitComplex\SevenSegment3DigitComplex.c"
 569  0018  3615        	clr [21].4
 570  0019              #line 570 "C:\Users\Tech\Desktop\CODetector\sevenSegment3DigitComplex\SevenSegment3DigitComplex.c"
 570  0019  3599        	clr [25].3
 571  001A              #line 571 "C:\Users\Tech\Desktop\CODetector\sevenSegment3DigitComplex\SevenSegment3DigitComplex.c"
 571  001A  3214        	set [20].4
 572  001B              #line 572 "C:\Users\Tech\Desktop\CODetector\sevenSegment3DigitComplex\SevenSegment3DigitComplex.c"
 572  001B  3598        	clr [24].3
 573  001C              #line 573 "C:\Users\Tech\Desktop\CODetector\sevenSegment3DigitComplex\SevenSegment3DigitComplex.c"
 573  001C              ;# 573 "C:\Users\Tech\Desktop\CODetector\sevenSegment3DigitComplex\SevenSegment3DigitComplex.c" 1
 573  001C              	IF 1000>263690
 573  001C              ;# 573 "C:\Users\Tech\Desktop\CODetector\sevenSegment3DigitComplex\SevenSegment3DigitComplex.c" 1
 573  001C              	ERRMESSAGE 'the value 1000of the argument exceeds the maxinum 263690'
 573  001C              	ENDIF
 573  001C              ;# 573 "C:\Users\Tech\Desktop\CODetector\sevenSegment3DigitComplex\SevenSegment3DigitComplex.c" 1
 573  001C              	IF 1000<0
 573  001C              ;# 573 "C:\Users\Tech\Desktop\CODetector\sevenSegment3DigitComplex\SevenSegment3DigitComplex.c" 1
 573  001C              	ERRMESSAGE 'the value 1000 of the argument exceeds the mininum 0'
 573  001C              	ENDIF
 573  001C              ;# 573 "C:\Users\Tech\Desktop\CODetector\sevenSegment3DigitComplex\SevenSegment3DigitComplex.c" 1
 573  001C              	IF 1000==0
 573  001C              ;# 573 "C:\Users\Tech\Desktop\CODetector\sevenSegment3DigitComplex\SevenSegment3DigitComplex.c" 1
 573  001C              	JMP $
 573  001C              	ENDIF
 573  001C              ;# 573 "C:\Users\Tech\Desktop\CODetector\sevenSegment3DigitComplex\SevenSegment3DigitComplex.c" 1
 573  001C              	IF 1000==1
 573  001C              ;# 573 "C:\Users\Tech\Desktop\CODetector\sevenSegment3DigitComplex\SevenSegment3DigitComplex.c" 1
 573  001C              	NOP
 573  001C              	ENDIF
 573  001C              ;# 573 "C:\Users\Tech\Desktop\CODetector\sevenSegment3DigitComplex\SevenSegment3DigitComplex.c" 1
 573  001C              	IF 1000==2
 573  001C              ;# 573 "C:\Users\Tech\Desktop\CODetector\sevenSegment3DigitComplex\SevenSegment3DigitComplex.c" 1
 573  001C              	NOP
 573  001C              ;# 573 "C:\Users\Tech\Desktop\CODetector\sevenSegment3DigitComplex\SevenSegment3DigitComplex.c" 1
 573  001C              	NOP
 573  001C              	ENDIF
 573  001C              ;# 573 "C:\Users\Tech\Desktop\CODetector\sevenSegment3DigitComplex\SevenSegment3DigitComplex.c" 1
 573  001C              	IF 1000==3
 573  001C              ;# 573 "C:\Users\Tech\Desktop\CODetector\sevenSegment3DigitComplex\SevenSegment3DigitComplex.c" 1
 573  001C              	NOP
 573  001C              ;# 573 "C:\Users\Tech\Desktop\CODetector\sevenSegment3DigitComplex\SevenSegment3DigitComplex.c" 1
 573  001C              	NOP
 573  001C              ;# 573 "C:\Users\Tech\Desktop\CODetector\sevenSegment3DigitComplex\SevenSegment3DigitComplex.c" 1
 573  001C              	NOP
 573  001C              	ENDIF
 573  001C              ;# 573 "C:\Users\Tech\Desktop\CODetector\sevenSegment3DigitComplex\SevenSegment3DigitComplex.c" 1
 573  001C              	IF (1000<8) AND (1000>3)
 573  001C              ;# 573 "C:\Users\Tech\Desktop\CODetector\sevenSegment3DigitComplex\SevenSegment3DigitComplex.c" 1
"File: SevenSegment3DigitComplex.c  Assembler  Version HGASM0202      Page 62

 573  001C              	CALL __DELAY3 + 7 -1000
 573  001C              	ENDIF
 573  001C              ;# 573 "C:\Users\Tech\Desktop\CODetector\sevenSegment3DigitComplex\SevenSegment3DigitComplex.c" 1
 573  001C              	IF (1000< 0404h) AND (1000>7)
 573  001C              ;# 573 "C:\Users\Tech\Desktop\CODetector\sevenSegment3DigitComplex\SevenSegment3DigitComplex.c" 1
 573  001C  0FF9        	MOV A,1000/4-1
 573  001D              ;# 573 "C:\Users\Tech\Desktop\CODetector\sevenSegment3DigitComplex\SevenSegment3DigitComplex.c" 1
 573  001D  2000     E  	CALL __DELAYX3 + 3 -(1000 MOD 4)
 573  001E              	ENDIF
 573  001E              ;# 573 "C:\Users\Tech\Desktop\CODetector\sevenSegment3DigitComplex\SevenSegment3DigitComplex.c" 1
 573  001E              	IF (1000< 0x40B) AND (1000> 0403h)
 573  001E              ;# 573 "C:\Users\Tech\Desktop\CODetector\sevenSegment3DigitComplex\SevenSegment3DigitComplex.c" 1
 573  001E              	MOV A,0 
 573  001E              ;# 573 "C:\Users\Tech\Desktop\CODetector\sevenSegment3DigitComplex\SevenSegment3DigitComplex.c" 1
 573  001E              	CALL __DELAYX6 + 0x40a -1000
 573  001E              	ENDIF
 573  001E              ;# 573 "C:\Users\Tech\Desktop\CODetector\sevenSegment3DigitComplex\SevenSegment3DigitComplex.c" 1
 573  001E              	IF (1000 >= 0x40b) AND ((((1000-9)%0402h)/4+1)>256)
 573  001E              ;# 573 "C:\Users\Tech\Desktop\CODetector\sevenSegment3DigitComplex\SevenSegment3DigitComplex.c" 1
 573  001E              	MOV A,(1000-9)/0402h
 573  001E              ;# 573 "C:\Users\Tech\Desktop\CODetector\sevenSegment3DigitComplex\SevenSegment3DigitComplex.c" 1
 573  001E              	MOV _builtin_holtek_delay_2,A
 573  001E              ;# 573 "C:\Users\Tech\Desktop\CODetector\sevenSegment3DigitComplex\SevenSegment3DigitComplex.c" 1
 573  001E              	MOV A,0
 573  001E              ;# 573 "C:\Users\Tech\Desktop\CODetector\sevenSegment3DigitComplex\SevenSegment3DigitComplex.c" 1
 573  001E              	CALL __DELAYY5 +5- (((1000-9)%0402h)%6)
 573  001E              	ENDIF
 573  001E              ;# 573 "C:\Users\Tech\Desktop\CODetector\sevenSegment3DigitComplex\SevenSegment3DigitComplex.c" 1
 573  001E              	IF (1000 >= 0x40b) AND ((((1000-9)%0402h)/4+1)<=256)
 573  001E              ;# 573 "C:\Users\Tech\Desktop\CODetector\sevenSegment3DigitComplex\SevenSegment3DigitComplex.c" 1
 573  001E              	MOV A,(1000-9)/0402h
 573  001E              ;# 573 "C:\Users\Tech\Desktop\CODetector\sevenSegment3DigitComplex\SevenSegment3DigitComplex.c" 1
 573  001E              	MOV _builtin_holtek_delay_2,A
 573  001E              ;# 573 "C:\Users\Tech\Desktop\CODetector\sevenSegment3DigitComplex\SevenSegment3DigitComplex.c" 1
 573  001E              	MOV A,((1000-9)%0402h)/4+1
 573  001E              ;# 573 "C:\Users\Tech\Desktop\CODetector\sevenSegment3DigitComplex\SevenSegment3DigitComplex.c" 1
 573  001E              	CALL __DELAYY3 +3-(((1000-9)%0402h)%4)
 573  001E              	ENDIF
 573  001E  0003        	ret
 573  001F              _threeDigit3 endp
 573  001F              #line 573 "C:\Users\Tech\Desktop\CODetector\sevenSegment3DigitComplex\SevenSegment3DigitComplex.c"
 573  001F              #pragma debug scope 1 1
 573  001F              public _fourDigit1
 573  001F              #pragma debug scope 16 1
 577  001F              #line 577 "C:\Users\Tech\Desktop\CODetector\sevenSegment3DigitComplex\SevenSegment3DigitComplex.c"
 577  0000              _fourDigit1 .section 'code'
 577  0000              _fourDigit1 proc
 578  0000              #line 578 "C:\Users\Tech\Desktop\CODetector\sevenSegment3DigitComplex\SevenSegment3DigitComplex.c"
 578  0000  3119        	set [25].2
 579  0001              #line 579 "C:\Users\Tech\Desktop\CODetector\sevenSegment3DigitComplex\SevenSegment3DigitComplex.c"
 579  0001  3099        	set [25].1
 580  0002              #line 580 "C:\Users\Tech\Desktop\CODetector\sevenSegment3DigitComplex\SevenSegment3DigitComplex.c"
 580  0002  3215        	set [21].4
 581  0003              #line 581 "C:\Users\Tech\Desktop\CODetector\sevenSegment3DigitComplex\SevenSegment3DigitComplex.c"
 581  0003  3015        	set [21].0
 582  0004              #line 582 "C:\Users\Tech\Desktop\CODetector\sevenSegment3DigitComplex\SevenSegment3DigitComplex.c"
 582  0004  3115        	set [21].2
 583  0005              #line 583 "C:\Users\Tech\Desktop\CODetector\sevenSegment3DigitComplex\SevenSegment3DigitComplex.c"
 583  0005  3199        	set [25].3
 586  0006              #line 586 "C:\Users\Tech\Desktop\CODetector\sevenSegment3DigitComplex\SevenSegment3DigitComplex.c"
"File: SevenSegment3DigitComplex.c  Assembler  Version HGASM0202      Page 63

 586  0006  3519        	clr [25].2
 587  0007              #line 587 "C:\Users\Tech\Desktop\CODetector\sevenSegment3DigitComplex\SevenSegment3DigitComplex.c"
 587  0007  3615        	clr [21].4
 588  0008              #line 588 "C:\Users\Tech\Desktop\CODetector\sevenSegment3DigitComplex\SevenSegment3DigitComplex.c"
 588  0008  3415        	clr [21].0
 589  0009              #line 589 "C:\Users\Tech\Desktop\CODetector\sevenSegment3DigitComplex\SevenSegment3DigitComplex.c"
 589  0009  3518        	clr [24].2
 590  000A              #line 590 "C:\Users\Tech\Desktop\CODetector\sevenSegment3DigitComplex\SevenSegment3DigitComplex.c"
 590  000A  3214        	set [20].4
 591  000B              #line 591 "C:\Users\Tech\Desktop\CODetector\sevenSegment3DigitComplex\SevenSegment3DigitComplex.c"
 591  000B  3014        	set [20].0
 593  000C              #line 593 "C:\Users\Tech\Desktop\CODetector\sevenSegment3DigitComplex\SevenSegment3DigitComplex.c"
 593  000C              ;# 593 "C:\Users\Tech\Desktop\CODetector\sevenSegment3DigitComplex\SevenSegment3DigitComplex.c" 1
 593  000C              	IF 1000>263690
 593  000C              ;# 593 "C:\Users\Tech\Desktop\CODetector\sevenSegment3DigitComplex\SevenSegment3DigitComplex.c" 1
 593  000C              	ERRMESSAGE 'the value 1000of the argument exceeds the maxinum 263690'
 593  000C              	ENDIF
 593  000C              ;# 593 "C:\Users\Tech\Desktop\CODetector\sevenSegment3DigitComplex\SevenSegment3DigitComplex.c" 1
 593  000C              	IF 1000<0
 593  000C              ;# 593 "C:\Users\Tech\Desktop\CODetector\sevenSegment3DigitComplex\SevenSegment3DigitComplex.c" 1
 593  000C              	ERRMESSAGE 'the value 1000 of the argument exceeds the mininum 0'
 593  000C              	ENDIF
 593  000C              ;# 593 "C:\Users\Tech\Desktop\CODetector\sevenSegment3DigitComplex\SevenSegment3DigitComplex.c" 1
 593  000C              	IF 1000==0
 593  000C              ;# 593 "C:\Users\Tech\Desktop\CODetector\sevenSegment3DigitComplex\SevenSegment3DigitComplex.c" 1
 593  000C              	JMP $
 593  000C              	ENDIF
 593  000C              ;# 593 "C:\Users\Tech\Desktop\CODetector\sevenSegment3DigitComplex\SevenSegment3DigitComplex.c" 1
 593  000C              	IF 1000==1
 593  000C              ;# 593 "C:\Users\Tech\Desktop\CODetector\sevenSegment3DigitComplex\SevenSegment3DigitComplex.c" 1
 593  000C              	NOP
 593  000C              	ENDIF
 593  000C              ;# 593 "C:\Users\Tech\Desktop\CODetector\sevenSegment3DigitComplex\SevenSegment3DigitComplex.c" 1
 593  000C              	IF 1000==2
 593  000C              ;# 593 "C:\Users\Tech\Desktop\CODetector\sevenSegment3DigitComplex\SevenSegment3DigitComplex.c" 1
 593  000C              	NOP
 593  000C              ;# 593 "C:\Users\Tech\Desktop\CODetector\sevenSegment3DigitComplex\SevenSegment3DigitComplex.c" 1
 593  000C              	NOP
 593  000C              	ENDIF
 593  000C              ;# 593 "C:\Users\Tech\Desktop\CODetector\sevenSegment3DigitComplex\SevenSegment3DigitComplex.c" 1
 593  000C              	IF 1000==3
 593  000C              ;# 593 "C:\Users\Tech\Desktop\CODetector\sevenSegment3DigitComplex\SevenSegment3DigitComplex.c" 1
 593  000C              	NOP
 593  000C              ;# 593 "C:\Users\Tech\Desktop\CODetector\sevenSegment3DigitComplex\SevenSegment3DigitComplex.c" 1
 593  000C              	NOP
 593  000C              ;# 593 "C:\Users\Tech\Desktop\CODetector\sevenSegment3DigitComplex\SevenSegment3DigitComplex.c" 1
 593  000C              	NOP
 593  000C              	ENDIF
 593  000C              ;# 593 "C:\Users\Tech\Desktop\CODetector\sevenSegment3DigitComplex\SevenSegment3DigitComplex.c" 1
 593  000C              	IF (1000<8) AND (1000>3)
 593  000C              ;# 593 "C:\Users\Tech\Desktop\CODetector\sevenSegment3DigitComplex\SevenSegment3DigitComplex.c" 1
 593  000C              	CALL __DELAY3 + 7 -1000
 593  000C              	ENDIF
 593  000C              ;# 593 "C:\Users\Tech\Desktop\CODetector\sevenSegment3DigitComplex\SevenSegment3DigitComplex.c" 1
 593  000C              	IF (1000< 0404h) AND (1000>7)
 593  000C              ;# 593 "C:\Users\Tech\Desktop\CODetector\sevenSegment3DigitComplex\SevenSegment3DigitComplex.c" 1
 593  000C  0FF9        	MOV A,1000/4-1
 593  000D              ;# 593 "C:\Users\Tech\Desktop\CODetector\sevenSegment3DigitComplex\SevenSegment3DigitComplex.c" 1
 593  000D  2000     E  	CALL __DELAYX3 + 3 -(1000 MOD 4)
 593  000E              	ENDIF
"File: SevenSegment3DigitComplex.c  Assembler  Version HGASM0202      Page 64

 593  000E              ;# 593 "C:\Users\Tech\Desktop\CODetector\sevenSegment3DigitComplex\SevenSegment3DigitComplex.c" 1
 593  000E              	IF (1000< 0x40B) AND (1000> 0403h)
 593  000E              ;# 593 "C:\Users\Tech\Desktop\CODetector\sevenSegment3DigitComplex\SevenSegment3DigitComplex.c" 1
 593  000E              	MOV A,0 
 593  000E              ;# 593 "C:\Users\Tech\Desktop\CODetector\sevenSegment3DigitComplex\SevenSegment3DigitComplex.c" 1
 593  000E              	CALL __DELAYX6 + 0x40a -1000
 593  000E              	ENDIF
 593  000E              ;# 593 "C:\Users\Tech\Desktop\CODetector\sevenSegment3DigitComplex\SevenSegment3DigitComplex.c" 1
 593  000E              	IF (1000 >= 0x40b) AND ((((1000-9)%0402h)/4+1)>256)
 593  000E              ;# 593 "C:\Users\Tech\Desktop\CODetector\sevenSegment3DigitComplex\SevenSegment3DigitComplex.c" 1
 593  000E              	MOV A,(1000-9)/0402h
 593  000E              ;# 593 "C:\Users\Tech\Desktop\CODetector\sevenSegment3DigitComplex\SevenSegment3DigitComplex.c" 1
 593  000E              	MOV _builtin_holtek_delay_2,A
 593  000E              ;# 593 "C:\Users\Tech\Desktop\CODetector\sevenSegment3DigitComplex\SevenSegment3DigitComplex.c" 1
 593  000E              	MOV A,0
 593  000E              ;# 593 "C:\Users\Tech\Desktop\CODetector\sevenSegment3DigitComplex\SevenSegment3DigitComplex.c" 1
 593  000E              	CALL __DELAYY5 +5- (((1000-9)%0402h)%6)
 593  000E              	ENDIF
 593  000E              ;# 593 "C:\Users\Tech\Desktop\CODetector\sevenSegment3DigitComplex\SevenSegment3DigitComplex.c" 1
 593  000E              	IF (1000 >= 0x40b) AND ((((1000-9)%0402h)/4+1)<=256)
 593  000E              ;# 593 "C:\Users\Tech\Desktop\CODetector\sevenSegment3DigitComplex\SevenSegment3DigitComplex.c" 1
 593  000E              	MOV A,(1000-9)/0402h
 593  000E              ;# 593 "C:\Users\Tech\Desktop\CODetector\sevenSegment3DigitComplex\SevenSegment3DigitComplex.c" 1
 593  000E              	MOV _builtin_holtek_delay_2,A
 593  000E              ;# 593 "C:\Users\Tech\Desktop\CODetector\sevenSegment3DigitComplex\SevenSegment3DigitComplex.c" 1
 593  000E              	MOV A,((1000-9)%0402h)/4+1
 593  000E              ;# 593 "C:\Users\Tech\Desktop\CODetector\sevenSegment3DigitComplex\SevenSegment3DigitComplex.c" 1
 593  000E              	CALL __DELAYY3 +3-(((1000-9)%0402h)%4)
 593  000E              	ENDIF
 594  000E              #line 594 "C:\Users\Tech\Desktop\CODetector\sevenSegment3DigitComplex\SevenSegment3DigitComplex.c"
 594  000E  3119        	set [25].2
 595  000F              #line 595 "C:\Users\Tech\Desktop\CODetector\sevenSegment3DigitComplex\SevenSegment3DigitComplex.c"
 595  000F  3099        	set [25].1
 596  0010              #line 596 "C:\Users\Tech\Desktop\CODetector\sevenSegment3DigitComplex\SevenSegment3DigitComplex.c"
 596  0010  3215        	set [21].4
 597  0011              #line 597 "C:\Users\Tech\Desktop\CODetector\sevenSegment3DigitComplex\SevenSegment3DigitComplex.c"
 597  0011  3015        	set [21].0
 598  0012              #line 598 "C:\Users\Tech\Desktop\CODetector\sevenSegment3DigitComplex\SevenSegment3DigitComplex.c"
 598  0012  3115        	set [21].2
 599  0013              #line 599 "C:\Users\Tech\Desktop\CODetector\sevenSegment3DigitComplex\SevenSegment3DigitComplex.c"
 599  0013  3199        	set [25].3
 601  0014              #line 601 "C:\Users\Tech\Desktop\CODetector\sevenSegment3DigitComplex\SevenSegment3DigitComplex.c"
 601  0014  3499        	clr [25].1
 602  0015              #line 602 "C:\Users\Tech\Desktop\CODetector\sevenSegment3DigitComplex\SevenSegment3DigitComplex.c"
 602  0015  3615        	clr [21].4
 603  0016              #line 603 "C:\Users\Tech\Desktop\CODetector\sevenSegment3DigitComplex\SevenSegment3DigitComplex.c"
 603  0016  3415        	clr [21].0
 604  0017              #line 604 "C:\Users\Tech\Desktop\CODetector\sevenSegment3DigitComplex\SevenSegment3DigitComplex.c"
 604  0017  3498        	clr [24].1
 605  0018              #line 605 "C:\Users\Tech\Desktop\CODetector\sevenSegment3DigitComplex\SevenSegment3DigitComplex.c"
 605  0018  3214        	set [20].4
 606  0019              #line 606 "C:\Users\Tech\Desktop\CODetector\sevenSegment3DigitComplex\SevenSegment3DigitComplex.c"
 606  0019  3014        	set [20].0
 607  001A              #line 607 "C:\Users\Tech\Desktop\CODetector\sevenSegment3DigitComplex\SevenSegment3DigitComplex.c"
 607  001A              ;# 607 "C:\Users\Tech\Desktop\CODetector\sevenSegment3DigitComplex\SevenSegment3DigitComplex.c" 1
 607  001A              	IF 1000>263690
 607  001A              ;# 607 "C:\Users\Tech\Desktop\CODetector\sevenSegment3DigitComplex\SevenSegment3DigitComplex.c" 1
 607  001A              	ERRMESSAGE 'the value 1000of the argument exceeds the maxinum 263690'
 607  001A              	ENDIF
 607  001A              ;# 607 "C:\Users\Tech\Desktop\CODetector\sevenSegment3DigitComplex\SevenSegment3DigitComplex.c" 1
"File: SevenSegment3DigitComplex.c  Assembler  Version HGASM0202      Page 65

 607  001A              	IF 1000<0
 607  001A              ;# 607 "C:\Users\Tech\Desktop\CODetector\sevenSegment3DigitComplex\SevenSegment3DigitComplex.c" 1
 607  001A              	ERRMESSAGE 'the value 1000 of the argument exceeds the mininum 0'
 607  001A              	ENDIF
 607  001A              ;# 607 "C:\Users\Tech\Desktop\CODetector\sevenSegment3DigitComplex\SevenSegment3DigitComplex.c" 1
 607  001A              	IF 1000==0
 607  001A              ;# 607 "C:\Users\Tech\Desktop\CODetector\sevenSegment3DigitComplex\SevenSegment3DigitComplex.c" 1
 607  001A              	JMP $
 607  001A              	ENDIF
 607  001A              ;# 607 "C:\Users\Tech\Desktop\CODetector\sevenSegment3DigitComplex\SevenSegment3DigitComplex.c" 1
 607  001A              	IF 1000==1
 607  001A              ;# 607 "C:\Users\Tech\Desktop\CODetector\sevenSegment3DigitComplex\SevenSegment3DigitComplex.c" 1
 607  001A              	NOP
 607  001A              	ENDIF
 607  001A              ;# 607 "C:\Users\Tech\Desktop\CODetector\sevenSegment3DigitComplex\SevenSegment3DigitComplex.c" 1
 607  001A              	IF 1000==2
 607  001A              ;# 607 "C:\Users\Tech\Desktop\CODetector\sevenSegment3DigitComplex\SevenSegment3DigitComplex.c" 1
 607  001A              	NOP
 607  001A              ;# 607 "C:\Users\Tech\Desktop\CODetector\sevenSegment3DigitComplex\SevenSegment3DigitComplex.c" 1
 607  001A              	NOP
 607  001A              	ENDIF
 607  001A              ;# 607 "C:\Users\Tech\Desktop\CODetector\sevenSegment3DigitComplex\SevenSegment3DigitComplex.c" 1
 607  001A              	IF 1000==3
 607  001A              ;# 607 "C:\Users\Tech\Desktop\CODetector\sevenSegment3DigitComplex\SevenSegment3DigitComplex.c" 1
 607  001A              	NOP
 607  001A              ;# 607 "C:\Users\Tech\Desktop\CODetector\sevenSegment3DigitComplex\SevenSegment3DigitComplex.c" 1
 607  001A              	NOP
 607  001A              ;# 607 "C:\Users\Tech\Desktop\CODetector\sevenSegment3DigitComplex\SevenSegment3DigitComplex.c" 1
 607  001A              	NOP
 607  001A              	ENDIF
 607  001A              ;# 607 "C:\Users\Tech\Desktop\CODetector\sevenSegment3DigitComplex\SevenSegment3DigitComplex.c" 1
 607  001A              	IF (1000<8) AND (1000>3)
 607  001A              ;# 607 "C:\Users\Tech\Desktop\CODetector\sevenSegment3DigitComplex\SevenSegment3DigitComplex.c" 1
 607  001A              	CALL __DELAY3 + 7 -1000
 607  001A              	ENDIF
 607  001A              ;# 607 "C:\Users\Tech\Desktop\CODetector\sevenSegment3DigitComplex\SevenSegment3DigitComplex.c" 1
 607  001A              	IF (1000< 0404h) AND (1000>7)
 607  001A              ;# 607 "C:\Users\Tech\Desktop\CODetector\sevenSegment3DigitComplex\SevenSegment3DigitComplex.c" 1
 607  001A  0FF9        	MOV A,1000/4-1
 607  001B              ;# 607 "C:\Users\Tech\Desktop\CODetector\sevenSegment3DigitComplex\SevenSegment3DigitComplex.c" 1
 607  001B  2000     E  	CALL __DELAYX3 + 3 -(1000 MOD 4)
 607  001C              	ENDIF
 607  001C              ;# 607 "C:\Users\Tech\Desktop\CODetector\sevenSegment3DigitComplex\SevenSegment3DigitComplex.c" 1
 607  001C              	IF (1000< 0x40B) AND (1000> 0403h)
 607  001C              ;# 607 "C:\Users\Tech\Desktop\CODetector\sevenSegment3DigitComplex\SevenSegment3DigitComplex.c" 1
 607  001C              	MOV A,0 
 607  001C              ;# 607 "C:\Users\Tech\Desktop\CODetector\sevenSegment3DigitComplex\SevenSegment3DigitComplex.c" 1
 607  001C              	CALL __DELAYX6 + 0x40a -1000
 607  001C              	ENDIF
 607  001C              ;# 607 "C:\Users\Tech\Desktop\CODetector\sevenSegment3DigitComplex\SevenSegment3DigitComplex.c" 1
 607  001C              	IF (1000 >= 0x40b) AND ((((1000-9)%0402h)/4+1)>256)
 607  001C              ;# 607 "C:\Users\Tech\Desktop\CODetector\sevenSegment3DigitComplex\SevenSegment3DigitComplex.c" 1
 607  001C              	MOV A,(1000-9)/0402h
 607  001C              ;# 607 "C:\Users\Tech\Desktop\CODetector\sevenSegment3DigitComplex\SevenSegment3DigitComplex.c" 1
 607  001C              	MOV _builtin_holtek_delay_2,A
 607  001C              ;# 607 "C:\Users\Tech\Desktop\CODetector\sevenSegment3DigitComplex\SevenSegment3DigitComplex.c" 1
 607  001C              	MOV A,0
 607  001C              ;# 607 "C:\Users\Tech\Desktop\CODetector\sevenSegment3DigitComplex\SevenSegment3DigitComplex.c" 1
 607  001C              	CALL __DELAYY5 +5- (((1000-9)%0402h)%6)
 607  001C              	ENDIF
"File: SevenSegment3DigitComplex.c  Assembler  Version HGASM0202      Page 66

 607  001C              ;# 607 "C:\Users\Tech\Desktop\CODetector\sevenSegment3DigitComplex\SevenSegment3DigitComplex.c" 1
 607  001C              	IF (1000 >= 0x40b) AND ((((1000-9)%0402h)/4+1)<=256)
 607  001C              ;# 607 "C:\Users\Tech\Desktop\CODetector\sevenSegment3DigitComplex\SevenSegment3DigitComplex.c" 1
 607  001C              	MOV A,(1000-9)/0402h
 607  001C              ;# 607 "C:\Users\Tech\Desktop\CODetector\sevenSegment3DigitComplex\SevenSegment3DigitComplex.c" 1
 607  001C              	MOV _builtin_holtek_delay_2,A
 607  001C              ;# 607 "C:\Users\Tech\Desktop\CODetector\sevenSegment3DigitComplex\SevenSegment3DigitComplex.c" 1
 607  001C              	MOV A,((1000-9)%0402h)/4+1
 607  001C              ;# 607 "C:\Users\Tech\Desktop\CODetector\sevenSegment3DigitComplex\SevenSegment3DigitComplex.c" 1
 607  001C              	CALL __DELAYY3 +3-(((1000-9)%0402h)%4)
 607  001C              	ENDIF
 607  001C  0003        	ret
 607  001D              _fourDigit1 endp
 607  001D              #line 607 "C:\Users\Tech\Desktop\CODetector\sevenSegment3DigitComplex\SevenSegment3DigitComplex.c"
 607  001D              #pragma debug scope 1 1
 607  001D              public _fourDigit2
 607  001D              #pragma debug scope 17 1
 610  001D              #line 610 "C:\Users\Tech\Desktop\CODetector\sevenSegment3DigitComplex\SevenSegment3DigitComplex.c"
 610  0000              _fourDigit2 .section 'code'
 610  0000              _fourDigit2 proc
 611  0000              #line 611 "C:\Users\Tech\Desktop\CODetector\sevenSegment3DigitComplex\SevenSegment3DigitComplex.c"
 611  0000  3119        	set [25].2
 612  0001              #line 612 "C:\Users\Tech\Desktop\CODetector\sevenSegment3DigitComplex\SevenSegment3DigitComplex.c"
 612  0001  3099        	set [25].1
 613  0002              #line 613 "C:\Users\Tech\Desktop\CODetector\sevenSegment3DigitComplex\SevenSegment3DigitComplex.c"
 613  0002  3215        	set [21].4
 614  0003              #line 614 "C:\Users\Tech\Desktop\CODetector\sevenSegment3DigitComplex\SevenSegment3DigitComplex.c"
 614  0003  3015        	set [21].0
 615  0004              #line 615 "C:\Users\Tech\Desktop\CODetector\sevenSegment3DigitComplex\SevenSegment3DigitComplex.c"
 615  0004  3115        	set [21].2
 616  0005              #line 616 "C:\Users\Tech\Desktop\CODetector\sevenSegment3DigitComplex\SevenSegment3DigitComplex.c"
 616  0005  3199        	set [25].3
 619  0006              #line 619 "C:\Users\Tech\Desktop\CODetector\sevenSegment3DigitComplex\SevenSegment3DigitComplex.c"
 619  0006  3519        	clr [25].2
 620  0007              #line 620 "C:\Users\Tech\Desktop\CODetector\sevenSegment3DigitComplex\SevenSegment3DigitComplex.c"
 620  0007  3615        	clr [21].4
 621  0008              #line 621 "C:\Users\Tech\Desktop\CODetector\sevenSegment3DigitComplex\SevenSegment3DigitComplex.c"
 621  0008  3415        	clr [21].0
 622  0009              #line 622 "C:\Users\Tech\Desktop\CODetector\sevenSegment3DigitComplex\SevenSegment3DigitComplex.c"
 622  0009  3118        	set [24].2
 623  000A              #line 623 "C:\Users\Tech\Desktop\CODetector\sevenSegment3DigitComplex\SevenSegment3DigitComplex.c"
 623  000A  3614        	clr [20].4
 624  000B              #line 624 "C:\Users\Tech\Desktop\CODetector\sevenSegment3DigitComplex\SevenSegment3DigitComplex.c"
 624  000B  3414        	clr [20].0
 626  000C              #line 626 "C:\Users\Tech\Desktop\CODetector\sevenSegment3DigitComplex\SevenSegment3DigitComplex.c"
 626  000C              ;# 626 "C:\Users\Tech\Desktop\CODetector\sevenSegment3DigitComplex\SevenSegment3DigitComplex.c" 1
 626  000C              	IF 1000>263690
 626  000C              ;# 626 "C:\Users\Tech\Desktop\CODetector\sevenSegment3DigitComplex\SevenSegment3DigitComplex.c" 1
 626  000C              	ERRMESSAGE 'the value 1000of the argument exceeds the maxinum 263690'
 626  000C              	ENDIF
 626  000C              ;# 626 "C:\Users\Tech\Desktop\CODetector\sevenSegment3DigitComplex\SevenSegment3DigitComplex.c" 1
 626  000C              	IF 1000<0
 626  000C              ;# 626 "C:\Users\Tech\Desktop\CODetector\sevenSegment3DigitComplex\SevenSegment3DigitComplex.c" 1
 626  000C              	ERRMESSAGE 'the value 1000 of the argument exceeds the mininum 0'
 626  000C              	ENDIF
 626  000C              ;# 626 "C:\Users\Tech\Desktop\CODetector\sevenSegment3DigitComplex\SevenSegment3DigitComplex.c" 1
 626  000C              	IF 1000==0
 626  000C              ;# 626 "C:\Users\Tech\Desktop\CODetector\sevenSegment3DigitComplex\SevenSegment3DigitComplex.c" 1
 626  000C              	JMP $
 626  000C              	ENDIF
"File: SevenSegment3DigitComplex.c  Assembler  Version HGASM0202      Page 67

 626  000C              ;# 626 "C:\Users\Tech\Desktop\CODetector\sevenSegment3DigitComplex\SevenSegment3DigitComplex.c" 1
 626  000C              	IF 1000==1
 626  000C              ;# 626 "C:\Users\Tech\Desktop\CODetector\sevenSegment3DigitComplex\SevenSegment3DigitComplex.c" 1
 626  000C              	NOP
 626  000C              	ENDIF
 626  000C              ;# 626 "C:\Users\Tech\Desktop\CODetector\sevenSegment3DigitComplex\SevenSegment3DigitComplex.c" 1
 626  000C              	IF 1000==2
 626  000C              ;# 626 "C:\Users\Tech\Desktop\CODetector\sevenSegment3DigitComplex\SevenSegment3DigitComplex.c" 1
 626  000C              	NOP
 626  000C              ;# 626 "C:\Users\Tech\Desktop\CODetector\sevenSegment3DigitComplex\SevenSegment3DigitComplex.c" 1
 626  000C              	NOP
 626  000C              	ENDIF
 626  000C              ;# 626 "C:\Users\Tech\Desktop\CODetector\sevenSegment3DigitComplex\SevenSegment3DigitComplex.c" 1
 626  000C              	IF 1000==3
 626  000C              ;# 626 "C:\Users\Tech\Desktop\CODetector\sevenSegment3DigitComplex\SevenSegment3DigitComplex.c" 1
 626  000C              	NOP
 626  000C              ;# 626 "C:\Users\Tech\Desktop\CODetector\sevenSegment3DigitComplex\SevenSegment3DigitComplex.c" 1
 626  000C              	NOP
 626  000C              ;# 626 "C:\Users\Tech\Desktop\CODetector\sevenSegment3DigitComplex\SevenSegment3DigitComplex.c" 1
 626  000C              	NOP
 626  000C              	ENDIF
 626  000C              ;# 626 "C:\Users\Tech\Desktop\CODetector\sevenSegment3DigitComplex\SevenSegment3DigitComplex.c" 1
 626  000C              	IF (1000<8) AND (1000>3)
 626  000C              ;# 626 "C:\Users\Tech\Desktop\CODetector\sevenSegment3DigitComplex\SevenSegment3DigitComplex.c" 1
 626  000C              	CALL __DELAY3 + 7 -1000
 626  000C              	ENDIF
 626  000C              ;# 626 "C:\Users\Tech\Desktop\CODetector\sevenSegment3DigitComplex\SevenSegment3DigitComplex.c" 1
 626  000C              	IF (1000< 0404h) AND (1000>7)
 626  000C              ;# 626 "C:\Users\Tech\Desktop\CODetector\sevenSegment3DigitComplex\SevenSegment3DigitComplex.c" 1
 626  000C  0FF9        	MOV A,1000/4-1
 626  000D              ;# 626 "C:\Users\Tech\Desktop\CODetector\sevenSegment3DigitComplex\SevenSegment3DigitComplex.c" 1
 626  000D  2000     E  	CALL __DELAYX3 + 3 -(1000 MOD 4)
 626  000E              	ENDIF
 626  000E              ;# 626 "C:\Users\Tech\Desktop\CODetector\sevenSegment3DigitComplex\SevenSegment3DigitComplex.c" 1
 626  000E              	IF (1000< 0x40B) AND (1000> 0403h)
 626  000E              ;# 626 "C:\Users\Tech\Desktop\CODetector\sevenSegment3DigitComplex\SevenSegment3DigitComplex.c" 1
 626  000E              	MOV A,0 
 626  000E              ;# 626 "C:\Users\Tech\Desktop\CODetector\sevenSegment3DigitComplex\SevenSegment3DigitComplex.c" 1
 626  000E              	CALL __DELAYX6 + 0x40a -1000
 626  000E              	ENDIF
 626  000E              ;# 626 "C:\Users\Tech\Desktop\CODetector\sevenSegment3DigitComplex\SevenSegment3DigitComplex.c" 1
 626  000E              	IF (1000 >= 0x40b) AND ((((1000-9)%0402h)/4+1)>256)
 626  000E              ;# 626 "C:\Users\Tech\Desktop\CODetector\sevenSegment3DigitComplex\SevenSegment3DigitComplex.c" 1
 626  000E              	MOV A,(1000-9)/0402h
 626  000E              ;# 626 "C:\Users\Tech\Desktop\CODetector\sevenSegment3DigitComplex\SevenSegment3DigitComplex.c" 1
 626  000E              	MOV _builtin_holtek_delay_2,A
 626  000E              ;# 626 "C:\Users\Tech\Desktop\CODetector\sevenSegment3DigitComplex\SevenSegment3DigitComplex.c" 1
 626  000E              	MOV A,0
 626  000E              ;# 626 "C:\Users\Tech\Desktop\CODetector\sevenSegment3DigitComplex\SevenSegment3DigitComplex.c" 1
 626  000E              	CALL __DELAYY5 +5- (((1000-9)%0402h)%6)
 626  000E              	ENDIF
 626  000E              ;# 626 "C:\Users\Tech\Desktop\CODetector\sevenSegment3DigitComplex\SevenSegment3DigitComplex.c" 1
 626  000E              	IF (1000 >= 0x40b) AND ((((1000-9)%0402h)/4+1)<=256)
 626  000E              ;# 626 "C:\Users\Tech\Desktop\CODetector\sevenSegment3DigitComplex\SevenSegment3DigitComplex.c" 1
 626  000E              	MOV A,(1000-9)/0402h
 626  000E              ;# 626 "C:\Users\Tech\Desktop\CODetector\sevenSegment3DigitComplex\SevenSegment3DigitComplex.c" 1
 626  000E              	MOV _builtin_holtek_delay_2,A
 626  000E              ;# 626 "C:\Users\Tech\Desktop\CODetector\sevenSegment3DigitComplex\SevenSegment3DigitComplex.c" 1
 626  000E              	MOV A,((1000-9)%0402h)/4+1
 626  000E              ;# 626 "C:\Users\Tech\Desktop\CODetector\sevenSegment3DigitComplex\SevenSegment3DigitComplex.c" 1
"File: SevenSegment3DigitComplex.c  Assembler  Version HGASM0202      Page 68

 626  000E              	CALL __DELAYY3 +3-(((1000-9)%0402h)%4)
 626  000E              	ENDIF
 627  000E              #line 627 "C:\Users\Tech\Desktop\CODetector\sevenSegment3DigitComplex\SevenSegment3DigitComplex.c"
 627  000E  3119        	set [25].2
 628  000F              #line 628 "C:\Users\Tech\Desktop\CODetector\sevenSegment3DigitComplex\SevenSegment3DigitComplex.c"
 628  000F  3099        	set [25].1
 629  0010              #line 629 "C:\Users\Tech\Desktop\CODetector\sevenSegment3DigitComplex\SevenSegment3DigitComplex.c"
 629  0010  3215        	set [21].4
 630  0011              #line 630 "C:\Users\Tech\Desktop\CODetector\sevenSegment3DigitComplex\SevenSegment3DigitComplex.c"
 630  0011  3015        	set [21].0
 631  0012              #line 631 "C:\Users\Tech\Desktop\CODetector\sevenSegment3DigitComplex\SevenSegment3DigitComplex.c"
 631  0012  3115        	set [21].2
 632  0013              #line 632 "C:\Users\Tech\Desktop\CODetector\sevenSegment3DigitComplex\SevenSegment3DigitComplex.c"
 632  0013  3199        	set [25].3
 634  0014              #line 634 "C:\Users\Tech\Desktop\CODetector\sevenSegment3DigitComplex\SevenSegment3DigitComplex.c"
 634  0014  3499        	clr [25].1
 635  0015              #line 635 "C:\Users\Tech\Desktop\CODetector\sevenSegment3DigitComplex\SevenSegment3DigitComplex.c"
 635  0015  3515        	clr [21].2
 636  0016              #line 636 "C:\Users\Tech\Desktop\CODetector\sevenSegment3DigitComplex\SevenSegment3DigitComplex.c"
 636  0016  3599        	clr [25].3
 637  0017              #line 637 "C:\Users\Tech\Desktop\CODetector\sevenSegment3DigitComplex\SevenSegment3DigitComplex.c"
 637  0017  3498        	clr [24].1
 638  0018              #line 638 "C:\Users\Tech\Desktop\CODetector\sevenSegment3DigitComplex\SevenSegment3DigitComplex.c"
 638  0018  3114        	set [20].2
 639  0019              #line 639 "C:\Users\Tech\Desktop\CODetector\sevenSegment3DigitComplex\SevenSegment3DigitComplex.c"
 639  0019  3198        	set [24].3
 640  001A              #line 640 "C:\Users\Tech\Desktop\CODetector\sevenSegment3DigitComplex\SevenSegment3DigitComplex.c"
 640  001A              ;# 640 "C:\Users\Tech\Desktop\CODetector\sevenSegment3DigitComplex\SevenSegment3DigitComplex.c" 1
 640  001A              	IF 1000>263690
 640  001A              ;# 640 "C:\Users\Tech\Desktop\CODetector\sevenSegment3DigitComplex\SevenSegment3DigitComplex.c" 1
 640  001A              	ERRMESSAGE 'the value 1000of the argument exceeds the maxinum 263690'
 640  001A              	ENDIF
 640  001A              ;# 640 "C:\Users\Tech\Desktop\CODetector\sevenSegment3DigitComplex\SevenSegment3DigitComplex.c" 1
 640  001A              	IF 1000<0
 640  001A              ;# 640 "C:\Users\Tech\Desktop\CODetector\sevenSegment3DigitComplex\SevenSegment3DigitComplex.c" 1
 640  001A              	ERRMESSAGE 'the value 1000 of the argument exceeds the mininum 0'
 640  001A              	ENDIF
 640  001A              ;# 640 "C:\Users\Tech\Desktop\CODetector\sevenSegment3DigitComplex\SevenSegment3DigitComplex.c" 1
 640  001A              	IF 1000==0
 640  001A              ;# 640 "C:\Users\Tech\Desktop\CODetector\sevenSegment3DigitComplex\SevenSegment3DigitComplex.c" 1
 640  001A              	JMP $
 640  001A              	ENDIF
 640  001A              ;# 640 "C:\Users\Tech\Desktop\CODetector\sevenSegment3DigitComplex\SevenSegment3DigitComplex.c" 1
 640  001A              	IF 1000==1
 640  001A              ;# 640 "C:\Users\Tech\Desktop\CODetector\sevenSegment3DigitComplex\SevenSegment3DigitComplex.c" 1
 640  001A              	NOP
 640  001A              	ENDIF
 640  001A              ;# 640 "C:\Users\Tech\Desktop\CODetector\sevenSegment3DigitComplex\SevenSegment3DigitComplex.c" 1
 640  001A              	IF 1000==2
 640  001A              ;# 640 "C:\Users\Tech\Desktop\CODetector\sevenSegment3DigitComplex\SevenSegment3DigitComplex.c" 1
 640  001A              	NOP
 640  001A              ;# 640 "C:\Users\Tech\Desktop\CODetector\sevenSegment3DigitComplex\SevenSegment3DigitComplex.c" 1
 640  001A              	NOP
 640  001A              	ENDIF
 640  001A              ;# 640 "C:\Users\Tech\Desktop\CODetector\sevenSegment3DigitComplex\SevenSegment3DigitComplex.c" 1
 640  001A              	IF 1000==3
 640  001A              ;# 640 "C:\Users\Tech\Desktop\CODetector\sevenSegment3DigitComplex\SevenSegment3DigitComplex.c" 1
 640  001A              	NOP
 640  001A              ;# 640 "C:\Users\Tech\Desktop\CODetector\sevenSegment3DigitComplex\SevenSegment3DigitComplex.c" 1
 640  001A              	NOP
"File: SevenSegment3DigitComplex.c  Assembler  Version HGASM0202      Page 69

 640  001A              ;# 640 "C:\Users\Tech\Desktop\CODetector\sevenSegment3DigitComplex\SevenSegment3DigitComplex.c" 1
 640  001A              	NOP
 640  001A              	ENDIF
 640  001A              ;# 640 "C:\Users\Tech\Desktop\CODetector\sevenSegment3DigitComplex\SevenSegment3DigitComplex.c" 1
 640  001A              	IF (1000<8) AND (1000>3)
 640  001A              ;# 640 "C:\Users\Tech\Desktop\CODetector\sevenSegment3DigitComplex\SevenSegment3DigitComplex.c" 1
 640  001A              	CALL __DELAY3 + 7 -1000
 640  001A              	ENDIF
 640  001A              ;# 640 "C:\Users\Tech\Desktop\CODetector\sevenSegment3DigitComplex\SevenSegment3DigitComplex.c" 1
 640  001A              	IF (1000< 0404h) AND (1000>7)
 640  001A              ;# 640 "C:\Users\Tech\Desktop\CODetector\sevenSegment3DigitComplex\SevenSegment3DigitComplex.c" 1
 640  001A  0FF9        	MOV A,1000/4-1
 640  001B              ;# 640 "C:\Users\Tech\Desktop\CODetector\sevenSegment3DigitComplex\SevenSegment3DigitComplex.c" 1
 640  001B  2000     E  	CALL __DELAYX3 + 3 -(1000 MOD 4)
 640  001C              	ENDIF
 640  001C              ;# 640 "C:\Users\Tech\Desktop\CODetector\sevenSegment3DigitComplex\SevenSegment3DigitComplex.c" 1
 640  001C              	IF (1000< 0x40B) AND (1000> 0403h)
 640  001C              ;# 640 "C:\Users\Tech\Desktop\CODetector\sevenSegment3DigitComplex\SevenSegment3DigitComplex.c" 1
 640  001C              	MOV A,0 
 640  001C              ;# 640 "C:\Users\Tech\Desktop\CODetector\sevenSegment3DigitComplex\SevenSegment3DigitComplex.c" 1
 640  001C              	CALL __DELAYX6 + 0x40a -1000
 640  001C              	ENDIF
 640  001C              ;# 640 "C:\Users\Tech\Desktop\CODetector\sevenSegment3DigitComplex\SevenSegment3DigitComplex.c" 1
 640  001C              	IF (1000 >= 0x40b) AND ((((1000-9)%0402h)/4+1)>256)
 640  001C              ;# 640 "C:\Users\Tech\Desktop\CODetector\sevenSegment3DigitComplex\SevenSegment3DigitComplex.c" 1
 640  001C              	MOV A,(1000-9)/0402h
 640  001C              ;# 640 "C:\Users\Tech\Desktop\CODetector\sevenSegment3DigitComplex\SevenSegment3DigitComplex.c" 1
 640  001C              	MOV _builtin_holtek_delay_2,A
 640  001C              ;# 640 "C:\Users\Tech\Desktop\CODetector\sevenSegment3DigitComplex\SevenSegment3DigitComplex.c" 1
 640  001C              	MOV A,0
 640  001C              ;# 640 "C:\Users\Tech\Desktop\CODetector\sevenSegment3DigitComplex\SevenSegment3DigitComplex.c" 1
 640  001C              	CALL __DELAYY5 +5- (((1000-9)%0402h)%6)
 640  001C              	ENDIF
 640  001C              ;# 640 "C:\Users\Tech\Desktop\CODetector\sevenSegment3DigitComplex\SevenSegment3DigitComplex.c" 1
 640  001C              	IF (1000 >= 0x40b) AND ((((1000-9)%0402h)/4+1)<=256)
 640  001C              ;# 640 "C:\Users\Tech\Desktop\CODetector\sevenSegment3DigitComplex\SevenSegment3DigitComplex.c" 1
 640  001C              	MOV A,(1000-9)/0402h
 640  001C              ;# 640 "C:\Users\Tech\Desktop\CODetector\sevenSegment3DigitComplex\SevenSegment3DigitComplex.c" 1
 640  001C              	MOV _builtin_holtek_delay_2,A
 640  001C              ;# 640 "C:\Users\Tech\Desktop\CODetector\sevenSegment3DigitComplex\SevenSegment3DigitComplex.c" 1
 640  001C              	MOV A,((1000-9)%0402h)/4+1
 640  001C              ;# 640 "C:\Users\Tech\Desktop\CODetector\sevenSegment3DigitComplex\SevenSegment3DigitComplex.c" 1
 640  001C              	CALL __DELAYY3 +3-(((1000-9)%0402h)%4)
 640  001C              	ENDIF
 640  001C  0003        	ret
 640  001D              _fourDigit2 endp
 640  001D              #line 640 "C:\Users\Tech\Desktop\CODetector\sevenSegment3DigitComplex\SevenSegment3DigitComplex.c"
 640  001D              #pragma debug scope 1 1
 640  001D              public _fourDigit3
 640  001D              #pragma debug scope 18 1
 643  001D              #line 643 "C:\Users\Tech\Desktop\CODetector\sevenSegment3DigitComplex\SevenSegment3DigitComplex.c"
 643  0000              _fourDigit3 .section 'code'
 643  0000              _fourDigit3 proc
 644  0000              #line 644 "C:\Users\Tech\Desktop\CODetector\sevenSegment3DigitComplex\SevenSegment3DigitComplex.c"
 644  0000  3119        	set [25].2
 645  0001              #line 645 "C:\Users\Tech\Desktop\CODetector\sevenSegment3DigitComplex\SevenSegment3DigitComplex.c"
 645  0001  3099        	set [25].1
 646  0002              #line 646 "C:\Users\Tech\Desktop\CODetector\sevenSegment3DigitComplex\SevenSegment3DigitComplex.c"
 646  0002  3215        	set [21].4
 647  0003              #line 647 "C:\Users\Tech\Desktop\CODetector\sevenSegment3DigitComplex\SevenSegment3DigitComplex.c"
"File: SevenSegment3DigitComplex.c  Assembler  Version HGASM0202      Page 70

 647  0003  3015        	set [21].0
 648  0004              #line 648 "C:\Users\Tech\Desktop\CODetector\sevenSegment3DigitComplex\SevenSegment3DigitComplex.c"
 648  0004  3115        	set [21].2
 649  0005              #line 649 "C:\Users\Tech\Desktop\CODetector\sevenSegment3DigitComplex\SevenSegment3DigitComplex.c"
 649  0005  3199        	set [25].3
 652  0006              #line 652 "C:\Users\Tech\Desktop\CODetector\sevenSegment3DigitComplex\SevenSegment3DigitComplex.c"
 652  0006  3499        	clr [25].1
 653  0007              #line 653 "C:\Users\Tech\Desktop\CODetector\sevenSegment3DigitComplex\SevenSegment3DigitComplex.c"
 653  0007  3415        	clr [21].0
 654  0008              #line 654 "C:\Users\Tech\Desktop\CODetector\sevenSegment3DigitComplex\SevenSegment3DigitComplex.c"
 654  0008  3515        	clr [21].2
 655  0009              #line 655 "C:\Users\Tech\Desktop\CODetector\sevenSegment3DigitComplex\SevenSegment3DigitComplex.c"
 655  0009  3098        	set [24].1
 656  000A              #line 656 "C:\Users\Tech\Desktop\CODetector\sevenSegment3DigitComplex\SevenSegment3DigitComplex.c"
 656  000A  3414        	clr [20].0
 657  000B              #line 657 "C:\Users\Tech\Desktop\CODetector\sevenSegment3DigitComplex\SevenSegment3DigitComplex.c"
 657  000B  3514        	clr [20].2
 658  000C              #line 658 "C:\Users\Tech\Desktop\CODetector\sevenSegment3DigitComplex\SevenSegment3DigitComplex.c"
 658  000C              ;# 658 "C:\Users\Tech\Desktop\CODetector\sevenSegment3DigitComplex\SevenSegment3DigitComplex.c" 1
 658  000C              	IF 1000>263690
 658  000C              ;# 658 "C:\Users\Tech\Desktop\CODetector\sevenSegment3DigitComplex\SevenSegment3DigitComplex.c" 1
 658  000C              	ERRMESSAGE 'the value 1000of the argument exceeds the maxinum 263690'
 658  000C              	ENDIF
 658  000C              ;# 658 "C:\Users\Tech\Desktop\CODetector\sevenSegment3DigitComplex\SevenSegment3DigitComplex.c" 1
 658  000C              	IF 1000<0
 658  000C              ;# 658 "C:\Users\Tech\Desktop\CODetector\sevenSegment3DigitComplex\SevenSegment3DigitComplex.c" 1
 658  000C              	ERRMESSAGE 'the value 1000 of the argument exceeds the mininum 0'
 658  000C              	ENDIF
 658  000C              ;# 658 "C:\Users\Tech\Desktop\CODetector\sevenSegment3DigitComplex\SevenSegment3DigitComplex.c" 1
 658  000C              	IF 1000==0
 658  000C              ;# 658 "C:\Users\Tech\Desktop\CODetector\sevenSegment3DigitComplex\SevenSegment3DigitComplex.c" 1
 658  000C              	JMP $
 658  000C              	ENDIF
 658  000C              ;# 658 "C:\Users\Tech\Desktop\CODetector\sevenSegment3DigitComplex\SevenSegment3DigitComplex.c" 1
 658  000C              	IF 1000==1
 658  000C              ;# 658 "C:\Users\Tech\Desktop\CODetector\sevenSegment3DigitComplex\SevenSegment3DigitComplex.c" 1
 658  000C              	NOP
 658  000C              	ENDIF
 658  000C              ;# 658 "C:\Users\Tech\Desktop\CODetector\sevenSegment3DigitComplex\SevenSegment3DigitComplex.c" 1
 658  000C              	IF 1000==2
 658  000C              ;# 658 "C:\Users\Tech\Desktop\CODetector\sevenSegment3DigitComplex\SevenSegment3DigitComplex.c" 1
 658  000C              	NOP
 658  000C              ;# 658 "C:\Users\Tech\Desktop\CODetector\sevenSegment3DigitComplex\SevenSegment3DigitComplex.c" 1
 658  000C              	NOP
 658  000C              	ENDIF
 658  000C              ;# 658 "C:\Users\Tech\Desktop\CODetector\sevenSegment3DigitComplex\SevenSegment3DigitComplex.c" 1
 658  000C              	IF 1000==3
 658  000C              ;# 658 "C:\Users\Tech\Desktop\CODetector\sevenSegment3DigitComplex\SevenSegment3DigitComplex.c" 1
 658  000C              	NOP
 658  000C              ;# 658 "C:\Users\Tech\Desktop\CODetector\sevenSegment3DigitComplex\SevenSegment3DigitComplex.c" 1
 658  000C              	NOP
 658  000C              ;# 658 "C:\Users\Tech\Desktop\CODetector\sevenSegment3DigitComplex\SevenSegment3DigitComplex.c" 1
 658  000C              	NOP
 658  000C              	ENDIF
 658  000C              ;# 658 "C:\Users\Tech\Desktop\CODetector\sevenSegment3DigitComplex\SevenSegment3DigitComplex.c" 1
 658  000C              	IF (1000<8) AND (1000>3)
 658  000C              ;# 658 "C:\Users\Tech\Desktop\CODetector\sevenSegment3DigitComplex\SevenSegment3DigitComplex.c" 1
 658  000C              	CALL __DELAY3 + 7 -1000
 658  000C              	ENDIF
 658  000C              ;# 658 "C:\Users\Tech\Desktop\CODetector\sevenSegment3DigitComplex\SevenSegment3DigitComplex.c" 1
"File: SevenSegment3DigitComplex.c  Assembler  Version HGASM0202      Page 71

 658  000C              	IF (1000< 0404h) AND (1000>7)
 658  000C              ;# 658 "C:\Users\Tech\Desktop\CODetector\sevenSegment3DigitComplex\SevenSegment3DigitComplex.c" 1
 658  000C  0FF9        	MOV A,1000/4-1
 658  000D              ;# 658 "C:\Users\Tech\Desktop\CODetector\sevenSegment3DigitComplex\SevenSegment3DigitComplex.c" 1
 658  000D  2000     E  	CALL __DELAYX3 + 3 -(1000 MOD 4)
 658  000E              	ENDIF
 658  000E              ;# 658 "C:\Users\Tech\Desktop\CODetector\sevenSegment3DigitComplex\SevenSegment3DigitComplex.c" 1
 658  000E              	IF (1000< 0x40B) AND (1000> 0403h)
 658  000E              ;# 658 "C:\Users\Tech\Desktop\CODetector\sevenSegment3DigitComplex\SevenSegment3DigitComplex.c" 1
 658  000E              	MOV A,0 
 658  000E              ;# 658 "C:\Users\Tech\Desktop\CODetector\sevenSegment3DigitComplex\SevenSegment3DigitComplex.c" 1
 658  000E              	CALL __DELAYX6 + 0x40a -1000
 658  000E              	ENDIF
 658  000E              ;# 658 "C:\Users\Tech\Desktop\CODetector\sevenSegment3DigitComplex\SevenSegment3DigitComplex.c" 1
 658  000E              	IF (1000 >= 0x40b) AND ((((1000-9)%0402h)/4+1)>256)
 658  000E              ;# 658 "C:\Users\Tech\Desktop\CODetector\sevenSegment3DigitComplex\SevenSegment3DigitComplex.c" 1
 658  000E              	MOV A,(1000-9)/0402h
 658  000E              ;# 658 "C:\Users\Tech\Desktop\CODetector\sevenSegment3DigitComplex\SevenSegment3DigitComplex.c" 1
 658  000E              	MOV _builtin_holtek_delay_2,A
 658  000E              ;# 658 "C:\Users\Tech\Desktop\CODetector\sevenSegment3DigitComplex\SevenSegment3DigitComplex.c" 1
 658  000E              	MOV A,0
 658  000E              ;# 658 "C:\Users\Tech\Desktop\CODetector\sevenSegment3DigitComplex\SevenSegment3DigitComplex.c" 1
 658  000E              	CALL __DELAYY5 +5- (((1000-9)%0402h)%6)
 658  000E              	ENDIF
 658  000E              ;# 658 "C:\Users\Tech\Desktop\CODetector\sevenSegment3DigitComplex\SevenSegment3DigitComplex.c" 1
 658  000E              	IF (1000 >= 0x40b) AND ((((1000-9)%0402h)/4+1)<=256)
 658  000E              ;# 658 "C:\Users\Tech\Desktop\CODetector\sevenSegment3DigitComplex\SevenSegment3DigitComplex.c" 1
 658  000E              	MOV A,(1000-9)/0402h
 658  000E              ;# 658 "C:\Users\Tech\Desktop\CODetector\sevenSegment3DigitComplex\SevenSegment3DigitComplex.c" 1
 658  000E              	MOV _builtin_holtek_delay_2,A
 658  000E              ;# 658 "C:\Users\Tech\Desktop\CODetector\sevenSegment3DigitComplex\SevenSegment3DigitComplex.c" 1
 658  000E              	MOV A,((1000-9)%0402h)/4+1
 658  000E              ;# 658 "C:\Users\Tech\Desktop\CODetector\sevenSegment3DigitComplex\SevenSegment3DigitComplex.c" 1
 658  000E              	CALL __DELAYY3 +3-(((1000-9)%0402h)%4)
 658  000E              	ENDIF
 659  000E              #line 659 "C:\Users\Tech\Desktop\CODetector\sevenSegment3DigitComplex\SevenSegment3DigitComplex.c"
 659  000E  3119        	set [25].2
 660  000F              #line 660 "C:\Users\Tech\Desktop\CODetector\sevenSegment3DigitComplex\SevenSegment3DigitComplex.c"
 660  000F  3099        	set [25].1
 661  0010              #line 661 "C:\Users\Tech\Desktop\CODetector\sevenSegment3DigitComplex\SevenSegment3DigitComplex.c"
 661  0010  3215        	set [21].4
 662  0011              #line 662 "C:\Users\Tech\Desktop\CODetector\sevenSegment3DigitComplex\SevenSegment3DigitComplex.c"
 662  0011  3015        	set [21].0
 663  0012              #line 663 "C:\Users\Tech\Desktop\CODetector\sevenSegment3DigitComplex\SevenSegment3DigitComplex.c"
 663  0012  3115        	set [21].2
 664  0013              #line 664 "C:\Users\Tech\Desktop\CODetector\sevenSegment3DigitComplex\SevenSegment3DigitComplex.c"
 664  0013  3199        	set [25].3
 666  0014              #line 666 "C:\Users\Tech\Desktop\CODetector\sevenSegment3DigitComplex\SevenSegment3DigitComplex.c"
 666  0014  3615        	clr [21].4
 667  0015              #line 667 "C:\Users\Tech\Desktop\CODetector\sevenSegment3DigitComplex\SevenSegment3DigitComplex.c"
 667  0015  3515        	clr [21].2
 668  0016              #line 668 "C:\Users\Tech\Desktop\CODetector\sevenSegment3DigitComplex\SevenSegment3DigitComplex.c"
 668  0016  3599        	clr [25].3
 669  0017              #line 669 "C:\Users\Tech\Desktop\CODetector\sevenSegment3DigitComplex\SevenSegment3DigitComplex.c"
 669  0017  3214        	set [20].4
 670  0018              #line 670 "C:\Users\Tech\Desktop\CODetector\sevenSegment3DigitComplex\SevenSegment3DigitComplex.c"
 670  0018  3514        	clr [20].2
 671  0019              #line 671 "C:\Users\Tech\Desktop\CODetector\sevenSegment3DigitComplex\SevenSegment3DigitComplex.c"
 671  0019  3598        	clr [24].3
 672  001A              #line 672 "C:\Users\Tech\Desktop\CODetector\sevenSegment3DigitComplex\SevenSegment3DigitComplex.c"
"File: SevenSegment3DigitComplex.c  Assembler  Version HGASM0202      Page 72

 672  001A              ;# 672 "C:\Users\Tech\Desktop\CODetector\sevenSegment3DigitComplex\SevenSegment3DigitComplex.c" 1
 672  001A              	IF 1000>263690
 672  001A              ;# 672 "C:\Users\Tech\Desktop\CODetector\sevenSegment3DigitComplex\SevenSegment3DigitComplex.c" 1
 672  001A              	ERRMESSAGE 'the value 1000of the argument exceeds the maxinum 263690'
 672  001A              	ENDIF
 672  001A              ;# 672 "C:\Users\Tech\Desktop\CODetector\sevenSegment3DigitComplex\SevenSegment3DigitComplex.c" 1
 672  001A              	IF 1000<0
 672  001A              ;# 672 "C:\Users\Tech\Desktop\CODetector\sevenSegment3DigitComplex\SevenSegment3DigitComplex.c" 1
 672  001A              	ERRMESSAGE 'the value 1000 of the argument exceeds the mininum 0'
 672  001A              	ENDIF
 672  001A              ;# 672 "C:\Users\Tech\Desktop\CODetector\sevenSegment3DigitComplex\SevenSegment3DigitComplex.c" 1
 672  001A              	IF 1000==0
 672  001A              ;# 672 "C:\Users\Tech\Desktop\CODetector\sevenSegment3DigitComplex\SevenSegment3DigitComplex.c" 1
 672  001A              	JMP $
 672  001A              	ENDIF
 672  001A              ;# 672 "C:\Users\Tech\Desktop\CODetector\sevenSegment3DigitComplex\SevenSegment3DigitComplex.c" 1
 672  001A              	IF 1000==1
 672  001A              ;# 672 "C:\Users\Tech\Desktop\CODetector\sevenSegment3DigitComplex\SevenSegment3DigitComplex.c" 1
 672  001A              	NOP
 672  001A              	ENDIF
 672  001A              ;# 672 "C:\Users\Tech\Desktop\CODetector\sevenSegment3DigitComplex\SevenSegment3DigitComplex.c" 1
 672  001A              	IF 1000==2
 672  001A              ;# 672 "C:\Users\Tech\Desktop\CODetector\sevenSegment3DigitComplex\SevenSegment3DigitComplex.c" 1
 672  001A              	NOP
 672  001A              ;# 672 "C:\Users\Tech\Desktop\CODetector\sevenSegment3DigitComplex\SevenSegment3DigitComplex.c" 1
 672  001A              	NOP
 672  001A              	ENDIF
 672  001A              ;# 672 "C:\Users\Tech\Desktop\CODetector\sevenSegment3DigitComplex\SevenSegment3DigitComplex.c" 1
 672  001A              	IF 1000==3
 672  001A              ;# 672 "C:\Users\Tech\Desktop\CODetector\sevenSegment3DigitComplex\SevenSegment3DigitComplex.c" 1
 672  001A              	NOP
 672  001A              ;# 672 "C:\Users\Tech\Desktop\CODetector\sevenSegment3DigitComplex\SevenSegment3DigitComplex.c" 1
 672  001A              	NOP
 672  001A              ;# 672 "C:\Users\Tech\Desktop\CODetector\sevenSegment3DigitComplex\SevenSegment3DigitComplex.c" 1
 672  001A              	NOP
 672  001A              	ENDIF
 672  001A              ;# 672 "C:\Users\Tech\Desktop\CODetector\sevenSegment3DigitComplex\SevenSegment3DigitComplex.c" 1
 672  001A              	IF (1000<8) AND (1000>3)
 672  001A              ;# 672 "C:\Users\Tech\Desktop\CODetector\sevenSegment3DigitComplex\SevenSegment3DigitComplex.c" 1
 672  001A              	CALL __DELAY3 + 7 -1000
 672  001A              	ENDIF
 672  001A              ;# 672 "C:\Users\Tech\Desktop\CODetector\sevenSegment3DigitComplex\SevenSegment3DigitComplex.c" 1
 672  001A              	IF (1000< 0404h) AND (1000>7)
 672  001A              ;# 672 "C:\Users\Tech\Desktop\CODetector\sevenSegment3DigitComplex\SevenSegment3DigitComplex.c" 1
 672  001A  0FF9        	MOV A,1000/4-1
 672  001B              ;# 672 "C:\Users\Tech\Desktop\CODetector\sevenSegment3DigitComplex\SevenSegment3DigitComplex.c" 1
 672  001B  2000     E  	CALL __DELAYX3 + 3 -(1000 MOD 4)
 672  001C              	ENDIF
 672  001C              ;# 672 "C:\Users\Tech\Desktop\CODetector\sevenSegment3DigitComplex\SevenSegment3DigitComplex.c" 1
 672  001C              	IF (1000< 0x40B) AND (1000> 0403h)
 672  001C              ;# 672 "C:\Users\Tech\Desktop\CODetector\sevenSegment3DigitComplex\SevenSegment3DigitComplex.c" 1
 672  001C              	MOV A,0 
 672  001C              ;# 672 "C:\Users\Tech\Desktop\CODetector\sevenSegment3DigitComplex\SevenSegment3DigitComplex.c" 1
 672  001C              	CALL __DELAYX6 + 0x40a -1000
 672  001C              	ENDIF
 672  001C              ;# 672 "C:\Users\Tech\Desktop\CODetector\sevenSegment3DigitComplex\SevenSegment3DigitComplex.c" 1
 672  001C              	IF (1000 >= 0x40b) AND ((((1000-9)%0402h)/4+1)>256)
 672  001C              ;# 672 "C:\Users\Tech\Desktop\CODetector\sevenSegment3DigitComplex\SevenSegment3DigitComplex.c" 1
 672  001C              	MOV A,(1000-9)/0402h
 672  001C              ;# 672 "C:\Users\Tech\Desktop\CODetector\sevenSegment3DigitComplex\SevenSegment3DigitComplex.c" 1
"File: SevenSegment3DigitComplex.c  Assembler  Version HGASM0202      Page 73

 672  001C              	MOV _builtin_holtek_delay_2,A
 672  001C              ;# 672 "C:\Users\Tech\Desktop\CODetector\sevenSegment3DigitComplex\SevenSegment3DigitComplex.c" 1
 672  001C              	MOV A,0
 672  001C              ;# 672 "C:\Users\Tech\Desktop\CODetector\sevenSegment3DigitComplex\SevenSegment3DigitComplex.c" 1
 672  001C              	CALL __DELAYY5 +5- (((1000-9)%0402h)%6)
 672  001C              	ENDIF
 672  001C              ;# 672 "C:\Users\Tech\Desktop\CODetector\sevenSegment3DigitComplex\SevenSegment3DigitComplex.c" 1
 672  001C              	IF (1000 >= 0x40b) AND ((((1000-9)%0402h)/4+1)<=256)
 672  001C              ;# 672 "C:\Users\Tech\Desktop\CODetector\sevenSegment3DigitComplex\SevenSegment3DigitComplex.c" 1
 672  001C              	MOV A,(1000-9)/0402h
 672  001C              ;# 672 "C:\Users\Tech\Desktop\CODetector\sevenSegment3DigitComplex\SevenSegment3DigitComplex.c" 1
 672  001C              	MOV _builtin_holtek_delay_2,A
 672  001C              ;# 672 "C:\Users\Tech\Desktop\CODetector\sevenSegment3DigitComplex\SevenSegment3DigitComplex.c" 1
 672  001C              	MOV A,((1000-9)%0402h)/4+1
 672  001C              ;# 672 "C:\Users\Tech\Desktop\CODetector\sevenSegment3DigitComplex\SevenSegment3DigitComplex.c" 1
 672  001C              	CALL __DELAYY3 +3-(((1000-9)%0402h)%4)
 672  001C              	ENDIF
 672  001C  0003        	ret
 672  001D              _fourDigit3 endp
 672  001D              #line 672 "C:\Users\Tech\Desktop\CODetector\sevenSegment3DigitComplex\SevenSegment3DigitComplex.c"
 672  001D              #pragma debug scope 1 1
 672  001D              public _fiveDigit1
 672  001D              #pragma debug scope 19 1
 675  001D              #line 675 "C:\Users\Tech\Desktop\CODetector\sevenSegment3DigitComplex\SevenSegment3DigitComplex.c"
 675  0000              _fiveDigit1 .section 'code'
 675  0000              _fiveDigit1 proc
 676  0000              #line 676 "C:\Users\Tech\Desktop\CODetector\sevenSegment3DigitComplex\SevenSegment3DigitComplex.c"
 676  0000  3119        	set [25].2
 677  0001              #line 677 "C:\Users\Tech\Desktop\CODetector\sevenSegment3DigitComplex\SevenSegment3DigitComplex.c"
 677  0001  3099        	set [25].1
 678  0002              #line 678 "C:\Users\Tech\Desktop\CODetector\sevenSegment3DigitComplex\SevenSegment3DigitComplex.c"
 678  0002  3215        	set [21].4
 679  0003              #line 679 "C:\Users\Tech\Desktop\CODetector\sevenSegment3DigitComplex\SevenSegment3DigitComplex.c"
 679  0003  3015        	set [21].0
 680  0004              #line 680 "C:\Users\Tech\Desktop\CODetector\sevenSegment3DigitComplex\SevenSegment3DigitComplex.c"
 680  0004  3115        	set [21].2
 681  0005              #line 681 "C:\Users\Tech\Desktop\CODetector\sevenSegment3DigitComplex\SevenSegment3DigitComplex.c"
 681  0005  3199        	set [25].3
 684  0006              #line 684 "C:\Users\Tech\Desktop\CODetector\sevenSegment3DigitComplex\SevenSegment3DigitComplex.c"
 684  0006  3519        	clr [25].2
 685  0007              #line 685 "C:\Users\Tech\Desktop\CODetector\sevenSegment3DigitComplex\SevenSegment3DigitComplex.c"
 685  0007  3499        	clr [25].1
 686  0008              #line 686 "C:\Users\Tech\Desktop\CODetector\sevenSegment3DigitComplex\SevenSegment3DigitComplex.c"
 686  0008  3415        	clr [21].0
 687  0009              #line 687 "C:\Users\Tech\Desktop\CODetector\sevenSegment3DigitComplex\SevenSegment3DigitComplex.c"
 687  0009  3515        	clr [21].2
 688  000A              #line 688 "C:\Users\Tech\Desktop\CODetector\sevenSegment3DigitComplex\SevenSegment3DigitComplex.c"
 688  000A  3518        	clr [24].2
 689  000B              #line 689 "C:\Users\Tech\Desktop\CODetector\sevenSegment3DigitComplex\SevenSegment3DigitComplex.c"
 689  000B  3098        	set [24].1
 690  000C              #line 690 "C:\Users\Tech\Desktop\CODetector\sevenSegment3DigitComplex\SevenSegment3DigitComplex.c"
 690  000C  3014        	set [20].0
 691  000D              #line 691 "C:\Users\Tech\Desktop\CODetector\sevenSegment3DigitComplex\SevenSegment3DigitComplex.c"
 691  000D  3114        	set [20].2
 692  000E              #line 692 "C:\Users\Tech\Desktop\CODetector\sevenSegment3DigitComplex\SevenSegment3DigitComplex.c"
 692  000E              ;# 692 "C:\Users\Tech\Desktop\CODetector\sevenSegment3DigitComplex\SevenSegment3DigitComplex.c" 1
 692  000E              	IF 1000>263690
 692  000E              ;# 692 "C:\Users\Tech\Desktop\CODetector\sevenSegment3DigitComplex\SevenSegment3DigitComplex.c" 1
 692  000E              	ERRMESSAGE 'the value 1000of the argument exceeds the maxinum 263690'
 692  000E              	ENDIF
"File: SevenSegment3DigitComplex.c  Assembler  Version HGASM0202      Page 74

 692  000E              ;# 692 "C:\Users\Tech\Desktop\CODetector\sevenSegment3DigitComplex\SevenSegment3DigitComplex.c" 1
 692  000E              	IF 1000<0
 692  000E              ;# 692 "C:\Users\Tech\Desktop\CODetector\sevenSegment3DigitComplex\SevenSegment3DigitComplex.c" 1
 692  000E              	ERRMESSAGE 'the value 1000 of the argument exceeds the mininum 0'
 692  000E              	ENDIF
 692  000E              ;# 692 "C:\Users\Tech\Desktop\CODetector\sevenSegment3DigitComplex\SevenSegment3DigitComplex.c" 1
 692  000E              	IF 1000==0
 692  000E              ;# 692 "C:\Users\Tech\Desktop\CODetector\sevenSegment3DigitComplex\SevenSegment3DigitComplex.c" 1
 692  000E              	JMP $
 692  000E              	ENDIF
 692  000E              ;# 692 "C:\Users\Tech\Desktop\CODetector\sevenSegment3DigitComplex\SevenSegment3DigitComplex.c" 1
 692  000E              	IF 1000==1
 692  000E              ;# 692 "C:\Users\Tech\Desktop\CODetector\sevenSegment3DigitComplex\SevenSegment3DigitComplex.c" 1
 692  000E              	NOP
 692  000E              	ENDIF
 692  000E              ;# 692 "C:\Users\Tech\Desktop\CODetector\sevenSegment3DigitComplex\SevenSegment3DigitComplex.c" 1
 692  000E              	IF 1000==2
 692  000E              ;# 692 "C:\Users\Tech\Desktop\CODetector\sevenSegment3DigitComplex\SevenSegment3DigitComplex.c" 1
 692  000E              	NOP
 692  000E              ;# 692 "C:\Users\Tech\Desktop\CODetector\sevenSegment3DigitComplex\SevenSegment3DigitComplex.c" 1
 692  000E              	NOP
 692  000E              	ENDIF
 692  000E              ;# 692 "C:\Users\Tech\Desktop\CODetector\sevenSegment3DigitComplex\SevenSegment3DigitComplex.c" 1
 692  000E              	IF 1000==3
 692  000E              ;# 692 "C:\Users\Tech\Desktop\CODetector\sevenSegment3DigitComplex\SevenSegment3DigitComplex.c" 1
 692  000E              	NOP
 692  000E              ;# 692 "C:\Users\Tech\Desktop\CODetector\sevenSegment3DigitComplex\SevenSegment3DigitComplex.c" 1
 692  000E              	NOP
 692  000E              ;# 692 "C:\Users\Tech\Desktop\CODetector\sevenSegment3DigitComplex\SevenSegment3DigitComplex.c" 1
 692  000E              	NOP
 692  000E              	ENDIF
 692  000E              ;# 692 "C:\Users\Tech\Desktop\CODetector\sevenSegment3DigitComplex\SevenSegment3DigitComplex.c" 1
 692  000E              	IF (1000<8) AND (1000>3)
 692  000E              ;# 692 "C:\Users\Tech\Desktop\CODetector\sevenSegment3DigitComplex\SevenSegment3DigitComplex.c" 1
 692  000E              	CALL __DELAY3 + 7 -1000
 692  000E              	ENDIF
 692  000E              ;# 692 "C:\Users\Tech\Desktop\CODetector\sevenSegment3DigitComplex\SevenSegment3DigitComplex.c" 1
 692  000E              	IF (1000< 0404h) AND (1000>7)
 692  000E              ;# 692 "C:\Users\Tech\Desktop\CODetector\sevenSegment3DigitComplex\SevenSegment3DigitComplex.c" 1
 692  000E  0FF9        	MOV A,1000/4-1
 692  000F              ;# 692 "C:\Users\Tech\Desktop\CODetector\sevenSegment3DigitComplex\SevenSegment3DigitComplex.c" 1
 692  000F  2000     E  	CALL __DELAYX3 + 3 -(1000 MOD 4)
 692  0010              	ENDIF
 692  0010              ;# 692 "C:\Users\Tech\Desktop\CODetector\sevenSegment3DigitComplex\SevenSegment3DigitComplex.c" 1
 692  0010              	IF (1000< 0x40B) AND (1000> 0403h)
 692  0010              ;# 692 "C:\Users\Tech\Desktop\CODetector\sevenSegment3DigitComplex\SevenSegment3DigitComplex.c" 1
 692  0010              	MOV A,0 
 692  0010              ;# 692 "C:\Users\Tech\Desktop\CODetector\sevenSegment3DigitComplex\SevenSegment3DigitComplex.c" 1
 692  0010              	CALL __DELAYX6 + 0x40a -1000
 692  0010              	ENDIF
 692  0010              ;# 692 "C:\Users\Tech\Desktop\CODetector\sevenSegment3DigitComplex\SevenSegment3DigitComplex.c" 1
 692  0010              	IF (1000 >= 0x40b) AND ((((1000-9)%0402h)/4+1)>256)
 692  0010              ;# 692 "C:\Users\Tech\Desktop\CODetector\sevenSegment3DigitComplex\SevenSegment3DigitComplex.c" 1
 692  0010              	MOV A,(1000-9)/0402h
 692  0010              ;# 692 "C:\Users\Tech\Desktop\CODetector\sevenSegment3DigitComplex\SevenSegment3DigitComplex.c" 1
 692  0010              	MOV _builtin_holtek_delay_2,A
 692  0010              ;# 692 "C:\Users\Tech\Desktop\CODetector\sevenSegment3DigitComplex\SevenSegment3DigitComplex.c" 1
 692  0010              	MOV A,0
 692  0010              ;# 692 "C:\Users\Tech\Desktop\CODetector\sevenSegment3DigitComplex\SevenSegment3DigitComplex.c" 1
 692  0010              	CALL __DELAYY5 +5- (((1000-9)%0402h)%6)
"File: SevenSegment3DigitComplex.c  Assembler  Version HGASM0202      Page 75

 692  0010              	ENDIF
 692  0010              ;# 692 "C:\Users\Tech\Desktop\CODetector\sevenSegment3DigitComplex\SevenSegment3DigitComplex.c" 1
 692  0010              	IF (1000 >= 0x40b) AND ((((1000-9)%0402h)/4+1)<=256)
 692  0010              ;# 692 "C:\Users\Tech\Desktop\CODetector\sevenSegment3DigitComplex\SevenSegment3DigitComplex.c" 1
 692  0010              	MOV A,(1000-9)/0402h
 692  0010              ;# 692 "C:\Users\Tech\Desktop\CODetector\sevenSegment3DigitComplex\SevenSegment3DigitComplex.c" 1
 692  0010              	MOV _builtin_holtek_delay_2,A
 692  0010              ;# 692 "C:\Users\Tech\Desktop\CODetector\sevenSegment3DigitComplex\SevenSegment3DigitComplex.c" 1
 692  0010              	MOV A,((1000-9)%0402h)/4+1
 692  0010              ;# 692 "C:\Users\Tech\Desktop\CODetector\sevenSegment3DigitComplex\SevenSegment3DigitComplex.c" 1
 692  0010              	CALL __DELAYY3 +3-(((1000-9)%0402h)%4)
 692  0010              	ENDIF
 693  0010              #line 693 "C:\Users\Tech\Desktop\CODetector\sevenSegment3DigitComplex\SevenSegment3DigitComplex.c"
 693  0010  3119        	set [25].2
 694  0011              #line 694 "C:\Users\Tech\Desktop\CODetector\sevenSegment3DigitComplex\SevenSegment3DigitComplex.c"
 694  0011  3099        	set [25].1
 695  0012              #line 695 "C:\Users\Tech\Desktop\CODetector\sevenSegment3DigitComplex\SevenSegment3DigitComplex.c"
 695  0012  3215        	set [21].4
 696  0013              #line 696 "C:\Users\Tech\Desktop\CODetector\sevenSegment3DigitComplex\SevenSegment3DigitComplex.c"
 696  0013  3015        	set [21].0
 697  0014              #line 697 "C:\Users\Tech\Desktop\CODetector\sevenSegment3DigitComplex\SevenSegment3DigitComplex.c"
 697  0014  3115        	set [21].2
 698  0015              #line 698 "C:\Users\Tech\Desktop\CODetector\sevenSegment3DigitComplex\SevenSegment3DigitComplex.c"
 698  0015  3199        	set [25].3
 699  0016              #line 699 "C:\Users\Tech\Desktop\CODetector\sevenSegment3DigitComplex\SevenSegment3DigitComplex.c"
 699  0016  3499        	clr [25].1
 700  0017              #line 700 "C:\Users\Tech\Desktop\CODetector\sevenSegment3DigitComplex\SevenSegment3DigitComplex.c"
 700  0017  3615        	clr [21].4
 701  0018              #line 701 "C:\Users\Tech\Desktop\CODetector\sevenSegment3DigitComplex\SevenSegment3DigitComplex.c"
 701  0018  3415        	clr [21].0
 702  0019              #line 702 "C:\Users\Tech\Desktop\CODetector\sevenSegment3DigitComplex\SevenSegment3DigitComplex.c"
 702  0019  3498        	clr [24].1
 703  001A              #line 703 "C:\Users\Tech\Desktop\CODetector\sevenSegment3DigitComplex\SevenSegment3DigitComplex.c"
 703  001A  3214        	set [20].4
 704  001B              #line 704 "C:\Users\Tech\Desktop\CODetector\sevenSegment3DigitComplex\SevenSegment3DigitComplex.c"
 704  001B  3014        	set [20].0
 705  001C              #line 705 "C:\Users\Tech\Desktop\CODetector\sevenSegment3DigitComplex\SevenSegment3DigitComplex.c"
 705  001C              ;# 705 "C:\Users\Tech\Desktop\CODetector\sevenSegment3DigitComplex\SevenSegment3DigitComplex.c" 1
 705  001C              	IF 1000>263690
 705  001C              ;# 705 "C:\Users\Tech\Desktop\CODetector\sevenSegment3DigitComplex\SevenSegment3DigitComplex.c" 1
 705  001C              	ERRMESSAGE 'the value 1000of the argument exceeds the maxinum 263690'
 705  001C              	ENDIF
 705  001C              ;# 705 "C:\Users\Tech\Desktop\CODetector\sevenSegment3DigitComplex\SevenSegment3DigitComplex.c" 1
 705  001C              	IF 1000<0
 705  001C              ;# 705 "C:\Users\Tech\Desktop\CODetector\sevenSegment3DigitComplex\SevenSegment3DigitComplex.c" 1
 705  001C              	ERRMESSAGE 'the value 1000 of the argument exceeds the mininum 0'
 705  001C              	ENDIF
 705  001C              ;# 705 "C:\Users\Tech\Desktop\CODetector\sevenSegment3DigitComplex\SevenSegment3DigitComplex.c" 1
 705  001C              	IF 1000==0
 705  001C              ;# 705 "C:\Users\Tech\Desktop\CODetector\sevenSegment3DigitComplex\SevenSegment3DigitComplex.c" 1
 705  001C              	JMP $
 705  001C              	ENDIF
 705  001C              ;# 705 "C:\Users\Tech\Desktop\CODetector\sevenSegment3DigitComplex\SevenSegment3DigitComplex.c" 1
 705  001C              	IF 1000==1
 705  001C              ;# 705 "C:\Users\Tech\Desktop\CODetector\sevenSegment3DigitComplex\SevenSegment3DigitComplex.c" 1
 705  001C              	NOP
 705  001C              	ENDIF
 705  001C              ;# 705 "C:\Users\Tech\Desktop\CODetector\sevenSegment3DigitComplex\SevenSegment3DigitComplex.c" 1
 705  001C              	IF 1000==2
 705  001C              ;# 705 "C:\Users\Tech\Desktop\CODetector\sevenSegment3DigitComplex\SevenSegment3DigitComplex.c" 1
"File: SevenSegment3DigitComplex.c  Assembler  Version HGASM0202      Page 76

 705  001C              	NOP
 705  001C              ;# 705 "C:\Users\Tech\Desktop\CODetector\sevenSegment3DigitComplex\SevenSegment3DigitComplex.c" 1
 705  001C              	NOP
 705  001C              	ENDIF
 705  001C              ;# 705 "C:\Users\Tech\Desktop\CODetector\sevenSegment3DigitComplex\SevenSegment3DigitComplex.c" 1
 705  001C              	IF 1000==3
 705  001C              ;# 705 "C:\Users\Tech\Desktop\CODetector\sevenSegment3DigitComplex\SevenSegment3DigitComplex.c" 1
 705  001C              	NOP
 705  001C              ;# 705 "C:\Users\Tech\Desktop\CODetector\sevenSegment3DigitComplex\SevenSegment3DigitComplex.c" 1
 705  001C              	NOP
 705  001C              ;# 705 "C:\Users\Tech\Desktop\CODetector\sevenSegment3DigitComplex\SevenSegment3DigitComplex.c" 1
 705  001C              	NOP
 705  001C              	ENDIF
 705  001C              ;# 705 "C:\Users\Tech\Desktop\CODetector\sevenSegment3DigitComplex\SevenSegment3DigitComplex.c" 1
 705  001C              	IF (1000<8) AND (1000>3)
 705  001C              ;# 705 "C:\Users\Tech\Desktop\CODetector\sevenSegment3DigitComplex\SevenSegment3DigitComplex.c" 1
 705  001C              	CALL __DELAY3 + 7 -1000
 705  001C              	ENDIF
 705  001C              ;# 705 "C:\Users\Tech\Desktop\CODetector\sevenSegment3DigitComplex\SevenSegment3DigitComplex.c" 1
 705  001C              	IF (1000< 0404h) AND (1000>7)
 705  001C              ;# 705 "C:\Users\Tech\Desktop\CODetector\sevenSegment3DigitComplex\SevenSegment3DigitComplex.c" 1
 705  001C  0FF9        	MOV A,1000/4-1
 705  001D              ;# 705 "C:\Users\Tech\Desktop\CODetector\sevenSegment3DigitComplex\SevenSegment3DigitComplex.c" 1
 705  001D  2000     E  	CALL __DELAYX3 + 3 -(1000 MOD 4)
 705  001E              	ENDIF
 705  001E              ;# 705 "C:\Users\Tech\Desktop\CODetector\sevenSegment3DigitComplex\SevenSegment3DigitComplex.c" 1
 705  001E              	IF (1000< 0x40B) AND (1000> 0403h)
 705  001E              ;# 705 "C:\Users\Tech\Desktop\CODetector\sevenSegment3DigitComplex\SevenSegment3DigitComplex.c" 1
 705  001E              	MOV A,0 
 705  001E              ;# 705 "C:\Users\Tech\Desktop\CODetector\sevenSegment3DigitComplex\SevenSegment3DigitComplex.c" 1
 705  001E              	CALL __DELAYX6 + 0x40a -1000
 705  001E              	ENDIF
 705  001E              ;# 705 "C:\Users\Tech\Desktop\CODetector\sevenSegment3DigitComplex\SevenSegment3DigitComplex.c" 1
 705  001E              	IF (1000 >= 0x40b) AND ((((1000-9)%0402h)/4+1)>256)
 705  001E              ;# 705 "C:\Users\Tech\Desktop\CODetector\sevenSegment3DigitComplex\SevenSegment3DigitComplex.c" 1
 705  001E              	MOV A,(1000-9)/0402h
 705  001E              ;# 705 "C:\Users\Tech\Desktop\CODetector\sevenSegment3DigitComplex\SevenSegment3DigitComplex.c" 1
 705  001E              	MOV _builtin_holtek_delay_2,A
 705  001E              ;# 705 "C:\Users\Tech\Desktop\CODetector\sevenSegment3DigitComplex\SevenSegment3DigitComplex.c" 1
 705  001E              	MOV A,0
 705  001E              ;# 705 "C:\Users\Tech\Desktop\CODetector\sevenSegment3DigitComplex\SevenSegment3DigitComplex.c" 1
 705  001E              	CALL __DELAYY5 +5- (((1000-9)%0402h)%6)
 705  001E              	ENDIF
 705  001E              ;# 705 "C:\Users\Tech\Desktop\CODetector\sevenSegment3DigitComplex\SevenSegment3DigitComplex.c" 1
 705  001E              	IF (1000 >= 0x40b) AND ((((1000-9)%0402h)/4+1)<=256)
 705  001E              ;# 705 "C:\Users\Tech\Desktop\CODetector\sevenSegment3DigitComplex\SevenSegment3DigitComplex.c" 1
 705  001E              	MOV A,(1000-9)/0402h
 705  001E              ;# 705 "C:\Users\Tech\Desktop\CODetector\sevenSegment3DigitComplex\SevenSegment3DigitComplex.c" 1
 705  001E              	MOV _builtin_holtek_delay_2,A
 705  001E              ;# 705 "C:\Users\Tech\Desktop\CODetector\sevenSegment3DigitComplex\SevenSegment3DigitComplex.c" 1
 705  001E              	MOV A,((1000-9)%0402h)/4+1
 705  001E              ;# 705 "C:\Users\Tech\Desktop\CODetector\sevenSegment3DigitComplex\SevenSegment3DigitComplex.c" 1
 705  001E              	CALL __DELAYY3 +3-(((1000-9)%0402h)%4)
 705  001E              	ENDIF
 705  001E  0003        	ret
 705  001F              _fiveDigit1 endp
 705  001F              #line 705 "C:\Users\Tech\Desktop\CODetector\sevenSegment3DigitComplex\SevenSegment3DigitComplex.c"
 705  001F              #pragma debug scope 1 1
 705  001F              public _fiveDigit2
 705  001F              #pragma debug scope 20 1
"File: SevenSegment3DigitComplex.c  Assembler  Version HGASM0202      Page 77

 709  001F              #line 709 "C:\Users\Tech\Desktop\CODetector\sevenSegment3DigitComplex\SevenSegment3DigitComplex.c"
 709  0000              _fiveDigit2 .section 'code'
 709  0000              _fiveDigit2 proc
 710  0000              #line 710 "C:\Users\Tech\Desktop\CODetector\sevenSegment3DigitComplex\SevenSegment3DigitComplex.c"
 710  0000  3119        	set [25].2
 711  0001              #line 711 "C:\Users\Tech\Desktop\CODetector\sevenSegment3DigitComplex\SevenSegment3DigitComplex.c"
 711  0001  3099        	set [25].1
 712  0002              #line 712 "C:\Users\Tech\Desktop\CODetector\sevenSegment3DigitComplex\SevenSegment3DigitComplex.c"
 712  0002  3215        	set [21].4
 713  0003              #line 713 "C:\Users\Tech\Desktop\CODetector\sevenSegment3DigitComplex\SevenSegment3DigitComplex.c"
 713  0003  3015        	set [21].0
 714  0004              #line 714 "C:\Users\Tech\Desktop\CODetector\sevenSegment3DigitComplex\SevenSegment3DigitComplex.c"
 714  0004  3115        	set [21].2
 715  0005              #line 715 "C:\Users\Tech\Desktop\CODetector\sevenSegment3DigitComplex\SevenSegment3DigitComplex.c"
 715  0005  3199        	set [25].3
 718  0006              #line 718 "C:\Users\Tech\Desktop\CODetector\sevenSegment3DigitComplex\SevenSegment3DigitComplex.c"
 718  0006  3519        	clr [25].2
 719  0007              #line 719 "C:\Users\Tech\Desktop\CODetector\sevenSegment3DigitComplex\SevenSegment3DigitComplex.c"
 719  0007  3499        	clr [25].1
 720  0008              #line 720 "C:\Users\Tech\Desktop\CODetector\sevenSegment3DigitComplex\SevenSegment3DigitComplex.c"
 720  0008  3415        	clr [21].0
 721  0009              #line 721 "C:\Users\Tech\Desktop\CODetector\sevenSegment3DigitComplex\SevenSegment3DigitComplex.c"
 721  0009  3515        	clr [21].2
 722  000A              #line 722 "C:\Users\Tech\Desktop\CODetector\sevenSegment3DigitComplex\SevenSegment3DigitComplex.c"
 722  000A  3118        	set [24].2
 723  000B              #line 723 "C:\Users\Tech\Desktop\CODetector\sevenSegment3DigitComplex\SevenSegment3DigitComplex.c"
 723  000B  3498        	clr [24].1
 724  000C              #line 724 "C:\Users\Tech\Desktop\CODetector\sevenSegment3DigitComplex\SevenSegment3DigitComplex.c"
 724  000C  3414        	clr [20].0
 725  000D              #line 725 "C:\Users\Tech\Desktop\CODetector\sevenSegment3DigitComplex\SevenSegment3DigitComplex.c"
 725  000D  3514        	clr [20].2
 726  000E              #line 726 "C:\Users\Tech\Desktop\CODetector\sevenSegment3DigitComplex\SevenSegment3DigitComplex.c"
 726  000E              ;# 726 "C:\Users\Tech\Desktop\CODetector\sevenSegment3DigitComplex\SevenSegment3DigitComplex.c" 1
 726  000E              	IF 1000>263690
 726  000E              ;# 726 "C:\Users\Tech\Desktop\CODetector\sevenSegment3DigitComplex\SevenSegment3DigitComplex.c" 1
 726  000E              	ERRMESSAGE 'the value 1000of the argument exceeds the maxinum 263690'
 726  000E              	ENDIF
 726  000E              ;# 726 "C:\Users\Tech\Desktop\CODetector\sevenSegment3DigitComplex\SevenSegment3DigitComplex.c" 1
 726  000E              	IF 1000<0
 726  000E              ;# 726 "C:\Users\Tech\Desktop\CODetector\sevenSegment3DigitComplex\SevenSegment3DigitComplex.c" 1
 726  000E              	ERRMESSAGE 'the value 1000 of the argument exceeds the mininum 0'
 726  000E              	ENDIF
 726  000E              ;# 726 "C:\Users\Tech\Desktop\CODetector\sevenSegment3DigitComplex\SevenSegment3DigitComplex.c" 1
 726  000E              	IF 1000==0
 726  000E              ;# 726 "C:\Users\Tech\Desktop\CODetector\sevenSegment3DigitComplex\SevenSegment3DigitComplex.c" 1
 726  000E              	JMP $
 726  000E              	ENDIF
 726  000E              ;# 726 "C:\Users\Tech\Desktop\CODetector\sevenSegment3DigitComplex\SevenSegment3DigitComplex.c" 1
 726  000E              	IF 1000==1
 726  000E              ;# 726 "C:\Users\Tech\Desktop\CODetector\sevenSegment3DigitComplex\SevenSegment3DigitComplex.c" 1
 726  000E              	NOP
 726  000E              	ENDIF
 726  000E              ;# 726 "C:\Users\Tech\Desktop\CODetector\sevenSegment3DigitComplex\SevenSegment3DigitComplex.c" 1
 726  000E              	IF 1000==2
 726  000E              ;# 726 "C:\Users\Tech\Desktop\CODetector\sevenSegment3DigitComplex\SevenSegment3DigitComplex.c" 1
 726  000E              	NOP
 726  000E              ;# 726 "C:\Users\Tech\Desktop\CODetector\sevenSegment3DigitComplex\SevenSegment3DigitComplex.c" 1
 726  000E              	NOP
 726  000E              	ENDIF
 726  000E              ;# 726 "C:\Users\Tech\Desktop\CODetector\sevenSegment3DigitComplex\SevenSegment3DigitComplex.c" 1
"File: SevenSegment3DigitComplex.c  Assembler  Version HGASM0202      Page 78

 726  000E              	IF 1000==3
 726  000E              ;# 726 "C:\Users\Tech\Desktop\CODetector\sevenSegment3DigitComplex\SevenSegment3DigitComplex.c" 1
 726  000E              	NOP
 726  000E              ;# 726 "C:\Users\Tech\Desktop\CODetector\sevenSegment3DigitComplex\SevenSegment3DigitComplex.c" 1
 726  000E              	NOP
 726  000E              ;# 726 "C:\Users\Tech\Desktop\CODetector\sevenSegment3DigitComplex\SevenSegment3DigitComplex.c" 1
 726  000E              	NOP
 726  000E              	ENDIF
 726  000E              ;# 726 "C:\Users\Tech\Desktop\CODetector\sevenSegment3DigitComplex\SevenSegment3DigitComplex.c" 1
 726  000E              	IF (1000<8) AND (1000>3)
 726  000E              ;# 726 "C:\Users\Tech\Desktop\CODetector\sevenSegment3DigitComplex\SevenSegment3DigitComplex.c" 1
 726  000E              	CALL __DELAY3 + 7 -1000
 726  000E              	ENDIF
 726  000E              ;# 726 "C:\Users\Tech\Desktop\CODetector\sevenSegment3DigitComplex\SevenSegment3DigitComplex.c" 1
 726  000E              	IF (1000< 0404h) AND (1000>7)
 726  000E              ;# 726 "C:\Users\Tech\Desktop\CODetector\sevenSegment3DigitComplex\SevenSegment3DigitComplex.c" 1
 726  000E  0FF9        	MOV A,1000/4-1
 726  000F              ;# 726 "C:\Users\Tech\Desktop\CODetector\sevenSegment3DigitComplex\SevenSegment3DigitComplex.c" 1
 726  000F  2000     E  	CALL __DELAYX3 + 3 -(1000 MOD 4)
 726  0010              	ENDIF
 726  0010              ;# 726 "C:\Users\Tech\Desktop\CODetector\sevenSegment3DigitComplex\SevenSegment3DigitComplex.c" 1
 726  0010              	IF (1000< 0x40B) AND (1000> 0403h)
 726  0010              ;# 726 "C:\Users\Tech\Desktop\CODetector\sevenSegment3DigitComplex\SevenSegment3DigitComplex.c" 1
 726  0010              	MOV A,0 
 726  0010              ;# 726 "C:\Users\Tech\Desktop\CODetector\sevenSegment3DigitComplex\SevenSegment3DigitComplex.c" 1
 726  0010              	CALL __DELAYX6 + 0x40a -1000
 726  0010              	ENDIF
 726  0010              ;# 726 "C:\Users\Tech\Desktop\CODetector\sevenSegment3DigitComplex\SevenSegment3DigitComplex.c" 1
 726  0010              	IF (1000 >= 0x40b) AND ((((1000-9)%0402h)/4+1)>256)
 726  0010              ;# 726 "C:\Users\Tech\Desktop\CODetector\sevenSegment3DigitComplex\SevenSegment3DigitComplex.c" 1
 726  0010              	MOV A,(1000-9)/0402h
 726  0010              ;# 726 "C:\Users\Tech\Desktop\CODetector\sevenSegment3DigitComplex\SevenSegment3DigitComplex.c" 1
 726  0010              	MOV _builtin_holtek_delay_2,A
 726  0010              ;# 726 "C:\Users\Tech\Desktop\CODetector\sevenSegment3DigitComplex\SevenSegment3DigitComplex.c" 1
 726  0010              	MOV A,0
 726  0010              ;# 726 "C:\Users\Tech\Desktop\CODetector\sevenSegment3DigitComplex\SevenSegment3DigitComplex.c" 1
 726  0010              	CALL __DELAYY5 +5- (((1000-9)%0402h)%6)
 726  0010              	ENDIF
 726  0010              ;# 726 "C:\Users\Tech\Desktop\CODetector\sevenSegment3DigitComplex\SevenSegment3DigitComplex.c" 1
 726  0010              	IF (1000 >= 0x40b) AND ((((1000-9)%0402h)/4+1)<=256)
 726  0010              ;# 726 "C:\Users\Tech\Desktop\CODetector\sevenSegment3DigitComplex\SevenSegment3DigitComplex.c" 1
 726  0010              	MOV A,(1000-9)/0402h
 726  0010              ;# 726 "C:\Users\Tech\Desktop\CODetector\sevenSegment3DigitComplex\SevenSegment3DigitComplex.c" 1
 726  0010              	MOV _builtin_holtek_delay_2,A
 726  0010              ;# 726 "C:\Users\Tech\Desktop\CODetector\sevenSegment3DigitComplex\SevenSegment3DigitComplex.c" 1
 726  0010              	MOV A,((1000-9)%0402h)/4+1
 726  0010              ;# 726 "C:\Users\Tech\Desktop\CODetector\sevenSegment3DigitComplex\SevenSegment3DigitComplex.c" 1
 726  0010              	CALL __DELAYY3 +3-(((1000-9)%0402h)%4)
 726  0010              	ENDIF
 727  0010              #line 727 "C:\Users\Tech\Desktop\CODetector\sevenSegment3DigitComplex\SevenSegment3DigitComplex.c"
 727  0010  3119        	set [25].2
 728  0011              #line 728 "C:\Users\Tech\Desktop\CODetector\sevenSegment3DigitComplex\SevenSegment3DigitComplex.c"
 728  0011  3099        	set [25].1
 729  0012              #line 729 "C:\Users\Tech\Desktop\CODetector\sevenSegment3DigitComplex\SevenSegment3DigitComplex.c"
 729  0012  3215        	set [21].4
 730  0013              #line 730 "C:\Users\Tech\Desktop\CODetector\sevenSegment3DigitComplex\SevenSegment3DigitComplex.c"
 730  0013  3015        	set [21].0
 731  0014              #line 731 "C:\Users\Tech\Desktop\CODetector\sevenSegment3DigitComplex\SevenSegment3DigitComplex.c"
 731  0014  3115        	set [21].2
 732  0015              #line 732 "C:\Users\Tech\Desktop\CODetector\sevenSegment3DigitComplex\SevenSegment3DigitComplex.c"
"File: SevenSegment3DigitComplex.c  Assembler  Version HGASM0202      Page 79

 732  0015  3199        	set [25].3
 734  0016              #line 734 "C:\Users\Tech\Desktop\CODetector\sevenSegment3DigitComplex\SevenSegment3DigitComplex.c"
 734  0016  3499        	clr [25].1
 735  0017              #line 735 "C:\Users\Tech\Desktop\CODetector\sevenSegment3DigitComplex\SevenSegment3DigitComplex.c"
 735  0017  3515        	clr [21].2
 736  0018              #line 736 "C:\Users\Tech\Desktop\CODetector\sevenSegment3DigitComplex\SevenSegment3DigitComplex.c"
 736  0018  3599        	clr [25].3
 737  0019              #line 737 "C:\Users\Tech\Desktop\CODetector\sevenSegment3DigitComplex\SevenSegment3DigitComplex.c"
 737  0019  3498        	clr [24].1
 738  001A              #line 738 "C:\Users\Tech\Desktop\CODetector\sevenSegment3DigitComplex\SevenSegment3DigitComplex.c"
 738  001A  3114        	set [20].2
 739  001B              #line 739 "C:\Users\Tech\Desktop\CODetector\sevenSegment3DigitComplex\SevenSegment3DigitComplex.c"
 739  001B  3198        	set [24].3
 740  001C              #line 740 "C:\Users\Tech\Desktop\CODetector\sevenSegment3DigitComplex\SevenSegment3DigitComplex.c"
 740  001C              ;# 740 "C:\Users\Tech\Desktop\CODetector\sevenSegment3DigitComplex\SevenSegment3DigitComplex.c" 1
 740  001C              	IF 1000>263690
 740  001C              ;# 740 "C:\Users\Tech\Desktop\CODetector\sevenSegment3DigitComplex\SevenSegment3DigitComplex.c" 1
 740  001C              	ERRMESSAGE 'the value 1000of the argument exceeds the maxinum 263690'
 740  001C              	ENDIF
 740  001C              ;# 740 "C:\Users\Tech\Desktop\CODetector\sevenSegment3DigitComplex\SevenSegment3DigitComplex.c" 1
 740  001C              	IF 1000<0
 740  001C              ;# 740 "C:\Users\Tech\Desktop\CODetector\sevenSegment3DigitComplex\SevenSegment3DigitComplex.c" 1
 740  001C              	ERRMESSAGE 'the value 1000 of the argument exceeds the mininum 0'
 740  001C              	ENDIF
 740  001C              ;# 740 "C:\Users\Tech\Desktop\CODetector\sevenSegment3DigitComplex\SevenSegment3DigitComplex.c" 1
 740  001C              	IF 1000==0
 740  001C              ;# 740 "C:\Users\Tech\Desktop\CODetector\sevenSegment3DigitComplex\SevenSegment3DigitComplex.c" 1
 740  001C              	JMP $
 740  001C              	ENDIF
 740  001C              ;# 740 "C:\Users\Tech\Desktop\CODetector\sevenSegment3DigitComplex\SevenSegment3DigitComplex.c" 1
 740  001C              	IF 1000==1
 740  001C              ;# 740 "C:\Users\Tech\Desktop\CODetector\sevenSegment3DigitComplex\SevenSegment3DigitComplex.c" 1
 740  001C              	NOP
 740  001C              	ENDIF
 740  001C              ;# 740 "C:\Users\Tech\Desktop\CODetector\sevenSegment3DigitComplex\SevenSegment3DigitComplex.c" 1
 740  001C              	IF 1000==2
 740  001C              ;# 740 "C:\Users\Tech\Desktop\CODetector\sevenSegment3DigitComplex\SevenSegment3DigitComplex.c" 1
 740  001C              	NOP
 740  001C              ;# 740 "C:\Users\Tech\Desktop\CODetector\sevenSegment3DigitComplex\SevenSegment3DigitComplex.c" 1
 740  001C              	NOP
 740  001C              	ENDIF
 740  001C              ;# 740 "C:\Users\Tech\Desktop\CODetector\sevenSegment3DigitComplex\SevenSegment3DigitComplex.c" 1
 740  001C              	IF 1000==3
 740  001C              ;# 740 "C:\Users\Tech\Desktop\CODetector\sevenSegment3DigitComplex\SevenSegment3DigitComplex.c" 1
 740  001C              	NOP
 740  001C              ;# 740 "C:\Users\Tech\Desktop\CODetector\sevenSegment3DigitComplex\SevenSegment3DigitComplex.c" 1
 740  001C              	NOP
 740  001C              ;# 740 "C:\Users\Tech\Desktop\CODetector\sevenSegment3DigitComplex\SevenSegment3DigitComplex.c" 1
 740  001C              	NOP
 740  001C              	ENDIF
 740  001C              ;# 740 "C:\Users\Tech\Desktop\CODetector\sevenSegment3DigitComplex\SevenSegment3DigitComplex.c" 1
 740  001C              	IF (1000<8) AND (1000>3)
 740  001C              ;# 740 "C:\Users\Tech\Desktop\CODetector\sevenSegment3DigitComplex\SevenSegment3DigitComplex.c" 1
 740  001C              	CALL __DELAY3 + 7 -1000
 740  001C              	ENDIF
 740  001C              ;# 740 "C:\Users\Tech\Desktop\CODetector\sevenSegment3DigitComplex\SevenSegment3DigitComplex.c" 1
 740  001C              	IF (1000< 0404h) AND (1000>7)
 740  001C              ;# 740 "C:\Users\Tech\Desktop\CODetector\sevenSegment3DigitComplex\SevenSegment3DigitComplex.c" 1
 740  001C  0FF9        	MOV A,1000/4-1
 740  001D              ;# 740 "C:\Users\Tech\Desktop\CODetector\sevenSegment3DigitComplex\SevenSegment3DigitComplex.c" 1
"File: SevenSegment3DigitComplex.c  Assembler  Version HGASM0202      Page 80

 740  001D  2000     E  	CALL __DELAYX3 + 3 -(1000 MOD 4)
 740  001E              	ENDIF
 740  001E              ;# 740 "C:\Users\Tech\Desktop\CODetector\sevenSegment3DigitComplex\SevenSegment3DigitComplex.c" 1
 740  001E              	IF (1000< 0x40B) AND (1000> 0403h)
 740  001E              ;# 740 "C:\Users\Tech\Desktop\CODetector\sevenSegment3DigitComplex\SevenSegment3DigitComplex.c" 1
 740  001E              	MOV A,0 
 740  001E              ;# 740 "C:\Users\Tech\Desktop\CODetector\sevenSegment3DigitComplex\SevenSegment3DigitComplex.c" 1
 740  001E              	CALL __DELAYX6 + 0x40a -1000
 740  001E              	ENDIF
 740  001E              ;# 740 "C:\Users\Tech\Desktop\CODetector\sevenSegment3DigitComplex\SevenSegment3DigitComplex.c" 1
 740  001E              	IF (1000 >= 0x40b) AND ((((1000-9)%0402h)/4+1)>256)
 740  001E              ;# 740 "C:\Users\Tech\Desktop\CODetector\sevenSegment3DigitComplex\SevenSegment3DigitComplex.c" 1
 740  001E              	MOV A,(1000-9)/0402h
 740  001E              ;# 740 "C:\Users\Tech\Desktop\CODetector\sevenSegment3DigitComplex\SevenSegment3DigitComplex.c" 1
 740  001E              	MOV _builtin_holtek_delay_2,A
 740  001E              ;# 740 "C:\Users\Tech\Desktop\CODetector\sevenSegment3DigitComplex\SevenSegment3DigitComplex.c" 1
 740  001E              	MOV A,0
 740  001E              ;# 740 "C:\Users\Tech\Desktop\CODetector\sevenSegment3DigitComplex\SevenSegment3DigitComplex.c" 1
 740  001E              	CALL __DELAYY5 +5- (((1000-9)%0402h)%6)
 740  001E              	ENDIF
 740  001E              ;# 740 "C:\Users\Tech\Desktop\CODetector\sevenSegment3DigitComplex\SevenSegment3DigitComplex.c" 1
 740  001E              	IF (1000 >= 0x40b) AND ((((1000-9)%0402h)/4+1)<=256)
 740  001E              ;# 740 "C:\Users\Tech\Desktop\CODetector\sevenSegment3DigitComplex\SevenSegment3DigitComplex.c" 1
 740  001E              	MOV A,(1000-9)/0402h
 740  001E              ;# 740 "C:\Users\Tech\Desktop\CODetector\sevenSegment3DigitComplex\SevenSegment3DigitComplex.c" 1
 740  001E              	MOV _builtin_holtek_delay_2,A
 740  001E              ;# 740 "C:\Users\Tech\Desktop\CODetector\sevenSegment3DigitComplex\SevenSegment3DigitComplex.c" 1
 740  001E              	MOV A,((1000-9)%0402h)/4+1
 740  001E              ;# 740 "C:\Users\Tech\Desktop\CODetector\sevenSegment3DigitComplex\SevenSegment3DigitComplex.c" 1
 740  001E              	CALL __DELAYY3 +3-(((1000-9)%0402h)%4)
 740  001E              	ENDIF
 740  001E  0003        	ret
 740  001F              _fiveDigit2 endp
 740  001F              #line 740 "C:\Users\Tech\Desktop\CODetector\sevenSegment3DigitComplex\SevenSegment3DigitComplex.c"
 740  001F              #pragma debug scope 1 1
 740  001F              public _fiveDigit3
 740  001F              #pragma debug scope 21 1
 744  001F              #line 744 "C:\Users\Tech\Desktop\CODetector\sevenSegment3DigitComplex\SevenSegment3DigitComplex.c"
 744  0000              _fiveDigit3 .section 'code'
 744  0000              _fiveDigit3 proc
 745  0000              #line 745 "C:\Users\Tech\Desktop\CODetector\sevenSegment3DigitComplex\SevenSegment3DigitComplex.c"
 745  0000  3119        	set [25].2
 746  0001              #line 746 "C:\Users\Tech\Desktop\CODetector\sevenSegment3DigitComplex\SevenSegment3DigitComplex.c"
 746  0001  3099        	set [25].1
 747  0002              #line 747 "C:\Users\Tech\Desktop\CODetector\sevenSegment3DigitComplex\SevenSegment3DigitComplex.c"
 747  0002  3215        	set [21].4
 748  0003              #line 748 "C:\Users\Tech\Desktop\CODetector\sevenSegment3DigitComplex\SevenSegment3DigitComplex.c"
 748  0003  3015        	set [21].0
 749  0004              #line 749 "C:\Users\Tech\Desktop\CODetector\sevenSegment3DigitComplex\SevenSegment3DigitComplex.c"
 749  0004  3115        	set [21].2
 750  0005              #line 750 "C:\Users\Tech\Desktop\CODetector\sevenSegment3DigitComplex\SevenSegment3DigitComplex.c"
 750  0005  3199        	set [25].3
 753  0006              #line 753 "C:\Users\Tech\Desktop\CODetector\sevenSegment3DigitComplex\SevenSegment3DigitComplex.c"
 753  0006  3499        	clr [25].1
 754  0007              #line 754 "C:\Users\Tech\Desktop\CODetector\sevenSegment3DigitComplex\SevenSegment3DigitComplex.c"
 754  0007  3615        	clr [21].4
 755  0008              #line 755 "C:\Users\Tech\Desktop\CODetector\sevenSegment3DigitComplex\SevenSegment3DigitComplex.c"
 755  0008  3515        	clr [21].2
 756  0009              #line 756 "C:\Users\Tech\Desktop\CODetector\sevenSegment3DigitComplex\SevenSegment3DigitComplex.c"
 756  0009  3599        	clr [25].3
"File: SevenSegment3DigitComplex.c  Assembler  Version HGASM0202      Page 81

 757  000A              #line 757 "C:\Users\Tech\Desktop\CODetector\sevenSegment3DigitComplex\SevenSegment3DigitComplex.c"
 757  000A  3098        	set [24].1
 758  000B              #line 758 "C:\Users\Tech\Desktop\CODetector\sevenSegment3DigitComplex\SevenSegment3DigitComplex.c"
 758  000B  3614        	clr [20].4
 759  000C              #line 759 "C:\Users\Tech\Desktop\CODetector\sevenSegment3DigitComplex\SevenSegment3DigitComplex.c"
 759  000C  3514        	clr [20].2
 760  000D              #line 760 "C:\Users\Tech\Desktop\CODetector\sevenSegment3DigitComplex\SevenSegment3DigitComplex.c"
 760  000D  3598        	clr [24].3
 761  000E              #line 761 "C:\Users\Tech\Desktop\CODetector\sevenSegment3DigitComplex\SevenSegment3DigitComplex.c"
 761  000E              ;# 761 "C:\Users\Tech\Desktop\CODetector\sevenSegment3DigitComplex\SevenSegment3DigitComplex.c" 1
 761  000E              	IF 1000>263690
 761  000E              ;# 761 "C:\Users\Tech\Desktop\CODetector\sevenSegment3DigitComplex\SevenSegment3DigitComplex.c" 1
 761  000E              	ERRMESSAGE 'the value 1000of the argument exceeds the maxinum 263690'
 761  000E              	ENDIF
 761  000E              ;# 761 "C:\Users\Tech\Desktop\CODetector\sevenSegment3DigitComplex\SevenSegment3DigitComplex.c" 1
 761  000E              	IF 1000<0
 761  000E              ;# 761 "C:\Users\Tech\Desktop\CODetector\sevenSegment3DigitComplex\SevenSegment3DigitComplex.c" 1
 761  000E              	ERRMESSAGE 'the value 1000 of the argument exceeds the mininum 0'
 761  000E              	ENDIF
 761  000E              ;# 761 "C:\Users\Tech\Desktop\CODetector\sevenSegment3DigitComplex\SevenSegment3DigitComplex.c" 1
 761  000E              	IF 1000==0
 761  000E              ;# 761 "C:\Users\Tech\Desktop\CODetector\sevenSegment3DigitComplex\SevenSegment3DigitComplex.c" 1
 761  000E              	JMP $
 761  000E              	ENDIF
 761  000E              ;# 761 "C:\Users\Tech\Desktop\CODetector\sevenSegment3DigitComplex\SevenSegment3DigitComplex.c" 1
 761  000E              	IF 1000==1
 761  000E              ;# 761 "C:\Users\Tech\Desktop\CODetector\sevenSegment3DigitComplex\SevenSegment3DigitComplex.c" 1
 761  000E              	NOP
 761  000E              	ENDIF
 761  000E              ;# 761 "C:\Users\Tech\Desktop\CODetector\sevenSegment3DigitComplex\SevenSegment3DigitComplex.c" 1
 761  000E              	IF 1000==2
 761  000E              ;# 761 "C:\Users\Tech\Desktop\CODetector\sevenSegment3DigitComplex\SevenSegment3DigitComplex.c" 1
 761  000E              	NOP
 761  000E              ;# 761 "C:\Users\Tech\Desktop\CODetector\sevenSegment3DigitComplex\SevenSegment3DigitComplex.c" 1
 761  000E              	NOP
 761  000E              	ENDIF
 761  000E              ;# 761 "C:\Users\Tech\Desktop\CODetector\sevenSegment3DigitComplex\SevenSegment3DigitComplex.c" 1
 761  000E              	IF 1000==3
 761  000E              ;# 761 "C:\Users\Tech\Desktop\CODetector\sevenSegment3DigitComplex\SevenSegment3DigitComplex.c" 1
 761  000E              	NOP
 761  000E              ;# 761 "C:\Users\Tech\Desktop\CODetector\sevenSegment3DigitComplex\SevenSegment3DigitComplex.c" 1
 761  000E              	NOP
 761  000E              ;# 761 "C:\Users\Tech\Desktop\CODetector\sevenSegment3DigitComplex\SevenSegment3DigitComplex.c" 1
 761  000E              	NOP
 761  000E              	ENDIF
 761  000E              ;# 761 "C:\Users\Tech\Desktop\CODetector\sevenSegment3DigitComplex\SevenSegment3DigitComplex.c" 1
 761  000E              	IF (1000<8) AND (1000>3)
 761  000E              ;# 761 "C:\Users\Tech\Desktop\CODetector\sevenSegment3DigitComplex\SevenSegment3DigitComplex.c" 1
 761  000E              	CALL __DELAY3 + 7 -1000
 761  000E              	ENDIF
 761  000E              ;# 761 "C:\Users\Tech\Desktop\CODetector\sevenSegment3DigitComplex\SevenSegment3DigitComplex.c" 1
 761  000E              	IF (1000< 0404h) AND (1000>7)
 761  000E              ;# 761 "C:\Users\Tech\Desktop\CODetector\sevenSegment3DigitComplex\SevenSegment3DigitComplex.c" 1
 761  000E  0FF9        	MOV A,1000/4-1
 761  000F              ;# 761 "C:\Users\Tech\Desktop\CODetector\sevenSegment3DigitComplex\SevenSegment3DigitComplex.c" 1
 761  000F  2000     E  	CALL __DELAYX3 + 3 -(1000 MOD 4)
 761  0010              	ENDIF
 761  0010              ;# 761 "C:\Users\Tech\Desktop\CODetector\sevenSegment3DigitComplex\SevenSegment3DigitComplex.c" 1
 761  0010              	IF (1000< 0x40B) AND (1000> 0403h)
 761  0010              ;# 761 "C:\Users\Tech\Desktop\CODetector\sevenSegment3DigitComplex\SevenSegment3DigitComplex.c" 1
"File: SevenSegment3DigitComplex.c  Assembler  Version HGASM0202      Page 82

 761  0010              	MOV A,0 
 761  0010              ;# 761 "C:\Users\Tech\Desktop\CODetector\sevenSegment3DigitComplex\SevenSegment3DigitComplex.c" 1
 761  0010              	CALL __DELAYX6 + 0x40a -1000
 761  0010              	ENDIF
 761  0010              ;# 761 "C:\Users\Tech\Desktop\CODetector\sevenSegment3DigitComplex\SevenSegment3DigitComplex.c" 1
 761  0010              	IF (1000 >= 0x40b) AND ((((1000-9)%0402h)/4+1)>256)
 761  0010              ;# 761 "C:\Users\Tech\Desktop\CODetector\sevenSegment3DigitComplex\SevenSegment3DigitComplex.c" 1
 761  0010              	MOV A,(1000-9)/0402h
 761  0010              ;# 761 "C:\Users\Tech\Desktop\CODetector\sevenSegment3DigitComplex\SevenSegment3DigitComplex.c" 1
 761  0010              	MOV _builtin_holtek_delay_2,A
 761  0010              ;# 761 "C:\Users\Tech\Desktop\CODetector\sevenSegment3DigitComplex\SevenSegment3DigitComplex.c" 1
 761  0010              	MOV A,0
 761  0010              ;# 761 "C:\Users\Tech\Desktop\CODetector\sevenSegment3DigitComplex\SevenSegment3DigitComplex.c" 1
 761  0010              	CALL __DELAYY5 +5- (((1000-9)%0402h)%6)
 761  0010              	ENDIF
 761  0010              ;# 761 "C:\Users\Tech\Desktop\CODetector\sevenSegment3DigitComplex\SevenSegment3DigitComplex.c" 1
 761  0010              	IF (1000 >= 0x40b) AND ((((1000-9)%0402h)/4+1)<=256)
 761  0010              ;# 761 "C:\Users\Tech\Desktop\CODetector\sevenSegment3DigitComplex\SevenSegment3DigitComplex.c" 1
 761  0010              	MOV A,(1000-9)/0402h
 761  0010              ;# 761 "C:\Users\Tech\Desktop\CODetector\sevenSegment3DigitComplex\SevenSegment3DigitComplex.c" 1
 761  0010              	MOV _builtin_holtek_delay_2,A
 761  0010              ;# 761 "C:\Users\Tech\Desktop\CODetector\sevenSegment3DigitComplex\SevenSegment3DigitComplex.c" 1
 761  0010              	MOV A,((1000-9)%0402h)/4+1
 761  0010              ;# 761 "C:\Users\Tech\Desktop\CODetector\sevenSegment3DigitComplex\SevenSegment3DigitComplex.c" 1
 761  0010              	CALL __DELAYY3 +3-(((1000-9)%0402h)%4)
 761  0010              	ENDIF
 762  0010              #line 762 "C:\Users\Tech\Desktop\CODetector\sevenSegment3DigitComplex\SevenSegment3DigitComplex.c"
 762  0010  3119        	set [25].2
 763  0011              #line 763 "C:\Users\Tech\Desktop\CODetector\sevenSegment3DigitComplex\SevenSegment3DigitComplex.c"
 763  0011  3099        	set [25].1
 764  0012              #line 764 "C:\Users\Tech\Desktop\CODetector\sevenSegment3DigitComplex\SevenSegment3DigitComplex.c"
 764  0012  3215        	set [21].4
 765  0013              #line 765 "C:\Users\Tech\Desktop\CODetector\sevenSegment3DigitComplex\SevenSegment3DigitComplex.c"
 765  0013  3015        	set [21].0
 766  0014              #line 766 "C:\Users\Tech\Desktop\CODetector\sevenSegment3DigitComplex\SevenSegment3DigitComplex.c"
 766  0014  3115        	set [21].2
 767  0015              #line 767 "C:\Users\Tech\Desktop\CODetector\sevenSegment3DigitComplex\SevenSegment3DigitComplex.c"
 767  0015  3199        	set [25].3
 769  0016              #line 769 "C:\Users\Tech\Desktop\CODetector\sevenSegment3DigitComplex\SevenSegment3DigitComplex.c"
 769  0016  3615        	clr [21].4
 770  0017              #line 770 "C:\Users\Tech\Desktop\CODetector\sevenSegment3DigitComplex\SevenSegment3DigitComplex.c"
 770  0017  3515        	clr [21].2
 771  0018              #line 771 "C:\Users\Tech\Desktop\CODetector\sevenSegment3DigitComplex\SevenSegment3DigitComplex.c"
 771  0018  3599        	clr [25].3
 772  0019              #line 772 "C:\Users\Tech\Desktop\CODetector\sevenSegment3DigitComplex\SevenSegment3DigitComplex.c"
 772  0019  3214        	set [20].4
 773  001A              #line 773 "C:\Users\Tech\Desktop\CODetector\sevenSegment3DigitComplex\SevenSegment3DigitComplex.c"
 773  001A  3514        	clr [20].2
 774  001B              #line 774 "C:\Users\Tech\Desktop\CODetector\sevenSegment3DigitComplex\SevenSegment3DigitComplex.c"
 774  001B  3598        	clr [24].3
 775  001C              #line 775 "C:\Users\Tech\Desktop\CODetector\sevenSegment3DigitComplex\SevenSegment3DigitComplex.c"
 775  001C              ;# 775 "C:\Users\Tech\Desktop\CODetector\sevenSegment3DigitComplex\SevenSegment3DigitComplex.c" 1
 775  001C              	IF 1000>263690
 775  001C              ;# 775 "C:\Users\Tech\Desktop\CODetector\sevenSegment3DigitComplex\SevenSegment3DigitComplex.c" 1
 775  001C              	ERRMESSAGE 'the value 1000of the argument exceeds the maxinum 263690'
 775  001C              	ENDIF
 775  001C              ;# 775 "C:\Users\Tech\Desktop\CODetector\sevenSegment3DigitComplex\SevenSegment3DigitComplex.c" 1
 775  001C              	IF 1000<0
 775  001C              ;# 775 "C:\Users\Tech\Desktop\CODetector\sevenSegment3DigitComplex\SevenSegment3DigitComplex.c" 1
 775  001C              	ERRMESSAGE 'the value 1000 of the argument exceeds the mininum 0'
"File: SevenSegment3DigitComplex.c  Assembler  Version HGASM0202      Page 83

 775  001C              	ENDIF
 775  001C              ;# 775 "C:\Users\Tech\Desktop\CODetector\sevenSegment3DigitComplex\SevenSegment3DigitComplex.c" 1
 775  001C              	IF 1000==0
 775  001C              ;# 775 "C:\Users\Tech\Desktop\CODetector\sevenSegment3DigitComplex\SevenSegment3DigitComplex.c" 1
 775  001C              	JMP $
 775  001C              	ENDIF
 775  001C              ;# 775 "C:\Users\Tech\Desktop\CODetector\sevenSegment3DigitComplex\SevenSegment3DigitComplex.c" 1
 775  001C              	IF 1000==1
 775  001C              ;# 775 "C:\Users\Tech\Desktop\CODetector\sevenSegment3DigitComplex\SevenSegment3DigitComplex.c" 1
 775  001C              	NOP
 775  001C              	ENDIF
 775  001C              ;# 775 "C:\Users\Tech\Desktop\CODetector\sevenSegment3DigitComplex\SevenSegment3DigitComplex.c" 1
 775  001C              	IF 1000==2
 775  001C              ;# 775 "C:\Users\Tech\Desktop\CODetector\sevenSegment3DigitComplex\SevenSegment3DigitComplex.c" 1
 775  001C              	NOP
 775  001C              ;# 775 "C:\Users\Tech\Desktop\CODetector\sevenSegment3DigitComplex\SevenSegment3DigitComplex.c" 1
 775  001C              	NOP
 775  001C              	ENDIF
 775  001C              ;# 775 "C:\Users\Tech\Desktop\CODetector\sevenSegment3DigitComplex\SevenSegment3DigitComplex.c" 1
 775  001C              	IF 1000==3
 775  001C              ;# 775 "C:\Users\Tech\Desktop\CODetector\sevenSegment3DigitComplex\SevenSegment3DigitComplex.c" 1
 775  001C              	NOP
 775  001C              ;# 775 "C:\Users\Tech\Desktop\CODetector\sevenSegment3DigitComplex\SevenSegment3DigitComplex.c" 1
 775  001C              	NOP
 775  001C              ;# 775 "C:\Users\Tech\Desktop\CODetector\sevenSegment3DigitComplex\SevenSegment3DigitComplex.c" 1
 775  001C              	NOP
 775  001C              	ENDIF
 775  001C              ;# 775 "C:\Users\Tech\Desktop\CODetector\sevenSegment3DigitComplex\SevenSegment3DigitComplex.c" 1
 775  001C              	IF (1000<8) AND (1000>3)
 775  001C              ;# 775 "C:\Users\Tech\Desktop\CODetector\sevenSegment3DigitComplex\SevenSegment3DigitComplex.c" 1
 775  001C              	CALL __DELAY3 + 7 -1000
 775  001C              	ENDIF
 775  001C              ;# 775 "C:\Users\Tech\Desktop\CODetector\sevenSegment3DigitComplex\SevenSegment3DigitComplex.c" 1
 775  001C              	IF (1000< 0404h) AND (1000>7)
 775  001C              ;# 775 "C:\Users\Tech\Desktop\CODetector\sevenSegment3DigitComplex\SevenSegment3DigitComplex.c" 1
 775  001C  0FF9        	MOV A,1000/4-1
 775  001D              ;# 775 "C:\Users\Tech\Desktop\CODetector\sevenSegment3DigitComplex\SevenSegment3DigitComplex.c" 1
 775  001D  2000     E  	CALL __DELAYX3 + 3 -(1000 MOD 4)
 775  001E              	ENDIF
 775  001E              ;# 775 "C:\Users\Tech\Desktop\CODetector\sevenSegment3DigitComplex\SevenSegment3DigitComplex.c" 1
 775  001E              	IF (1000< 0x40B) AND (1000> 0403h)
 775  001E              ;# 775 "C:\Users\Tech\Desktop\CODetector\sevenSegment3DigitComplex\SevenSegment3DigitComplex.c" 1
 775  001E              	MOV A,0 
 775  001E              ;# 775 "C:\Users\Tech\Desktop\CODetector\sevenSegment3DigitComplex\SevenSegment3DigitComplex.c" 1
 775  001E              	CALL __DELAYX6 + 0x40a -1000
 775  001E              	ENDIF
 775  001E              ;# 775 "C:\Users\Tech\Desktop\CODetector\sevenSegment3DigitComplex\SevenSegment3DigitComplex.c" 1
 775  001E              	IF (1000 >= 0x40b) AND ((((1000-9)%0402h)/4+1)>256)
 775  001E              ;# 775 "C:\Users\Tech\Desktop\CODetector\sevenSegment3DigitComplex\SevenSegment3DigitComplex.c" 1
 775  001E              	MOV A,(1000-9)/0402h
 775  001E              ;# 775 "C:\Users\Tech\Desktop\CODetector\sevenSegment3DigitComplex\SevenSegment3DigitComplex.c" 1
 775  001E              	MOV _builtin_holtek_delay_2,A
 775  001E              ;# 775 "C:\Users\Tech\Desktop\CODetector\sevenSegment3DigitComplex\SevenSegment3DigitComplex.c" 1
 775  001E              	MOV A,0
 775  001E              ;# 775 "C:\Users\Tech\Desktop\CODetector\sevenSegment3DigitComplex\SevenSegment3DigitComplex.c" 1
 775  001E              	CALL __DELAYY5 +5- (((1000-9)%0402h)%6)
 775  001E              	ENDIF
 775  001E              ;# 775 "C:\Users\Tech\Desktop\CODetector\sevenSegment3DigitComplex\SevenSegment3DigitComplex.c" 1
 775  001E              	IF (1000 >= 0x40b) AND ((((1000-9)%0402h)/4+1)<=256)
 775  001E              ;# 775 "C:\Users\Tech\Desktop\CODetector\sevenSegment3DigitComplex\SevenSegment3DigitComplex.c" 1
"File: SevenSegment3DigitComplex.c  Assembler  Version HGASM0202      Page 84

 775  001E              	MOV A,(1000-9)/0402h
 775  001E              ;# 775 "C:\Users\Tech\Desktop\CODetector\sevenSegment3DigitComplex\SevenSegment3DigitComplex.c" 1
 775  001E              	MOV _builtin_holtek_delay_2,A
 775  001E              ;# 775 "C:\Users\Tech\Desktop\CODetector\sevenSegment3DigitComplex\SevenSegment3DigitComplex.c" 1
 775  001E              	MOV A,((1000-9)%0402h)/4+1
 775  001E              ;# 775 "C:\Users\Tech\Desktop\CODetector\sevenSegment3DigitComplex\SevenSegment3DigitComplex.c" 1
 775  001E              	CALL __DELAYY3 +3-(((1000-9)%0402h)%4)
 775  001E              	ENDIF
 775  001E  0003        	ret
 775  001F              _fiveDigit3 endp
 775  001F              #line 775 "C:\Users\Tech\Desktop\CODetector\sevenSegment3DigitComplex\SevenSegment3DigitComplex.c"
 775  001F              #pragma debug scope 1 1
 775  001F              public _sixDigit1
 775  001F              #pragma debug scope 22 1
 780  001F              #line 780 "C:\Users\Tech\Desktop\CODetector\sevenSegment3DigitComplex\SevenSegment3DigitComplex.c"
 780  0000              _sixDigit1 .section 'code'
 780  0000              _sixDigit1 proc
 781  0000              #line 781 "C:\Users\Tech\Desktop\CODetector\sevenSegment3DigitComplex\SevenSegment3DigitComplex.c"
 781  0000  3119        	set [25].2
 782  0001              #line 782 "C:\Users\Tech\Desktop\CODetector\sevenSegment3DigitComplex\SevenSegment3DigitComplex.c"
 782  0001  3099        	set [25].1
 783  0002              #line 783 "C:\Users\Tech\Desktop\CODetector\sevenSegment3DigitComplex\SevenSegment3DigitComplex.c"
 783  0002  3215        	set [21].4
 784  0003              #line 784 "C:\Users\Tech\Desktop\CODetector\sevenSegment3DigitComplex\SevenSegment3DigitComplex.c"
 784  0003  3015        	set [21].0
 785  0004              #line 785 "C:\Users\Tech\Desktop\CODetector\sevenSegment3DigitComplex\SevenSegment3DigitComplex.c"
 785  0004  3115        	set [21].2
 786  0005              #line 786 "C:\Users\Tech\Desktop\CODetector\sevenSegment3DigitComplex\SevenSegment3DigitComplex.c"
 786  0005  3199        	set [25].3
 789  0006              #line 789 "C:\Users\Tech\Desktop\CODetector\sevenSegment3DigitComplex\SevenSegment3DigitComplex.c"
 789  0006  3519        	clr [25].2
 790  0007              #line 790 "C:\Users\Tech\Desktop\CODetector\sevenSegment3DigitComplex\SevenSegment3DigitComplex.c"
 790  0007  3499        	clr [25].1
 791  0008              #line 791 "C:\Users\Tech\Desktop\CODetector\sevenSegment3DigitComplex\SevenSegment3DigitComplex.c"
 791  0008  3415        	clr [21].0
 792  0009              #line 792 "C:\Users\Tech\Desktop\CODetector\sevenSegment3DigitComplex\SevenSegment3DigitComplex.c"
 792  0009  3515        	clr [21].2
 793  000A              #line 793 "C:\Users\Tech\Desktop\CODetector\sevenSegment3DigitComplex\SevenSegment3DigitComplex.c"
 793  000A  3599        	clr [25].3
 794  000B              #line 794 "C:\Users\Tech\Desktop\CODetector\sevenSegment3DigitComplex\SevenSegment3DigitComplex.c"
 794  000B  3518        	clr [24].2
 795  000C              #line 795 "C:\Users\Tech\Desktop\CODetector\sevenSegment3DigitComplex\SevenSegment3DigitComplex.c"
 795  000C  3098        	set [24].1
 796  000D              #line 796 "C:\Users\Tech\Desktop\CODetector\sevenSegment3DigitComplex\SevenSegment3DigitComplex.c"
 796  000D  3014        	set [20].0
 797  000E              #line 797 "C:\Users\Tech\Desktop\CODetector\sevenSegment3DigitComplex\SevenSegment3DigitComplex.c"
 797  000E  3114        	set [20].2
 798  000F              #line 798 "C:\Users\Tech\Desktop\CODetector\sevenSegment3DigitComplex\SevenSegment3DigitComplex.c"
 798  000F  3198        	set [24].3
 799  0010              #line 799 "C:\Users\Tech\Desktop\CODetector\sevenSegment3DigitComplex\SevenSegment3DigitComplex.c"
 799  0010              ;# 799 "C:\Users\Tech\Desktop\CODetector\sevenSegment3DigitComplex\SevenSegment3DigitComplex.c" 1
 799  0010              	IF 1000>263690
 799  0010              ;# 799 "C:\Users\Tech\Desktop\CODetector\sevenSegment3DigitComplex\SevenSegment3DigitComplex.c" 1
 799  0010              	ERRMESSAGE 'the value 1000of the argument exceeds the maxinum 263690'
 799  0010              	ENDIF
 799  0010              ;# 799 "C:\Users\Tech\Desktop\CODetector\sevenSegment3DigitComplex\SevenSegment3DigitComplex.c" 1
 799  0010              	IF 1000<0
 799  0010              ;# 799 "C:\Users\Tech\Desktop\CODetector\sevenSegment3DigitComplex\SevenSegment3DigitComplex.c" 1
 799  0010              	ERRMESSAGE 'the value 1000 of the argument exceeds the mininum 0'
 799  0010              	ENDIF
"File: SevenSegment3DigitComplex.c  Assembler  Version HGASM0202      Page 85

 799  0010              ;# 799 "C:\Users\Tech\Desktop\CODetector\sevenSegment3DigitComplex\SevenSegment3DigitComplex.c" 1
 799  0010              	IF 1000==0
 799  0010              ;# 799 "C:\Users\Tech\Desktop\CODetector\sevenSegment3DigitComplex\SevenSegment3DigitComplex.c" 1
 799  0010              	JMP $
 799  0010              	ENDIF
 799  0010              ;# 799 "C:\Users\Tech\Desktop\CODetector\sevenSegment3DigitComplex\SevenSegment3DigitComplex.c" 1
 799  0010              	IF 1000==1
 799  0010              ;# 799 "C:\Users\Tech\Desktop\CODetector\sevenSegment3DigitComplex\SevenSegment3DigitComplex.c" 1
 799  0010              	NOP
 799  0010              	ENDIF
 799  0010              ;# 799 "C:\Users\Tech\Desktop\CODetector\sevenSegment3DigitComplex\SevenSegment3DigitComplex.c" 1
 799  0010              	IF 1000==2
 799  0010              ;# 799 "C:\Users\Tech\Desktop\CODetector\sevenSegment3DigitComplex\SevenSegment3DigitComplex.c" 1
 799  0010              	NOP
 799  0010              ;# 799 "C:\Users\Tech\Desktop\CODetector\sevenSegment3DigitComplex\SevenSegment3DigitComplex.c" 1
 799  0010              	NOP
 799  0010              	ENDIF
 799  0010              ;# 799 "C:\Users\Tech\Desktop\CODetector\sevenSegment3DigitComplex\SevenSegment3DigitComplex.c" 1
 799  0010              	IF 1000==3
 799  0010              ;# 799 "C:\Users\Tech\Desktop\CODetector\sevenSegment3DigitComplex\SevenSegment3DigitComplex.c" 1
 799  0010              	NOP
 799  0010              ;# 799 "C:\Users\Tech\Desktop\CODetector\sevenSegment3DigitComplex\SevenSegment3DigitComplex.c" 1
 799  0010              	NOP
 799  0010              ;# 799 "C:\Users\Tech\Desktop\CODetector\sevenSegment3DigitComplex\SevenSegment3DigitComplex.c" 1
 799  0010              	NOP
 799  0010              	ENDIF
 799  0010              ;# 799 "C:\Users\Tech\Desktop\CODetector\sevenSegment3DigitComplex\SevenSegment3DigitComplex.c" 1
 799  0010              	IF (1000<8) AND (1000>3)
 799  0010              ;# 799 "C:\Users\Tech\Desktop\CODetector\sevenSegment3DigitComplex\SevenSegment3DigitComplex.c" 1
 799  0010              	CALL __DELAY3 + 7 -1000
 799  0010              	ENDIF
 799  0010              ;# 799 "C:\Users\Tech\Desktop\CODetector\sevenSegment3DigitComplex\SevenSegment3DigitComplex.c" 1
 799  0010              	IF (1000< 0404h) AND (1000>7)
 799  0010              ;# 799 "C:\Users\Tech\Desktop\CODetector\sevenSegment3DigitComplex\SevenSegment3DigitComplex.c" 1
 799  0010  0FF9        	MOV A,1000/4-1
 799  0011              ;# 799 "C:\Users\Tech\Desktop\CODetector\sevenSegment3DigitComplex\SevenSegment3DigitComplex.c" 1
 799  0011  2000     E  	CALL __DELAYX3 + 3 -(1000 MOD 4)
 799  0012              	ENDIF
 799  0012              ;# 799 "C:\Users\Tech\Desktop\CODetector\sevenSegment3DigitComplex\SevenSegment3DigitComplex.c" 1
 799  0012              	IF (1000< 0x40B) AND (1000> 0403h)
 799  0012              ;# 799 "C:\Users\Tech\Desktop\CODetector\sevenSegment3DigitComplex\SevenSegment3DigitComplex.c" 1
 799  0012              	MOV A,0 
 799  0012              ;# 799 "C:\Users\Tech\Desktop\CODetector\sevenSegment3DigitComplex\SevenSegment3DigitComplex.c" 1
 799  0012              	CALL __DELAYX6 + 0x40a -1000
 799  0012              	ENDIF
 799  0012              ;# 799 "C:\Users\Tech\Desktop\CODetector\sevenSegment3DigitComplex\SevenSegment3DigitComplex.c" 1
 799  0012              	IF (1000 >= 0x40b) AND ((((1000-9)%0402h)/4+1)>256)
 799  0012              ;# 799 "C:\Users\Tech\Desktop\CODetector\sevenSegment3DigitComplex\SevenSegment3DigitComplex.c" 1
 799  0012              	MOV A,(1000-9)/0402h
 799  0012              ;# 799 "C:\Users\Tech\Desktop\CODetector\sevenSegment3DigitComplex\SevenSegment3DigitComplex.c" 1
 799  0012              	MOV _builtin_holtek_delay_2,A
 799  0012              ;# 799 "C:\Users\Tech\Desktop\CODetector\sevenSegment3DigitComplex\SevenSegment3DigitComplex.c" 1
 799  0012              	MOV A,0
 799  0012              ;# 799 "C:\Users\Tech\Desktop\CODetector\sevenSegment3DigitComplex\SevenSegment3DigitComplex.c" 1
 799  0012              	CALL __DELAYY5 +5- (((1000-9)%0402h)%6)
 799  0012              	ENDIF
 799  0012              ;# 799 "C:\Users\Tech\Desktop\CODetector\sevenSegment3DigitComplex\SevenSegment3DigitComplex.c" 1
 799  0012              	IF (1000 >= 0x40b) AND ((((1000-9)%0402h)/4+1)<=256)
 799  0012              ;# 799 "C:\Users\Tech\Desktop\CODetector\sevenSegment3DigitComplex\SevenSegment3DigitComplex.c" 1
 799  0012              	MOV A,(1000-9)/0402h
"File: SevenSegment3DigitComplex.c  Assembler  Version HGASM0202      Page 86

 799  0012              ;# 799 "C:\Users\Tech\Desktop\CODetector\sevenSegment3DigitComplex\SevenSegment3DigitComplex.c" 1
 799  0012              	MOV _builtin_holtek_delay_2,A
 799  0012              ;# 799 "C:\Users\Tech\Desktop\CODetector\sevenSegment3DigitComplex\SevenSegment3DigitComplex.c" 1
 799  0012              	MOV A,((1000-9)%0402h)/4+1
 799  0012              ;# 799 "C:\Users\Tech\Desktop\CODetector\sevenSegment3DigitComplex\SevenSegment3DigitComplex.c" 1
 799  0012              	CALL __DELAYY3 +3-(((1000-9)%0402h)%4)
 799  0012              	ENDIF
 800  0012              #line 800 "C:\Users\Tech\Desktop\CODetector\sevenSegment3DigitComplex\SevenSegment3DigitComplex.c"
 800  0012  3119        	set [25].2
 801  0013              #line 801 "C:\Users\Tech\Desktop\CODetector\sevenSegment3DigitComplex\SevenSegment3DigitComplex.c"
 801  0013  3099        	set [25].1
 802  0014              #line 802 "C:\Users\Tech\Desktop\CODetector\sevenSegment3DigitComplex\SevenSegment3DigitComplex.c"
 802  0014  3215        	set [21].4
 803  0015              #line 803 "C:\Users\Tech\Desktop\CODetector\sevenSegment3DigitComplex\SevenSegment3DigitComplex.c"
 803  0015  3015        	set [21].0
 804  0016              #line 804 "C:\Users\Tech\Desktop\CODetector\sevenSegment3DigitComplex\SevenSegment3DigitComplex.c"
 804  0016  3115        	set [21].2
 805  0017              #line 805 "C:\Users\Tech\Desktop\CODetector\sevenSegment3DigitComplex\SevenSegment3DigitComplex.c"
 805  0017  3199        	set [25].3
 806  0018              #line 806 "C:\Users\Tech\Desktop\CODetector\sevenSegment3DigitComplex\SevenSegment3DigitComplex.c"
 806  0018  3499        	clr [25].1
 807  0019              #line 807 "C:\Users\Tech\Desktop\CODetector\sevenSegment3DigitComplex\SevenSegment3DigitComplex.c"
 807  0019  3615        	clr [21].4
 808  001A              #line 808 "C:\Users\Tech\Desktop\CODetector\sevenSegment3DigitComplex\SevenSegment3DigitComplex.c"
 808  001A  3415        	clr [21].0
 809  001B              #line 809 "C:\Users\Tech\Desktop\CODetector\sevenSegment3DigitComplex\SevenSegment3DigitComplex.c"
 809  001B  3498        	clr [24].1
 810  001C              #line 810 "C:\Users\Tech\Desktop\CODetector\sevenSegment3DigitComplex\SevenSegment3DigitComplex.c"
 810  001C  3214        	set [20].4
 811  001D              #line 811 "C:\Users\Tech\Desktop\CODetector\sevenSegment3DigitComplex\SevenSegment3DigitComplex.c"
 811  001D  3014        	set [20].0
 812  001E              #line 812 "C:\Users\Tech\Desktop\CODetector\sevenSegment3DigitComplex\SevenSegment3DigitComplex.c"
 812  001E              ;# 812 "C:\Users\Tech\Desktop\CODetector\sevenSegment3DigitComplex\SevenSegment3DigitComplex.c" 1
 812  001E              	IF 1000>263690
 812  001E              ;# 812 "C:\Users\Tech\Desktop\CODetector\sevenSegment3DigitComplex\SevenSegment3DigitComplex.c" 1
 812  001E              	ERRMESSAGE 'the value 1000of the argument exceeds the maxinum 263690'
 812  001E              	ENDIF
 812  001E              ;# 812 "C:\Users\Tech\Desktop\CODetector\sevenSegment3DigitComplex\SevenSegment3DigitComplex.c" 1
 812  001E              	IF 1000<0
 812  001E              ;# 812 "C:\Users\Tech\Desktop\CODetector\sevenSegment3DigitComplex\SevenSegment3DigitComplex.c" 1
 812  001E              	ERRMESSAGE 'the value 1000 of the argument exceeds the mininum 0'
 812  001E              	ENDIF
 812  001E              ;# 812 "C:\Users\Tech\Desktop\CODetector\sevenSegment3DigitComplex\SevenSegment3DigitComplex.c" 1
 812  001E              	IF 1000==0
 812  001E              ;# 812 "C:\Users\Tech\Desktop\CODetector\sevenSegment3DigitComplex\SevenSegment3DigitComplex.c" 1
 812  001E              	JMP $
 812  001E              	ENDIF
 812  001E              ;# 812 "C:\Users\Tech\Desktop\CODetector\sevenSegment3DigitComplex\SevenSegment3DigitComplex.c" 1
 812  001E              	IF 1000==1
 812  001E              ;# 812 "C:\Users\Tech\Desktop\CODetector\sevenSegment3DigitComplex\SevenSegment3DigitComplex.c" 1
 812  001E              	NOP
 812  001E              	ENDIF
 812  001E              ;# 812 "C:\Users\Tech\Desktop\CODetector\sevenSegment3DigitComplex\SevenSegment3DigitComplex.c" 1
 812  001E              	IF 1000==2
 812  001E              ;# 812 "C:\Users\Tech\Desktop\CODetector\sevenSegment3DigitComplex\SevenSegment3DigitComplex.c" 1
 812  001E              	NOP
 812  001E              ;# 812 "C:\Users\Tech\Desktop\CODetector\sevenSegment3DigitComplex\SevenSegment3DigitComplex.c" 1
 812  001E              	NOP
 812  001E              	ENDIF
 812  001E              ;# 812 "C:\Users\Tech\Desktop\CODetector\sevenSegment3DigitComplex\SevenSegment3DigitComplex.c" 1
"File: SevenSegment3DigitComplex.c  Assembler  Version HGASM0202      Page 87

 812  001E              	IF 1000==3
 812  001E              ;# 812 "C:\Users\Tech\Desktop\CODetector\sevenSegment3DigitComplex\SevenSegment3DigitComplex.c" 1
 812  001E              	NOP
 812  001E              ;# 812 "C:\Users\Tech\Desktop\CODetector\sevenSegment3DigitComplex\SevenSegment3DigitComplex.c" 1
 812  001E              	NOP
 812  001E              ;# 812 "C:\Users\Tech\Desktop\CODetector\sevenSegment3DigitComplex\SevenSegment3DigitComplex.c" 1
 812  001E              	NOP
 812  001E              	ENDIF
 812  001E              ;# 812 "C:\Users\Tech\Desktop\CODetector\sevenSegment3DigitComplex\SevenSegment3DigitComplex.c" 1
 812  001E              	IF (1000<8) AND (1000>3)
 812  001E              ;# 812 "C:\Users\Tech\Desktop\CODetector\sevenSegment3DigitComplex\SevenSegment3DigitComplex.c" 1
 812  001E              	CALL __DELAY3 + 7 -1000
 812  001E              	ENDIF
 812  001E              ;# 812 "C:\Users\Tech\Desktop\CODetector\sevenSegment3DigitComplex\SevenSegment3DigitComplex.c" 1
 812  001E              	IF (1000< 0404h) AND (1000>7)
 812  001E              ;# 812 "C:\Users\Tech\Desktop\CODetector\sevenSegment3DigitComplex\SevenSegment3DigitComplex.c" 1
 812  001E  0FF9        	MOV A,1000/4-1
 812  001F              ;# 812 "C:\Users\Tech\Desktop\CODetector\sevenSegment3DigitComplex\SevenSegment3DigitComplex.c" 1
 812  001F  2000     E  	CALL __DELAYX3 + 3 -(1000 MOD 4)
 812  0020              	ENDIF
 812  0020              ;# 812 "C:\Users\Tech\Desktop\CODetector\sevenSegment3DigitComplex\SevenSegment3DigitComplex.c" 1
 812  0020              	IF (1000< 0x40B) AND (1000> 0403h)
 812  0020              ;# 812 "C:\Users\Tech\Desktop\CODetector\sevenSegment3DigitComplex\SevenSegment3DigitComplex.c" 1
 812  0020              	MOV A,0 
 812  0020              ;# 812 "C:\Users\Tech\Desktop\CODetector\sevenSegment3DigitComplex\SevenSegment3DigitComplex.c" 1
 812  0020              	CALL __DELAYX6 + 0x40a -1000
 812  0020              	ENDIF
 812  0020              ;# 812 "C:\Users\Tech\Desktop\CODetector\sevenSegment3DigitComplex\SevenSegment3DigitComplex.c" 1
 812  0020              	IF (1000 >= 0x40b) AND ((((1000-9)%0402h)/4+1)>256)
 812  0020              ;# 812 "C:\Users\Tech\Desktop\CODetector\sevenSegment3DigitComplex\SevenSegment3DigitComplex.c" 1
 812  0020              	MOV A,(1000-9)/0402h
 812  0020              ;# 812 "C:\Users\Tech\Desktop\CODetector\sevenSegment3DigitComplex\SevenSegment3DigitComplex.c" 1
 812  0020              	MOV _builtin_holtek_delay_2,A
 812  0020              ;# 812 "C:\Users\Tech\Desktop\CODetector\sevenSegment3DigitComplex\SevenSegment3DigitComplex.c" 1
 812  0020              	MOV A,0
 812  0020              ;# 812 "C:\Users\Tech\Desktop\CODetector\sevenSegment3DigitComplex\SevenSegment3DigitComplex.c" 1
 812  0020              	CALL __DELAYY5 +5- (((1000-9)%0402h)%6)
 812  0020              	ENDIF
 812  0020              ;# 812 "C:\Users\Tech\Desktop\CODetector\sevenSegment3DigitComplex\SevenSegment3DigitComplex.c" 1
 812  0020              	IF (1000 >= 0x40b) AND ((((1000-9)%0402h)/4+1)<=256)
 812  0020              ;# 812 "C:\Users\Tech\Desktop\CODetector\sevenSegment3DigitComplex\SevenSegment3DigitComplex.c" 1
 812  0020              	MOV A,(1000-9)/0402h
 812  0020              ;# 812 "C:\Users\Tech\Desktop\CODetector\sevenSegment3DigitComplex\SevenSegment3DigitComplex.c" 1
 812  0020              	MOV _builtin_holtek_delay_2,A
 812  0020              ;# 812 "C:\Users\Tech\Desktop\CODetector\sevenSegment3DigitComplex\SevenSegment3DigitComplex.c" 1
 812  0020              	MOV A,((1000-9)%0402h)/4+1
 812  0020              ;# 812 "C:\Users\Tech\Desktop\CODetector\sevenSegment3DigitComplex\SevenSegment3DigitComplex.c" 1
 812  0020              	CALL __DELAYY3 +3-(((1000-9)%0402h)%4)
 812  0020              	ENDIF
 812  0020  0003        	ret
 812  0021              _sixDigit1 endp
 812  0021              #line 812 "C:\Users\Tech\Desktop\CODetector\sevenSegment3DigitComplex\SevenSegment3DigitComplex.c"
 812  0021              #pragma debug scope 1 1
 812  0021              public _sixDigit2
 812  0021              #pragma debug scope 23 1
 816  0021              #line 816 "C:\Users\Tech\Desktop\CODetector\sevenSegment3DigitComplex\SevenSegment3DigitComplex.c"
 816  0000              _sixDigit2 .section 'code'
 816  0000              _sixDigit2 proc
 817  0000              #line 817 "C:\Users\Tech\Desktop\CODetector\sevenSegment3DigitComplex\SevenSegment3DigitComplex.c"
 817  0000  3119        	set [25].2
"File: SevenSegment3DigitComplex.c  Assembler  Version HGASM0202      Page 88

 818  0001              #line 818 "C:\Users\Tech\Desktop\CODetector\sevenSegment3DigitComplex\SevenSegment3DigitComplex.c"
 818  0001  3099        	set [25].1
 819  0002              #line 819 "C:\Users\Tech\Desktop\CODetector\sevenSegment3DigitComplex\SevenSegment3DigitComplex.c"
 819  0002  3215        	set [21].4
 820  0003              #line 820 "C:\Users\Tech\Desktop\CODetector\sevenSegment3DigitComplex\SevenSegment3DigitComplex.c"
 820  0003  3015        	set [21].0
 821  0004              #line 821 "C:\Users\Tech\Desktop\CODetector\sevenSegment3DigitComplex\SevenSegment3DigitComplex.c"
 821  0004  3115        	set [21].2
 822  0005              #line 822 "C:\Users\Tech\Desktop\CODetector\sevenSegment3DigitComplex\SevenSegment3DigitComplex.c"
 822  0005  3199        	set [25].3
 825  0006              #line 825 "C:\Users\Tech\Desktop\CODetector\sevenSegment3DigitComplex\SevenSegment3DigitComplex.c"
 825  0006  3519        	clr [25].2
 826  0007              #line 826 "C:\Users\Tech\Desktop\CODetector\sevenSegment3DigitComplex\SevenSegment3DigitComplex.c"
 826  0007  3499        	clr [25].1
 827  0008              #line 827 "C:\Users\Tech\Desktop\CODetector\sevenSegment3DigitComplex\SevenSegment3DigitComplex.c"
 827  0008  3415        	clr [21].0
 828  0009              #line 828 "C:\Users\Tech\Desktop\CODetector\sevenSegment3DigitComplex\SevenSegment3DigitComplex.c"
 828  0009  3515        	clr [21].2
 829  000A              #line 829 "C:\Users\Tech\Desktop\CODetector\sevenSegment3DigitComplex\SevenSegment3DigitComplex.c"
 829  000A  3599        	clr [25].3
 830  000B              #line 830 "C:\Users\Tech\Desktop\CODetector\sevenSegment3DigitComplex\SevenSegment3DigitComplex.c"
 830  000B  3118        	set [24].2
 831  000C              #line 831 "C:\Users\Tech\Desktop\CODetector\sevenSegment3DigitComplex\SevenSegment3DigitComplex.c"
 831  000C  3498        	clr [24].1
 832  000D              #line 832 "C:\Users\Tech\Desktop\CODetector\sevenSegment3DigitComplex\SevenSegment3DigitComplex.c"
 832  000D  3414        	clr [20].0
 833  000E              #line 833 "C:\Users\Tech\Desktop\CODetector\sevenSegment3DigitComplex\SevenSegment3DigitComplex.c"
 833  000E  3514        	clr [20].2
 834  000F              #line 834 "C:\Users\Tech\Desktop\CODetector\sevenSegment3DigitComplex\SevenSegment3DigitComplex.c"
 834  000F  3598        	clr [24].3
 835  0010              #line 835 "C:\Users\Tech\Desktop\CODetector\sevenSegment3DigitComplex\SevenSegment3DigitComplex.c"
 835  0010              ;# 835 "C:\Users\Tech\Desktop\CODetector\sevenSegment3DigitComplex\SevenSegment3DigitComplex.c" 1
 835  0010              	IF 1000>263690
 835  0010              ;# 835 "C:\Users\Tech\Desktop\CODetector\sevenSegment3DigitComplex\SevenSegment3DigitComplex.c" 1
 835  0010              	ERRMESSAGE 'the value 1000of the argument exceeds the maxinum 263690'
 835  0010              	ENDIF
 835  0010              ;# 835 "C:\Users\Tech\Desktop\CODetector\sevenSegment3DigitComplex\SevenSegment3DigitComplex.c" 1
 835  0010              	IF 1000<0
 835  0010              ;# 835 "C:\Users\Tech\Desktop\CODetector\sevenSegment3DigitComplex\SevenSegment3DigitComplex.c" 1
 835  0010              	ERRMESSAGE 'the value 1000 of the argument exceeds the mininum 0'
 835  0010              	ENDIF
 835  0010              ;# 835 "C:\Users\Tech\Desktop\CODetector\sevenSegment3DigitComplex\SevenSegment3DigitComplex.c" 1
 835  0010              	IF 1000==0
 835  0010              ;# 835 "C:\Users\Tech\Desktop\CODetector\sevenSegment3DigitComplex\SevenSegment3DigitComplex.c" 1
 835  0010              	JMP $
 835  0010              	ENDIF
 835  0010              ;# 835 "C:\Users\Tech\Desktop\CODetector\sevenSegment3DigitComplex\SevenSegment3DigitComplex.c" 1
 835  0010              	IF 1000==1
 835  0010              ;# 835 "C:\Users\Tech\Desktop\CODetector\sevenSegment3DigitComplex\SevenSegment3DigitComplex.c" 1
 835  0010              	NOP
 835  0010              	ENDIF
 835  0010              ;# 835 "C:\Users\Tech\Desktop\CODetector\sevenSegment3DigitComplex\SevenSegment3DigitComplex.c" 1
 835  0010              	IF 1000==2
 835  0010              ;# 835 "C:\Users\Tech\Desktop\CODetector\sevenSegment3DigitComplex\SevenSegment3DigitComplex.c" 1
 835  0010              	NOP
 835  0010              ;# 835 "C:\Users\Tech\Desktop\CODetector\sevenSegment3DigitComplex\SevenSegment3DigitComplex.c" 1
 835  0010              	NOP
 835  0010              	ENDIF
 835  0010              ;# 835 "C:\Users\Tech\Desktop\CODetector\sevenSegment3DigitComplex\SevenSegment3DigitComplex.c" 1
 835  0010              	IF 1000==3
"File: SevenSegment3DigitComplex.c  Assembler  Version HGASM0202      Page 89

 835  0010              ;# 835 "C:\Users\Tech\Desktop\CODetector\sevenSegment3DigitComplex\SevenSegment3DigitComplex.c" 1
 835  0010              	NOP
 835  0010              ;# 835 "C:\Users\Tech\Desktop\CODetector\sevenSegment3DigitComplex\SevenSegment3DigitComplex.c" 1
 835  0010              	NOP
 835  0010              ;# 835 "C:\Users\Tech\Desktop\CODetector\sevenSegment3DigitComplex\SevenSegment3DigitComplex.c" 1
 835  0010              	NOP
 835  0010              	ENDIF
 835  0010              ;# 835 "C:\Users\Tech\Desktop\CODetector\sevenSegment3DigitComplex\SevenSegment3DigitComplex.c" 1
 835  0010              	IF (1000<8) AND (1000>3)
 835  0010              ;# 835 "C:\Users\Tech\Desktop\CODetector\sevenSegment3DigitComplex\SevenSegment3DigitComplex.c" 1
 835  0010              	CALL __DELAY3 + 7 -1000
 835  0010              	ENDIF
 835  0010              ;# 835 "C:\Users\Tech\Desktop\CODetector\sevenSegment3DigitComplex\SevenSegment3DigitComplex.c" 1
 835  0010              	IF (1000< 0404h) AND (1000>7)
 835  0010              ;# 835 "C:\Users\Tech\Desktop\CODetector\sevenSegment3DigitComplex\SevenSegment3DigitComplex.c" 1
 835  0010  0FF9        	MOV A,1000/4-1
 835  0011              ;# 835 "C:\Users\Tech\Desktop\CODetector\sevenSegment3DigitComplex\SevenSegment3DigitComplex.c" 1
 835  0011  2000     E  	CALL __DELAYX3 + 3 -(1000 MOD 4)
 835  0012              	ENDIF
 835  0012              ;# 835 "C:\Users\Tech\Desktop\CODetector\sevenSegment3DigitComplex\SevenSegment3DigitComplex.c" 1
 835  0012              	IF (1000< 0x40B) AND (1000> 0403h)
 835  0012              ;# 835 "C:\Users\Tech\Desktop\CODetector\sevenSegment3DigitComplex\SevenSegment3DigitComplex.c" 1
 835  0012              	MOV A,0 
 835  0012              ;# 835 "C:\Users\Tech\Desktop\CODetector\sevenSegment3DigitComplex\SevenSegment3DigitComplex.c" 1
 835  0012              	CALL __DELAYX6 + 0x40a -1000
 835  0012              	ENDIF
 835  0012              ;# 835 "C:\Users\Tech\Desktop\CODetector\sevenSegment3DigitComplex\SevenSegment3DigitComplex.c" 1
 835  0012              	IF (1000 >= 0x40b) AND ((((1000-9)%0402h)/4+1)>256)
 835  0012              ;# 835 "C:\Users\Tech\Desktop\CODetector\sevenSegment3DigitComplex\SevenSegment3DigitComplex.c" 1
 835  0012              	MOV A,(1000-9)/0402h
 835  0012              ;# 835 "C:\Users\Tech\Desktop\CODetector\sevenSegment3DigitComplex\SevenSegment3DigitComplex.c" 1
 835  0012              	MOV _builtin_holtek_delay_2,A
 835  0012              ;# 835 "C:\Users\Tech\Desktop\CODetector\sevenSegment3DigitComplex\SevenSegment3DigitComplex.c" 1
 835  0012              	MOV A,0
 835  0012              ;# 835 "C:\Users\Tech\Desktop\CODetector\sevenSegment3DigitComplex\SevenSegment3DigitComplex.c" 1
 835  0012              	CALL __DELAYY5 +5- (((1000-9)%0402h)%6)
 835  0012              	ENDIF
 835  0012              ;# 835 "C:\Users\Tech\Desktop\CODetector\sevenSegment3DigitComplex\SevenSegment3DigitComplex.c" 1
 835  0012              	IF (1000 >= 0x40b) AND ((((1000-9)%0402h)/4+1)<=256)
 835  0012              ;# 835 "C:\Users\Tech\Desktop\CODetector\sevenSegment3DigitComplex\SevenSegment3DigitComplex.c" 1
 835  0012              	MOV A,(1000-9)/0402h
 835  0012              ;# 835 "C:\Users\Tech\Desktop\CODetector\sevenSegment3DigitComplex\SevenSegment3DigitComplex.c" 1
 835  0012              	MOV _builtin_holtek_delay_2,A
 835  0012              ;# 835 "C:\Users\Tech\Desktop\CODetector\sevenSegment3DigitComplex\SevenSegment3DigitComplex.c" 1
 835  0012              	MOV A,((1000-9)%0402h)/4+1
 835  0012              ;# 835 "C:\Users\Tech\Desktop\CODetector\sevenSegment3DigitComplex\SevenSegment3DigitComplex.c" 1
 835  0012              	CALL __DELAYY3 +3-(((1000-9)%0402h)%4)
 835  0012              	ENDIF
 836  0012              #line 836 "C:\Users\Tech\Desktop\CODetector\sevenSegment3DigitComplex\SevenSegment3DigitComplex.c"
 836  0012  3119        	set [25].2
 837  0013              #line 837 "C:\Users\Tech\Desktop\CODetector\sevenSegment3DigitComplex\SevenSegment3DigitComplex.c"
 837  0013  3099        	set [25].1
 838  0014              #line 838 "C:\Users\Tech\Desktop\CODetector\sevenSegment3DigitComplex\SevenSegment3DigitComplex.c"
 838  0014  3215        	set [21].4
 839  0015              #line 839 "C:\Users\Tech\Desktop\CODetector\sevenSegment3DigitComplex\SevenSegment3DigitComplex.c"
 839  0015  3015        	set [21].0
 840  0016              #line 840 "C:\Users\Tech\Desktop\CODetector\sevenSegment3DigitComplex\SevenSegment3DigitComplex.c"
 840  0016  3115        	set [21].2
 841  0017              #line 841 "C:\Users\Tech\Desktop\CODetector\sevenSegment3DigitComplex\SevenSegment3DigitComplex.c"
 841  0017  3199        	set [25].3
"File: SevenSegment3DigitComplex.c  Assembler  Version HGASM0202      Page 90

 843  0018              #line 843 "C:\Users\Tech\Desktop\CODetector\sevenSegment3DigitComplex\SevenSegment3DigitComplex.c"
 843  0018  3499        	clr [25].1
 844  0019              #line 844 "C:\Users\Tech\Desktop\CODetector\sevenSegment3DigitComplex\SevenSegment3DigitComplex.c"
 844  0019  3515        	clr [21].2
 845  001A              #line 845 "C:\Users\Tech\Desktop\CODetector\sevenSegment3DigitComplex\SevenSegment3DigitComplex.c"
 845  001A  3599        	clr [25].3
 846  001B              #line 846 "C:\Users\Tech\Desktop\CODetector\sevenSegment3DigitComplex\SevenSegment3DigitComplex.c"
 846  001B  3498        	clr [24].1
 847  001C              #line 847 "C:\Users\Tech\Desktop\CODetector\sevenSegment3DigitComplex\SevenSegment3DigitComplex.c"
 847  001C  3114        	set [20].2
 848  001D              #line 848 "C:\Users\Tech\Desktop\CODetector\sevenSegment3DigitComplex\SevenSegment3DigitComplex.c"
 848  001D  3198        	set [24].3
 849  001E              #line 849 "C:\Users\Tech\Desktop\CODetector\sevenSegment3DigitComplex\SevenSegment3DigitComplex.c"
 849  001E              ;# 849 "C:\Users\Tech\Desktop\CODetector\sevenSegment3DigitComplex\SevenSegment3DigitComplex.c" 1
 849  001E              	IF 1000>263690
 849  001E              ;# 849 "C:\Users\Tech\Desktop\CODetector\sevenSegment3DigitComplex\SevenSegment3DigitComplex.c" 1
 849  001E              	ERRMESSAGE 'the value 1000of the argument exceeds the maxinum 263690'
 849  001E              	ENDIF
 849  001E              ;# 849 "C:\Users\Tech\Desktop\CODetector\sevenSegment3DigitComplex\SevenSegment3DigitComplex.c" 1
 849  001E              	IF 1000<0
 849  001E              ;# 849 "C:\Users\Tech\Desktop\CODetector\sevenSegment3DigitComplex\SevenSegment3DigitComplex.c" 1
 849  001E              	ERRMESSAGE 'the value 1000 of the argument exceeds the mininum 0'
 849  001E              	ENDIF
 849  001E              ;# 849 "C:\Users\Tech\Desktop\CODetector\sevenSegment3DigitComplex\SevenSegment3DigitComplex.c" 1
 849  001E              	IF 1000==0
 849  001E              ;# 849 "C:\Users\Tech\Desktop\CODetector\sevenSegment3DigitComplex\SevenSegment3DigitComplex.c" 1
 849  001E              	JMP $
 849  001E              	ENDIF
 849  001E              ;# 849 "C:\Users\Tech\Desktop\CODetector\sevenSegment3DigitComplex\SevenSegment3DigitComplex.c" 1
 849  001E              	IF 1000==1
 849  001E              ;# 849 "C:\Users\Tech\Desktop\CODetector\sevenSegment3DigitComplex\SevenSegment3DigitComplex.c" 1
 849  001E              	NOP
 849  001E              	ENDIF
 849  001E              ;# 849 "C:\Users\Tech\Desktop\CODetector\sevenSegment3DigitComplex\SevenSegment3DigitComplex.c" 1
 849  001E              	IF 1000==2
 849  001E              ;# 849 "C:\Users\Tech\Desktop\CODetector\sevenSegment3DigitComplex\SevenSegment3DigitComplex.c" 1
 849  001E              	NOP
 849  001E              ;# 849 "C:\Users\Tech\Desktop\CODetector\sevenSegment3DigitComplex\SevenSegment3DigitComplex.c" 1
 849  001E              	NOP
 849  001E              	ENDIF
 849  001E              ;# 849 "C:\Users\Tech\Desktop\CODetector\sevenSegment3DigitComplex\SevenSegment3DigitComplex.c" 1
 849  001E              	IF 1000==3
 849  001E              ;# 849 "C:\Users\Tech\Desktop\CODetector\sevenSegment3DigitComplex\SevenSegment3DigitComplex.c" 1
 849  001E              	NOP
 849  001E              ;# 849 "C:\Users\Tech\Desktop\CODetector\sevenSegment3DigitComplex\SevenSegment3DigitComplex.c" 1
 849  001E              	NOP
 849  001E              ;# 849 "C:\Users\Tech\Desktop\CODetector\sevenSegment3DigitComplex\SevenSegment3DigitComplex.c" 1
 849  001E              	NOP
 849  001E              	ENDIF
 849  001E              ;# 849 "C:\Users\Tech\Desktop\CODetector\sevenSegment3DigitComplex\SevenSegment3DigitComplex.c" 1
 849  001E              	IF (1000<8) AND (1000>3)
 849  001E              ;# 849 "C:\Users\Tech\Desktop\CODetector\sevenSegment3DigitComplex\SevenSegment3DigitComplex.c" 1
 849  001E              	CALL __DELAY3 + 7 -1000
 849  001E              	ENDIF
 849  001E              ;# 849 "C:\Users\Tech\Desktop\CODetector\sevenSegment3DigitComplex\SevenSegment3DigitComplex.c" 1
 849  001E              	IF (1000< 0404h) AND (1000>7)
 849  001E              ;# 849 "C:\Users\Tech\Desktop\CODetector\sevenSegment3DigitComplex\SevenSegment3DigitComplex.c" 1
 849  001E  0FF9        	MOV A,1000/4-1
 849  001F              ;# 849 "C:\Users\Tech\Desktop\CODetector\sevenSegment3DigitComplex\SevenSegment3DigitComplex.c" 1
 849  001F  2000     E  	CALL __DELAYX3 + 3 -(1000 MOD 4)
"File: SevenSegment3DigitComplex.c  Assembler  Version HGASM0202      Page 91

 849  0020              	ENDIF
 849  0020              ;# 849 "C:\Users\Tech\Desktop\CODetector\sevenSegment3DigitComplex\SevenSegment3DigitComplex.c" 1
 849  0020              	IF (1000< 0x40B) AND (1000> 0403h)
 849  0020              ;# 849 "C:\Users\Tech\Desktop\CODetector\sevenSegment3DigitComplex\SevenSegment3DigitComplex.c" 1
 849  0020              	MOV A,0 
 849  0020              ;# 849 "C:\Users\Tech\Desktop\CODetector\sevenSegment3DigitComplex\SevenSegment3DigitComplex.c" 1
 849  0020              	CALL __DELAYX6 + 0x40a -1000
 849  0020              	ENDIF
 849  0020              ;# 849 "C:\Users\Tech\Desktop\CODetector\sevenSegment3DigitComplex\SevenSegment3DigitComplex.c" 1
 849  0020              	IF (1000 >= 0x40b) AND ((((1000-9)%0402h)/4+1)>256)
 849  0020              ;# 849 "C:\Users\Tech\Desktop\CODetector\sevenSegment3DigitComplex\SevenSegment3DigitComplex.c" 1
 849  0020              	MOV A,(1000-9)/0402h
 849  0020              ;# 849 "C:\Users\Tech\Desktop\CODetector\sevenSegment3DigitComplex\SevenSegment3DigitComplex.c" 1
 849  0020              	MOV _builtin_holtek_delay_2,A
 849  0020              ;# 849 "C:\Users\Tech\Desktop\CODetector\sevenSegment3DigitComplex\SevenSegment3DigitComplex.c" 1
 849  0020              	MOV A,0
 849  0020              ;# 849 "C:\Users\Tech\Desktop\CODetector\sevenSegment3DigitComplex\SevenSegment3DigitComplex.c" 1
 849  0020              	CALL __DELAYY5 +5- (((1000-9)%0402h)%6)
 849  0020              	ENDIF
 849  0020              ;# 849 "C:\Users\Tech\Desktop\CODetector\sevenSegment3DigitComplex\SevenSegment3DigitComplex.c" 1
 849  0020              	IF (1000 >= 0x40b) AND ((((1000-9)%0402h)/4+1)<=256)
 849  0020              ;# 849 "C:\Users\Tech\Desktop\CODetector\sevenSegment3DigitComplex\SevenSegment3DigitComplex.c" 1
 849  0020              	MOV A,(1000-9)/0402h
 849  0020              ;# 849 "C:\Users\Tech\Desktop\CODetector\sevenSegment3DigitComplex\SevenSegment3DigitComplex.c" 1
 849  0020              	MOV _builtin_holtek_delay_2,A
 849  0020              ;# 849 "C:\Users\Tech\Desktop\CODetector\sevenSegment3DigitComplex\SevenSegment3DigitComplex.c" 1
 849  0020              	MOV A,((1000-9)%0402h)/4+1
 849  0020              ;# 849 "C:\Users\Tech\Desktop\CODetector\sevenSegment3DigitComplex\SevenSegment3DigitComplex.c" 1
 849  0020              	CALL __DELAYY3 +3-(((1000-9)%0402h)%4)
 849  0020              	ENDIF
 849  0020  0003        	ret
 849  0021              _sixDigit2 endp
 849  0021              #line 849 "C:\Users\Tech\Desktop\CODetector\sevenSegment3DigitComplex\SevenSegment3DigitComplex.c"
 849  0021              #pragma debug scope 1 1
 849  0021              public _sixDigit3
 849  0021              #pragma debug scope 24 1
 852  0021              #line 852 "C:\Users\Tech\Desktop\CODetector\sevenSegment3DigitComplex\SevenSegment3DigitComplex.c"
 852  0000              _sixDigit3 .section 'code'
 852  0000              _sixDigit3 proc
 853  0000              #line 853 "C:\Users\Tech\Desktop\CODetector\sevenSegment3DigitComplex\SevenSegment3DigitComplex.c"
 853  0000  3119        	set [25].2
 854  0001              #line 854 "C:\Users\Tech\Desktop\CODetector\sevenSegment3DigitComplex\SevenSegment3DigitComplex.c"
 854  0001  3099        	set [25].1
 855  0002              #line 855 "C:\Users\Tech\Desktop\CODetector\sevenSegment3DigitComplex\SevenSegment3DigitComplex.c"
 855  0002  3215        	set [21].4
 856  0003              #line 856 "C:\Users\Tech\Desktop\CODetector\sevenSegment3DigitComplex\SevenSegment3DigitComplex.c"
 856  0003  3015        	set [21].0
 857  0004              #line 857 "C:\Users\Tech\Desktop\CODetector\sevenSegment3DigitComplex\SevenSegment3DigitComplex.c"
 857  0004  3115        	set [21].2
 858  0005              #line 858 "C:\Users\Tech\Desktop\CODetector\sevenSegment3DigitComplex\SevenSegment3DigitComplex.c"
 858  0005  3199        	set [25].3
 861  0006              #line 861 "C:\Users\Tech\Desktop\CODetector\sevenSegment3DigitComplex\SevenSegment3DigitComplex.c"
 861  0006  3499        	clr [25].1
 862  0007              #line 862 "C:\Users\Tech\Desktop\CODetector\sevenSegment3DigitComplex\SevenSegment3DigitComplex.c"
 862  0007  3615        	clr [21].4
 863  0008              #line 863 "C:\Users\Tech\Desktop\CODetector\sevenSegment3DigitComplex\SevenSegment3DigitComplex.c"
 863  0008  3515        	clr [21].2
 864  0009              #line 864 "C:\Users\Tech\Desktop\CODetector\sevenSegment3DigitComplex\SevenSegment3DigitComplex.c"
 864  0009  3599        	clr [25].3
 865  000A              #line 865 "C:\Users\Tech\Desktop\CODetector\sevenSegment3DigitComplex\SevenSegment3DigitComplex.c"
"File: SevenSegment3DigitComplex.c  Assembler  Version HGASM0202      Page 92

 865  000A  3098        	set [24].1
 866  000B              #line 866 "C:\Users\Tech\Desktop\CODetector\sevenSegment3DigitComplex\SevenSegment3DigitComplex.c"
 866  000B  3614        	clr [20].4
 867  000C              #line 867 "C:\Users\Tech\Desktop\CODetector\sevenSegment3DigitComplex\SevenSegment3DigitComplex.c"
 867  000C  3514        	clr [20].2
 868  000D              #line 868 "C:\Users\Tech\Desktop\CODetector\sevenSegment3DigitComplex\SevenSegment3DigitComplex.c"
 868  000D  3598        	clr [24].3
 869  000E              #line 869 "C:\Users\Tech\Desktop\CODetector\sevenSegment3DigitComplex\SevenSegment3DigitComplex.c"
 869  000E              ;# 869 "C:\Users\Tech\Desktop\CODetector\sevenSegment3DigitComplex\SevenSegment3DigitComplex.c" 1
 869  000E              	IF 1000>263690
 869  000E              ;# 869 "C:\Users\Tech\Desktop\CODetector\sevenSegment3DigitComplex\SevenSegment3DigitComplex.c" 1
 869  000E              	ERRMESSAGE 'the value 1000of the argument exceeds the maxinum 263690'
 869  000E              	ENDIF
 869  000E              ;# 869 "C:\Users\Tech\Desktop\CODetector\sevenSegment3DigitComplex\SevenSegment3DigitComplex.c" 1
 869  000E              	IF 1000<0
 869  000E              ;# 869 "C:\Users\Tech\Desktop\CODetector\sevenSegment3DigitComplex\SevenSegment3DigitComplex.c" 1
 869  000E              	ERRMESSAGE 'the value 1000 of the argument exceeds the mininum 0'
 869  000E              	ENDIF
 869  000E              ;# 869 "C:\Users\Tech\Desktop\CODetector\sevenSegment3DigitComplex\SevenSegment3DigitComplex.c" 1
 869  000E              	IF 1000==0
 869  000E              ;# 869 "C:\Users\Tech\Desktop\CODetector\sevenSegment3DigitComplex\SevenSegment3DigitComplex.c" 1
 869  000E              	JMP $
 869  000E              	ENDIF
 869  000E              ;# 869 "C:\Users\Tech\Desktop\CODetector\sevenSegment3DigitComplex\SevenSegment3DigitComplex.c" 1
 869  000E              	IF 1000==1
 869  000E              ;# 869 "C:\Users\Tech\Desktop\CODetector\sevenSegment3DigitComplex\SevenSegment3DigitComplex.c" 1
 869  000E              	NOP
 869  000E              	ENDIF
 869  000E              ;# 869 "C:\Users\Tech\Desktop\CODetector\sevenSegment3DigitComplex\SevenSegment3DigitComplex.c" 1
 869  000E              	IF 1000==2
 869  000E              ;# 869 "C:\Users\Tech\Desktop\CODetector\sevenSegment3DigitComplex\SevenSegment3DigitComplex.c" 1
 869  000E              	NOP
 869  000E              ;# 869 "C:\Users\Tech\Desktop\CODetector\sevenSegment3DigitComplex\SevenSegment3DigitComplex.c" 1
 869  000E              	NOP
 869  000E              	ENDIF
 869  000E              ;# 869 "C:\Users\Tech\Desktop\CODetector\sevenSegment3DigitComplex\SevenSegment3DigitComplex.c" 1
 869  000E              	IF 1000==3
 869  000E              ;# 869 "C:\Users\Tech\Desktop\CODetector\sevenSegment3DigitComplex\SevenSegment3DigitComplex.c" 1
 869  000E              	NOP
 869  000E              ;# 869 "C:\Users\Tech\Desktop\CODetector\sevenSegment3DigitComplex\SevenSegment3DigitComplex.c" 1
 869  000E              	NOP
 869  000E              ;# 869 "C:\Users\Tech\Desktop\CODetector\sevenSegment3DigitComplex\SevenSegment3DigitComplex.c" 1
 869  000E              	NOP
 869  000E              	ENDIF
 869  000E              ;# 869 "C:\Users\Tech\Desktop\CODetector\sevenSegment3DigitComplex\SevenSegment3DigitComplex.c" 1
 869  000E              	IF (1000<8) AND (1000>3)
 869  000E              ;# 869 "C:\Users\Tech\Desktop\CODetector\sevenSegment3DigitComplex\SevenSegment3DigitComplex.c" 1
 869  000E              	CALL __DELAY3 + 7 -1000
 869  000E              	ENDIF
 869  000E              ;# 869 "C:\Users\Tech\Desktop\CODetector\sevenSegment3DigitComplex\SevenSegment3DigitComplex.c" 1
 869  000E              	IF (1000< 0404h) AND (1000>7)
 869  000E              ;# 869 "C:\Users\Tech\Desktop\CODetector\sevenSegment3DigitComplex\SevenSegment3DigitComplex.c" 1
 869  000E  0FF9        	MOV A,1000/4-1
 869  000F              ;# 869 "C:\Users\Tech\Desktop\CODetector\sevenSegment3DigitComplex\SevenSegment3DigitComplex.c" 1
 869  000F  2000     E  	CALL __DELAYX3 + 3 -(1000 MOD 4)
 869  0010              	ENDIF
 869  0010              ;# 869 "C:\Users\Tech\Desktop\CODetector\sevenSegment3DigitComplex\SevenSegment3DigitComplex.c" 1
 869  0010              	IF (1000< 0x40B) AND (1000> 0403h)
 869  0010              ;# 869 "C:\Users\Tech\Desktop\CODetector\sevenSegment3DigitComplex\SevenSegment3DigitComplex.c" 1
 869  0010              	MOV A,0 
"File: SevenSegment3DigitComplex.c  Assembler  Version HGASM0202      Page 93

 869  0010              ;# 869 "C:\Users\Tech\Desktop\CODetector\sevenSegment3DigitComplex\SevenSegment3DigitComplex.c" 1
 869  0010              	CALL __DELAYX6 + 0x40a -1000
 869  0010              	ENDIF
 869  0010              ;# 869 "C:\Users\Tech\Desktop\CODetector\sevenSegment3DigitComplex\SevenSegment3DigitComplex.c" 1
 869  0010              	IF (1000 >= 0x40b) AND ((((1000-9)%0402h)/4+1)>256)
 869  0010              ;# 869 "C:\Users\Tech\Desktop\CODetector\sevenSegment3DigitComplex\SevenSegment3DigitComplex.c" 1
 869  0010              	MOV A,(1000-9)/0402h
 869  0010              ;# 869 "C:\Users\Tech\Desktop\CODetector\sevenSegment3DigitComplex\SevenSegment3DigitComplex.c" 1
 869  0010              	MOV _builtin_holtek_delay_2,A
 869  0010              ;# 869 "C:\Users\Tech\Desktop\CODetector\sevenSegment3DigitComplex\SevenSegment3DigitComplex.c" 1
 869  0010              	MOV A,0
 869  0010              ;# 869 "C:\Users\Tech\Desktop\CODetector\sevenSegment3DigitComplex\SevenSegment3DigitComplex.c" 1
 869  0010              	CALL __DELAYY5 +5- (((1000-9)%0402h)%6)
 869  0010              	ENDIF
 869  0010              ;# 869 "C:\Users\Tech\Desktop\CODetector\sevenSegment3DigitComplex\SevenSegment3DigitComplex.c" 1
 869  0010              	IF (1000 >= 0x40b) AND ((((1000-9)%0402h)/4+1)<=256)
 869  0010              ;# 869 "C:\Users\Tech\Desktop\CODetector\sevenSegment3DigitComplex\SevenSegment3DigitComplex.c" 1
 869  0010              	MOV A,(1000-9)/0402h
 869  0010              ;# 869 "C:\Users\Tech\Desktop\CODetector\sevenSegment3DigitComplex\SevenSegment3DigitComplex.c" 1
 869  0010              	MOV _builtin_holtek_delay_2,A
 869  0010              ;# 869 "C:\Users\Tech\Desktop\CODetector\sevenSegment3DigitComplex\SevenSegment3DigitComplex.c" 1
 869  0010              	MOV A,((1000-9)%0402h)/4+1
 869  0010              ;# 869 "C:\Users\Tech\Desktop\CODetector\sevenSegment3DigitComplex\SevenSegment3DigitComplex.c" 1
 869  0010              	CALL __DELAYY3 +3-(((1000-9)%0402h)%4)
 869  0010              	ENDIF
 870  0010              #line 870 "C:\Users\Tech\Desktop\CODetector\sevenSegment3DigitComplex\SevenSegment3DigitComplex.c"
 870  0010  3119        	set [25].2
 871  0011              #line 871 "C:\Users\Tech\Desktop\CODetector\sevenSegment3DigitComplex\SevenSegment3DigitComplex.c"
 871  0011  3099        	set [25].1
 872  0012              #line 872 "C:\Users\Tech\Desktop\CODetector\sevenSegment3DigitComplex\SevenSegment3DigitComplex.c"
 872  0012  3215        	set [21].4
 873  0013              #line 873 "C:\Users\Tech\Desktop\CODetector\sevenSegment3DigitComplex\SevenSegment3DigitComplex.c"
 873  0013  3015        	set [21].0
 874  0014              #line 874 "C:\Users\Tech\Desktop\CODetector\sevenSegment3DigitComplex\SevenSegment3DigitComplex.c"
 874  0014  3115        	set [21].2
 875  0015              #line 875 "C:\Users\Tech\Desktop\CODetector\sevenSegment3DigitComplex\SevenSegment3DigitComplex.c"
 875  0015  3199        	set [25].3
 877  0016              #line 877 "C:\Users\Tech\Desktop\CODetector\sevenSegment3DigitComplex\SevenSegment3DigitComplex.c"
 877  0016  3615        	clr [21].4
 878  0017              #line 878 "C:\Users\Tech\Desktop\CODetector\sevenSegment3DigitComplex\SevenSegment3DigitComplex.c"
 878  0017  3415        	clr [21].0
 879  0018              #line 879 "C:\Users\Tech\Desktop\CODetector\sevenSegment3DigitComplex\SevenSegment3DigitComplex.c"
 879  0018  3515        	clr [21].2
 880  0019              #line 880 "C:\Users\Tech\Desktop\CODetector\sevenSegment3DigitComplex\SevenSegment3DigitComplex.c"
 880  0019  3599        	clr [25].3
 881  001A              #line 881 "C:\Users\Tech\Desktop\CODetector\sevenSegment3DigitComplex\SevenSegment3DigitComplex.c"
 881  001A  3214        	set [20].4
 882  001B              #line 882 "C:\Users\Tech\Desktop\CODetector\sevenSegment3DigitComplex\SevenSegment3DigitComplex.c"
 882  001B  3414        	clr [20].0
 883  001C              #line 883 "C:\Users\Tech\Desktop\CODetector\sevenSegment3DigitComplex\SevenSegment3DigitComplex.c"
 883  001C  3514        	clr [20].2
 884  001D              #line 884 "C:\Users\Tech\Desktop\CODetector\sevenSegment3DigitComplex\SevenSegment3DigitComplex.c"
 884  001D  3598        	clr [24].3
 885  001E              #line 885 "C:\Users\Tech\Desktop\CODetector\sevenSegment3DigitComplex\SevenSegment3DigitComplex.c"
 885  001E              ;# 885 "C:\Users\Tech\Desktop\CODetector\sevenSegment3DigitComplex\SevenSegment3DigitComplex.c" 1
 885  001E              	IF 1000>263690
 885  001E              ;# 885 "C:\Users\Tech\Desktop\CODetector\sevenSegment3DigitComplex\SevenSegment3DigitComplex.c" 1
 885  001E              	ERRMESSAGE 'the value 1000of the argument exceeds the maxinum 263690'
 885  001E              	ENDIF
 885  001E              ;# 885 "C:\Users\Tech\Desktop\CODetector\sevenSegment3DigitComplex\SevenSegment3DigitComplex.c" 1
"File: SevenSegment3DigitComplex.c  Assembler  Version HGASM0202      Page 94

 885  001E              	IF 1000<0
 885  001E              ;# 885 "C:\Users\Tech\Desktop\CODetector\sevenSegment3DigitComplex\SevenSegment3DigitComplex.c" 1
 885  001E              	ERRMESSAGE 'the value 1000 of the argument exceeds the mininum 0'
 885  001E              	ENDIF
 885  001E              ;# 885 "C:\Users\Tech\Desktop\CODetector\sevenSegment3DigitComplex\SevenSegment3DigitComplex.c" 1
 885  001E              	IF 1000==0
 885  001E              ;# 885 "C:\Users\Tech\Desktop\CODetector\sevenSegment3DigitComplex\SevenSegment3DigitComplex.c" 1
 885  001E              	JMP $
 885  001E              	ENDIF
 885  001E              ;# 885 "C:\Users\Tech\Desktop\CODetector\sevenSegment3DigitComplex\SevenSegment3DigitComplex.c" 1
 885  001E              	IF 1000==1
 885  001E              ;# 885 "C:\Users\Tech\Desktop\CODetector\sevenSegment3DigitComplex\SevenSegment3DigitComplex.c" 1
 885  001E              	NOP
 885  001E              	ENDIF
 885  001E              ;# 885 "C:\Users\Tech\Desktop\CODetector\sevenSegment3DigitComplex\SevenSegment3DigitComplex.c" 1
 885  001E              	IF 1000==2
 885  001E              ;# 885 "C:\Users\Tech\Desktop\CODetector\sevenSegment3DigitComplex\SevenSegment3DigitComplex.c" 1
 885  001E              	NOP
 885  001E              ;# 885 "C:\Users\Tech\Desktop\CODetector\sevenSegment3DigitComplex\SevenSegment3DigitComplex.c" 1
 885  001E              	NOP
 885  001E              	ENDIF
 885  001E              ;# 885 "C:\Users\Tech\Desktop\CODetector\sevenSegment3DigitComplex\SevenSegment3DigitComplex.c" 1
 885  001E              	IF 1000==3
 885  001E              ;# 885 "C:\Users\Tech\Desktop\CODetector\sevenSegment3DigitComplex\SevenSegment3DigitComplex.c" 1
 885  001E              	NOP
 885  001E              ;# 885 "C:\Users\Tech\Desktop\CODetector\sevenSegment3DigitComplex\SevenSegment3DigitComplex.c" 1
 885  001E              	NOP
 885  001E              ;# 885 "C:\Users\Tech\Desktop\CODetector\sevenSegment3DigitComplex\SevenSegment3DigitComplex.c" 1
 885  001E              	NOP
 885  001E              	ENDIF
 885  001E              ;# 885 "C:\Users\Tech\Desktop\CODetector\sevenSegment3DigitComplex\SevenSegment3DigitComplex.c" 1
 885  001E              	IF (1000<8) AND (1000>3)
 885  001E              ;# 885 "C:\Users\Tech\Desktop\CODetector\sevenSegment3DigitComplex\SevenSegment3DigitComplex.c" 1
 885  001E              	CALL __DELAY3 + 7 -1000
 885  001E              	ENDIF
 885  001E              ;# 885 "C:\Users\Tech\Desktop\CODetector\sevenSegment3DigitComplex\SevenSegment3DigitComplex.c" 1
 885  001E              	IF (1000< 0404h) AND (1000>7)
 885  001E              ;# 885 "C:\Users\Tech\Desktop\CODetector\sevenSegment3DigitComplex\SevenSegment3DigitComplex.c" 1
 885  001E  0FF9        	MOV A,1000/4-1
 885  001F              ;# 885 "C:\Users\Tech\Desktop\CODetector\sevenSegment3DigitComplex\SevenSegment3DigitComplex.c" 1
 885  001F  2000     E  	CALL __DELAYX3 + 3 -(1000 MOD 4)
 885  0020              	ENDIF
 885  0020              ;# 885 "C:\Users\Tech\Desktop\CODetector\sevenSegment3DigitComplex\SevenSegment3DigitComplex.c" 1
 885  0020              	IF (1000< 0x40B) AND (1000> 0403h)
 885  0020              ;# 885 "C:\Users\Tech\Desktop\CODetector\sevenSegment3DigitComplex\SevenSegment3DigitComplex.c" 1
 885  0020              	MOV A,0 
 885  0020              ;# 885 "C:\Users\Tech\Desktop\CODetector\sevenSegment3DigitComplex\SevenSegment3DigitComplex.c" 1
 885  0020              	CALL __DELAYX6 + 0x40a -1000
 885  0020              	ENDIF
 885  0020              ;# 885 "C:\Users\Tech\Desktop\CODetector\sevenSegment3DigitComplex\SevenSegment3DigitComplex.c" 1
 885  0020              	IF (1000 >= 0x40b) AND ((((1000-9)%0402h)/4+1)>256)
 885  0020              ;# 885 "C:\Users\Tech\Desktop\CODetector\sevenSegment3DigitComplex\SevenSegment3DigitComplex.c" 1
 885  0020              	MOV A,(1000-9)/0402h
 885  0020              ;# 885 "C:\Users\Tech\Desktop\CODetector\sevenSegment3DigitComplex\SevenSegment3DigitComplex.c" 1
 885  0020              	MOV _builtin_holtek_delay_2,A
 885  0020              ;# 885 "C:\Users\Tech\Desktop\CODetector\sevenSegment3DigitComplex\SevenSegment3DigitComplex.c" 1
 885  0020              	MOV A,0
 885  0020              ;# 885 "C:\Users\Tech\Desktop\CODetector\sevenSegment3DigitComplex\SevenSegment3DigitComplex.c" 1
 885  0020              	CALL __DELAYY5 +5- (((1000-9)%0402h)%6)
 885  0020              	ENDIF
"File: SevenSegment3DigitComplex.c  Assembler  Version HGASM0202      Page 95

 885  0020              ;# 885 "C:\Users\Tech\Desktop\CODetector\sevenSegment3DigitComplex\SevenSegment3DigitComplex.c" 1
 885  0020              	IF (1000 >= 0x40b) AND ((((1000-9)%0402h)/4+1)<=256)
 885  0020              ;# 885 "C:\Users\Tech\Desktop\CODetector\sevenSegment3DigitComplex\SevenSegment3DigitComplex.c" 1
 885  0020              	MOV A,(1000-9)/0402h
 885  0020              ;# 885 "C:\Users\Tech\Desktop\CODetector\sevenSegment3DigitComplex\SevenSegment3DigitComplex.c" 1
 885  0020              	MOV _builtin_holtek_delay_2,A
 885  0020              ;# 885 "C:\Users\Tech\Desktop\CODetector\sevenSegment3DigitComplex\SevenSegment3DigitComplex.c" 1
 885  0020              	MOV A,((1000-9)%0402h)/4+1
 885  0020              ;# 885 "C:\Users\Tech\Desktop\CODetector\sevenSegment3DigitComplex\SevenSegment3DigitComplex.c" 1
 885  0020              	CALL __DELAYY3 +3-(((1000-9)%0402h)%4)
 885  0020              	ENDIF
 885  0020  0003        	ret
 885  0021              _sixDigit3 endp
 885  0021              #line 885 "C:\Users\Tech\Desktop\CODetector\sevenSegment3DigitComplex\SevenSegment3DigitComplex.c"
 885  0021              #pragma debug scope 1 1
 885  0021              public _sevenDigit1
 885  0021              #pragma debug scope 25 1
 888  0021              #line 888 "C:\Users\Tech\Desktop\CODetector\sevenSegment3DigitComplex\SevenSegment3DigitComplex.c"
 888  0000              _sevenDigit1 .section 'code'
 888  0000              _sevenDigit1 proc
 889  0000              #line 889 "C:\Users\Tech\Desktop\CODetector\sevenSegment3DigitComplex\SevenSegment3DigitComplex.c"
 889  0000  3119        	set [25].2
 890  0001              #line 890 "C:\Users\Tech\Desktop\CODetector\sevenSegment3DigitComplex\SevenSegment3DigitComplex.c"
 890  0001  3099        	set [25].1
 891  0002              #line 891 "C:\Users\Tech\Desktop\CODetector\sevenSegment3DigitComplex\SevenSegment3DigitComplex.c"
 891  0002  3215        	set [21].4
 892  0003              #line 892 "C:\Users\Tech\Desktop\CODetector\sevenSegment3DigitComplex\SevenSegment3DigitComplex.c"
 892  0003  3015        	set [21].0
 893  0004              #line 893 "C:\Users\Tech\Desktop\CODetector\sevenSegment3DigitComplex\SevenSegment3DigitComplex.c"
 893  0004  3115        	set [21].2
 894  0005              #line 894 "C:\Users\Tech\Desktop\CODetector\sevenSegment3DigitComplex\SevenSegment3DigitComplex.c"
 894  0005  3199        	set [25].3
 897  0006              #line 897 "C:\Users\Tech\Desktop\CODetector\sevenSegment3DigitComplex\SevenSegment3DigitComplex.c"
 897  0006  3499        	clr [25].1
 898  0007              #line 898 "C:\Users\Tech\Desktop\CODetector\sevenSegment3DigitComplex\SevenSegment3DigitComplex.c"
 898  0007  3519        	clr [25].2
 899  0008              #line 899 "C:\Users\Tech\Desktop\CODetector\sevenSegment3DigitComplex\SevenSegment3DigitComplex.c"
 899  0008  3615        	clr [21].4
 900  0009              #line 900 "C:\Users\Tech\Desktop\CODetector\sevenSegment3DigitComplex\SevenSegment3DigitComplex.c"
 900  0009  3415        	clr [21].0
 901  000A              #line 901 "C:\Users\Tech\Desktop\CODetector\sevenSegment3DigitComplex\SevenSegment3DigitComplex.c"
 901  000A  3518        	clr [24].2
 902  000B              #line 902 "C:\Users\Tech\Desktop\CODetector\sevenSegment3DigitComplex\SevenSegment3DigitComplex.c"
 902  000B  3098        	set [24].1
 903  000C              #line 903 "C:\Users\Tech\Desktop\CODetector\sevenSegment3DigitComplex\SevenSegment3DigitComplex.c"
 903  000C  3214        	set [20].4
 904  000D              #line 904 "C:\Users\Tech\Desktop\CODetector\sevenSegment3DigitComplex\SevenSegment3DigitComplex.c"
 904  000D  3014        	set [20].0
 905  000E              #line 905 "C:\Users\Tech\Desktop\CODetector\sevenSegment3DigitComplex\SevenSegment3DigitComplex.c"
 905  000E              ;# 905 "C:\Users\Tech\Desktop\CODetector\sevenSegment3DigitComplex\SevenSegment3DigitComplex.c" 1
 905  000E              	IF 1000>263690
 905  000E              ;# 905 "C:\Users\Tech\Desktop\CODetector\sevenSegment3DigitComplex\SevenSegment3DigitComplex.c" 1
 905  000E              	ERRMESSAGE 'the value 1000of the argument exceeds the maxinum 263690'
 905  000E              	ENDIF
 905  000E              ;# 905 "C:\Users\Tech\Desktop\CODetector\sevenSegment3DigitComplex\SevenSegment3DigitComplex.c" 1
 905  000E              	IF 1000<0
 905  000E              ;# 905 "C:\Users\Tech\Desktop\CODetector\sevenSegment3DigitComplex\SevenSegment3DigitComplex.c" 1
 905  000E              	ERRMESSAGE 'the value 1000 of the argument exceeds the mininum 0'
 905  000E              	ENDIF
 905  000E              ;# 905 "C:\Users\Tech\Desktop\CODetector\sevenSegment3DigitComplex\SevenSegment3DigitComplex.c" 1
"File: SevenSegment3DigitComplex.c  Assembler  Version HGASM0202      Page 96

 905  000E              	IF 1000==0
 905  000E              ;# 905 "C:\Users\Tech\Desktop\CODetector\sevenSegment3DigitComplex\SevenSegment3DigitComplex.c" 1
 905  000E              	JMP $
 905  000E              	ENDIF
 905  000E              ;# 905 "C:\Users\Tech\Desktop\CODetector\sevenSegment3DigitComplex\SevenSegment3DigitComplex.c" 1
 905  000E              	IF 1000==1
 905  000E              ;# 905 "C:\Users\Tech\Desktop\CODetector\sevenSegment3DigitComplex\SevenSegment3DigitComplex.c" 1
 905  000E              	NOP
 905  000E              	ENDIF
 905  000E              ;# 905 "C:\Users\Tech\Desktop\CODetector\sevenSegment3DigitComplex\SevenSegment3DigitComplex.c" 1
 905  000E              	IF 1000==2
 905  000E              ;# 905 "C:\Users\Tech\Desktop\CODetector\sevenSegment3DigitComplex\SevenSegment3DigitComplex.c" 1
 905  000E              	NOP
 905  000E              ;# 905 "C:\Users\Tech\Desktop\CODetector\sevenSegment3DigitComplex\SevenSegment3DigitComplex.c" 1
 905  000E              	NOP
 905  000E              	ENDIF
 905  000E              ;# 905 "C:\Users\Tech\Desktop\CODetector\sevenSegment3DigitComplex\SevenSegment3DigitComplex.c" 1
 905  000E              	IF 1000==3
 905  000E              ;# 905 "C:\Users\Tech\Desktop\CODetector\sevenSegment3DigitComplex\SevenSegment3DigitComplex.c" 1
 905  000E              	NOP
 905  000E              ;# 905 "C:\Users\Tech\Desktop\CODetector\sevenSegment3DigitComplex\SevenSegment3DigitComplex.c" 1
 905  000E              	NOP
 905  000E              ;# 905 "C:\Users\Tech\Desktop\CODetector\sevenSegment3DigitComplex\SevenSegment3DigitComplex.c" 1
 905  000E              	NOP
 905  000E              	ENDIF
 905  000E              ;# 905 "C:\Users\Tech\Desktop\CODetector\sevenSegment3DigitComplex\SevenSegment3DigitComplex.c" 1
 905  000E              	IF (1000<8) AND (1000>3)
 905  000E              ;# 905 "C:\Users\Tech\Desktop\CODetector\sevenSegment3DigitComplex\SevenSegment3DigitComplex.c" 1
 905  000E              	CALL __DELAY3 + 7 -1000
 905  000E              	ENDIF
 905  000E              ;# 905 "C:\Users\Tech\Desktop\CODetector\sevenSegment3DigitComplex\SevenSegment3DigitComplex.c" 1
 905  000E              	IF (1000< 0404h) AND (1000>7)
 905  000E              ;# 905 "C:\Users\Tech\Desktop\CODetector\sevenSegment3DigitComplex\SevenSegment3DigitComplex.c" 1
 905  000E  0FF9        	MOV A,1000/4-1
 905  000F              ;# 905 "C:\Users\Tech\Desktop\CODetector\sevenSegment3DigitComplex\SevenSegment3DigitComplex.c" 1
 905  000F  2000     E  	CALL __DELAYX3 + 3 -(1000 MOD 4)
 905  0010              	ENDIF
 905  0010              ;# 905 "C:\Users\Tech\Desktop\CODetector\sevenSegment3DigitComplex\SevenSegment3DigitComplex.c" 1
 905  0010              	IF (1000< 0x40B) AND (1000> 0403h)
 905  0010              ;# 905 "C:\Users\Tech\Desktop\CODetector\sevenSegment3DigitComplex\SevenSegment3DigitComplex.c" 1
 905  0010              	MOV A,0 
 905  0010              ;# 905 "C:\Users\Tech\Desktop\CODetector\sevenSegment3DigitComplex\SevenSegment3DigitComplex.c" 1
 905  0010              	CALL __DELAYX6 + 0x40a -1000
 905  0010              	ENDIF
 905  0010              ;# 905 "C:\Users\Tech\Desktop\CODetector\sevenSegment3DigitComplex\SevenSegment3DigitComplex.c" 1
 905  0010              	IF (1000 >= 0x40b) AND ((((1000-9)%0402h)/4+1)>256)
 905  0010              ;# 905 "C:\Users\Tech\Desktop\CODetector\sevenSegment3DigitComplex\SevenSegment3DigitComplex.c" 1
 905  0010              	MOV A,(1000-9)/0402h
 905  0010              ;# 905 "C:\Users\Tech\Desktop\CODetector\sevenSegment3DigitComplex\SevenSegment3DigitComplex.c" 1
 905  0010              	MOV _builtin_holtek_delay_2,A
 905  0010              ;# 905 "C:\Users\Tech\Desktop\CODetector\sevenSegment3DigitComplex\SevenSegment3DigitComplex.c" 1
 905  0010              	MOV A,0
 905  0010              ;# 905 "C:\Users\Tech\Desktop\CODetector\sevenSegment3DigitComplex\SevenSegment3DigitComplex.c" 1
 905  0010              	CALL __DELAYY5 +5- (((1000-9)%0402h)%6)
 905  0010              	ENDIF
 905  0010              ;# 905 "C:\Users\Tech\Desktop\CODetector\sevenSegment3DigitComplex\SevenSegment3DigitComplex.c" 1
 905  0010              	IF (1000 >= 0x40b) AND ((((1000-9)%0402h)/4+1)<=256)
 905  0010              ;# 905 "C:\Users\Tech\Desktop\CODetector\sevenSegment3DigitComplex\SevenSegment3DigitComplex.c" 1
 905  0010              	MOV A,(1000-9)/0402h
 905  0010              ;# 905 "C:\Users\Tech\Desktop\CODetector\sevenSegment3DigitComplex\SevenSegment3DigitComplex.c" 1
"File: SevenSegment3DigitComplex.c  Assembler  Version HGASM0202      Page 97

 905  0010              	MOV _builtin_holtek_delay_2,A
 905  0010              ;# 905 "C:\Users\Tech\Desktop\CODetector\sevenSegment3DigitComplex\SevenSegment3DigitComplex.c" 1
 905  0010              	MOV A,((1000-9)%0402h)/4+1
 905  0010              ;# 905 "C:\Users\Tech\Desktop\CODetector\sevenSegment3DigitComplex\SevenSegment3DigitComplex.c" 1
 905  0010              	CALL __DELAYY3 +3-(((1000-9)%0402h)%4)
 905  0010              	ENDIF
 905  0010  0003        	ret
 905  0011              _sevenDigit1 endp
 905  0011              #line 905 "C:\Users\Tech\Desktop\CODetector\sevenSegment3DigitComplex\SevenSegment3DigitComplex.c"
 905  0011              #pragma debug scope 1 1
 905  0011              public _sevenDigit2
 905  0011              #pragma debug scope 26 1
 909  0011              #line 909 "C:\Users\Tech\Desktop\CODetector\sevenSegment3DigitComplex\SevenSegment3DigitComplex.c"
 909  0000              _sevenDigit2 .section 'code'
 909  0000              _sevenDigit2 proc
 910  0000              #line 910 "C:\Users\Tech\Desktop\CODetector\sevenSegment3DigitComplex\SevenSegment3DigitComplex.c"
 910  0000  3119        	set [25].2
 911  0001              #line 911 "C:\Users\Tech\Desktop\CODetector\sevenSegment3DigitComplex\SevenSegment3DigitComplex.c"
 911  0001  3099        	set [25].1
 912  0002              #line 912 "C:\Users\Tech\Desktop\CODetector\sevenSegment3DigitComplex\SevenSegment3DigitComplex.c"
 912  0002  3215        	set [21].4
 913  0003              #line 913 "C:\Users\Tech\Desktop\CODetector\sevenSegment3DigitComplex\SevenSegment3DigitComplex.c"
 913  0003  3015        	set [21].0
 914  0004              #line 914 "C:\Users\Tech\Desktop\CODetector\sevenSegment3DigitComplex\SevenSegment3DigitComplex.c"
 914  0004  3115        	set [21].2
 915  0005              #line 915 "C:\Users\Tech\Desktop\CODetector\sevenSegment3DigitComplex\SevenSegment3DigitComplex.c"
 915  0005  3199        	set [25].3
 918  0006              #line 918 "C:\Users\Tech\Desktop\CODetector\sevenSegment3DigitComplex\SevenSegment3DigitComplex.c"
 918  0006  3519        	clr [25].2
 919  0007              #line 919 "C:\Users\Tech\Desktop\CODetector\sevenSegment3DigitComplex\SevenSegment3DigitComplex.c"
 919  0007  3499        	clr [25].1
 920  0008              #line 920 "C:\Users\Tech\Desktop\CODetector\sevenSegment3DigitComplex\SevenSegment3DigitComplex.c"
 920  0008  3615        	clr [21].4
 921  0009              #line 921 "C:\Users\Tech\Desktop\CODetector\sevenSegment3DigitComplex\SevenSegment3DigitComplex.c"
 921  0009  3415        	clr [21].0
 923  000A              #line 923 "C:\Users\Tech\Desktop\CODetector\sevenSegment3DigitComplex\SevenSegment3DigitComplex.c"
 923  000A  3118        	set [24].2
 924  000B              #line 924 "C:\Users\Tech\Desktop\CODetector\sevenSegment3DigitComplex\SevenSegment3DigitComplex.c"
 924  000B  3498        	clr [24].1
 925  000C              #line 925 "C:\Users\Tech\Desktop\CODetector\sevenSegment3DigitComplex\SevenSegment3DigitComplex.c"
 925  000C  3614        	clr [20].4
 926  000D              #line 926 "C:\Users\Tech\Desktop\CODetector\sevenSegment3DigitComplex\SevenSegment3DigitComplex.c"
 926  000D  3414        	clr [20].0
 927  000E              #line 927 "C:\Users\Tech\Desktop\CODetector\sevenSegment3DigitComplex\SevenSegment3DigitComplex.c"
 927  000E              ;# 927 "C:\Users\Tech\Desktop\CODetector\sevenSegment3DigitComplex\SevenSegment3DigitComplex.c" 1
 927  000E              	IF 1000>263690
 927  000E              ;# 927 "C:\Users\Tech\Desktop\CODetector\sevenSegment3DigitComplex\SevenSegment3DigitComplex.c" 1
 927  000E              	ERRMESSAGE 'the value 1000of the argument exceeds the maxinum 263690'
 927  000E              	ENDIF
 927  000E              ;# 927 "C:\Users\Tech\Desktop\CODetector\sevenSegment3DigitComplex\SevenSegment3DigitComplex.c" 1
 927  000E              	IF 1000<0
 927  000E              ;# 927 "C:\Users\Tech\Desktop\CODetector\sevenSegment3DigitComplex\SevenSegment3DigitComplex.c" 1
 927  000E              	ERRMESSAGE 'the value 1000 of the argument exceeds the mininum 0'
 927  000E              	ENDIF
 927  000E              ;# 927 "C:\Users\Tech\Desktop\CODetector\sevenSegment3DigitComplex\SevenSegment3DigitComplex.c" 1
 927  000E              	IF 1000==0
 927  000E              ;# 927 "C:\Users\Tech\Desktop\CODetector\sevenSegment3DigitComplex\SevenSegment3DigitComplex.c" 1
 927  000E              	JMP $
 927  000E              	ENDIF
 927  000E              ;# 927 "C:\Users\Tech\Desktop\CODetector\sevenSegment3DigitComplex\SevenSegment3DigitComplex.c" 1
"File: SevenSegment3DigitComplex.c  Assembler  Version HGASM0202      Page 98

 927  000E              	IF 1000==1
 927  000E              ;# 927 "C:\Users\Tech\Desktop\CODetector\sevenSegment3DigitComplex\SevenSegment3DigitComplex.c" 1
 927  000E              	NOP
 927  000E              	ENDIF
 927  000E              ;# 927 "C:\Users\Tech\Desktop\CODetector\sevenSegment3DigitComplex\SevenSegment3DigitComplex.c" 1
 927  000E              	IF 1000==2
 927  000E              ;# 927 "C:\Users\Tech\Desktop\CODetector\sevenSegment3DigitComplex\SevenSegment3DigitComplex.c" 1
 927  000E              	NOP
 927  000E              ;# 927 "C:\Users\Tech\Desktop\CODetector\sevenSegment3DigitComplex\SevenSegment3DigitComplex.c" 1
 927  000E              	NOP
 927  000E              	ENDIF
 927  000E              ;# 927 "C:\Users\Tech\Desktop\CODetector\sevenSegment3DigitComplex\SevenSegment3DigitComplex.c" 1
 927  000E              	IF 1000==3
 927  000E              ;# 927 "C:\Users\Tech\Desktop\CODetector\sevenSegment3DigitComplex\SevenSegment3DigitComplex.c" 1
 927  000E              	NOP
 927  000E              ;# 927 "C:\Users\Tech\Desktop\CODetector\sevenSegment3DigitComplex\SevenSegment3DigitComplex.c" 1
 927  000E              	NOP
 927  000E              ;# 927 "C:\Users\Tech\Desktop\CODetector\sevenSegment3DigitComplex\SevenSegment3DigitComplex.c" 1
 927  000E              	NOP
 927  000E              	ENDIF
 927  000E              ;# 927 "C:\Users\Tech\Desktop\CODetector\sevenSegment3DigitComplex\SevenSegment3DigitComplex.c" 1
 927  000E              	IF (1000<8) AND (1000>3)
 927  000E              ;# 927 "C:\Users\Tech\Desktop\CODetector\sevenSegment3DigitComplex\SevenSegment3DigitComplex.c" 1
 927  000E              	CALL __DELAY3 + 7 -1000
 927  000E              	ENDIF
 927  000E              ;# 927 "C:\Users\Tech\Desktop\CODetector\sevenSegment3DigitComplex\SevenSegment3DigitComplex.c" 1
 927  000E              	IF (1000< 0404h) AND (1000>7)
 927  000E              ;# 927 "C:\Users\Tech\Desktop\CODetector\sevenSegment3DigitComplex\SevenSegment3DigitComplex.c" 1
 927  000E  0FF9        	MOV A,1000/4-1
 927  000F              ;# 927 "C:\Users\Tech\Desktop\CODetector\sevenSegment3DigitComplex\SevenSegment3DigitComplex.c" 1
 927  000F  2000     E  	CALL __DELAYX3 + 3 -(1000 MOD 4)
 927  0010              	ENDIF
 927  0010              ;# 927 "C:\Users\Tech\Desktop\CODetector\sevenSegment3DigitComplex\SevenSegment3DigitComplex.c" 1
 927  0010              	IF (1000< 0x40B) AND (1000> 0403h)
 927  0010              ;# 927 "C:\Users\Tech\Desktop\CODetector\sevenSegment3DigitComplex\SevenSegment3DigitComplex.c" 1
 927  0010              	MOV A,0 
 927  0010              ;# 927 "C:\Users\Tech\Desktop\CODetector\sevenSegment3DigitComplex\SevenSegment3DigitComplex.c" 1
 927  0010              	CALL __DELAYX6 + 0x40a -1000
 927  0010              	ENDIF
 927  0010              ;# 927 "C:\Users\Tech\Desktop\CODetector\sevenSegment3DigitComplex\SevenSegment3DigitComplex.c" 1
 927  0010              	IF (1000 >= 0x40b) AND ((((1000-9)%0402h)/4+1)>256)
 927  0010              ;# 927 "C:\Users\Tech\Desktop\CODetector\sevenSegment3DigitComplex\SevenSegment3DigitComplex.c" 1
 927  0010              	MOV A,(1000-9)/0402h
 927  0010              ;# 927 "C:\Users\Tech\Desktop\CODetector\sevenSegment3DigitComplex\SevenSegment3DigitComplex.c" 1
 927  0010              	MOV _builtin_holtek_delay_2,A
 927  0010              ;# 927 "C:\Users\Tech\Desktop\CODetector\sevenSegment3DigitComplex\SevenSegment3DigitComplex.c" 1
 927  0010              	MOV A,0
 927  0010              ;# 927 "C:\Users\Tech\Desktop\CODetector\sevenSegment3DigitComplex\SevenSegment3DigitComplex.c" 1
 927  0010              	CALL __DELAYY5 +5- (((1000-9)%0402h)%6)
 927  0010              	ENDIF
 927  0010              ;# 927 "C:\Users\Tech\Desktop\CODetector\sevenSegment3DigitComplex\SevenSegment3DigitComplex.c" 1
 927  0010              	IF (1000 >= 0x40b) AND ((((1000-9)%0402h)/4+1)<=256)
 927  0010              ;# 927 "C:\Users\Tech\Desktop\CODetector\sevenSegment3DigitComplex\SevenSegment3DigitComplex.c" 1
 927  0010              	MOV A,(1000-9)/0402h
 927  0010              ;# 927 "C:\Users\Tech\Desktop\CODetector\sevenSegment3DigitComplex\SevenSegment3DigitComplex.c" 1
 927  0010              	MOV _builtin_holtek_delay_2,A
 927  0010              ;# 927 "C:\Users\Tech\Desktop\CODetector\sevenSegment3DigitComplex\SevenSegment3DigitComplex.c" 1
 927  0010              	MOV A,((1000-9)%0402h)/4+1
 927  0010              ;# 927 "C:\Users\Tech\Desktop\CODetector\sevenSegment3DigitComplex\SevenSegment3DigitComplex.c" 1
 927  0010              	CALL __DELAYY3 +3-(((1000-9)%0402h)%4)
"File: SevenSegment3DigitComplex.c  Assembler  Version HGASM0202      Page 99

 927  0010              	ENDIF
 927  0010  0003        	ret
 927  0011              _sevenDigit2 endp
 927  0011              #line 927 "C:\Users\Tech\Desktop\CODetector\sevenSegment3DigitComplex\SevenSegment3DigitComplex.c"
 927  0011              #pragma debug scope 1 1
 927  0011              public _sevenDigit3
 927  0011              #pragma debug scope 27 1
 929  0011              #line 929 "C:\Users\Tech\Desktop\CODetector\sevenSegment3DigitComplex\SevenSegment3DigitComplex.c"
 929  0000              _sevenDigit3 .section 'code'
 929  0000              _sevenDigit3 proc
 930  0000              #line 930 "C:\Users\Tech\Desktop\CODetector\sevenSegment3DigitComplex\SevenSegment3DigitComplex.c"
 930  0000  3119        	set [25].2
 931  0001              #line 931 "C:\Users\Tech\Desktop\CODetector\sevenSegment3DigitComplex\SevenSegment3DigitComplex.c"
 931  0001  3099        	set [25].1
 932  0002              #line 932 "C:\Users\Tech\Desktop\CODetector\sevenSegment3DigitComplex\SevenSegment3DigitComplex.c"
 932  0002  3215        	set [21].4
 933  0003              #line 933 "C:\Users\Tech\Desktop\CODetector\sevenSegment3DigitComplex\SevenSegment3DigitComplex.c"
 933  0003  3015        	set [21].0
 934  0004              #line 934 "C:\Users\Tech\Desktop\CODetector\sevenSegment3DigitComplex\SevenSegment3DigitComplex.c"
 934  0004  3115        	set [21].2
 935  0005              #line 935 "C:\Users\Tech\Desktop\CODetector\sevenSegment3DigitComplex\SevenSegment3DigitComplex.c"
 935  0005  3199        	set [25].3
 938  0006              #line 938 "C:\Users\Tech\Desktop\CODetector\sevenSegment3DigitComplex\SevenSegment3DigitComplex.c"
 938  0006  3499        	clr [25].1
 939  0007              #line 939 "C:\Users\Tech\Desktop\CODetector\sevenSegment3DigitComplex\SevenSegment3DigitComplex.c"
 939  0007  3615        	clr [21].4
 940  0008              #line 940 "C:\Users\Tech\Desktop\CODetector\sevenSegment3DigitComplex\SevenSegment3DigitComplex.c"
 940  0008  3415        	clr [21].0
 941  0009              #line 941 "C:\Users\Tech\Desktop\CODetector\sevenSegment3DigitComplex\SevenSegment3DigitComplex.c"
 941  0009  3515        	clr [21].2
 942  000A              #line 942 "C:\Users\Tech\Desktop\CODetector\sevenSegment3DigitComplex\SevenSegment3DigitComplex.c"
 942  000A  3098        	set [24].1
 943  000B              #line 943 "C:\Users\Tech\Desktop\CODetector\sevenSegment3DigitComplex\SevenSegment3DigitComplex.c"
 943  000B  3614        	clr [20].4
 944  000C              #line 944 "C:\Users\Tech\Desktop\CODetector\sevenSegment3DigitComplex\SevenSegment3DigitComplex.c"
 944  000C  3414        	clr [20].0
 945  000D              #line 945 "C:\Users\Tech\Desktop\CODetector\sevenSegment3DigitComplex\SevenSegment3DigitComplex.c"
 945  000D  3514        	clr [20].2
 946  000E              #line 946 "C:\Users\Tech\Desktop\CODetector\sevenSegment3DigitComplex\SevenSegment3DigitComplex.c"
 946  000E              ;# 946 "C:\Users\Tech\Desktop\CODetector\sevenSegment3DigitComplex\SevenSegment3DigitComplex.c" 1
 946  000E              	IF 1000>263690
 946  000E              ;# 946 "C:\Users\Tech\Desktop\CODetector\sevenSegment3DigitComplex\SevenSegment3DigitComplex.c" 1
 946  000E              	ERRMESSAGE 'the value 1000of the argument exceeds the maxinum 263690'
 946  000E              	ENDIF
 946  000E              ;# 946 "C:\Users\Tech\Desktop\CODetector\sevenSegment3DigitComplex\SevenSegment3DigitComplex.c" 1
 946  000E              	IF 1000<0
 946  000E              ;# 946 "C:\Users\Tech\Desktop\CODetector\sevenSegment3DigitComplex\SevenSegment3DigitComplex.c" 1
 946  000E              	ERRMESSAGE 'the value 1000 of the argument exceeds the mininum 0'
 946  000E              	ENDIF
 946  000E              ;# 946 "C:\Users\Tech\Desktop\CODetector\sevenSegment3DigitComplex\SevenSegment3DigitComplex.c" 1
 946  000E              	IF 1000==0
 946  000E              ;# 946 "C:\Users\Tech\Desktop\CODetector\sevenSegment3DigitComplex\SevenSegment3DigitComplex.c" 1
 946  000E              	JMP $
 946  000E              	ENDIF
 946  000E              ;# 946 "C:\Users\Tech\Desktop\CODetector\sevenSegment3DigitComplex\SevenSegment3DigitComplex.c" 1
 946  000E              	IF 1000==1
 946  000E              ;# 946 "C:\Users\Tech\Desktop\CODetector\sevenSegment3DigitComplex\SevenSegment3DigitComplex.c" 1
 946  000E              	NOP
 946  000E              	ENDIF
 946  000E              ;# 946 "C:\Users\Tech\Desktop\CODetector\sevenSegment3DigitComplex\SevenSegment3DigitComplex.c" 1
"File: SevenSegment3DigitComplex.c  Assembler  Version HGASM0202      Page 100

 946  000E              	IF 1000==2
 946  000E              ;# 946 "C:\Users\Tech\Desktop\CODetector\sevenSegment3DigitComplex\SevenSegment3DigitComplex.c" 1
 946  000E              	NOP
 946  000E              ;# 946 "C:\Users\Tech\Desktop\CODetector\sevenSegment3DigitComplex\SevenSegment3DigitComplex.c" 1
 946  000E              	NOP
 946  000E              	ENDIF
 946  000E              ;# 946 "C:\Users\Tech\Desktop\CODetector\sevenSegment3DigitComplex\SevenSegment3DigitComplex.c" 1
 946  000E              	IF 1000==3
 946  000E              ;# 946 "C:\Users\Tech\Desktop\CODetector\sevenSegment3DigitComplex\SevenSegment3DigitComplex.c" 1
 946  000E              	NOP
 946  000E              ;# 946 "C:\Users\Tech\Desktop\CODetector\sevenSegment3DigitComplex\SevenSegment3DigitComplex.c" 1
 946  000E              	NOP
 946  000E              ;# 946 "C:\Users\Tech\Desktop\CODetector\sevenSegment3DigitComplex\SevenSegment3DigitComplex.c" 1
 946  000E              	NOP
 946  000E              	ENDIF
 946  000E              ;# 946 "C:\Users\Tech\Desktop\CODetector\sevenSegment3DigitComplex\SevenSegment3DigitComplex.c" 1
 946  000E              	IF (1000<8) AND (1000>3)
 946  000E              ;# 946 "C:\Users\Tech\Desktop\CODetector\sevenSegment3DigitComplex\SevenSegment3DigitComplex.c" 1
 946  000E              	CALL __DELAY3 + 7 -1000
 946  000E              	ENDIF
 946  000E              ;# 946 "C:\Users\Tech\Desktop\CODetector\sevenSegment3DigitComplex\SevenSegment3DigitComplex.c" 1
 946  000E              	IF (1000< 0404h) AND (1000>7)
 946  000E              ;# 946 "C:\Users\Tech\Desktop\CODetector\sevenSegment3DigitComplex\SevenSegment3DigitComplex.c" 1
 946  000E  0FF9        	MOV A,1000/4-1
 946  000F              ;# 946 "C:\Users\Tech\Desktop\CODetector\sevenSegment3DigitComplex\SevenSegment3DigitComplex.c" 1
 946  000F  2000     E  	CALL __DELAYX3 + 3 -(1000 MOD 4)
 946  0010              	ENDIF
 946  0010              ;# 946 "C:\Users\Tech\Desktop\CODetector\sevenSegment3DigitComplex\SevenSegment3DigitComplex.c" 1
 946  0010              	IF (1000< 0x40B) AND (1000> 0403h)
 946  0010              ;# 946 "C:\Users\Tech\Desktop\CODetector\sevenSegment3DigitComplex\SevenSegment3DigitComplex.c" 1
 946  0010              	MOV A,0 
 946  0010              ;# 946 "C:\Users\Tech\Desktop\CODetector\sevenSegment3DigitComplex\SevenSegment3DigitComplex.c" 1
 946  0010              	CALL __DELAYX6 + 0x40a -1000
 946  0010              	ENDIF
 946  0010              ;# 946 "C:\Users\Tech\Desktop\CODetector\sevenSegment3DigitComplex\SevenSegment3DigitComplex.c" 1
 946  0010              	IF (1000 >= 0x40b) AND ((((1000-9)%0402h)/4+1)>256)
 946  0010              ;# 946 "C:\Users\Tech\Desktop\CODetector\sevenSegment3DigitComplex\SevenSegment3DigitComplex.c" 1
 946  0010              	MOV A,(1000-9)/0402h
 946  0010              ;# 946 "C:\Users\Tech\Desktop\CODetector\sevenSegment3DigitComplex\SevenSegment3DigitComplex.c" 1
 946  0010              	MOV _builtin_holtek_delay_2,A
 946  0010              ;# 946 "C:\Users\Tech\Desktop\CODetector\sevenSegment3DigitComplex\SevenSegment3DigitComplex.c" 1
 946  0010              	MOV A,0
 946  0010              ;# 946 "C:\Users\Tech\Desktop\CODetector\sevenSegment3DigitComplex\SevenSegment3DigitComplex.c" 1
 946  0010              	CALL __DELAYY5 +5- (((1000-9)%0402h)%6)
 946  0010              	ENDIF
 946  0010              ;# 946 "C:\Users\Tech\Desktop\CODetector\sevenSegment3DigitComplex\SevenSegment3DigitComplex.c" 1
 946  0010              	IF (1000 >= 0x40b) AND ((((1000-9)%0402h)/4+1)<=256)
 946  0010              ;# 946 "C:\Users\Tech\Desktop\CODetector\sevenSegment3DigitComplex\SevenSegment3DigitComplex.c" 1
 946  0010              	MOV A,(1000-9)/0402h
 946  0010              ;# 946 "C:\Users\Tech\Desktop\CODetector\sevenSegment3DigitComplex\SevenSegment3DigitComplex.c" 1
 946  0010              	MOV _builtin_holtek_delay_2,A
 946  0010              ;# 946 "C:\Users\Tech\Desktop\CODetector\sevenSegment3DigitComplex\SevenSegment3DigitComplex.c" 1
 946  0010              	MOV A,((1000-9)%0402h)/4+1
 946  0010              ;# 946 "C:\Users\Tech\Desktop\CODetector\sevenSegment3DigitComplex\SevenSegment3DigitComplex.c" 1
 946  0010              	CALL __DELAYY3 +3-(((1000-9)%0402h)%4)
 946  0010              	ENDIF
 946  0010  0003        	ret
 946  0011              _sevenDigit3 endp
 946  0011              #line 946 "C:\Users\Tech\Desktop\CODetector\sevenSegment3DigitComplex\SevenSegment3DigitComplex.c"
 946  0011              #pragma debug scope 1 1
"File: SevenSegment3DigitComplex.c  Assembler  Version HGASM0202      Page 101

 946  0011              public _eightDigit1
 946  0011              #pragma debug scope 28 1
 950  0011              #line 950 "C:\Users\Tech\Desktop\CODetector\sevenSegment3DigitComplex\SevenSegment3DigitComplex.c"
 950  0000              _eightDigit1 .section 'code'
 950  0000              _eightDigit1 proc
 952  0000              #line 952 "C:\Users\Tech\Desktop\CODetector\sevenSegment3DigitComplex\SevenSegment3DigitComplex.c"
 952  0000  3119        	set [25].2
 953  0001              #line 953 "C:\Users\Tech\Desktop\CODetector\sevenSegment3DigitComplex\SevenSegment3DigitComplex.c"
 953  0001  3099        	set [25].1
 954  0002              #line 954 "C:\Users\Tech\Desktop\CODetector\sevenSegment3DigitComplex\SevenSegment3DigitComplex.c"
 954  0002  3215        	set [21].4
 955  0003              #line 955 "C:\Users\Tech\Desktop\CODetector\sevenSegment3DigitComplex\SevenSegment3DigitComplex.c"
 955  0003  3015        	set [21].0
 956  0004              #line 956 "C:\Users\Tech\Desktop\CODetector\sevenSegment3DigitComplex\SevenSegment3DigitComplex.c"
 956  0004  3115        	set [21].2
 957  0005              #line 957 "C:\Users\Tech\Desktop\CODetector\sevenSegment3DigitComplex\SevenSegment3DigitComplex.c"
 957  0005  3199        	set [25].3
 959  0006              #line 959 "C:\Users\Tech\Desktop\CODetector\sevenSegment3DigitComplex\SevenSegment3DigitComplex.c"
 959  0006  3519        	clr [25].2
 960  0007              #line 960 "C:\Users\Tech\Desktop\CODetector\sevenSegment3DigitComplex\SevenSegment3DigitComplex.c"
 960  0007  3499        	clr [25].1
 961  0008              #line 961 "C:\Users\Tech\Desktop\CODetector\sevenSegment3DigitComplex\SevenSegment3DigitComplex.c"
 961  0008  3615        	clr [21].4
 962  0009              #line 962 "C:\Users\Tech\Desktop\CODetector\sevenSegment3DigitComplex\SevenSegment3DigitComplex.c"
 962  0009  3415        	clr [21].0
 963  000A              #line 963 "C:\Users\Tech\Desktop\CODetector\sevenSegment3DigitComplex\SevenSegment3DigitComplex.c"
 963  000A  3515        	clr [21].2
 964  000B              #line 964 "C:\Users\Tech\Desktop\CODetector\sevenSegment3DigitComplex\SevenSegment3DigitComplex.c"
 964  000B  3599        	clr [25].3
 967  000C              #line 967 "C:\Users\Tech\Desktop\CODetector\sevenSegment3DigitComplex\SevenSegment3DigitComplex.c"
 967  000C  3518        	clr [24].2
 968  000D              #line 968 "C:\Users\Tech\Desktop\CODetector\sevenSegment3DigitComplex\SevenSegment3DigitComplex.c"
 968  000D  3098        	set [24].1
 969  000E              #line 969 "C:\Users\Tech\Desktop\CODetector\sevenSegment3DigitComplex\SevenSegment3DigitComplex.c"
 969  000E  3214        	set [20].4
 970  000F              #line 970 "C:\Users\Tech\Desktop\CODetector\sevenSegment3DigitComplex\SevenSegment3DigitComplex.c"
 970  000F  3014        	set [20].0
 971  0010              #line 971 "C:\Users\Tech\Desktop\CODetector\sevenSegment3DigitComplex\SevenSegment3DigitComplex.c"
 971  0010  3114        	set [20].2
 972  0011              #line 972 "C:\Users\Tech\Desktop\CODetector\sevenSegment3DigitComplex\SevenSegment3DigitComplex.c"
 972  0011  3198        	set [24].3
 974  0012              #line 974 "C:\Users\Tech\Desktop\CODetector\sevenSegment3DigitComplex\SevenSegment3DigitComplex.c"
 974  0012              ;# 974 "C:\Users\Tech\Desktop\CODetector\sevenSegment3DigitComplex\SevenSegment3DigitComplex.c" 1
 974  0012              	IF 1000>263690
 974  0012              ;# 974 "C:\Users\Tech\Desktop\CODetector\sevenSegment3DigitComplex\SevenSegment3DigitComplex.c" 1
 974  0012              	ERRMESSAGE 'the value 1000of the argument exceeds the maxinum 263690'
 974  0012              	ENDIF
 974  0012              ;# 974 "C:\Users\Tech\Desktop\CODetector\sevenSegment3DigitComplex\SevenSegment3DigitComplex.c" 1
 974  0012              	IF 1000<0
 974  0012              ;# 974 "C:\Users\Tech\Desktop\CODetector\sevenSegment3DigitComplex\SevenSegment3DigitComplex.c" 1
 974  0012              	ERRMESSAGE 'the value 1000 of the argument exceeds the mininum 0'
 974  0012              	ENDIF
 974  0012              ;# 974 "C:\Users\Tech\Desktop\CODetector\sevenSegment3DigitComplex\SevenSegment3DigitComplex.c" 1
 974  0012              	IF 1000==0
 974  0012              ;# 974 "C:\Users\Tech\Desktop\CODetector\sevenSegment3DigitComplex\SevenSegment3DigitComplex.c" 1
 974  0012              	JMP $
 974  0012              	ENDIF
 974  0012              ;# 974 "C:\Users\Tech\Desktop\CODetector\sevenSegment3DigitComplex\SevenSegment3DigitComplex.c" 1
 974  0012              	IF 1000==1
 974  0012              ;# 974 "C:\Users\Tech\Desktop\CODetector\sevenSegment3DigitComplex\SevenSegment3DigitComplex.c" 1
"File: SevenSegment3DigitComplex.c  Assembler  Version HGASM0202      Page 102

 974  0012              	NOP
 974  0012              	ENDIF
 974  0012              ;# 974 "C:\Users\Tech\Desktop\CODetector\sevenSegment3DigitComplex\SevenSegment3DigitComplex.c" 1
 974  0012              	IF 1000==2
 974  0012              ;# 974 "C:\Users\Tech\Desktop\CODetector\sevenSegment3DigitComplex\SevenSegment3DigitComplex.c" 1
 974  0012              	NOP
 974  0012              ;# 974 "C:\Users\Tech\Desktop\CODetector\sevenSegment3DigitComplex\SevenSegment3DigitComplex.c" 1
 974  0012              	NOP
 974  0012              	ENDIF
 974  0012              ;# 974 "C:\Users\Tech\Desktop\CODetector\sevenSegment3DigitComplex\SevenSegment3DigitComplex.c" 1
 974  0012              	IF 1000==3
 974  0012              ;# 974 "C:\Users\Tech\Desktop\CODetector\sevenSegment3DigitComplex\SevenSegment3DigitComplex.c" 1
 974  0012              	NOP
 974  0012              ;# 974 "C:\Users\Tech\Desktop\CODetector\sevenSegment3DigitComplex\SevenSegment3DigitComplex.c" 1
 974  0012              	NOP
 974  0012              ;# 974 "C:\Users\Tech\Desktop\CODetector\sevenSegment3DigitComplex\SevenSegment3DigitComplex.c" 1
 974  0012              	NOP
 974  0012              	ENDIF
 974  0012              ;# 974 "C:\Users\Tech\Desktop\CODetector\sevenSegment3DigitComplex\SevenSegment3DigitComplex.c" 1
 974  0012              	IF (1000<8) AND (1000>3)
 974  0012              ;# 974 "C:\Users\Tech\Desktop\CODetector\sevenSegment3DigitComplex\SevenSegment3DigitComplex.c" 1
 974  0012              	CALL __DELAY3 + 7 -1000
 974  0012              	ENDIF
 974  0012              ;# 974 "C:\Users\Tech\Desktop\CODetector\sevenSegment3DigitComplex\SevenSegment3DigitComplex.c" 1
 974  0012              	IF (1000< 0404h) AND (1000>7)
 974  0012              ;# 974 "C:\Users\Tech\Desktop\CODetector\sevenSegment3DigitComplex\SevenSegment3DigitComplex.c" 1
 974  0012  0FF9        	MOV A,1000/4-1
 974  0013              ;# 974 "C:\Users\Tech\Desktop\CODetector\sevenSegment3DigitComplex\SevenSegment3DigitComplex.c" 1
 974  0013  2000     E  	CALL __DELAYX3 + 3 -(1000 MOD 4)
 974  0014              	ENDIF
 974  0014              ;# 974 "C:\Users\Tech\Desktop\CODetector\sevenSegment3DigitComplex\SevenSegment3DigitComplex.c" 1
 974  0014              	IF (1000< 0x40B) AND (1000> 0403h)
 974  0014              ;# 974 "C:\Users\Tech\Desktop\CODetector\sevenSegment3DigitComplex\SevenSegment3DigitComplex.c" 1
 974  0014              	MOV A,0 
 974  0014              ;# 974 "C:\Users\Tech\Desktop\CODetector\sevenSegment3DigitComplex\SevenSegment3DigitComplex.c" 1
 974  0014              	CALL __DELAYX6 + 0x40a -1000
 974  0014              	ENDIF
 974  0014              ;# 974 "C:\Users\Tech\Desktop\CODetector\sevenSegment3DigitComplex\SevenSegment3DigitComplex.c" 1
 974  0014              	IF (1000 >= 0x40b) AND ((((1000-9)%0402h)/4+1)>256)
 974  0014              ;# 974 "C:\Users\Tech\Desktop\CODetector\sevenSegment3DigitComplex\SevenSegment3DigitComplex.c" 1
 974  0014              	MOV A,(1000-9)/0402h
 974  0014              ;# 974 "C:\Users\Tech\Desktop\CODetector\sevenSegment3DigitComplex\SevenSegment3DigitComplex.c" 1
 974  0014              	MOV _builtin_holtek_delay_2,A
 974  0014              ;# 974 "C:\Users\Tech\Desktop\CODetector\sevenSegment3DigitComplex\SevenSegment3DigitComplex.c" 1
 974  0014              	MOV A,0
 974  0014              ;# 974 "C:\Users\Tech\Desktop\CODetector\sevenSegment3DigitComplex\SevenSegment3DigitComplex.c" 1
 974  0014              	CALL __DELAYY5 +5- (((1000-9)%0402h)%6)
 974  0014              	ENDIF
 974  0014              ;# 974 "C:\Users\Tech\Desktop\CODetector\sevenSegment3DigitComplex\SevenSegment3DigitComplex.c" 1
 974  0014              	IF (1000 >= 0x40b) AND ((((1000-9)%0402h)/4+1)<=256)
 974  0014              ;# 974 "C:\Users\Tech\Desktop\CODetector\sevenSegment3DigitComplex\SevenSegment3DigitComplex.c" 1
 974  0014              	MOV A,(1000-9)/0402h
 974  0014              ;# 974 "C:\Users\Tech\Desktop\CODetector\sevenSegment3DigitComplex\SevenSegment3DigitComplex.c" 1
 974  0014              	MOV _builtin_holtek_delay_2,A
 974  0014              ;# 974 "C:\Users\Tech\Desktop\CODetector\sevenSegment3DigitComplex\SevenSegment3DigitComplex.c" 1
 974  0014              	MOV A,((1000-9)%0402h)/4+1
 974  0014              ;# 974 "C:\Users\Tech\Desktop\CODetector\sevenSegment3DigitComplex\SevenSegment3DigitComplex.c" 1
 974  0014              	CALL __DELAYY3 +3-(((1000-9)%0402h)%4)
 974  0014              	ENDIF
 976  0014              #line 976 "C:\Users\Tech\Desktop\CODetector\sevenSegment3DigitComplex\SevenSegment3DigitComplex.c"
"File: SevenSegment3DigitComplex.c  Assembler  Version HGASM0202      Page 103

 976  0014  3119        	set [25].2
 977  0015              #line 977 "C:\Users\Tech\Desktop\CODetector\sevenSegment3DigitComplex\SevenSegment3DigitComplex.c"
 977  0015  3099        	set [25].1
 978  0016              #line 978 "C:\Users\Tech\Desktop\CODetector\sevenSegment3DigitComplex\SevenSegment3DigitComplex.c"
 978  0016  3215        	set [21].4
 979  0017              #line 979 "C:\Users\Tech\Desktop\CODetector\sevenSegment3DigitComplex\SevenSegment3DigitComplex.c"
 979  0017  3015        	set [21].0
 980  0018              #line 980 "C:\Users\Tech\Desktop\CODetector\sevenSegment3DigitComplex\SevenSegment3DigitComplex.c"
 980  0018  3115        	set [21].2
 981  0019              #line 981 "C:\Users\Tech\Desktop\CODetector\sevenSegment3DigitComplex\SevenSegment3DigitComplex.c"
 981  0019  3199        	set [25].3
 982  001A              #line 982 "C:\Users\Tech\Desktop\CODetector\sevenSegment3DigitComplex\SevenSegment3DigitComplex.c"
 982  001A  3499        	clr [25].1
 983  001B              #line 983 "C:\Users\Tech\Desktop\CODetector\sevenSegment3DigitComplex\SevenSegment3DigitComplex.c"
 983  001B  3615        	clr [21].4
 984  001C              #line 984 "C:\Users\Tech\Desktop\CODetector\sevenSegment3DigitComplex\SevenSegment3DigitComplex.c"
 984  001C  3498        	clr [24].1
 985  001D              #line 985 "C:\Users\Tech\Desktop\CODetector\sevenSegment3DigitComplex\SevenSegment3DigitComplex.c"
 985  001D  3214        	set [20].4
 987  001E              #line 987 "C:\Users\Tech\Desktop\CODetector\sevenSegment3DigitComplex\SevenSegment3DigitComplex.c"
 987  001E              ;# 987 "C:\Users\Tech\Desktop\CODetector\sevenSegment3DigitComplex\SevenSegment3DigitComplex.c" 1
 987  001E              	IF 1000>263690
 987  001E              ;# 987 "C:\Users\Tech\Desktop\CODetector\sevenSegment3DigitComplex\SevenSegment3DigitComplex.c" 1
 987  001E              	ERRMESSAGE 'the value 1000of the argument exceeds the maxinum 263690'
 987  001E              	ENDIF
 987  001E              ;# 987 "C:\Users\Tech\Desktop\CODetector\sevenSegment3DigitComplex\SevenSegment3DigitComplex.c" 1
 987  001E              	IF 1000<0
 987  001E              ;# 987 "C:\Users\Tech\Desktop\CODetector\sevenSegment3DigitComplex\SevenSegment3DigitComplex.c" 1
 987  001E              	ERRMESSAGE 'the value 1000 of the argument exceeds the mininum 0'
 987  001E              	ENDIF
 987  001E              ;# 987 "C:\Users\Tech\Desktop\CODetector\sevenSegment3DigitComplex\SevenSegment3DigitComplex.c" 1
 987  001E              	IF 1000==0
 987  001E              ;# 987 "C:\Users\Tech\Desktop\CODetector\sevenSegment3DigitComplex\SevenSegment3DigitComplex.c" 1
 987  001E              	JMP $
 987  001E              	ENDIF
 987  001E              ;# 987 "C:\Users\Tech\Desktop\CODetector\sevenSegment3DigitComplex\SevenSegment3DigitComplex.c" 1
 987  001E              	IF 1000==1
 987  001E              ;# 987 "C:\Users\Tech\Desktop\CODetector\sevenSegment3DigitComplex\SevenSegment3DigitComplex.c" 1
 987  001E              	NOP
 987  001E              	ENDIF
 987  001E              ;# 987 "C:\Users\Tech\Desktop\CODetector\sevenSegment3DigitComplex\SevenSegment3DigitComplex.c" 1
 987  001E              	IF 1000==2
 987  001E              ;# 987 "C:\Users\Tech\Desktop\CODetector\sevenSegment3DigitComplex\SevenSegment3DigitComplex.c" 1
 987  001E              	NOP
 987  001E              ;# 987 "C:\Users\Tech\Desktop\CODetector\sevenSegment3DigitComplex\SevenSegment3DigitComplex.c" 1
 987  001E              	NOP
 987  001E              	ENDIF
 987  001E              ;# 987 "C:\Users\Tech\Desktop\CODetector\sevenSegment3DigitComplex\SevenSegment3DigitComplex.c" 1
 987  001E              	IF 1000==3
 987  001E              ;# 987 "C:\Users\Tech\Desktop\CODetector\sevenSegment3DigitComplex\SevenSegment3DigitComplex.c" 1
 987  001E              	NOP
 987  001E              ;# 987 "C:\Users\Tech\Desktop\CODetector\sevenSegment3DigitComplex\SevenSegment3DigitComplex.c" 1
 987  001E              	NOP
 987  001E              ;# 987 "C:\Users\Tech\Desktop\CODetector\sevenSegment3DigitComplex\SevenSegment3DigitComplex.c" 1
 987  001E              	NOP
 987  001E              	ENDIF
 987  001E              ;# 987 "C:\Users\Tech\Desktop\CODetector\sevenSegment3DigitComplex\SevenSegment3DigitComplex.c" 1
 987  001E              	IF (1000<8) AND (1000>3)
 987  001E              ;# 987 "C:\Users\Tech\Desktop\CODetector\sevenSegment3DigitComplex\SevenSegment3DigitComplex.c" 1
 987  001E              	CALL __DELAY3 + 7 -1000
"File: SevenSegment3DigitComplex.c  Assembler  Version HGASM0202      Page 104

 987  001E              	ENDIF
 987  001E              ;# 987 "C:\Users\Tech\Desktop\CODetector\sevenSegment3DigitComplex\SevenSegment3DigitComplex.c" 1
 987  001E              	IF (1000< 0404h) AND (1000>7)
 987  001E              ;# 987 "C:\Users\Tech\Desktop\CODetector\sevenSegment3DigitComplex\SevenSegment3DigitComplex.c" 1
 987  001E  0FF9        	MOV A,1000/4-1
 987  001F              ;# 987 "C:\Users\Tech\Desktop\CODetector\sevenSegment3DigitComplex\SevenSegment3DigitComplex.c" 1
 987  001F  2000     E  	CALL __DELAYX3 + 3 -(1000 MOD 4)
 987  0020              	ENDIF
 987  0020              ;# 987 "C:\Users\Tech\Desktop\CODetector\sevenSegment3DigitComplex\SevenSegment3DigitComplex.c" 1
 987  0020              	IF (1000< 0x40B) AND (1000> 0403h)
 987  0020              ;# 987 "C:\Users\Tech\Desktop\CODetector\sevenSegment3DigitComplex\SevenSegment3DigitComplex.c" 1
 987  0020              	MOV A,0 
 987  0020              ;# 987 "C:\Users\Tech\Desktop\CODetector\sevenSegment3DigitComplex\SevenSegment3DigitComplex.c" 1
 987  0020              	CALL __DELAYX6 + 0x40a -1000
 987  0020              	ENDIF
 987  0020              ;# 987 "C:\Users\Tech\Desktop\CODetector\sevenSegment3DigitComplex\SevenSegment3DigitComplex.c" 1
 987  0020              	IF (1000 >= 0x40b) AND ((((1000-9)%0402h)/4+1)>256)
 987  0020              ;# 987 "C:\Users\Tech\Desktop\CODetector\sevenSegment3DigitComplex\SevenSegment3DigitComplex.c" 1
 987  0020              	MOV A,(1000-9)/0402h
 987  0020              ;# 987 "C:\Users\Tech\Desktop\CODetector\sevenSegment3DigitComplex\SevenSegment3DigitComplex.c" 1
 987  0020              	MOV _builtin_holtek_delay_2,A
 987  0020              ;# 987 "C:\Users\Tech\Desktop\CODetector\sevenSegment3DigitComplex\SevenSegment3DigitComplex.c" 1
 987  0020              	MOV A,0
 987  0020              ;# 987 "C:\Users\Tech\Desktop\CODetector\sevenSegment3DigitComplex\SevenSegment3DigitComplex.c" 1
 987  0020              	CALL __DELAYY5 +5- (((1000-9)%0402h)%6)
 987  0020              	ENDIF
 987  0020              ;# 987 "C:\Users\Tech\Desktop\CODetector\sevenSegment3DigitComplex\SevenSegment3DigitComplex.c" 1
 987  0020              	IF (1000 >= 0x40b) AND ((((1000-9)%0402h)/4+1)<=256)
 987  0020              ;# 987 "C:\Users\Tech\Desktop\CODetector\sevenSegment3DigitComplex\SevenSegment3DigitComplex.c" 1
 987  0020              	MOV A,(1000-9)/0402h
 987  0020              ;# 987 "C:\Users\Tech\Desktop\CODetector\sevenSegment3DigitComplex\SevenSegment3DigitComplex.c" 1
 987  0020              	MOV _builtin_holtek_delay_2,A
 987  0020              ;# 987 "C:\Users\Tech\Desktop\CODetector\sevenSegment3DigitComplex\SevenSegment3DigitComplex.c" 1
 987  0020              	MOV A,((1000-9)%0402h)/4+1
 987  0020              ;# 987 "C:\Users\Tech\Desktop\CODetector\sevenSegment3DigitComplex\SevenSegment3DigitComplex.c" 1
 987  0020              	CALL __DELAYY3 +3-(((1000-9)%0402h)%4)
 987  0020              	ENDIF
 988  0020              #line 988 "C:\Users\Tech\Desktop\CODetector\sevenSegment3DigitComplex\SevenSegment3DigitComplex.c"
 988  0020  3119        	set [25].2
 989  0021              #line 989 "C:\Users\Tech\Desktop\CODetector\sevenSegment3DigitComplex\SevenSegment3DigitComplex.c"
 989  0021  3099        	set [25].1
 990  0022              #line 990 "C:\Users\Tech\Desktop\CODetector\sevenSegment3DigitComplex\SevenSegment3DigitComplex.c"
 990  0022  3215        	set [21].4
 991  0023              #line 991 "C:\Users\Tech\Desktop\CODetector\sevenSegment3DigitComplex\SevenSegment3DigitComplex.c"
 991  0023  3015        	set [21].0
 992  0024              #line 992 "C:\Users\Tech\Desktop\CODetector\sevenSegment3DigitComplex\SevenSegment3DigitComplex.c"
 992  0024  3115        	set [21].2
 993  0025              #line 993 "C:\Users\Tech\Desktop\CODetector\sevenSegment3DigitComplex\SevenSegment3DigitComplex.c"
 993  0025  3199        	set [25].3
 994  0026              #line 994 "C:\Users\Tech\Desktop\CODetector\sevenSegment3DigitComplex\SevenSegment3DigitComplex.c"
 994  0026  3499        	clr [25].1
 995  0027              #line 995 "C:\Users\Tech\Desktop\CODetector\sevenSegment3DigitComplex\SevenSegment3DigitComplex.c"
 995  0027  3415        	clr [21].0
 996  0028              #line 996 "C:\Users\Tech\Desktop\CODetector\sevenSegment3DigitComplex\SevenSegment3DigitComplex.c"
 996  0028  3014        	set [20].0
 997  0029              #line 997 "C:\Users\Tech\Desktop\CODetector\sevenSegment3DigitComplex\SevenSegment3DigitComplex.c"
 997  0029  3498        	clr [24].1
 998  002A              #line 998 "C:\Users\Tech\Desktop\CODetector\sevenSegment3DigitComplex\SevenSegment3DigitComplex.c"
 998  002A              ;# 998 "C:\Users\Tech\Desktop\CODetector\sevenSegment3DigitComplex\SevenSegment3DigitComplex.c" 1
 998  002A              	IF 1000>263690
"File: SevenSegment3DigitComplex.c  Assembler  Version HGASM0202      Page 105

 998  002A              ;# 998 "C:\Users\Tech\Desktop\CODetector\sevenSegment3DigitComplex\SevenSegment3DigitComplex.c" 1
 998  002A              	ERRMESSAGE 'the value 1000of the argument exceeds the maxinum 263690'
 998  002A              	ENDIF
 998  002A              ;# 998 "C:\Users\Tech\Desktop\CODetector\sevenSegment3DigitComplex\SevenSegment3DigitComplex.c" 1
 998  002A              	IF 1000<0
 998  002A              ;# 998 "C:\Users\Tech\Desktop\CODetector\sevenSegment3DigitComplex\SevenSegment3DigitComplex.c" 1
 998  002A              	ERRMESSAGE 'the value 1000 of the argument exceeds the mininum 0'
 998  002A              	ENDIF
 998  002A              ;# 998 "C:\Users\Tech\Desktop\CODetector\sevenSegment3DigitComplex\SevenSegment3DigitComplex.c" 1
 998  002A              	IF 1000==0
 998  002A              ;# 998 "C:\Users\Tech\Desktop\CODetector\sevenSegment3DigitComplex\SevenSegment3DigitComplex.c" 1
 998  002A              	JMP $
 998  002A              	ENDIF
 998  002A              ;# 998 "C:\Users\Tech\Desktop\CODetector\sevenSegment3DigitComplex\SevenSegment3DigitComplex.c" 1
 998  002A              	IF 1000==1
 998  002A              ;# 998 "C:\Users\Tech\Desktop\CODetector\sevenSegment3DigitComplex\SevenSegment3DigitComplex.c" 1
 998  002A              	NOP
 998  002A              	ENDIF
 998  002A              ;# 998 "C:\Users\Tech\Desktop\CODetector\sevenSegment3DigitComplex\SevenSegment3DigitComplex.c" 1
 998  002A              	IF 1000==2
 998  002A              ;# 998 "C:\Users\Tech\Desktop\CODetector\sevenSegment3DigitComplex\SevenSegment3DigitComplex.c" 1
 998  002A              	NOP
 998  002A              ;# 998 "C:\Users\Tech\Desktop\CODetector\sevenSegment3DigitComplex\SevenSegment3DigitComplex.c" 1
 998  002A              	NOP
 998  002A              	ENDIF
 998  002A              ;# 998 "C:\Users\Tech\Desktop\CODetector\sevenSegment3DigitComplex\SevenSegment3DigitComplex.c" 1
 998  002A              	IF 1000==3
 998  002A              ;# 998 "C:\Users\Tech\Desktop\CODetector\sevenSegment3DigitComplex\SevenSegment3DigitComplex.c" 1
 998  002A              	NOP
 998  002A              ;# 998 "C:\Users\Tech\Desktop\CODetector\sevenSegment3DigitComplex\SevenSegment3DigitComplex.c" 1
 998  002A              	NOP
 998  002A              ;# 998 "C:\Users\Tech\Desktop\CODetector\sevenSegment3DigitComplex\SevenSegment3DigitComplex.c" 1
 998  002A              	NOP
 998  002A              	ENDIF
 998  002A              ;# 998 "C:\Users\Tech\Desktop\CODetector\sevenSegment3DigitComplex\SevenSegment3DigitComplex.c" 1
 998  002A              	IF (1000<8) AND (1000>3)
 998  002A              ;# 998 "C:\Users\Tech\Desktop\CODetector\sevenSegment3DigitComplex\SevenSegment3DigitComplex.c" 1
 998  002A              	CALL __DELAY3 + 7 -1000
 998  002A              	ENDIF
 998  002A              ;# 998 "C:\Users\Tech\Desktop\CODetector\sevenSegment3DigitComplex\SevenSegment3DigitComplex.c" 1
 998  002A              	IF (1000< 0404h) AND (1000>7)
 998  002A              ;# 998 "C:\Users\Tech\Desktop\CODetector\sevenSegment3DigitComplex\SevenSegment3DigitComplex.c" 1
 998  002A  0FF9        	MOV A,1000/4-1
 998  002B              ;# 998 "C:\Users\Tech\Desktop\CODetector\sevenSegment3DigitComplex\SevenSegment3DigitComplex.c" 1
 998  002B  2000     E  	CALL __DELAYX3 + 3 -(1000 MOD 4)
 998  002C              	ENDIF
 998  002C              ;# 998 "C:\Users\Tech\Desktop\CODetector\sevenSegment3DigitComplex\SevenSegment3DigitComplex.c" 1
 998  002C              	IF (1000< 0x40B) AND (1000> 0403h)
 998  002C              ;# 998 "C:\Users\Tech\Desktop\CODetector\sevenSegment3DigitComplex\SevenSegment3DigitComplex.c" 1
 998  002C              	MOV A,0 
 998  002C              ;# 998 "C:\Users\Tech\Desktop\CODetector\sevenSegment3DigitComplex\SevenSegment3DigitComplex.c" 1
 998  002C              	CALL __DELAYX6 + 0x40a -1000
 998  002C              	ENDIF
 998  002C              ;# 998 "C:\Users\Tech\Desktop\CODetector\sevenSegment3DigitComplex\SevenSegment3DigitComplex.c" 1
 998  002C              	IF (1000 >= 0x40b) AND ((((1000-9)%0402h)/4+1)>256)
 998  002C              ;# 998 "C:\Users\Tech\Desktop\CODetector\sevenSegment3DigitComplex\SevenSegment3DigitComplex.c" 1
 998  002C              	MOV A,(1000-9)/0402h
 998  002C              ;# 998 "C:\Users\Tech\Desktop\CODetector\sevenSegment3DigitComplex\SevenSegment3DigitComplex.c" 1
 998  002C              	MOV _builtin_holtek_delay_2,A
 998  002C              ;# 998 "C:\Users\Tech\Desktop\CODetector\sevenSegment3DigitComplex\SevenSegment3DigitComplex.c" 1
"File: SevenSegment3DigitComplex.c  Assembler  Version HGASM0202      Page 106

 998  002C              	MOV A,0
 998  002C              ;# 998 "C:\Users\Tech\Desktop\CODetector\sevenSegment3DigitComplex\SevenSegment3DigitComplex.c" 1
 998  002C              	CALL __DELAYY5 +5- (((1000-9)%0402h)%6)
 998  002C              	ENDIF
 998  002C              ;# 998 "C:\Users\Tech\Desktop\CODetector\sevenSegment3DigitComplex\SevenSegment3DigitComplex.c" 1
 998  002C              	IF (1000 >= 0x40b) AND ((((1000-9)%0402h)/4+1)<=256)
 998  002C              ;# 998 "C:\Users\Tech\Desktop\CODetector\sevenSegment3DigitComplex\SevenSegment3DigitComplex.c" 1
 998  002C              	MOV A,(1000-9)/0402h
 998  002C              ;# 998 "C:\Users\Tech\Desktop\CODetector\sevenSegment3DigitComplex\SevenSegment3DigitComplex.c" 1
 998  002C              	MOV _builtin_holtek_delay_2,A
 998  002C              ;# 998 "C:\Users\Tech\Desktop\CODetector\sevenSegment3DigitComplex\SevenSegment3DigitComplex.c" 1
 998  002C              	MOV A,((1000-9)%0402h)/4+1
 998  002C              ;# 998 "C:\Users\Tech\Desktop\CODetector\sevenSegment3DigitComplex\SevenSegment3DigitComplex.c" 1
 998  002C              	CALL __DELAYY3 +3-(((1000-9)%0402h)%4)
 998  002C              	ENDIF
 998  002C  0003        	ret
 998  002D              _eightDigit1 endp
 998  002D              #line 998 "C:\Users\Tech\Desktop\CODetector\sevenSegment3DigitComplex\SevenSegment3DigitComplex.c"
 998  002D              #pragma debug scope 1 1
 998  002D              public _eightDigit2
 998  002D              #pragma debug scope 29 1
1001  002D              #line 1001 "C:\Users\Tech\Desktop\CODetector\sevenSegment3DigitComplex\SevenSegment3DigitComplex.c"
1001  0000              _eightDigit2 .section 'code'
1001  0000              _eightDigit2 proc
1002  0000              #line 1002 "C:\Users\Tech\Desktop\CODetector\sevenSegment3DigitComplex\SevenSegment3DigitComplex.c"
1002  0000  3119        	set [25].2
1003  0001              #line 1003 "C:\Users\Tech\Desktop\CODetector\sevenSegment3DigitComplex\SevenSegment3DigitComplex.c"
1003  0001  3099        	set [25].1
1004  0002              #line 1004 "C:\Users\Tech\Desktop\CODetector\sevenSegment3DigitComplex\SevenSegment3DigitComplex.c"
1004  0002  3215        	set [21].4
1005  0003              #line 1005 "C:\Users\Tech\Desktop\CODetector\sevenSegment3DigitComplex\SevenSegment3DigitComplex.c"
1005  0003  3015        	set [21].0
1006  0004              #line 1006 "C:\Users\Tech\Desktop\CODetector\sevenSegment3DigitComplex\SevenSegment3DigitComplex.c"
1006  0004  3115        	set [21].2
1007  0005              #line 1007 "C:\Users\Tech\Desktop\CODetector\sevenSegment3DigitComplex\SevenSegment3DigitComplex.c"
1007  0005  3199        	set [25].3
1009  0006              #line 1009 "C:\Users\Tech\Desktop\CODetector\sevenSegment3DigitComplex\SevenSegment3DigitComplex.c"
1009  0006  3519        	clr [25].2
1010  0007              #line 1010 "C:\Users\Tech\Desktop\CODetector\sevenSegment3DigitComplex\SevenSegment3DigitComplex.c"
1010  0007  3499        	clr [25].1
1011  0008              #line 1011 "C:\Users\Tech\Desktop\CODetector\sevenSegment3DigitComplex\SevenSegment3DigitComplex.c"
1011  0008  3615        	clr [21].4
1012  0009              #line 1012 "C:\Users\Tech\Desktop\CODetector\sevenSegment3DigitComplex\SevenSegment3DigitComplex.c"
1012  0009  3415        	clr [21].0
1013  000A              #line 1013 "C:\Users\Tech\Desktop\CODetector\sevenSegment3DigitComplex\SevenSegment3DigitComplex.c"
1013  000A  3515        	clr [21].2
1014  000B              #line 1014 "C:\Users\Tech\Desktop\CODetector\sevenSegment3DigitComplex\SevenSegment3DigitComplex.c"
1014  000B  3599        	clr [25].3
1015  000C              #line 1015 "C:\Users\Tech\Desktop\CODetector\sevenSegment3DigitComplex\SevenSegment3DigitComplex.c"
1015  000C  3118        	set [24].2
1016  000D              #line 1016 "C:\Users\Tech\Desktop\CODetector\sevenSegment3DigitComplex\SevenSegment3DigitComplex.c"
1016  000D  3498        	clr [24].1
1017  000E              #line 1017 "C:\Users\Tech\Desktop\CODetector\sevenSegment3DigitComplex\SevenSegment3DigitComplex.c"
1017  000E  3614        	clr [20].4
1018  000F              #line 1018 "C:\Users\Tech\Desktop\CODetector\sevenSegment3DigitComplex\SevenSegment3DigitComplex.c"
1018  000F  3414        	clr [20].0
1019  0010              #line 1019 "C:\Users\Tech\Desktop\CODetector\sevenSegment3DigitComplex\SevenSegment3DigitComplex.c"
1019  0010  3514        	clr [20].2
1020  0011              #line 1020 "C:\Users\Tech\Desktop\CODetector\sevenSegment3DigitComplex\SevenSegment3DigitComplex.c"
1020  0011  3598        	clr [24].3
"File: SevenSegment3DigitComplex.c  Assembler  Version HGASM0202      Page 107

1021  0012              #line 1021 "C:\Users\Tech\Desktop\CODetector\sevenSegment3DigitComplex\SevenSegment3DigitComplex.c"
1021  0012              ;# 1021 "C:\Users\Tech\Desktop\CODetector\sevenSegment3DigitComplex\SevenSegment3DigitComplex.c" 1
1021  0012              	IF 1000>263690
1021  0012              ;# 1021 "C:\Users\Tech\Desktop\CODetector\sevenSegment3DigitComplex\SevenSegment3DigitComplex.c" 1
1021  0012              	ERRMESSAGE 'the value 1000of the argument exceeds the maxinum 263690'
1021  0012              	ENDIF
1021  0012              ;# 1021 "C:\Users\Tech\Desktop\CODetector\sevenSegment3DigitComplex\SevenSegment3DigitComplex.c" 1
1021  0012              	IF 1000<0
1021  0012              ;# 1021 "C:\Users\Tech\Desktop\CODetector\sevenSegment3DigitComplex\SevenSegment3DigitComplex.c" 1
1021  0012              	ERRMESSAGE 'the value 1000 of the argument exceeds the mininum 0'
1021  0012              	ENDIF
1021  0012              ;# 1021 "C:\Users\Tech\Desktop\CODetector\sevenSegment3DigitComplex\SevenSegment3DigitComplex.c" 1
1021  0012              	IF 1000==0
1021  0012              ;# 1021 "C:\Users\Tech\Desktop\CODetector\sevenSegment3DigitComplex\SevenSegment3DigitComplex.c" 1
1021  0012              	JMP $
1021  0012              	ENDIF
1021  0012              ;# 1021 "C:\Users\Tech\Desktop\CODetector\sevenSegment3DigitComplex\SevenSegment3DigitComplex.c" 1
1021  0012              	IF 1000==1
1021  0012              ;# 1021 "C:\Users\Tech\Desktop\CODetector\sevenSegment3DigitComplex\SevenSegment3DigitComplex.c" 1
1021  0012              	NOP
1021  0012              	ENDIF
1021  0012              ;# 1021 "C:\Users\Tech\Desktop\CODetector\sevenSegment3DigitComplex\SevenSegment3DigitComplex.c" 1
1021  0012              	IF 1000==2
1021  0012              ;# 1021 "C:\Users\Tech\Desktop\CODetector\sevenSegment3DigitComplex\SevenSegment3DigitComplex.c" 1
1021  0012              	NOP
1021  0012              ;# 1021 "C:\Users\Tech\Desktop\CODetector\sevenSegment3DigitComplex\SevenSegment3DigitComplex.c" 1
1021  0012              	NOP
1021  0012              	ENDIF
1021  0012              ;# 1021 "C:\Users\Tech\Desktop\CODetector\sevenSegment3DigitComplex\SevenSegment3DigitComplex.c" 1
1021  0012              	IF 1000==3
1021  0012              ;# 1021 "C:\Users\Tech\Desktop\CODetector\sevenSegment3DigitComplex\SevenSegment3DigitComplex.c" 1
1021  0012              	NOP
1021  0012              ;# 1021 "C:\Users\Tech\Desktop\CODetector\sevenSegment3DigitComplex\SevenSegment3DigitComplex.c" 1
1021  0012              	NOP
1021  0012              ;# 1021 "C:\Users\Tech\Desktop\CODetector\sevenSegment3DigitComplex\SevenSegment3DigitComplex.c" 1
1021  0012              	NOP
1021  0012              	ENDIF
1021  0012              ;# 1021 "C:\Users\Tech\Desktop\CODetector\sevenSegment3DigitComplex\SevenSegment3DigitComplex.c" 1
1021  0012              	IF (1000<8) AND (1000>3)
1021  0012              ;# 1021 "C:\Users\Tech\Desktop\CODetector\sevenSegment3DigitComplex\SevenSegment3DigitComplex.c" 1
1021  0012              	CALL __DELAY3 + 7 -1000
1021  0012              	ENDIF
1021  0012              ;# 1021 "C:\Users\Tech\Desktop\CODetector\sevenSegment3DigitComplex\SevenSegment3DigitComplex.c" 1
1021  0012              	IF (1000< 0404h) AND (1000>7)
1021  0012              ;# 1021 "C:\Users\Tech\Desktop\CODetector\sevenSegment3DigitComplex\SevenSegment3DigitComplex.c" 1
1021  0012  0FF9        	MOV A,1000/4-1
1021  0013              ;# 1021 "C:\Users\Tech\Desktop\CODetector\sevenSegment3DigitComplex\SevenSegment3DigitComplex.c" 1
1021  0013  2000     E  	CALL __DELAYX3 + 3 -(1000 MOD 4)
1021  0014              	ENDIF
1021  0014              ;# 1021 "C:\Users\Tech\Desktop\CODetector\sevenSegment3DigitComplex\SevenSegment3DigitComplex.c" 1
1021  0014              	IF (1000< 0x40B) AND (1000> 0403h)
1021  0014              ;# 1021 "C:\Users\Tech\Desktop\CODetector\sevenSegment3DigitComplex\SevenSegment3DigitComplex.c" 1
1021  0014              	MOV A,0 
1021  0014              ;# 1021 "C:\Users\Tech\Desktop\CODetector\sevenSegment3DigitComplex\SevenSegment3DigitComplex.c" 1
1021  0014              	CALL __DELAYX6 + 0x40a -1000
1021  0014              	ENDIF
1021  0014              ;# 1021 "C:\Users\Tech\Desktop\CODetector\sevenSegment3DigitComplex\SevenSegment3DigitComplex.c" 1
1021  0014              	IF (1000 >= 0x40b) AND ((((1000-9)%0402h)/4+1)>256)
1021  0014              ;# 1021 "C:\Users\Tech\Desktop\CODetector\sevenSegment3DigitComplex\SevenSegment3DigitComplex.c" 1
1021  0014              	MOV A,(1000-9)/0402h
"File: SevenSegment3DigitComplex.c  Assembler  Version HGASM0202      Page 108

1021  0014              ;# 1021 "C:\Users\Tech\Desktop\CODetector\sevenSegment3DigitComplex\SevenSegment3DigitComplex.c" 1
1021  0014              	MOV _builtin_holtek_delay_2,A
1021  0014              ;# 1021 "C:\Users\Tech\Desktop\CODetector\sevenSegment3DigitComplex\SevenSegment3DigitComplex.c" 1
1021  0014              	MOV A,0
1021  0014              ;# 1021 "C:\Users\Tech\Desktop\CODetector\sevenSegment3DigitComplex\SevenSegment3DigitComplex.c" 1
1021  0014              	CALL __DELAYY5 +5- (((1000-9)%0402h)%6)
1021  0014              	ENDIF
1021  0014              ;# 1021 "C:\Users\Tech\Desktop\CODetector\sevenSegment3DigitComplex\SevenSegment3DigitComplex.c" 1
1021  0014              	IF (1000 >= 0x40b) AND ((((1000-9)%0402h)/4+1)<=256)
1021  0014              ;# 1021 "C:\Users\Tech\Desktop\CODetector\sevenSegment3DigitComplex\SevenSegment3DigitComplex.c" 1
1021  0014              	MOV A,(1000-9)/0402h
1021  0014              ;# 1021 "C:\Users\Tech\Desktop\CODetector\sevenSegment3DigitComplex\SevenSegment3DigitComplex.c" 1
1021  0014              	MOV _builtin_holtek_delay_2,A
1021  0014              ;# 1021 "C:\Users\Tech\Desktop\CODetector\sevenSegment3DigitComplex\SevenSegment3DigitComplex.c" 1
1021  0014              	MOV A,((1000-9)%0402h)/4+1
1021  0014              ;# 1021 "C:\Users\Tech\Desktop\CODetector\sevenSegment3DigitComplex\SevenSegment3DigitComplex.c" 1
1021  0014              	CALL __DELAYY3 +3-(((1000-9)%0402h)%4)
1021  0014              	ENDIF
1022  0014              #line 1022 "C:\Users\Tech\Desktop\CODetector\sevenSegment3DigitComplex\SevenSegment3DigitComplex.c"
1022  0014  3119        	set [25].2
1023  0015              #line 1023 "C:\Users\Tech\Desktop\CODetector\sevenSegment3DigitComplex\SevenSegment3DigitComplex.c"
1023  0015  3099        	set [25].1
1024  0016              #line 1024 "C:\Users\Tech\Desktop\CODetector\sevenSegment3DigitComplex\SevenSegment3DigitComplex.c"
1024  0016  3215        	set [21].4
1025  0017              #line 1025 "C:\Users\Tech\Desktop\CODetector\sevenSegment3DigitComplex\SevenSegment3DigitComplex.c"
1025  0017  3015        	set [21].0
1026  0018              #line 1026 "C:\Users\Tech\Desktop\CODetector\sevenSegment3DigitComplex\SevenSegment3DigitComplex.c"
1026  0018  3115        	set [21].2
1027  0019              #line 1027 "C:\Users\Tech\Desktop\CODetector\sevenSegment3DigitComplex\SevenSegment3DigitComplex.c"
1027  0019  3199        	set [25].3
1028  001A              #line 1028 "C:\Users\Tech\Desktop\CODetector\sevenSegment3DigitComplex\SevenSegment3DigitComplex.c"
1028  001A  3599        	clr [25].3
1029  001B              #line 1029 "C:\Users\Tech\Desktop\CODetector\sevenSegment3DigitComplex\SevenSegment3DigitComplex.c"
1029  001B  3499        	clr [25].1
1030  001C              #line 1030 "C:\Users\Tech\Desktop\CODetector\sevenSegment3DigitComplex\SevenSegment3DigitComplex.c"
1030  001C  3198        	set [24].3
1031  001D              #line 1031 "C:\Users\Tech\Desktop\CODetector\sevenSegment3DigitComplex\SevenSegment3DigitComplex.c"
1031  001D  3498        	clr [24].1
1032  001E              #line 1032 "C:\Users\Tech\Desktop\CODetector\sevenSegment3DigitComplex\SevenSegment3DigitComplex.c"
1032  001E              ;# 1032 "C:\Users\Tech\Desktop\CODetector\sevenSegment3DigitComplex\SevenSegment3DigitComplex.c" 1
1032  001E              	IF 1000>263690
1032  001E              ;# 1032 "C:\Users\Tech\Desktop\CODetector\sevenSegment3DigitComplex\SevenSegment3DigitComplex.c" 1
1032  001E              	ERRMESSAGE 'the value 1000of the argument exceeds the maxinum 263690'
1032  001E              	ENDIF
1032  001E              ;# 1032 "C:\Users\Tech\Desktop\CODetector\sevenSegment3DigitComplex\SevenSegment3DigitComplex.c" 1
1032  001E              	IF 1000<0
1032  001E              ;# 1032 "C:\Users\Tech\Desktop\CODetector\sevenSegment3DigitComplex\SevenSegment3DigitComplex.c" 1
1032  001E              	ERRMESSAGE 'the value 1000 of the argument exceeds the mininum 0'
1032  001E              	ENDIF
1032  001E              ;# 1032 "C:\Users\Tech\Desktop\CODetector\sevenSegment3DigitComplex\SevenSegment3DigitComplex.c" 1
1032  001E              	IF 1000==0
1032  001E              ;# 1032 "C:\Users\Tech\Desktop\CODetector\sevenSegment3DigitComplex\SevenSegment3DigitComplex.c" 1
1032  001E              	JMP $
1032  001E              	ENDIF
1032  001E              ;# 1032 "C:\Users\Tech\Desktop\CODetector\sevenSegment3DigitComplex\SevenSegment3DigitComplex.c" 1
1032  001E              	IF 1000==1
1032  001E              ;# 1032 "C:\Users\Tech\Desktop\CODetector\sevenSegment3DigitComplex\SevenSegment3DigitComplex.c" 1
1032  001E              	NOP
1032  001E              	ENDIF
1032  001E              ;# 1032 "C:\Users\Tech\Desktop\CODetector\sevenSegment3DigitComplex\SevenSegment3DigitComplex.c" 1
"File: SevenSegment3DigitComplex.c  Assembler  Version HGASM0202      Page 109

1032  001E              	IF 1000==2
1032  001E              ;# 1032 "C:\Users\Tech\Desktop\CODetector\sevenSegment3DigitComplex\SevenSegment3DigitComplex.c" 1
1032  001E              	NOP
1032  001E              ;# 1032 "C:\Users\Tech\Desktop\CODetector\sevenSegment3DigitComplex\SevenSegment3DigitComplex.c" 1
1032  001E              	NOP
1032  001E              	ENDIF
1032  001E              ;# 1032 "C:\Users\Tech\Desktop\CODetector\sevenSegment3DigitComplex\SevenSegment3DigitComplex.c" 1
1032  001E              	IF 1000==3
1032  001E              ;# 1032 "C:\Users\Tech\Desktop\CODetector\sevenSegment3DigitComplex\SevenSegment3DigitComplex.c" 1
1032  001E              	NOP
1032  001E              ;# 1032 "C:\Users\Tech\Desktop\CODetector\sevenSegment3DigitComplex\SevenSegment3DigitComplex.c" 1
1032  001E              	NOP
1032  001E              ;# 1032 "C:\Users\Tech\Desktop\CODetector\sevenSegment3DigitComplex\SevenSegment3DigitComplex.c" 1
1032  001E              	NOP
1032  001E              	ENDIF
1032  001E              ;# 1032 "C:\Users\Tech\Desktop\CODetector\sevenSegment3DigitComplex\SevenSegment3DigitComplex.c" 1
1032  001E              	IF (1000<8) AND (1000>3)
1032  001E              ;# 1032 "C:\Users\Tech\Desktop\CODetector\sevenSegment3DigitComplex\SevenSegment3DigitComplex.c" 1
1032  001E              	CALL __DELAY3 + 7 -1000
1032  001E              	ENDIF
1032  001E              ;# 1032 "C:\Users\Tech\Desktop\CODetector\sevenSegment3DigitComplex\SevenSegment3DigitComplex.c" 1
1032  001E              	IF (1000< 0404h) AND (1000>7)
1032  001E              ;# 1032 "C:\Users\Tech\Desktop\CODetector\sevenSegment3DigitComplex\SevenSegment3DigitComplex.c" 1
1032  001E  0FF9        	MOV A,1000/4-1
1032  001F              ;# 1032 "C:\Users\Tech\Desktop\CODetector\sevenSegment3DigitComplex\SevenSegment3DigitComplex.c" 1
1032  001F  2000     E  	CALL __DELAYX3 + 3 -(1000 MOD 4)
1032  0020              	ENDIF
1032  0020              ;# 1032 "C:\Users\Tech\Desktop\CODetector\sevenSegment3DigitComplex\SevenSegment3DigitComplex.c" 1
1032  0020              	IF (1000< 0x40B) AND (1000> 0403h)
1032  0020              ;# 1032 "C:\Users\Tech\Desktop\CODetector\sevenSegment3DigitComplex\SevenSegment3DigitComplex.c" 1
1032  0020              	MOV A,0 
1032  0020              ;# 1032 "C:\Users\Tech\Desktop\CODetector\sevenSegment3DigitComplex\SevenSegment3DigitComplex.c" 1
1032  0020              	CALL __DELAYX6 + 0x40a -1000
1032  0020              	ENDIF
1032  0020              ;# 1032 "C:\Users\Tech\Desktop\CODetector\sevenSegment3DigitComplex\SevenSegment3DigitComplex.c" 1
1032  0020              	IF (1000 >= 0x40b) AND ((((1000-9)%0402h)/4+1)>256)
1032  0020              ;# 1032 "C:\Users\Tech\Desktop\CODetector\sevenSegment3DigitComplex\SevenSegment3DigitComplex.c" 1
1032  0020              	MOV A,(1000-9)/0402h
1032  0020              ;# 1032 "C:\Users\Tech\Desktop\CODetector\sevenSegment3DigitComplex\SevenSegment3DigitComplex.c" 1
1032  0020              	MOV _builtin_holtek_delay_2,A
1032  0020              ;# 1032 "C:\Users\Tech\Desktop\CODetector\sevenSegment3DigitComplex\SevenSegment3DigitComplex.c" 1
1032  0020              	MOV A,0
1032  0020              ;# 1032 "C:\Users\Tech\Desktop\CODetector\sevenSegment3DigitComplex\SevenSegment3DigitComplex.c" 1
1032  0020              	CALL __DELAYY5 +5- (((1000-9)%0402h)%6)
1032  0020              	ENDIF
1032  0020              ;# 1032 "C:\Users\Tech\Desktop\CODetector\sevenSegment3DigitComplex\SevenSegment3DigitComplex.c" 1
1032  0020              	IF (1000 >= 0x40b) AND ((((1000-9)%0402h)/4+1)<=256)
1032  0020              ;# 1032 "C:\Users\Tech\Desktop\CODetector\sevenSegment3DigitComplex\SevenSegment3DigitComplex.c" 1
1032  0020              	MOV A,(1000-9)/0402h
1032  0020              ;# 1032 "C:\Users\Tech\Desktop\CODetector\sevenSegment3DigitComplex\SevenSegment3DigitComplex.c" 1
1032  0020              	MOV _builtin_holtek_delay_2,A
1032  0020              ;# 1032 "C:\Users\Tech\Desktop\CODetector\sevenSegment3DigitComplex\SevenSegment3DigitComplex.c" 1
1032  0020              	MOV A,((1000-9)%0402h)/4+1
1032  0020              ;# 1032 "C:\Users\Tech\Desktop\CODetector\sevenSegment3DigitComplex\SevenSegment3DigitComplex.c" 1
1032  0020              	CALL __DELAYY3 +3-(((1000-9)%0402h)%4)
1032  0020              	ENDIF
1034  0020              #line 1034 "C:\Users\Tech\Desktop\CODetector\sevenSegment3DigitComplex\SevenSegment3DigitComplex.c"
1034  0020  3119        	set [25].2
1035  0021              #line 1035 "C:\Users\Tech\Desktop\CODetector\sevenSegment3DigitComplex\SevenSegment3DigitComplex.c"
1035  0021  3099        	set [25].1
"File: SevenSegment3DigitComplex.c  Assembler  Version HGASM0202      Page 110

1036  0022              #line 1036 "C:\Users\Tech\Desktop\CODetector\sevenSegment3DigitComplex\SevenSegment3DigitComplex.c"
1036  0022  3215        	set [21].4
1037  0023              #line 1037 "C:\Users\Tech\Desktop\CODetector\sevenSegment3DigitComplex\SevenSegment3DigitComplex.c"
1037  0023  3015        	set [21].0
1038  0024              #line 1038 "C:\Users\Tech\Desktop\CODetector\sevenSegment3DigitComplex\SevenSegment3DigitComplex.c"
1038  0024  3115        	set [21].2
1039  0025              #line 1039 "C:\Users\Tech\Desktop\CODetector\sevenSegment3DigitComplex\SevenSegment3DigitComplex.c"
1039  0025  3199        	set [25].3
1040  0026              #line 1040 "C:\Users\Tech\Desktop\CODetector\sevenSegment3DigitComplex\SevenSegment3DigitComplex.c"
1040  0026  3515        	clr [21].2
1041  0027              #line 1041 "C:\Users\Tech\Desktop\CODetector\sevenSegment3DigitComplex\SevenSegment3DigitComplex.c"
1041  0027  3499        	clr [25].1
1042  0028              #line 1042 "C:\Users\Tech\Desktop\CODetector\sevenSegment3DigitComplex\SevenSegment3DigitComplex.c"
1042  0028  3498        	clr [24].1
1043  0029              #line 1043 "C:\Users\Tech\Desktop\CODetector\sevenSegment3DigitComplex\SevenSegment3DigitComplex.c"
1043  0029  3114        	set [20].2
1044  002A              #line 1044 "C:\Users\Tech\Desktop\CODetector\sevenSegment3DigitComplex\SevenSegment3DigitComplex.c"
1044  002A              ;# 1044 "C:\Users\Tech\Desktop\CODetector\sevenSegment3DigitComplex\SevenSegment3DigitComplex.c" 1
1044  002A              	IF 1000>263690
1044  002A              ;# 1044 "C:\Users\Tech\Desktop\CODetector\sevenSegment3DigitComplex\SevenSegment3DigitComplex.c" 1
1044  002A              	ERRMESSAGE 'the value 1000of the argument exceeds the maxinum 263690'
1044  002A              	ENDIF
1044  002A              ;# 1044 "C:\Users\Tech\Desktop\CODetector\sevenSegment3DigitComplex\SevenSegment3DigitComplex.c" 1
1044  002A              	IF 1000<0
1044  002A              ;# 1044 "C:\Users\Tech\Desktop\CODetector\sevenSegment3DigitComplex\SevenSegment3DigitComplex.c" 1
1044  002A              	ERRMESSAGE 'the value 1000 of the argument exceeds the mininum 0'
1044  002A              	ENDIF
1044  002A              ;# 1044 "C:\Users\Tech\Desktop\CODetector\sevenSegment3DigitComplex\SevenSegment3DigitComplex.c" 1
1044  002A              	IF 1000==0
1044  002A              ;# 1044 "C:\Users\Tech\Desktop\CODetector\sevenSegment3DigitComplex\SevenSegment3DigitComplex.c" 1
1044  002A              	JMP $
1044  002A              	ENDIF
1044  002A              ;# 1044 "C:\Users\Tech\Desktop\CODetector\sevenSegment3DigitComplex\SevenSegment3DigitComplex.c" 1
1044  002A              	IF 1000==1
1044  002A              ;# 1044 "C:\Users\Tech\Desktop\CODetector\sevenSegment3DigitComplex\SevenSegment3DigitComplex.c" 1
1044  002A              	NOP
1044  002A              	ENDIF
1044  002A              ;# 1044 "C:\Users\Tech\Desktop\CODetector\sevenSegment3DigitComplex\SevenSegment3DigitComplex.c" 1
1044  002A              	IF 1000==2
1044  002A              ;# 1044 "C:\Users\Tech\Desktop\CODetector\sevenSegment3DigitComplex\SevenSegment3DigitComplex.c" 1
1044  002A              	NOP
1044  002A              ;# 1044 "C:\Users\Tech\Desktop\CODetector\sevenSegment3DigitComplex\SevenSegment3DigitComplex.c" 1
1044  002A              	NOP
1044  002A              	ENDIF
1044  002A              ;# 1044 "C:\Users\Tech\Desktop\CODetector\sevenSegment3DigitComplex\SevenSegment3DigitComplex.c" 1
1044  002A              	IF 1000==3
1044  002A              ;# 1044 "C:\Users\Tech\Desktop\CODetector\sevenSegment3DigitComplex\SevenSegment3DigitComplex.c" 1
1044  002A              	NOP
1044  002A              ;# 1044 "C:\Users\Tech\Desktop\CODetector\sevenSegment3DigitComplex\SevenSegment3DigitComplex.c" 1
1044  002A              	NOP
1044  002A              ;# 1044 "C:\Users\Tech\Desktop\CODetector\sevenSegment3DigitComplex\SevenSegment3DigitComplex.c" 1
1044  002A              	NOP
1044  002A              	ENDIF
1044  002A              ;# 1044 "C:\Users\Tech\Desktop\CODetector\sevenSegment3DigitComplex\SevenSegment3DigitComplex.c" 1
1044  002A              	IF (1000<8) AND (1000>3)
1044  002A              ;# 1044 "C:\Users\Tech\Desktop\CODetector\sevenSegment3DigitComplex\SevenSegment3DigitComplex.c" 1
1044  002A              	CALL __DELAY3 + 7 -1000
1044  002A              	ENDIF
1044  002A              ;# 1044 "C:\Users\Tech\Desktop\CODetector\sevenSegment3DigitComplex\SevenSegment3DigitComplex.c" 1
1044  002A              	IF (1000< 0404h) AND (1000>7)
"File: SevenSegment3DigitComplex.c  Assembler  Version HGASM0202      Page 111

1044  002A              ;# 1044 "C:\Users\Tech\Desktop\CODetector\sevenSegment3DigitComplex\SevenSegment3DigitComplex.c" 1
1044  002A  0FF9        	MOV A,1000/4-1
1044  002B              ;# 1044 "C:\Users\Tech\Desktop\CODetector\sevenSegment3DigitComplex\SevenSegment3DigitComplex.c" 1
1044  002B  2000     E  	CALL __DELAYX3 + 3 -(1000 MOD 4)
1044  002C              	ENDIF
1044  002C              ;# 1044 "C:\Users\Tech\Desktop\CODetector\sevenSegment3DigitComplex\SevenSegment3DigitComplex.c" 1
1044  002C              	IF (1000< 0x40B) AND (1000> 0403h)
1044  002C              ;# 1044 "C:\Users\Tech\Desktop\CODetector\sevenSegment3DigitComplex\SevenSegment3DigitComplex.c" 1
1044  002C              	MOV A,0 
1044  002C              ;# 1044 "C:\Users\Tech\Desktop\CODetector\sevenSegment3DigitComplex\SevenSegment3DigitComplex.c" 1
1044  002C              	CALL __DELAYX6 + 0x40a -1000
1044  002C              	ENDIF
1044  002C              ;# 1044 "C:\Users\Tech\Desktop\CODetector\sevenSegment3DigitComplex\SevenSegment3DigitComplex.c" 1
1044  002C              	IF (1000 >= 0x40b) AND ((((1000-9)%0402h)/4+1)>256)
1044  002C              ;# 1044 "C:\Users\Tech\Desktop\CODetector\sevenSegment3DigitComplex\SevenSegment3DigitComplex.c" 1
1044  002C              	MOV A,(1000-9)/0402h
1044  002C              ;# 1044 "C:\Users\Tech\Desktop\CODetector\sevenSegment3DigitComplex\SevenSegment3DigitComplex.c" 1
1044  002C              	MOV _builtin_holtek_delay_2,A
1044  002C              ;# 1044 "C:\Users\Tech\Desktop\CODetector\sevenSegment3DigitComplex\SevenSegment3DigitComplex.c" 1
1044  002C              	MOV A,0
1044  002C              ;# 1044 "C:\Users\Tech\Desktop\CODetector\sevenSegment3DigitComplex\SevenSegment3DigitComplex.c" 1
1044  002C              	CALL __DELAYY5 +5- (((1000-9)%0402h)%6)
1044  002C              	ENDIF
1044  002C              ;# 1044 "C:\Users\Tech\Desktop\CODetector\sevenSegment3DigitComplex\SevenSegment3DigitComplex.c" 1
1044  002C              	IF (1000 >= 0x40b) AND ((((1000-9)%0402h)/4+1)<=256)
1044  002C              ;# 1044 "C:\Users\Tech\Desktop\CODetector\sevenSegment3DigitComplex\SevenSegment3DigitComplex.c" 1
1044  002C              	MOV A,(1000-9)/0402h
1044  002C              ;# 1044 "C:\Users\Tech\Desktop\CODetector\sevenSegment3DigitComplex\SevenSegment3DigitComplex.c" 1
1044  002C              	MOV _builtin_holtek_delay_2,A
1044  002C              ;# 1044 "C:\Users\Tech\Desktop\CODetector\sevenSegment3DigitComplex\SevenSegment3DigitComplex.c" 1
1044  002C              	MOV A,((1000-9)%0402h)/4+1
1044  002C              ;# 1044 "C:\Users\Tech\Desktop\CODetector\sevenSegment3DigitComplex\SevenSegment3DigitComplex.c" 1
1044  002C              	CALL __DELAYY3 +3-(((1000-9)%0402h)%4)
1044  002C              	ENDIF
1044  002C  0003        	ret
1044  002D              _eightDigit2 endp
1044  002D              #line 1044 "C:\Users\Tech\Desktop\CODetector\sevenSegment3DigitComplex\SevenSegment3DigitComplex.c"
1044  002D              #pragma debug scope 1 1
1044  002D              public _eightDigit3
1044  002D              #pragma debug scope 30 1
1046  002D              #line 1046 "C:\Users\Tech\Desktop\CODetector\sevenSegment3DigitComplex\SevenSegment3DigitComplex.c"
1046  0000              _eightDigit3 .section 'code'
1046  0000              _eightDigit3 proc
1048  0000              #line 1048 "C:\Users\Tech\Desktop\CODetector\sevenSegment3DigitComplex\SevenSegment3DigitComplex.c"
1048  0000  3119        	set [25].2
1049  0001              #line 1049 "C:\Users\Tech\Desktop\CODetector\sevenSegment3DigitComplex\SevenSegment3DigitComplex.c"
1049  0001  3099        	set [25].1
1050  0002              #line 1050 "C:\Users\Tech\Desktop\CODetector\sevenSegment3DigitComplex\SevenSegment3DigitComplex.c"
1050  0002  3215        	set [21].4
1051  0003              #line 1051 "C:\Users\Tech\Desktop\CODetector\sevenSegment3DigitComplex\SevenSegment3DigitComplex.c"
1051  0003  3015        	set [21].0
1052  0004              #line 1052 "C:\Users\Tech\Desktop\CODetector\sevenSegment3DigitComplex\SevenSegment3DigitComplex.c"
1052  0004  3115        	set [21].2
1053  0005              #line 1053 "C:\Users\Tech\Desktop\CODetector\sevenSegment3DigitComplex\SevenSegment3DigitComplex.c"
1053  0005  3199        	set [25].3
1055  0006              #line 1055 "C:\Users\Tech\Desktop\CODetector\sevenSegment3DigitComplex\SevenSegment3DigitComplex.c"
1055  0006  3499        	clr [25].1
1056  0007              #line 1056 "C:\Users\Tech\Desktop\CODetector\sevenSegment3DigitComplex\SevenSegment3DigitComplex.c"
1056  0007  3615        	clr [21].4
1057  0008              #line 1057 "C:\Users\Tech\Desktop\CODetector\sevenSegment3DigitComplex\SevenSegment3DigitComplex.c"
"File: SevenSegment3DigitComplex.c  Assembler  Version HGASM0202      Page 112

1057  0008  3415        	clr [21].0
1058  0009              #line 1058 "C:\Users\Tech\Desktop\CODetector\sevenSegment3DigitComplex\SevenSegment3DigitComplex.c"
1058  0009  3515        	clr [21].2
1059  000A              #line 1059 "C:\Users\Tech\Desktop\CODetector\sevenSegment3DigitComplex\SevenSegment3DigitComplex.c"
1059  000A  3599        	clr [25].3
1060  000B              #line 1060 "C:\Users\Tech\Desktop\CODetector\sevenSegment3DigitComplex\SevenSegment3DigitComplex.c"
1060  000B  3098        	set [24].1
1061  000C              #line 1061 "C:\Users\Tech\Desktop\CODetector\sevenSegment3DigitComplex\SevenSegment3DigitComplex.c"
1061  000C  3614        	clr [20].4
1062  000D              #line 1062 "C:\Users\Tech\Desktop\CODetector\sevenSegment3DigitComplex\SevenSegment3DigitComplex.c"
1062  000D  3414        	clr [20].0
1063  000E              #line 1063 "C:\Users\Tech\Desktop\CODetector\sevenSegment3DigitComplex\SevenSegment3DigitComplex.c"
1063  000E  3514        	clr [20].2
1064  000F              #line 1064 "C:\Users\Tech\Desktop\CODetector\sevenSegment3DigitComplex\SevenSegment3DigitComplex.c"
1064  000F  3598        	clr [24].3
1065  0010              #line 1065 "C:\Users\Tech\Desktop\CODetector\sevenSegment3DigitComplex\SevenSegment3DigitComplex.c"
1065  0010              ;# 1065 "C:\Users\Tech\Desktop\CODetector\sevenSegment3DigitComplex\SevenSegment3DigitComplex.c" 1
1065  0010              	IF 1000>263690
1065  0010              ;# 1065 "C:\Users\Tech\Desktop\CODetector\sevenSegment3DigitComplex\SevenSegment3DigitComplex.c" 1
1065  0010              	ERRMESSAGE 'the value 1000of the argument exceeds the maxinum 263690'
1065  0010              	ENDIF
1065  0010              ;# 1065 "C:\Users\Tech\Desktop\CODetector\sevenSegment3DigitComplex\SevenSegment3DigitComplex.c" 1
1065  0010              	IF 1000<0
1065  0010              ;# 1065 "C:\Users\Tech\Desktop\CODetector\sevenSegment3DigitComplex\SevenSegment3DigitComplex.c" 1
1065  0010              	ERRMESSAGE 'the value 1000 of the argument exceeds the mininum 0'
1065  0010              	ENDIF
1065  0010              ;# 1065 "C:\Users\Tech\Desktop\CODetector\sevenSegment3DigitComplex\SevenSegment3DigitComplex.c" 1
1065  0010              	IF 1000==0
1065  0010              ;# 1065 "C:\Users\Tech\Desktop\CODetector\sevenSegment3DigitComplex\SevenSegment3DigitComplex.c" 1
1065  0010              	JMP $
1065  0010              	ENDIF
1065  0010              ;# 1065 "C:\Users\Tech\Desktop\CODetector\sevenSegment3DigitComplex\SevenSegment3DigitComplex.c" 1
1065  0010              	IF 1000==1
1065  0010              ;# 1065 "C:\Users\Tech\Desktop\CODetector\sevenSegment3DigitComplex\SevenSegment3DigitComplex.c" 1
1065  0010              	NOP
1065  0010              	ENDIF
1065  0010              ;# 1065 "C:\Users\Tech\Desktop\CODetector\sevenSegment3DigitComplex\SevenSegment3DigitComplex.c" 1
1065  0010              	IF 1000==2
1065  0010              ;# 1065 "C:\Users\Tech\Desktop\CODetector\sevenSegment3DigitComplex\SevenSegment3DigitComplex.c" 1
1065  0010              	NOP
1065  0010              ;# 1065 "C:\Users\Tech\Desktop\CODetector\sevenSegment3DigitComplex\SevenSegment3DigitComplex.c" 1
1065  0010              	NOP
1065  0010              	ENDIF
1065  0010              ;# 1065 "C:\Users\Tech\Desktop\CODetector\sevenSegment3DigitComplex\SevenSegment3DigitComplex.c" 1
1065  0010              	IF 1000==3
1065  0010              ;# 1065 "C:\Users\Tech\Desktop\CODetector\sevenSegment3DigitComplex\SevenSegment3DigitComplex.c" 1
1065  0010              	NOP
1065  0010              ;# 1065 "C:\Users\Tech\Desktop\CODetector\sevenSegment3DigitComplex\SevenSegment3DigitComplex.c" 1
1065  0010              	NOP
1065  0010              ;# 1065 "C:\Users\Tech\Desktop\CODetector\sevenSegment3DigitComplex\SevenSegment3DigitComplex.c" 1
1065  0010              	NOP
1065  0010              	ENDIF
1065  0010              ;# 1065 "C:\Users\Tech\Desktop\CODetector\sevenSegment3DigitComplex\SevenSegment3DigitComplex.c" 1
1065  0010              	IF (1000<8) AND (1000>3)
1065  0010              ;# 1065 "C:\Users\Tech\Desktop\CODetector\sevenSegment3DigitComplex\SevenSegment3DigitComplex.c" 1
1065  0010              	CALL __DELAY3 + 7 -1000
1065  0010              	ENDIF
1065  0010              ;# 1065 "C:\Users\Tech\Desktop\CODetector\sevenSegment3DigitComplex\SevenSegment3DigitComplex.c" 1
1065  0010              	IF (1000< 0404h) AND (1000>7)
1065  0010              ;# 1065 "C:\Users\Tech\Desktop\CODetector\sevenSegment3DigitComplex\SevenSegment3DigitComplex.c" 1
"File: SevenSegment3DigitComplex.c  Assembler  Version HGASM0202      Page 113

1065  0010  0FF9        	MOV A,1000/4-1
1065  0011              ;# 1065 "C:\Users\Tech\Desktop\CODetector\sevenSegment3DigitComplex\SevenSegment3DigitComplex.c" 1
1065  0011  2000     E  	CALL __DELAYX3 + 3 -(1000 MOD 4)
1065  0012              	ENDIF
1065  0012              ;# 1065 "C:\Users\Tech\Desktop\CODetector\sevenSegment3DigitComplex\SevenSegment3DigitComplex.c" 1
1065  0012              	IF (1000< 0x40B) AND (1000> 0403h)
1065  0012              ;# 1065 "C:\Users\Tech\Desktop\CODetector\sevenSegment3DigitComplex\SevenSegment3DigitComplex.c" 1
1065  0012              	MOV A,0 
1065  0012              ;# 1065 "C:\Users\Tech\Desktop\CODetector\sevenSegment3DigitComplex\SevenSegment3DigitComplex.c" 1
1065  0012              	CALL __DELAYX6 + 0x40a -1000
1065  0012              	ENDIF
1065  0012              ;# 1065 "C:\Users\Tech\Desktop\CODetector\sevenSegment3DigitComplex\SevenSegment3DigitComplex.c" 1
1065  0012              	IF (1000 >= 0x40b) AND ((((1000-9)%0402h)/4+1)>256)
1065  0012              ;# 1065 "C:\Users\Tech\Desktop\CODetector\sevenSegment3DigitComplex\SevenSegment3DigitComplex.c" 1
1065  0012              	MOV A,(1000-9)/0402h
1065  0012              ;# 1065 "C:\Users\Tech\Desktop\CODetector\sevenSegment3DigitComplex\SevenSegment3DigitComplex.c" 1
1065  0012              	MOV _builtin_holtek_delay_2,A
1065  0012              ;# 1065 "C:\Users\Tech\Desktop\CODetector\sevenSegment3DigitComplex\SevenSegment3DigitComplex.c" 1
1065  0012              	MOV A,0
1065  0012              ;# 1065 "C:\Users\Tech\Desktop\CODetector\sevenSegment3DigitComplex\SevenSegment3DigitComplex.c" 1
1065  0012              	CALL __DELAYY5 +5- (((1000-9)%0402h)%6)
1065  0012              	ENDIF
1065  0012              ;# 1065 "C:\Users\Tech\Desktop\CODetector\sevenSegment3DigitComplex\SevenSegment3DigitComplex.c" 1
1065  0012              	IF (1000 >= 0x40b) AND ((((1000-9)%0402h)/4+1)<=256)
1065  0012              ;# 1065 "C:\Users\Tech\Desktop\CODetector\sevenSegment3DigitComplex\SevenSegment3DigitComplex.c" 1
1065  0012              	MOV A,(1000-9)/0402h
1065  0012              ;# 1065 "C:\Users\Tech\Desktop\CODetector\sevenSegment3DigitComplex\SevenSegment3DigitComplex.c" 1
1065  0012              	MOV _builtin_holtek_delay_2,A
1065  0012              ;# 1065 "C:\Users\Tech\Desktop\CODetector\sevenSegment3DigitComplex\SevenSegment3DigitComplex.c" 1
1065  0012              	MOV A,((1000-9)%0402h)/4+1
1065  0012              ;# 1065 "C:\Users\Tech\Desktop\CODetector\sevenSegment3DigitComplex\SevenSegment3DigitComplex.c" 1
1065  0012              	CALL __DELAYY3 +3-(((1000-9)%0402h)%4)
1065  0012              	ENDIF
1066  0012              #line 1066 "C:\Users\Tech\Desktop\CODetector\sevenSegment3DigitComplex\SevenSegment3DigitComplex.c"
1066  0012  3119        	set [25].2
1067  0013              #line 1067 "C:\Users\Tech\Desktop\CODetector\sevenSegment3DigitComplex\SevenSegment3DigitComplex.c"
1067  0013  3099        	set [25].1
1068  0014              #line 1068 "C:\Users\Tech\Desktop\CODetector\sevenSegment3DigitComplex\SevenSegment3DigitComplex.c"
1068  0014  3215        	set [21].4
1069  0015              #line 1069 "C:\Users\Tech\Desktop\CODetector\sevenSegment3DigitComplex\SevenSegment3DigitComplex.c"
1069  0015  3015        	set [21].0
1070  0016              #line 1070 "C:\Users\Tech\Desktop\CODetector\sevenSegment3DigitComplex\SevenSegment3DigitComplex.c"
1070  0016  3115        	set [21].2
1071  0017              #line 1071 "C:\Users\Tech\Desktop\CODetector\sevenSegment3DigitComplex\SevenSegment3DigitComplex.c"
1071  0017  3199        	set [25].3
1072  0018              #line 1072 "C:\Users\Tech\Desktop\CODetector\sevenSegment3DigitComplex\SevenSegment3DigitComplex.c"
1072  0018  3615        	clr [21].4
1073  0019              #line 1073 "C:\Users\Tech\Desktop\CODetector\sevenSegment3DigitComplex\SevenSegment3DigitComplex.c"
1073  0019  3415        	clr [21].0
1074  001A              #line 1074 "C:\Users\Tech\Desktop\CODetector\sevenSegment3DigitComplex\SevenSegment3DigitComplex.c"
1074  001A  3515        	clr [21].2
1075  001B              #line 1075 "C:\Users\Tech\Desktop\CODetector\sevenSegment3DigitComplex\SevenSegment3DigitComplex.c"
1075  001B  3599        	clr [25].3
1076  001C              #line 1076 "C:\Users\Tech\Desktop\CODetector\sevenSegment3DigitComplex\SevenSegment3DigitComplex.c"
1076  001C  3214        	set [20].4
1077  001D              #line 1077 "C:\Users\Tech\Desktop\CODetector\sevenSegment3DigitComplex\SevenSegment3DigitComplex.c"
1077  001D  3414        	clr [20].0
1078  001E              #line 1078 "C:\Users\Tech\Desktop\CODetector\sevenSegment3DigitComplex\SevenSegment3DigitComplex.c"
1078  001E  3514        	clr [20].2
1079  001F              #line 1079 "C:\Users\Tech\Desktop\CODetector\sevenSegment3DigitComplex\SevenSegment3DigitComplex.c"
"File: SevenSegment3DigitComplex.c  Assembler  Version HGASM0202      Page 114

1079  001F  3598        	clr [24].3
1080  0020              #line 1080 "C:\Users\Tech\Desktop\CODetector\sevenSegment3DigitComplex\SevenSegment3DigitComplex.c"
1080  0020              ;# 1080 "C:\Users\Tech\Desktop\CODetector\sevenSegment3DigitComplex\SevenSegment3DigitComplex.c" 1
1080  0020              	IF 1000>263690
1080  0020              ;# 1080 "C:\Users\Tech\Desktop\CODetector\sevenSegment3DigitComplex\SevenSegment3DigitComplex.c" 1
1080  0020              	ERRMESSAGE 'the value 1000of the argument exceeds the maxinum 263690'
1080  0020              	ENDIF
1080  0020              ;# 1080 "C:\Users\Tech\Desktop\CODetector\sevenSegment3DigitComplex\SevenSegment3DigitComplex.c" 1
1080  0020              	IF 1000<0
1080  0020              ;# 1080 "C:\Users\Tech\Desktop\CODetector\sevenSegment3DigitComplex\SevenSegment3DigitComplex.c" 1
1080  0020              	ERRMESSAGE 'the value 1000 of the argument exceeds the mininum 0'
1080  0020              	ENDIF
1080  0020              ;# 1080 "C:\Users\Tech\Desktop\CODetector\sevenSegment3DigitComplex\SevenSegment3DigitComplex.c" 1
1080  0020              	IF 1000==0
1080  0020              ;# 1080 "C:\Users\Tech\Desktop\CODetector\sevenSegment3DigitComplex\SevenSegment3DigitComplex.c" 1
1080  0020              	JMP $
1080  0020              	ENDIF
1080  0020              ;# 1080 "C:\Users\Tech\Desktop\CODetector\sevenSegment3DigitComplex\SevenSegment3DigitComplex.c" 1
1080  0020              	IF 1000==1
1080  0020              ;# 1080 "C:\Users\Tech\Desktop\CODetector\sevenSegment3DigitComplex\SevenSegment3DigitComplex.c" 1
1080  0020              	NOP
1080  0020              	ENDIF
1080  0020              ;# 1080 "C:\Users\Tech\Desktop\CODetector\sevenSegment3DigitComplex\SevenSegment3DigitComplex.c" 1
1080  0020              	IF 1000==2
1080  0020              ;# 1080 "C:\Users\Tech\Desktop\CODetector\sevenSegment3DigitComplex\SevenSegment3DigitComplex.c" 1
1080  0020              	NOP
1080  0020              ;# 1080 "C:\Users\Tech\Desktop\CODetector\sevenSegment3DigitComplex\SevenSegment3DigitComplex.c" 1
1080  0020              	NOP
1080  0020              	ENDIF
1080  0020              ;# 1080 "C:\Users\Tech\Desktop\CODetector\sevenSegment3DigitComplex\SevenSegment3DigitComplex.c" 1
1080  0020              	IF 1000==3
1080  0020              ;# 1080 "C:\Users\Tech\Desktop\CODetector\sevenSegment3DigitComplex\SevenSegment3DigitComplex.c" 1
1080  0020              	NOP
1080  0020              ;# 1080 "C:\Users\Tech\Desktop\CODetector\sevenSegment3DigitComplex\SevenSegment3DigitComplex.c" 1
1080  0020              	NOP
1080  0020              ;# 1080 "C:\Users\Tech\Desktop\CODetector\sevenSegment3DigitComplex\SevenSegment3DigitComplex.c" 1
1080  0020              	NOP
1080  0020              	ENDIF
1080  0020              ;# 1080 "C:\Users\Tech\Desktop\CODetector\sevenSegment3DigitComplex\SevenSegment3DigitComplex.c" 1
1080  0020              	IF (1000<8) AND (1000>3)
1080  0020              ;# 1080 "C:\Users\Tech\Desktop\CODetector\sevenSegment3DigitComplex\SevenSegment3DigitComplex.c" 1
1080  0020              	CALL __DELAY3 + 7 -1000
1080  0020              	ENDIF
1080  0020              ;# 1080 "C:\Users\Tech\Desktop\CODetector\sevenSegment3DigitComplex\SevenSegment3DigitComplex.c" 1
1080  0020              	IF (1000< 0404h) AND (1000>7)
1080  0020              ;# 1080 "C:\Users\Tech\Desktop\CODetector\sevenSegment3DigitComplex\SevenSegment3DigitComplex.c" 1
1080  0020  0FF9        	MOV A,1000/4-1
1080  0021              ;# 1080 "C:\Users\Tech\Desktop\CODetector\sevenSegment3DigitComplex\SevenSegment3DigitComplex.c" 1
1080  0021  2000     E  	CALL __DELAYX3 + 3 -(1000 MOD 4)
1080  0022              	ENDIF
1080  0022              ;# 1080 "C:\Users\Tech\Desktop\CODetector\sevenSegment3DigitComplex\SevenSegment3DigitComplex.c" 1
1080  0022              	IF (1000< 0x40B) AND (1000> 0403h)
1080  0022              ;# 1080 "C:\Users\Tech\Desktop\CODetector\sevenSegment3DigitComplex\SevenSegment3DigitComplex.c" 1
1080  0022              	MOV A,0 
1080  0022              ;# 1080 "C:\Users\Tech\Desktop\CODetector\sevenSegment3DigitComplex\SevenSegment3DigitComplex.c" 1
1080  0022              	CALL __DELAYX6 + 0x40a -1000
1080  0022              	ENDIF
1080  0022              ;# 1080 "C:\Users\Tech\Desktop\CODetector\sevenSegment3DigitComplex\SevenSegment3DigitComplex.c" 1
1080  0022              	IF (1000 >= 0x40b) AND ((((1000-9)%0402h)/4+1)>256)
1080  0022              ;# 1080 "C:\Users\Tech\Desktop\CODetector\sevenSegment3DigitComplex\SevenSegment3DigitComplex.c" 1
"File: SevenSegment3DigitComplex.c  Assembler  Version HGASM0202      Page 115

1080  0022              	MOV A,(1000-9)/0402h
1080  0022              ;# 1080 "C:\Users\Tech\Desktop\CODetector\sevenSegment3DigitComplex\SevenSegment3DigitComplex.c" 1
1080  0022              	MOV _builtin_holtek_delay_2,A
1080  0022              ;# 1080 "C:\Users\Tech\Desktop\CODetector\sevenSegment3DigitComplex\SevenSegment3DigitComplex.c" 1
1080  0022              	MOV A,0
1080  0022              ;# 1080 "C:\Users\Tech\Desktop\CODetector\sevenSegment3DigitComplex\SevenSegment3DigitComplex.c" 1
1080  0022              	CALL __DELAYY5 +5- (((1000-9)%0402h)%6)
1080  0022              	ENDIF
1080  0022              ;# 1080 "C:\Users\Tech\Desktop\CODetector\sevenSegment3DigitComplex\SevenSegment3DigitComplex.c" 1
1080  0022              	IF (1000 >= 0x40b) AND ((((1000-9)%0402h)/4+1)<=256)
1080  0022              ;# 1080 "C:\Users\Tech\Desktop\CODetector\sevenSegment3DigitComplex\SevenSegment3DigitComplex.c" 1
1080  0022              	MOV A,(1000-9)/0402h
1080  0022              ;# 1080 "C:\Users\Tech\Desktop\CODetector\sevenSegment3DigitComplex\SevenSegment3DigitComplex.c" 1
1080  0022              	MOV _builtin_holtek_delay_2,A
1080  0022              ;# 1080 "C:\Users\Tech\Desktop\CODetector\sevenSegment3DigitComplex\SevenSegment3DigitComplex.c" 1
1080  0022              	MOV A,((1000-9)%0402h)/4+1
1080  0022              ;# 1080 "C:\Users\Tech\Desktop\CODetector\sevenSegment3DigitComplex\SevenSegment3DigitComplex.c" 1
1080  0022              	CALL __DELAYY3 +3-(((1000-9)%0402h)%4)
1080  0022              	ENDIF
1080  0022  0003        	ret
1080  0023              _eightDigit3 endp
1080  0023              #line 1080 "C:\Users\Tech\Desktop\CODetector\sevenSegment3DigitComplex\SevenSegment3DigitComplex.c"
1080  0023              #pragma debug scope 1 1
1080  0023              public _nineDigit1
1080  0023              #pragma debug scope 31 1
1084  0023              #line 1084 "C:\Users\Tech\Desktop\CODetector\sevenSegment3DigitComplex\SevenSegment3DigitComplex.c"
1084  0000              _nineDigit1 .section 'code'
1084  0000              _nineDigit1 proc
1085  0000              #line 1085 "C:\Users\Tech\Desktop\CODetector\sevenSegment3DigitComplex\SevenSegment3DigitComplex.c"
1085  0000  3119        	set [25].2
1086  0001              #line 1086 "C:\Users\Tech\Desktop\CODetector\sevenSegment3DigitComplex\SevenSegment3DigitComplex.c"
1086  0001  3099        	set [25].1
1087  0002              #line 1087 "C:\Users\Tech\Desktop\CODetector\sevenSegment3DigitComplex\SevenSegment3DigitComplex.c"
1087  0002  3215        	set [21].4
1088  0003              #line 1088 "C:\Users\Tech\Desktop\CODetector\sevenSegment3DigitComplex\SevenSegment3DigitComplex.c"
1088  0003  3015        	set [21].0
1089  0004              #line 1089 "C:\Users\Tech\Desktop\CODetector\sevenSegment3DigitComplex\SevenSegment3DigitComplex.c"
1089  0004  3115        	set [21].2
1090  0005              #line 1090 "C:\Users\Tech\Desktop\CODetector\sevenSegment3DigitComplex\SevenSegment3DigitComplex.c"
1090  0005  3199        	set [25].3
1092  0006              #line 1092 "C:\Users\Tech\Desktop\CODetector\sevenSegment3DigitComplex\SevenSegment3DigitComplex.c"
1092  0006              ;# 1092 "C:\Users\Tech\Desktop\CODetector\sevenSegment3DigitComplex\SevenSegment3DigitComplex.c" 1
1092  0006              	IF 1000>263690
1092  0006              ;# 1092 "C:\Users\Tech\Desktop\CODetector\sevenSegment3DigitComplex\SevenSegment3DigitComplex.c" 1
1092  0006              	ERRMESSAGE 'the value 1000of the argument exceeds the maxinum 263690'
1092  0006              	ENDIF
1092  0006              ;# 1092 "C:\Users\Tech\Desktop\CODetector\sevenSegment3DigitComplex\SevenSegment3DigitComplex.c" 1
1092  0006              	IF 1000<0
1092  0006              ;# 1092 "C:\Users\Tech\Desktop\CODetector\sevenSegment3DigitComplex\SevenSegment3DigitComplex.c" 1
1092  0006              	ERRMESSAGE 'the value 1000 of the argument exceeds the mininum 0'
1092  0006              	ENDIF
1092  0006              ;# 1092 "C:\Users\Tech\Desktop\CODetector\sevenSegment3DigitComplex\SevenSegment3DigitComplex.c" 1
1092  0006              	IF 1000==0
1092  0006              ;# 1092 "C:\Users\Tech\Desktop\CODetector\sevenSegment3DigitComplex\SevenSegment3DigitComplex.c" 1
1092  0006              	JMP $
1092  0006              	ENDIF
1092  0006              ;# 1092 "C:\Users\Tech\Desktop\CODetector\sevenSegment3DigitComplex\SevenSegment3DigitComplex.c" 1
1092  0006              	IF 1000==1
1092  0006              ;# 1092 "C:\Users\Tech\Desktop\CODetector\sevenSegment3DigitComplex\SevenSegment3DigitComplex.c" 1
1092  0006              	NOP
"File: SevenSegment3DigitComplex.c  Assembler  Version HGASM0202      Page 116

1092  0006              	ENDIF
1092  0006              ;# 1092 "C:\Users\Tech\Desktop\CODetector\sevenSegment3DigitComplex\SevenSegment3DigitComplex.c" 1
1092  0006              	IF 1000==2
1092  0006              ;# 1092 "C:\Users\Tech\Desktop\CODetector\sevenSegment3DigitComplex\SevenSegment3DigitComplex.c" 1
1092  0006              	NOP
1092  0006              ;# 1092 "C:\Users\Tech\Desktop\CODetector\sevenSegment3DigitComplex\SevenSegment3DigitComplex.c" 1
1092  0006              	NOP
1092  0006              	ENDIF
1092  0006              ;# 1092 "C:\Users\Tech\Desktop\CODetector\sevenSegment3DigitComplex\SevenSegment3DigitComplex.c" 1
1092  0006              	IF 1000==3
1092  0006              ;# 1092 "C:\Users\Tech\Desktop\CODetector\sevenSegment3DigitComplex\SevenSegment3DigitComplex.c" 1
1092  0006              	NOP
1092  0006              ;# 1092 "C:\Users\Tech\Desktop\CODetector\sevenSegment3DigitComplex\SevenSegment3DigitComplex.c" 1
1092  0006              	NOP
1092  0006              ;# 1092 "C:\Users\Tech\Desktop\CODetector\sevenSegment3DigitComplex\SevenSegment3DigitComplex.c" 1
1092  0006              	NOP
1092  0006              	ENDIF
1092  0006              ;# 1092 "C:\Users\Tech\Desktop\CODetector\sevenSegment3DigitComplex\SevenSegment3DigitComplex.c" 1
1092  0006              	IF (1000<8) AND (1000>3)
1092  0006              ;# 1092 "C:\Users\Tech\Desktop\CODetector\sevenSegment3DigitComplex\SevenSegment3DigitComplex.c" 1
1092  0006              	CALL __DELAY3 + 7 -1000
1092  0006              	ENDIF
1092  0006              ;# 1092 "C:\Users\Tech\Desktop\CODetector\sevenSegment3DigitComplex\SevenSegment3DigitComplex.c" 1
1092  0006              	IF (1000< 0404h) AND (1000>7)
1092  0006              ;# 1092 "C:\Users\Tech\Desktop\CODetector\sevenSegment3DigitComplex\SevenSegment3DigitComplex.c" 1
1092  0006  0FF9        	MOV A,1000/4-1
1092  0007              ;# 1092 "C:\Users\Tech\Desktop\CODetector\sevenSegment3DigitComplex\SevenSegment3DigitComplex.c" 1
1092  0007  2000     E  	CALL __DELAYX3 + 3 -(1000 MOD 4)
1092  0008              	ENDIF
1092  0008              ;# 1092 "C:\Users\Tech\Desktop\CODetector\sevenSegment3DigitComplex\SevenSegment3DigitComplex.c" 1
1092  0008              	IF (1000< 0x40B) AND (1000> 0403h)
1092  0008              ;# 1092 "C:\Users\Tech\Desktop\CODetector\sevenSegment3DigitComplex\SevenSegment3DigitComplex.c" 1
1092  0008              	MOV A,0 
1092  0008              ;# 1092 "C:\Users\Tech\Desktop\CODetector\sevenSegment3DigitComplex\SevenSegment3DigitComplex.c" 1
1092  0008              	CALL __DELAYX6 + 0x40a -1000
1092  0008              	ENDIF
1092  0008              ;# 1092 "C:\Users\Tech\Desktop\CODetector\sevenSegment3DigitComplex\SevenSegment3DigitComplex.c" 1
1092  0008              	IF (1000 >= 0x40b) AND ((((1000-9)%0402h)/4+1)>256)
1092  0008              ;# 1092 "C:\Users\Tech\Desktop\CODetector\sevenSegment3DigitComplex\SevenSegment3DigitComplex.c" 1
1092  0008              	MOV A,(1000-9)/0402h
1092  0008              ;# 1092 "C:\Users\Tech\Desktop\CODetector\sevenSegment3DigitComplex\SevenSegment3DigitComplex.c" 1
1092  0008              	MOV _builtin_holtek_delay_2,A
1092  0008              ;# 1092 "C:\Users\Tech\Desktop\CODetector\sevenSegment3DigitComplex\SevenSegment3DigitComplex.c" 1
1092  0008              	MOV A,0
1092  0008              ;# 1092 "C:\Users\Tech\Desktop\CODetector\sevenSegment3DigitComplex\SevenSegment3DigitComplex.c" 1
1092  0008              	CALL __DELAYY5 +5- (((1000-9)%0402h)%6)
1092  0008              	ENDIF
1092  0008              ;# 1092 "C:\Users\Tech\Desktop\CODetector\sevenSegment3DigitComplex\SevenSegment3DigitComplex.c" 1
1092  0008              	IF (1000 >= 0x40b) AND ((((1000-9)%0402h)/4+1)<=256)
1092  0008              ;# 1092 "C:\Users\Tech\Desktop\CODetector\sevenSegment3DigitComplex\SevenSegment3DigitComplex.c" 1
1092  0008              	MOV A,(1000-9)/0402h
1092  0008              ;# 1092 "C:\Users\Tech\Desktop\CODetector\sevenSegment3DigitComplex\SevenSegment3DigitComplex.c" 1
1092  0008              	MOV _builtin_holtek_delay_2,A
1092  0008              ;# 1092 "C:\Users\Tech\Desktop\CODetector\sevenSegment3DigitComplex\SevenSegment3DigitComplex.c" 1
1092  0008              	MOV A,((1000-9)%0402h)/4+1
1092  0008              ;# 1092 "C:\Users\Tech\Desktop\CODetector\sevenSegment3DigitComplex\SevenSegment3DigitComplex.c" 1
1092  0008              	CALL __DELAYY3 +3-(((1000-9)%0402h)%4)
1092  0008              	ENDIF
1093  0008              #line 1093 "C:\Users\Tech\Desktop\CODetector\sevenSegment3DigitComplex\SevenSegment3DigitComplex.c"
1093  0008  3519        	clr [25].2
"File: SevenSegment3DigitComplex.c  Assembler  Version HGASM0202      Page 117

1094  0009              #line 1094 "C:\Users\Tech\Desktop\CODetector\sevenSegment3DigitComplex\SevenSegment3DigitComplex.c"
1094  0009  3499        	clr [25].1
1095  000A              #line 1095 "C:\Users\Tech\Desktop\CODetector\sevenSegment3DigitComplex\SevenSegment3DigitComplex.c"
1095  000A  3615        	clr [21].4
1096  000B              #line 1096 "C:\Users\Tech\Desktop\CODetector\sevenSegment3DigitComplex\SevenSegment3DigitComplex.c"
1096  000B  3415        	clr [21].0
1097  000C              #line 1097 "C:\Users\Tech\Desktop\CODetector\sevenSegment3DigitComplex\SevenSegment3DigitComplex.c"
1097  000C  3515        	clr [21].2
1098  000D              #line 1098 "C:\Users\Tech\Desktop\CODetector\sevenSegment3DigitComplex\SevenSegment3DigitComplex.c"
1098  000D  3518        	clr [24].2
1099  000E              #line 1099 "C:\Users\Tech\Desktop\CODetector\sevenSegment3DigitComplex\SevenSegment3DigitComplex.c"
1099  000E  3098        	set [24].1
1100  000F              #line 1100 "C:\Users\Tech\Desktop\CODetector\sevenSegment3DigitComplex\SevenSegment3DigitComplex.c"
1100  000F  3214        	set [20].4
1101  0010              #line 1101 "C:\Users\Tech\Desktop\CODetector\sevenSegment3DigitComplex\SevenSegment3DigitComplex.c"
1101  0010  3014        	set [20].0
1102  0011              #line 1102 "C:\Users\Tech\Desktop\CODetector\sevenSegment3DigitComplex\SevenSegment3DigitComplex.c"
1102  0011  3114        	set [20].2
1105  0012              #line 1105 "C:\Users\Tech\Desktop\CODetector\sevenSegment3DigitComplex\SevenSegment3DigitComplex.c"
1105  0012              ;# 1105 "C:\Users\Tech\Desktop\CODetector\sevenSegment3DigitComplex\SevenSegment3DigitComplex.c" 1
1105  0012              	IF 1000>263690
1105  0012              ;# 1105 "C:\Users\Tech\Desktop\CODetector\sevenSegment3DigitComplex\SevenSegment3DigitComplex.c" 1
1105  0012              	ERRMESSAGE 'the value 1000of the argument exceeds the maxinum 263690'
1105  0012              	ENDIF
1105  0012              ;# 1105 "C:\Users\Tech\Desktop\CODetector\sevenSegment3DigitComplex\SevenSegment3DigitComplex.c" 1
1105  0012              	IF 1000<0
1105  0012              ;# 1105 "C:\Users\Tech\Desktop\CODetector\sevenSegment3DigitComplex\SevenSegment3DigitComplex.c" 1
1105  0012              	ERRMESSAGE 'the value 1000 of the argument exceeds the mininum 0'
1105  0012              	ENDIF
1105  0012              ;# 1105 "C:\Users\Tech\Desktop\CODetector\sevenSegment3DigitComplex\SevenSegment3DigitComplex.c" 1
1105  0012              	IF 1000==0
1105  0012              ;# 1105 "C:\Users\Tech\Desktop\CODetector\sevenSegment3DigitComplex\SevenSegment3DigitComplex.c" 1
1105  0012              	JMP $
1105  0012              	ENDIF
1105  0012              ;# 1105 "C:\Users\Tech\Desktop\CODetector\sevenSegment3DigitComplex\SevenSegment3DigitComplex.c" 1
1105  0012              	IF 1000==1
1105  0012              ;# 1105 "C:\Users\Tech\Desktop\CODetector\sevenSegment3DigitComplex\SevenSegment3DigitComplex.c" 1
1105  0012              	NOP
1105  0012              	ENDIF
1105  0012              ;# 1105 "C:\Users\Tech\Desktop\CODetector\sevenSegment3DigitComplex\SevenSegment3DigitComplex.c" 1
1105  0012              	IF 1000==2
1105  0012              ;# 1105 "C:\Users\Tech\Desktop\CODetector\sevenSegment3DigitComplex\SevenSegment3DigitComplex.c" 1
1105  0012              	NOP
1105  0012              ;# 1105 "C:\Users\Tech\Desktop\CODetector\sevenSegment3DigitComplex\SevenSegment3DigitComplex.c" 1
1105  0012              	NOP
1105  0012              	ENDIF
1105  0012              ;# 1105 "C:\Users\Tech\Desktop\CODetector\sevenSegment3DigitComplex\SevenSegment3DigitComplex.c" 1
1105  0012              	IF 1000==3
1105  0012              ;# 1105 "C:\Users\Tech\Desktop\CODetector\sevenSegment3DigitComplex\SevenSegment3DigitComplex.c" 1
1105  0012              	NOP
1105  0012              ;# 1105 "C:\Users\Tech\Desktop\CODetector\sevenSegment3DigitComplex\SevenSegment3DigitComplex.c" 1
1105  0012              	NOP
1105  0012              ;# 1105 "C:\Users\Tech\Desktop\CODetector\sevenSegment3DigitComplex\SevenSegment3DigitComplex.c" 1
1105  0012              	NOP
1105  0012              	ENDIF
1105  0012              ;# 1105 "C:\Users\Tech\Desktop\CODetector\sevenSegment3DigitComplex\SevenSegment3DigitComplex.c" 1
1105  0012              	IF (1000<8) AND (1000>3)
1105  0012              ;# 1105 "C:\Users\Tech\Desktop\CODetector\sevenSegment3DigitComplex\SevenSegment3DigitComplex.c" 1
1105  0012              	CALL __DELAY3 + 7 -1000
1105  0012              	ENDIF
"File: SevenSegment3DigitComplex.c  Assembler  Version HGASM0202      Page 118

1105  0012              ;# 1105 "C:\Users\Tech\Desktop\CODetector\sevenSegment3DigitComplex\SevenSegment3DigitComplex.c" 1
1105  0012              	IF (1000< 0404h) AND (1000>7)
1105  0012              ;# 1105 "C:\Users\Tech\Desktop\CODetector\sevenSegment3DigitComplex\SevenSegment3DigitComplex.c" 1
1105  0012  0FF9        	MOV A,1000/4-1
1105  0013              ;# 1105 "C:\Users\Tech\Desktop\CODetector\sevenSegment3DigitComplex\SevenSegment3DigitComplex.c" 1
1105  0013  2000     E  	CALL __DELAYX3 + 3 -(1000 MOD 4)
1105  0014              	ENDIF
1105  0014              ;# 1105 "C:\Users\Tech\Desktop\CODetector\sevenSegment3DigitComplex\SevenSegment3DigitComplex.c" 1
1105  0014              	IF (1000< 0x40B) AND (1000> 0403h)
1105  0014              ;# 1105 "C:\Users\Tech\Desktop\CODetector\sevenSegment3DigitComplex\SevenSegment3DigitComplex.c" 1
1105  0014              	MOV A,0 
1105  0014              ;# 1105 "C:\Users\Tech\Desktop\CODetector\sevenSegment3DigitComplex\SevenSegment3DigitComplex.c" 1
1105  0014              	CALL __DELAYX6 + 0x40a -1000
1105  0014              	ENDIF
1105  0014              ;# 1105 "C:\Users\Tech\Desktop\CODetector\sevenSegment3DigitComplex\SevenSegment3DigitComplex.c" 1
1105  0014              	IF (1000 >= 0x40b) AND ((((1000-9)%0402h)/4+1)>256)
1105  0014              ;# 1105 "C:\Users\Tech\Desktop\CODetector\sevenSegment3DigitComplex\SevenSegment3DigitComplex.c" 1
1105  0014              	MOV A,(1000-9)/0402h
1105  0014              ;# 1105 "C:\Users\Tech\Desktop\CODetector\sevenSegment3DigitComplex\SevenSegment3DigitComplex.c" 1
1105  0014              	MOV _builtin_holtek_delay_2,A
1105  0014              ;# 1105 "C:\Users\Tech\Desktop\CODetector\sevenSegment3DigitComplex\SevenSegment3DigitComplex.c" 1
1105  0014              	MOV A,0
1105  0014              ;# 1105 "C:\Users\Tech\Desktop\CODetector\sevenSegment3DigitComplex\SevenSegment3DigitComplex.c" 1
1105  0014              	CALL __DELAYY5 +5- (((1000-9)%0402h)%6)
1105  0014              	ENDIF
1105  0014              ;# 1105 "C:\Users\Tech\Desktop\CODetector\sevenSegment3DigitComplex\SevenSegment3DigitComplex.c" 1
1105  0014              	IF (1000 >= 0x40b) AND ((((1000-9)%0402h)/4+1)<=256)
1105  0014              ;# 1105 "C:\Users\Tech\Desktop\CODetector\sevenSegment3DigitComplex\SevenSegment3DigitComplex.c" 1
1105  0014              	MOV A,(1000-9)/0402h
1105  0014              ;# 1105 "C:\Users\Tech\Desktop\CODetector\sevenSegment3DigitComplex\SevenSegment3DigitComplex.c" 1
1105  0014              	MOV _builtin_holtek_delay_2,A
1105  0014              ;# 1105 "C:\Users\Tech\Desktop\CODetector\sevenSegment3DigitComplex\SevenSegment3DigitComplex.c" 1
1105  0014              	MOV A,((1000-9)%0402h)/4+1
1105  0014              ;# 1105 "C:\Users\Tech\Desktop\CODetector\sevenSegment3DigitComplex\SevenSegment3DigitComplex.c" 1
1105  0014              	CALL __DELAYY3 +3-(((1000-9)%0402h)%4)
1105  0014              	ENDIF
1107  0014              #line 1107 "C:\Users\Tech\Desktop\CODetector\sevenSegment3DigitComplex\SevenSegment3DigitComplex.c"
1107  0014  3119        	set [25].2
1108  0015              #line 1108 "C:\Users\Tech\Desktop\CODetector\sevenSegment3DigitComplex\SevenSegment3DigitComplex.c"
1108  0015  3099        	set [25].1
1109  0016              #line 1109 "C:\Users\Tech\Desktop\CODetector\sevenSegment3DigitComplex\SevenSegment3DigitComplex.c"
1109  0016  3215        	set [21].4
1110  0017              #line 1110 "C:\Users\Tech\Desktop\CODetector\sevenSegment3DigitComplex\SevenSegment3DigitComplex.c"
1110  0017  3015        	set [21].0
1111  0018              #line 1111 "C:\Users\Tech\Desktop\CODetector\sevenSegment3DigitComplex\SevenSegment3DigitComplex.c"
1111  0018  3115        	set [21].2
1112  0019              #line 1112 "C:\Users\Tech\Desktop\CODetector\sevenSegment3DigitComplex\SevenSegment3DigitComplex.c"
1112  0019  3199        	set [25].3
1113  001A              #line 1113 "C:\Users\Tech\Desktop\CODetector\sevenSegment3DigitComplex\SevenSegment3DigitComplex.c"
1113  001A  3499        	clr [25].1
1114  001B              #line 1114 "C:\Users\Tech\Desktop\CODetector\sevenSegment3DigitComplex\SevenSegment3DigitComplex.c"
1114  001B  3615        	clr [21].4
1115  001C              #line 1115 "C:\Users\Tech\Desktop\CODetector\sevenSegment3DigitComplex\SevenSegment3DigitComplex.c"
1115  001C  3498        	clr [24].1
1116  001D              #line 1116 "C:\Users\Tech\Desktop\CODetector\sevenSegment3DigitComplex\SevenSegment3DigitComplex.c"
1116  001D  3214        	set [20].4
1118  001E              #line 1118 "C:\Users\Tech\Desktop\CODetector\sevenSegment3DigitComplex\SevenSegment3DigitComplex.c"
1118  001E              ;# 1118 "C:\Users\Tech\Desktop\CODetector\sevenSegment3DigitComplex\SevenSegment3DigitComplex.c" 1
1118  001E              	IF 1000>263690
1118  001E              ;# 1118 "C:\Users\Tech\Desktop\CODetector\sevenSegment3DigitComplex\SevenSegment3DigitComplex.c" 1
"File: SevenSegment3DigitComplex.c  Assembler  Version HGASM0202      Page 119

1118  001E              	ERRMESSAGE 'the value 1000of the argument exceeds the maxinum 263690'
1118  001E              	ENDIF
1118  001E              ;# 1118 "C:\Users\Tech\Desktop\CODetector\sevenSegment3DigitComplex\SevenSegment3DigitComplex.c" 1
1118  001E              	IF 1000<0
1118  001E              ;# 1118 "C:\Users\Tech\Desktop\CODetector\sevenSegment3DigitComplex\SevenSegment3DigitComplex.c" 1
1118  001E              	ERRMESSAGE 'the value 1000 of the argument exceeds the mininum 0'
1118  001E              	ENDIF
1118  001E              ;# 1118 "C:\Users\Tech\Desktop\CODetector\sevenSegment3DigitComplex\SevenSegment3DigitComplex.c" 1
1118  001E              	IF 1000==0
1118  001E              ;# 1118 "C:\Users\Tech\Desktop\CODetector\sevenSegment3DigitComplex\SevenSegment3DigitComplex.c" 1
1118  001E              	JMP $
1118  001E              	ENDIF
1118  001E              ;# 1118 "C:\Users\Tech\Desktop\CODetector\sevenSegment3DigitComplex\SevenSegment3DigitComplex.c" 1
1118  001E              	IF 1000==1
1118  001E              ;# 1118 "C:\Users\Tech\Desktop\CODetector\sevenSegment3DigitComplex\SevenSegment3DigitComplex.c" 1
1118  001E              	NOP
1118  001E              	ENDIF
1118  001E              ;# 1118 "C:\Users\Tech\Desktop\CODetector\sevenSegment3DigitComplex\SevenSegment3DigitComplex.c" 1
1118  001E              	IF 1000==2
1118  001E              ;# 1118 "C:\Users\Tech\Desktop\CODetector\sevenSegment3DigitComplex\SevenSegment3DigitComplex.c" 1
1118  001E              	NOP
1118  001E              ;# 1118 "C:\Users\Tech\Desktop\CODetector\sevenSegment3DigitComplex\SevenSegment3DigitComplex.c" 1
1118  001E              	NOP
1118  001E              	ENDIF
1118  001E              ;# 1118 "C:\Users\Tech\Desktop\CODetector\sevenSegment3DigitComplex\SevenSegment3DigitComplex.c" 1
1118  001E              	IF 1000==3
1118  001E              ;# 1118 "C:\Users\Tech\Desktop\CODetector\sevenSegment3DigitComplex\SevenSegment3DigitComplex.c" 1
1118  001E              	NOP
1118  001E              ;# 1118 "C:\Users\Tech\Desktop\CODetector\sevenSegment3DigitComplex\SevenSegment3DigitComplex.c" 1
1118  001E              	NOP
1118  001E              ;# 1118 "C:\Users\Tech\Desktop\CODetector\sevenSegment3DigitComplex\SevenSegment3DigitComplex.c" 1
1118  001E              	NOP
1118  001E              	ENDIF
1118  001E              ;# 1118 "C:\Users\Tech\Desktop\CODetector\sevenSegment3DigitComplex\SevenSegment3DigitComplex.c" 1
1118  001E              	IF (1000<8) AND (1000>3)
1118  001E              ;# 1118 "C:\Users\Tech\Desktop\CODetector\sevenSegment3DigitComplex\SevenSegment3DigitComplex.c" 1
1118  001E              	CALL __DELAY3 + 7 -1000
1118  001E              	ENDIF
1118  001E              ;# 1118 "C:\Users\Tech\Desktop\CODetector\sevenSegment3DigitComplex\SevenSegment3DigitComplex.c" 1
1118  001E              	IF (1000< 0404h) AND (1000>7)
1118  001E              ;# 1118 "C:\Users\Tech\Desktop\CODetector\sevenSegment3DigitComplex\SevenSegment3DigitComplex.c" 1
1118  001E  0FF9        	MOV A,1000/4-1
1118  001F              ;# 1118 "C:\Users\Tech\Desktop\CODetector\sevenSegment3DigitComplex\SevenSegment3DigitComplex.c" 1
1118  001F  2000     E  	CALL __DELAYX3 + 3 -(1000 MOD 4)
1118  0020              	ENDIF
1118  0020              ;# 1118 "C:\Users\Tech\Desktop\CODetector\sevenSegment3DigitComplex\SevenSegment3DigitComplex.c" 1
1118  0020              	IF (1000< 0x40B) AND (1000> 0403h)
1118  0020              ;# 1118 "C:\Users\Tech\Desktop\CODetector\sevenSegment3DigitComplex\SevenSegment3DigitComplex.c" 1
1118  0020              	MOV A,0 
1118  0020              ;# 1118 "C:\Users\Tech\Desktop\CODetector\sevenSegment3DigitComplex\SevenSegment3DigitComplex.c" 1
1118  0020              	CALL __DELAYX6 + 0x40a -1000
1118  0020              	ENDIF
1118  0020              ;# 1118 "C:\Users\Tech\Desktop\CODetector\sevenSegment3DigitComplex\SevenSegment3DigitComplex.c" 1
1118  0020              	IF (1000 >= 0x40b) AND ((((1000-9)%0402h)/4+1)>256)
1118  0020              ;# 1118 "C:\Users\Tech\Desktop\CODetector\sevenSegment3DigitComplex\SevenSegment3DigitComplex.c" 1
1118  0020              	MOV A,(1000-9)/0402h
1118  0020              ;# 1118 "C:\Users\Tech\Desktop\CODetector\sevenSegment3DigitComplex\SevenSegment3DigitComplex.c" 1
1118  0020              	MOV _builtin_holtek_delay_2,A
1118  0020              ;# 1118 "C:\Users\Tech\Desktop\CODetector\sevenSegment3DigitComplex\SevenSegment3DigitComplex.c" 1
1118  0020              	MOV A,0
"File: SevenSegment3DigitComplex.c  Assembler  Version HGASM0202      Page 120

1118  0020              ;# 1118 "C:\Users\Tech\Desktop\CODetector\sevenSegment3DigitComplex\SevenSegment3DigitComplex.c" 1
1118  0020              	CALL __DELAYY5 +5- (((1000-9)%0402h)%6)
1118  0020              	ENDIF
1118  0020              ;# 1118 "C:\Users\Tech\Desktop\CODetector\sevenSegment3DigitComplex\SevenSegment3DigitComplex.c" 1
1118  0020              	IF (1000 >= 0x40b) AND ((((1000-9)%0402h)/4+1)<=256)
1118  0020              ;# 1118 "C:\Users\Tech\Desktop\CODetector\sevenSegment3DigitComplex\SevenSegment3DigitComplex.c" 1
1118  0020              	MOV A,(1000-9)/0402h
1118  0020              ;# 1118 "C:\Users\Tech\Desktop\CODetector\sevenSegment3DigitComplex\SevenSegment3DigitComplex.c" 1
1118  0020              	MOV _builtin_holtek_delay_2,A
1118  0020              ;# 1118 "C:\Users\Tech\Desktop\CODetector\sevenSegment3DigitComplex\SevenSegment3DigitComplex.c" 1
1118  0020              	MOV A,((1000-9)%0402h)/4+1
1118  0020              ;# 1118 "C:\Users\Tech\Desktop\CODetector\sevenSegment3DigitComplex\SevenSegment3DigitComplex.c" 1
1118  0020              	CALL __DELAYY3 +3-(((1000-9)%0402h)%4)
1118  0020              	ENDIF
1119  0020              #line 1119 "C:\Users\Tech\Desktop\CODetector\sevenSegment3DigitComplex\SevenSegment3DigitComplex.c"
1119  0020  3119        	set [25].2
1120  0021              #line 1120 "C:\Users\Tech\Desktop\CODetector\sevenSegment3DigitComplex\SevenSegment3DigitComplex.c"
1120  0021  3099        	set [25].1
1121  0022              #line 1121 "C:\Users\Tech\Desktop\CODetector\sevenSegment3DigitComplex\SevenSegment3DigitComplex.c"
1121  0022  3215        	set [21].4
1122  0023              #line 1122 "C:\Users\Tech\Desktop\CODetector\sevenSegment3DigitComplex\SevenSegment3DigitComplex.c"
1122  0023  3015        	set [21].0
1123  0024              #line 1123 "C:\Users\Tech\Desktop\CODetector\sevenSegment3DigitComplex\SevenSegment3DigitComplex.c"
1123  0024  3115        	set [21].2
1124  0025              #line 1124 "C:\Users\Tech\Desktop\CODetector\sevenSegment3DigitComplex\SevenSegment3DigitComplex.c"
1124  0025  3199        	set [25].3
1125  0026              #line 1125 "C:\Users\Tech\Desktop\CODetector\sevenSegment3DigitComplex\SevenSegment3DigitComplex.c"
1125  0026  3499        	clr [25].1
1126  0027              #line 1126 "C:\Users\Tech\Desktop\CODetector\sevenSegment3DigitComplex\SevenSegment3DigitComplex.c"
1126  0027  3415        	clr [21].0
1127  0028              #line 1127 "C:\Users\Tech\Desktop\CODetector\sevenSegment3DigitComplex\SevenSegment3DigitComplex.c"
1127  0028  3014        	set [20].0
1128  0029              #line 1128 "C:\Users\Tech\Desktop\CODetector\sevenSegment3DigitComplex\SevenSegment3DigitComplex.c"
1128  0029  3498        	clr [24].1
1129  002A              #line 1129 "C:\Users\Tech\Desktop\CODetector\sevenSegment3DigitComplex\SevenSegment3DigitComplex.c"
1129  002A              ;# 1129 "C:\Users\Tech\Desktop\CODetector\sevenSegment3DigitComplex\SevenSegment3DigitComplex.c" 1
1129  002A              	IF 1000>263690
1129  002A              ;# 1129 "C:\Users\Tech\Desktop\CODetector\sevenSegment3DigitComplex\SevenSegment3DigitComplex.c" 1
1129  002A              	ERRMESSAGE 'the value 1000of the argument exceeds the maxinum 263690'
1129  002A              	ENDIF
1129  002A              ;# 1129 "C:\Users\Tech\Desktop\CODetector\sevenSegment3DigitComplex\SevenSegment3DigitComplex.c" 1
1129  002A              	IF 1000<0
1129  002A              ;# 1129 "C:\Users\Tech\Desktop\CODetector\sevenSegment3DigitComplex\SevenSegment3DigitComplex.c" 1
1129  002A              	ERRMESSAGE 'the value 1000 of the argument exceeds the mininum 0'
1129  002A              	ENDIF
1129  002A              ;# 1129 "C:\Users\Tech\Desktop\CODetector\sevenSegment3DigitComplex\SevenSegment3DigitComplex.c" 1
1129  002A              	IF 1000==0
1129  002A              ;# 1129 "C:\Users\Tech\Desktop\CODetector\sevenSegment3DigitComplex\SevenSegment3DigitComplex.c" 1
1129  002A              	JMP $
1129  002A              	ENDIF
1129  002A              ;# 1129 "C:\Users\Tech\Desktop\CODetector\sevenSegment3DigitComplex\SevenSegment3DigitComplex.c" 1
1129  002A              	IF 1000==1
1129  002A              ;# 1129 "C:\Users\Tech\Desktop\CODetector\sevenSegment3DigitComplex\SevenSegment3DigitComplex.c" 1
1129  002A              	NOP
1129  002A              	ENDIF
1129  002A              ;# 1129 "C:\Users\Tech\Desktop\CODetector\sevenSegment3DigitComplex\SevenSegment3DigitComplex.c" 1
1129  002A              	IF 1000==2
1129  002A              ;# 1129 "C:\Users\Tech\Desktop\CODetector\sevenSegment3DigitComplex\SevenSegment3DigitComplex.c" 1
1129  002A              	NOP
1129  002A              ;# 1129 "C:\Users\Tech\Desktop\CODetector\sevenSegment3DigitComplex\SevenSegment3DigitComplex.c" 1
"File: SevenSegment3DigitComplex.c  Assembler  Version HGASM0202      Page 121

1129  002A              	NOP
1129  002A              	ENDIF
1129  002A              ;# 1129 "C:\Users\Tech\Desktop\CODetector\sevenSegment3DigitComplex\SevenSegment3DigitComplex.c" 1
1129  002A              	IF 1000==3
1129  002A              ;# 1129 "C:\Users\Tech\Desktop\CODetector\sevenSegment3DigitComplex\SevenSegment3DigitComplex.c" 1
1129  002A              	NOP
1129  002A              ;# 1129 "C:\Users\Tech\Desktop\CODetector\sevenSegment3DigitComplex\SevenSegment3DigitComplex.c" 1
1129  002A              	NOP
1129  002A              ;# 1129 "C:\Users\Tech\Desktop\CODetector\sevenSegment3DigitComplex\SevenSegment3DigitComplex.c" 1
1129  002A              	NOP
1129  002A              	ENDIF
1129  002A              ;# 1129 "C:\Users\Tech\Desktop\CODetector\sevenSegment3DigitComplex\SevenSegment3DigitComplex.c" 1
1129  002A              	IF (1000<8) AND (1000>3)
1129  002A              ;# 1129 "C:\Users\Tech\Desktop\CODetector\sevenSegment3DigitComplex\SevenSegment3DigitComplex.c" 1
1129  002A              	CALL __DELAY3 + 7 -1000
1129  002A              	ENDIF
1129  002A              ;# 1129 "C:\Users\Tech\Desktop\CODetector\sevenSegment3DigitComplex\SevenSegment3DigitComplex.c" 1
1129  002A              	IF (1000< 0404h) AND (1000>7)
1129  002A              ;# 1129 "C:\Users\Tech\Desktop\CODetector\sevenSegment3DigitComplex\SevenSegment3DigitComplex.c" 1
1129  002A  0FF9        	MOV A,1000/4-1
1129  002B              ;# 1129 "C:\Users\Tech\Desktop\CODetector\sevenSegment3DigitComplex\SevenSegment3DigitComplex.c" 1
1129  002B  2000     E  	CALL __DELAYX3 + 3 -(1000 MOD 4)
1129  002C              	ENDIF
1129  002C              ;# 1129 "C:\Users\Tech\Desktop\CODetector\sevenSegment3DigitComplex\SevenSegment3DigitComplex.c" 1
1129  002C              	IF (1000< 0x40B) AND (1000> 0403h)
1129  002C              ;# 1129 "C:\Users\Tech\Desktop\CODetector\sevenSegment3DigitComplex\SevenSegment3DigitComplex.c" 1
1129  002C              	MOV A,0 
1129  002C              ;# 1129 "C:\Users\Tech\Desktop\CODetector\sevenSegment3DigitComplex\SevenSegment3DigitComplex.c" 1
1129  002C              	CALL __DELAYX6 + 0x40a -1000
1129  002C              	ENDIF
1129  002C              ;# 1129 "C:\Users\Tech\Desktop\CODetector\sevenSegment3DigitComplex\SevenSegment3DigitComplex.c" 1
1129  002C              	IF (1000 >= 0x40b) AND ((((1000-9)%0402h)/4+1)>256)
1129  002C              ;# 1129 "C:\Users\Tech\Desktop\CODetector\sevenSegment3DigitComplex\SevenSegment3DigitComplex.c" 1
1129  002C              	MOV A,(1000-9)/0402h
1129  002C              ;# 1129 "C:\Users\Tech\Desktop\CODetector\sevenSegment3DigitComplex\SevenSegment3DigitComplex.c" 1
1129  002C              	MOV _builtin_holtek_delay_2,A
1129  002C              ;# 1129 "C:\Users\Tech\Desktop\CODetector\sevenSegment3DigitComplex\SevenSegment3DigitComplex.c" 1
1129  002C              	MOV A,0
1129  002C              ;# 1129 "C:\Users\Tech\Desktop\CODetector\sevenSegment3DigitComplex\SevenSegment3DigitComplex.c" 1
1129  002C              	CALL __DELAYY5 +5- (((1000-9)%0402h)%6)
1129  002C              	ENDIF
1129  002C              ;# 1129 "C:\Users\Tech\Desktop\CODetector\sevenSegment3DigitComplex\SevenSegment3DigitComplex.c" 1
1129  002C              	IF (1000 >= 0x40b) AND ((((1000-9)%0402h)/4+1)<=256)
1129  002C              ;# 1129 "C:\Users\Tech\Desktop\CODetector\sevenSegment3DigitComplex\SevenSegment3DigitComplex.c" 1
1129  002C              	MOV A,(1000-9)/0402h
1129  002C              ;# 1129 "C:\Users\Tech\Desktop\CODetector\sevenSegment3DigitComplex\SevenSegment3DigitComplex.c" 1
1129  002C              	MOV _builtin_holtek_delay_2,A
1129  002C              ;# 1129 "C:\Users\Tech\Desktop\CODetector\sevenSegment3DigitComplex\SevenSegment3DigitComplex.c" 1
1129  002C              	MOV A,((1000-9)%0402h)/4+1
1129  002C              ;# 1129 "C:\Users\Tech\Desktop\CODetector\sevenSegment3DigitComplex\SevenSegment3DigitComplex.c" 1
1129  002C              	CALL __DELAYY3 +3-(((1000-9)%0402h)%4)
1129  002C              	ENDIF
1129  002C  0003        	ret
1129  002D              _nineDigit1 endp
1129  002D              #line 1129 "C:\Users\Tech\Desktop\CODetector\sevenSegment3DigitComplex\SevenSegment3DigitComplex.c"
1129  002D              #pragma debug scope 1 1
1129  002D              public _nineDigit2
1129  002D              #pragma debug scope 32 1
1131  002D              #line 1131 "C:\Users\Tech\Desktop\CODetector\sevenSegment3DigitComplex\SevenSegment3DigitComplex.c"
1131  0000              _nineDigit2 .section 'code'
"File: SevenSegment3DigitComplex.c  Assembler  Version HGASM0202      Page 122

1131  0000              _nineDigit2 proc
1132  0000              #line 1132 "C:\Users\Tech\Desktop\CODetector\sevenSegment3DigitComplex\SevenSegment3DigitComplex.c"
1132  0000  3119        	set [25].2
1133  0001              #line 1133 "C:\Users\Tech\Desktop\CODetector\sevenSegment3DigitComplex\SevenSegment3DigitComplex.c"
1133  0001  3099        	set [25].1
1134  0002              #line 1134 "C:\Users\Tech\Desktop\CODetector\sevenSegment3DigitComplex\SevenSegment3DigitComplex.c"
1134  0002  3215        	set [21].4
1135  0003              #line 1135 "C:\Users\Tech\Desktop\CODetector\sevenSegment3DigitComplex\SevenSegment3DigitComplex.c"
1135  0003  3015        	set [21].0
1136  0004              #line 1136 "C:\Users\Tech\Desktop\CODetector\sevenSegment3DigitComplex\SevenSegment3DigitComplex.c"
1136  0004  3115        	set [21].2
1137  0005              #line 1137 "C:\Users\Tech\Desktop\CODetector\sevenSegment3DigitComplex\SevenSegment3DigitComplex.c"
1137  0005  3199        	set [25].3
1139  0006              #line 1139 "C:\Users\Tech\Desktop\CODetector\sevenSegment3DigitComplex\SevenSegment3DigitComplex.c"
1139  0006  3519        	clr [25].2
1140  0007              #line 1140 "C:\Users\Tech\Desktop\CODetector\sevenSegment3DigitComplex\SevenSegment3DigitComplex.c"
1140  0007  3499        	clr [25].1
1141  0008              #line 1141 "C:\Users\Tech\Desktop\CODetector\sevenSegment3DigitComplex\SevenSegment3DigitComplex.c"
1141  0008  3615        	clr [21].4
1142  0009              #line 1142 "C:\Users\Tech\Desktop\CODetector\sevenSegment3DigitComplex\SevenSegment3DigitComplex.c"
1142  0009  3415        	clr [21].0
1143  000A              #line 1143 "C:\Users\Tech\Desktop\CODetector\sevenSegment3DigitComplex\SevenSegment3DigitComplex.c"
1143  000A  3515        	clr [21].2
1145  000B              #line 1145 "C:\Users\Tech\Desktop\CODetector\sevenSegment3DigitComplex\SevenSegment3DigitComplex.c"
1145  000B  3118        	set [24].2
1146  000C              #line 1146 "C:\Users\Tech\Desktop\CODetector\sevenSegment3DigitComplex\SevenSegment3DigitComplex.c"
1146  000C  3498        	clr [24].1
1147  000D              #line 1147 "C:\Users\Tech\Desktop\CODetector\sevenSegment3DigitComplex\SevenSegment3DigitComplex.c"
1147  000D  3614        	clr [20].4
1148  000E              #line 1148 "C:\Users\Tech\Desktop\CODetector\sevenSegment3DigitComplex\SevenSegment3DigitComplex.c"
1148  000E  3414        	clr [20].0
1149  000F              #line 1149 "C:\Users\Tech\Desktop\CODetector\sevenSegment3DigitComplex\SevenSegment3DigitComplex.c"
1149  000F  3514        	clr [20].2
1151  0010              #line 1151 "C:\Users\Tech\Desktop\CODetector\sevenSegment3DigitComplex\SevenSegment3DigitComplex.c"
1151  0010              ;# 1151 "C:\Users\Tech\Desktop\CODetector\sevenSegment3DigitComplex\SevenSegment3DigitComplex.c" 1
1151  0010              	IF 1000>263690
1151  0010              ;# 1151 "C:\Users\Tech\Desktop\CODetector\sevenSegment3DigitComplex\SevenSegment3DigitComplex.c" 1
1151  0010              	ERRMESSAGE 'the value 1000of the argument exceeds the maxinum 263690'
1151  0010              	ENDIF
1151  0010              ;# 1151 "C:\Users\Tech\Desktop\CODetector\sevenSegment3DigitComplex\SevenSegment3DigitComplex.c" 1
1151  0010              	IF 1000<0
1151  0010              ;# 1151 "C:\Users\Tech\Desktop\CODetector\sevenSegment3DigitComplex\SevenSegment3DigitComplex.c" 1
1151  0010              	ERRMESSAGE 'the value 1000 of the argument exceeds the mininum 0'
1151  0010              	ENDIF
1151  0010              ;# 1151 "C:\Users\Tech\Desktop\CODetector\sevenSegment3DigitComplex\SevenSegment3DigitComplex.c" 1
1151  0010              	IF 1000==0
1151  0010              ;# 1151 "C:\Users\Tech\Desktop\CODetector\sevenSegment3DigitComplex\SevenSegment3DigitComplex.c" 1
1151  0010              	JMP $
1151  0010              	ENDIF
1151  0010              ;# 1151 "C:\Users\Tech\Desktop\CODetector\sevenSegment3DigitComplex\SevenSegment3DigitComplex.c" 1
1151  0010              	IF 1000==1
1151  0010              ;# 1151 "C:\Users\Tech\Desktop\CODetector\sevenSegment3DigitComplex\SevenSegment3DigitComplex.c" 1
1151  0010              	NOP
1151  0010              	ENDIF
1151  0010              ;# 1151 "C:\Users\Tech\Desktop\CODetector\sevenSegment3DigitComplex\SevenSegment3DigitComplex.c" 1
1151  0010              	IF 1000==2
1151  0010              ;# 1151 "C:\Users\Tech\Desktop\CODetector\sevenSegment3DigitComplex\SevenSegment3DigitComplex.c" 1
1151  0010              	NOP
1151  0010              ;# 1151 "C:\Users\Tech\Desktop\CODetector\sevenSegment3DigitComplex\SevenSegment3DigitComplex.c" 1
1151  0010              	NOP
"File: SevenSegment3DigitComplex.c  Assembler  Version HGASM0202      Page 123

1151  0010              	ENDIF
1151  0010              ;# 1151 "C:\Users\Tech\Desktop\CODetector\sevenSegment3DigitComplex\SevenSegment3DigitComplex.c" 1
1151  0010              	IF 1000==3
1151  0010              ;# 1151 "C:\Users\Tech\Desktop\CODetector\sevenSegment3DigitComplex\SevenSegment3DigitComplex.c" 1
1151  0010              	NOP
1151  0010              ;# 1151 "C:\Users\Tech\Desktop\CODetector\sevenSegment3DigitComplex\SevenSegment3DigitComplex.c" 1
1151  0010              	NOP
1151  0010              ;# 1151 "C:\Users\Tech\Desktop\CODetector\sevenSegment3DigitComplex\SevenSegment3DigitComplex.c" 1
1151  0010              	NOP
1151  0010              	ENDIF
1151  0010              ;# 1151 "C:\Users\Tech\Desktop\CODetector\sevenSegment3DigitComplex\SevenSegment3DigitComplex.c" 1
1151  0010              	IF (1000<8) AND (1000>3)
1151  0010              ;# 1151 "C:\Users\Tech\Desktop\CODetector\sevenSegment3DigitComplex\SevenSegment3DigitComplex.c" 1
1151  0010              	CALL __DELAY3 + 7 -1000
1151  0010              	ENDIF
1151  0010              ;# 1151 "C:\Users\Tech\Desktop\CODetector\sevenSegment3DigitComplex\SevenSegment3DigitComplex.c" 1
1151  0010              	IF (1000< 0404h) AND (1000>7)
1151  0010              ;# 1151 "C:\Users\Tech\Desktop\CODetector\sevenSegment3DigitComplex\SevenSegment3DigitComplex.c" 1
1151  0010  0FF9        	MOV A,1000/4-1
1151  0011              ;# 1151 "C:\Users\Tech\Desktop\CODetector\sevenSegment3DigitComplex\SevenSegment3DigitComplex.c" 1
1151  0011  2000     E  	CALL __DELAYX3 + 3 -(1000 MOD 4)
1151  0012              	ENDIF
1151  0012              ;# 1151 "C:\Users\Tech\Desktop\CODetector\sevenSegment3DigitComplex\SevenSegment3DigitComplex.c" 1
1151  0012              	IF (1000< 0x40B) AND (1000> 0403h)
1151  0012              ;# 1151 "C:\Users\Tech\Desktop\CODetector\sevenSegment3DigitComplex\SevenSegment3DigitComplex.c" 1
1151  0012              	MOV A,0 
1151  0012              ;# 1151 "C:\Users\Tech\Desktop\CODetector\sevenSegment3DigitComplex\SevenSegment3DigitComplex.c" 1
1151  0012              	CALL __DELAYX6 + 0x40a -1000
1151  0012              	ENDIF
1151  0012              ;# 1151 "C:\Users\Tech\Desktop\CODetector\sevenSegment3DigitComplex\SevenSegment3DigitComplex.c" 1
1151  0012              	IF (1000 >= 0x40b) AND ((((1000-9)%0402h)/4+1)>256)
1151  0012              ;# 1151 "C:\Users\Tech\Desktop\CODetector\sevenSegment3DigitComplex\SevenSegment3DigitComplex.c" 1
1151  0012              	MOV A,(1000-9)/0402h
1151  0012              ;# 1151 "C:\Users\Tech\Desktop\CODetector\sevenSegment3DigitComplex\SevenSegment3DigitComplex.c" 1
1151  0012              	MOV _builtin_holtek_delay_2,A
1151  0012              ;# 1151 "C:\Users\Tech\Desktop\CODetector\sevenSegment3DigitComplex\SevenSegment3DigitComplex.c" 1
1151  0012              	MOV A,0
1151  0012              ;# 1151 "C:\Users\Tech\Desktop\CODetector\sevenSegment3DigitComplex\SevenSegment3DigitComplex.c" 1
1151  0012              	CALL __DELAYY5 +5- (((1000-9)%0402h)%6)
1151  0012              	ENDIF
1151  0012              ;# 1151 "C:\Users\Tech\Desktop\CODetector\sevenSegment3DigitComplex\SevenSegment3DigitComplex.c" 1
1151  0012              	IF (1000 >= 0x40b) AND ((((1000-9)%0402h)/4+1)<=256)
1151  0012              ;# 1151 "C:\Users\Tech\Desktop\CODetector\sevenSegment3DigitComplex\SevenSegment3DigitComplex.c" 1
1151  0012              	MOV A,(1000-9)/0402h
1151  0012              ;# 1151 "C:\Users\Tech\Desktop\CODetector\sevenSegment3DigitComplex\SevenSegment3DigitComplex.c" 1
1151  0012              	MOV _builtin_holtek_delay_2,A
1151  0012              ;# 1151 "C:\Users\Tech\Desktop\CODetector\sevenSegment3DigitComplex\SevenSegment3DigitComplex.c" 1
1151  0012              	MOV A,((1000-9)%0402h)/4+1
1151  0012              ;# 1151 "C:\Users\Tech\Desktop\CODetector\sevenSegment3DigitComplex\SevenSegment3DigitComplex.c" 1
1151  0012              	CALL __DELAYY3 +3-(((1000-9)%0402h)%4)
1151  0012              	ENDIF
1152  0012              #line 1152 "C:\Users\Tech\Desktop\CODetector\sevenSegment3DigitComplex\SevenSegment3DigitComplex.c"
1152  0012  3119        	set [25].2
1153  0013              #line 1153 "C:\Users\Tech\Desktop\CODetector\sevenSegment3DigitComplex\SevenSegment3DigitComplex.c"
1153  0013  3099        	set [25].1
1154  0014              #line 1154 "C:\Users\Tech\Desktop\CODetector\sevenSegment3DigitComplex\SevenSegment3DigitComplex.c"
1154  0014  3215        	set [21].4
1155  0015              #line 1155 "C:\Users\Tech\Desktop\CODetector\sevenSegment3DigitComplex\SevenSegment3DigitComplex.c"
1155  0015  3015        	set [21].0
1156  0016              #line 1156 "C:\Users\Tech\Desktop\CODetector\sevenSegment3DigitComplex\SevenSegment3DigitComplex.c"
"File: SevenSegment3DigitComplex.c  Assembler  Version HGASM0202      Page 124

1156  0016  3115        	set [21].2
1157  0017              #line 1157 "C:\Users\Tech\Desktop\CODetector\sevenSegment3DigitComplex\SevenSegment3DigitComplex.c"
1157  0017  3199        	set [25].3
1159  0018              #line 1159 "C:\Users\Tech\Desktop\CODetector\sevenSegment3DigitComplex\SevenSegment3DigitComplex.c"
1159  0018  3599        	clr [25].3
1160  0019              #line 1160 "C:\Users\Tech\Desktop\CODetector\sevenSegment3DigitComplex\SevenSegment3DigitComplex.c"
1160  0019  3499        	clr [25].1
1161  001A              #line 1161 "C:\Users\Tech\Desktop\CODetector\sevenSegment3DigitComplex\SevenSegment3DigitComplex.c"
1161  001A  3198        	set [24].3
1162  001B              #line 1162 "C:\Users\Tech\Desktop\CODetector\sevenSegment3DigitComplex\SevenSegment3DigitComplex.c"
1162  001B  3498        	clr [24].1
1163  001C              #line 1163 "C:\Users\Tech\Desktop\CODetector\sevenSegment3DigitComplex\SevenSegment3DigitComplex.c"
1163  001C              ;# 1163 "C:\Users\Tech\Desktop\CODetector\sevenSegment3DigitComplex\SevenSegment3DigitComplex.c" 1
1163  001C              	IF 1000>263690
1163  001C              ;# 1163 "C:\Users\Tech\Desktop\CODetector\sevenSegment3DigitComplex\SevenSegment3DigitComplex.c" 1
1163  001C              	ERRMESSAGE 'the value 1000of the argument exceeds the maxinum 263690'
1163  001C              	ENDIF
1163  001C              ;# 1163 "C:\Users\Tech\Desktop\CODetector\sevenSegment3DigitComplex\SevenSegment3DigitComplex.c" 1
1163  001C              	IF 1000<0
1163  001C              ;# 1163 "C:\Users\Tech\Desktop\CODetector\sevenSegment3DigitComplex\SevenSegment3DigitComplex.c" 1
1163  001C              	ERRMESSAGE 'the value 1000 of the argument exceeds the mininum 0'
1163  001C              	ENDIF
1163  001C              ;# 1163 "C:\Users\Tech\Desktop\CODetector\sevenSegment3DigitComplex\SevenSegment3DigitComplex.c" 1
1163  001C              	IF 1000==0
1163  001C              ;# 1163 "C:\Users\Tech\Desktop\CODetector\sevenSegment3DigitComplex\SevenSegment3DigitComplex.c" 1
1163  001C              	JMP $
1163  001C              	ENDIF
1163  001C              ;# 1163 "C:\Users\Tech\Desktop\CODetector\sevenSegment3DigitComplex\SevenSegment3DigitComplex.c" 1
1163  001C              	IF 1000==1
1163  001C              ;# 1163 "C:\Users\Tech\Desktop\CODetector\sevenSegment3DigitComplex\SevenSegment3DigitComplex.c" 1
1163  001C              	NOP
1163  001C              	ENDIF
1163  001C              ;# 1163 "C:\Users\Tech\Desktop\CODetector\sevenSegment3DigitComplex\SevenSegment3DigitComplex.c" 1
1163  001C              	IF 1000==2
1163  001C              ;# 1163 "C:\Users\Tech\Desktop\CODetector\sevenSegment3DigitComplex\SevenSegment3DigitComplex.c" 1
1163  001C              	NOP
1163  001C              ;# 1163 "C:\Users\Tech\Desktop\CODetector\sevenSegment3DigitComplex\SevenSegment3DigitComplex.c" 1
1163  001C              	NOP
1163  001C              	ENDIF
1163  001C              ;# 1163 "C:\Users\Tech\Desktop\CODetector\sevenSegment3DigitComplex\SevenSegment3DigitComplex.c" 1
1163  001C              	IF 1000==3
1163  001C              ;# 1163 "C:\Users\Tech\Desktop\CODetector\sevenSegment3DigitComplex\SevenSegment3DigitComplex.c" 1
1163  001C              	NOP
1163  001C              ;# 1163 "C:\Users\Tech\Desktop\CODetector\sevenSegment3DigitComplex\SevenSegment3DigitComplex.c" 1
1163  001C              	NOP
1163  001C              ;# 1163 "C:\Users\Tech\Desktop\CODetector\sevenSegment3DigitComplex\SevenSegment3DigitComplex.c" 1
1163  001C              	NOP
1163  001C              	ENDIF
1163  001C              ;# 1163 "C:\Users\Tech\Desktop\CODetector\sevenSegment3DigitComplex\SevenSegment3DigitComplex.c" 1
1163  001C              	IF (1000<8) AND (1000>3)
1163  001C              ;# 1163 "C:\Users\Tech\Desktop\CODetector\sevenSegment3DigitComplex\SevenSegment3DigitComplex.c" 1
1163  001C              	CALL __DELAY3 + 7 -1000
1163  001C              	ENDIF
1163  001C              ;# 1163 "C:\Users\Tech\Desktop\CODetector\sevenSegment3DigitComplex\SevenSegment3DigitComplex.c" 1
1163  001C              	IF (1000< 0404h) AND (1000>7)
1163  001C              ;# 1163 "C:\Users\Tech\Desktop\CODetector\sevenSegment3DigitComplex\SevenSegment3DigitComplex.c" 1
1163  001C  0FF9        	MOV A,1000/4-1
1163  001D              ;# 1163 "C:\Users\Tech\Desktop\CODetector\sevenSegment3DigitComplex\SevenSegment3DigitComplex.c" 1
1163  001D  2000     E  	CALL __DELAYX3 + 3 -(1000 MOD 4)
1163  001E              	ENDIF
"File: SevenSegment3DigitComplex.c  Assembler  Version HGASM0202      Page 125

1163  001E              ;# 1163 "C:\Users\Tech\Desktop\CODetector\sevenSegment3DigitComplex\SevenSegment3DigitComplex.c" 1
1163  001E              	IF (1000< 0x40B) AND (1000> 0403h)
1163  001E              ;# 1163 "C:\Users\Tech\Desktop\CODetector\sevenSegment3DigitComplex\SevenSegment3DigitComplex.c" 1
1163  001E              	MOV A,0 
1163  001E              ;# 1163 "C:\Users\Tech\Desktop\CODetector\sevenSegment3DigitComplex\SevenSegment3DigitComplex.c" 1
1163  001E              	CALL __DELAYX6 + 0x40a -1000
1163  001E              	ENDIF
1163  001E              ;# 1163 "C:\Users\Tech\Desktop\CODetector\sevenSegment3DigitComplex\SevenSegment3DigitComplex.c" 1
1163  001E              	IF (1000 >= 0x40b) AND ((((1000-9)%0402h)/4+1)>256)
1163  001E              ;# 1163 "C:\Users\Tech\Desktop\CODetector\sevenSegment3DigitComplex\SevenSegment3DigitComplex.c" 1
1163  001E              	MOV A,(1000-9)/0402h
1163  001E              ;# 1163 "C:\Users\Tech\Desktop\CODetector\sevenSegment3DigitComplex\SevenSegment3DigitComplex.c" 1
1163  001E              	MOV _builtin_holtek_delay_2,A
1163  001E              ;# 1163 "C:\Users\Tech\Desktop\CODetector\sevenSegment3DigitComplex\SevenSegment3DigitComplex.c" 1
1163  001E              	MOV A,0
1163  001E              ;# 1163 "C:\Users\Tech\Desktop\CODetector\sevenSegment3DigitComplex\SevenSegment3DigitComplex.c" 1
1163  001E              	CALL __DELAYY5 +5- (((1000-9)%0402h)%6)
1163  001E              	ENDIF
1163  001E              ;# 1163 "C:\Users\Tech\Desktop\CODetector\sevenSegment3DigitComplex\SevenSegment3DigitComplex.c" 1
1163  001E              	IF (1000 >= 0x40b) AND ((((1000-9)%0402h)/4+1)<=256)
1163  001E              ;# 1163 "C:\Users\Tech\Desktop\CODetector\sevenSegment3DigitComplex\SevenSegment3DigitComplex.c" 1
1163  001E              	MOV A,(1000-9)/0402h
1163  001E              ;# 1163 "C:\Users\Tech\Desktop\CODetector\sevenSegment3DigitComplex\SevenSegment3DigitComplex.c" 1
1163  001E              	MOV _builtin_holtek_delay_2,A
1163  001E              ;# 1163 "C:\Users\Tech\Desktop\CODetector\sevenSegment3DigitComplex\SevenSegment3DigitComplex.c" 1
1163  001E              	MOV A,((1000-9)%0402h)/4+1
1163  001E              ;# 1163 "C:\Users\Tech\Desktop\CODetector\sevenSegment3DigitComplex\SevenSegment3DigitComplex.c" 1
1163  001E              	CALL __DELAYY3 +3-(((1000-9)%0402h)%4)
1163  001E              	ENDIF
1165  001E              #line 1165 "C:\Users\Tech\Desktop\CODetector\sevenSegment3DigitComplex\SevenSegment3DigitComplex.c"
1165  001E  3119        	set [25].2
1166  001F              #line 1166 "C:\Users\Tech\Desktop\CODetector\sevenSegment3DigitComplex\SevenSegment3DigitComplex.c"
1166  001F  3099        	set [25].1
1167  0020              #line 1167 "C:\Users\Tech\Desktop\CODetector\sevenSegment3DigitComplex\SevenSegment3DigitComplex.c"
1167  0020  3215        	set [21].4
1168  0021              #line 1168 "C:\Users\Tech\Desktop\CODetector\sevenSegment3DigitComplex\SevenSegment3DigitComplex.c"
1168  0021  3015        	set [21].0
1169  0022              #line 1169 "C:\Users\Tech\Desktop\CODetector\sevenSegment3DigitComplex\SevenSegment3DigitComplex.c"
1169  0022  3115        	set [21].2
1170  0023              #line 1170 "C:\Users\Tech\Desktop\CODetector\sevenSegment3DigitComplex\SevenSegment3DigitComplex.c"
1170  0023  3199        	set [25].3
1171  0024              #line 1171 "C:\Users\Tech\Desktop\CODetector\sevenSegment3DigitComplex\SevenSegment3DigitComplex.c"
1171  0024  3515        	clr [21].2
1172  0025              #line 1172 "C:\Users\Tech\Desktop\CODetector\sevenSegment3DigitComplex\SevenSegment3DigitComplex.c"
1172  0025  3499        	clr [25].1
1173  0026              #line 1173 "C:\Users\Tech\Desktop\CODetector\sevenSegment3DigitComplex\SevenSegment3DigitComplex.c"
1173  0026  3498        	clr [24].1
1174  0027              #line 1174 "C:\Users\Tech\Desktop\CODetector\sevenSegment3DigitComplex\SevenSegment3DigitComplex.c"
1174  0027  3114        	set [20].2
1175  0028              #line 1175 "C:\Users\Tech\Desktop\CODetector\sevenSegment3DigitComplex\SevenSegment3DigitComplex.c"
1175  0028              ;# 1175 "C:\Users\Tech\Desktop\CODetector\sevenSegment3DigitComplex\SevenSegment3DigitComplex.c" 1
1175  0028              	IF 1000>263690
1175  0028              ;# 1175 "C:\Users\Tech\Desktop\CODetector\sevenSegment3DigitComplex\SevenSegment3DigitComplex.c" 1
1175  0028              	ERRMESSAGE 'the value 1000of the argument exceeds the maxinum 263690'
1175  0028              	ENDIF
1175  0028              ;# 1175 "C:\Users\Tech\Desktop\CODetector\sevenSegment3DigitComplex\SevenSegment3DigitComplex.c" 1
1175  0028              	IF 1000<0
1175  0028              ;# 1175 "C:\Users\Tech\Desktop\CODetector\sevenSegment3DigitComplex\SevenSegment3DigitComplex.c" 1
1175  0028              	ERRMESSAGE 'the value 1000 of the argument exceeds the mininum 0'
1175  0028              	ENDIF
"File: SevenSegment3DigitComplex.c  Assembler  Version HGASM0202      Page 126

1175  0028              ;# 1175 "C:\Users\Tech\Desktop\CODetector\sevenSegment3DigitComplex\SevenSegment3DigitComplex.c" 1
1175  0028              	IF 1000==0
1175  0028              ;# 1175 "C:\Users\Tech\Desktop\CODetector\sevenSegment3DigitComplex\SevenSegment3DigitComplex.c" 1
1175  0028              	JMP $
1175  0028              	ENDIF
1175  0028              ;# 1175 "C:\Users\Tech\Desktop\CODetector\sevenSegment3DigitComplex\SevenSegment3DigitComplex.c" 1
1175  0028              	IF 1000==1
1175  0028              ;# 1175 "C:\Users\Tech\Desktop\CODetector\sevenSegment3DigitComplex\SevenSegment3DigitComplex.c" 1
1175  0028              	NOP
1175  0028              	ENDIF
1175  0028              ;# 1175 "C:\Users\Tech\Desktop\CODetector\sevenSegment3DigitComplex\SevenSegment3DigitComplex.c" 1
1175  0028              	IF 1000==2
1175  0028              ;# 1175 "C:\Users\Tech\Desktop\CODetector\sevenSegment3DigitComplex\SevenSegment3DigitComplex.c" 1
1175  0028              	NOP
1175  0028              ;# 1175 "C:\Users\Tech\Desktop\CODetector\sevenSegment3DigitComplex\SevenSegment3DigitComplex.c" 1
1175  0028              	NOP
1175  0028              	ENDIF
1175  0028              ;# 1175 "C:\Users\Tech\Desktop\CODetector\sevenSegment3DigitComplex\SevenSegment3DigitComplex.c" 1
1175  0028              	IF 1000==3
1175  0028              ;# 1175 "C:\Users\Tech\Desktop\CODetector\sevenSegment3DigitComplex\SevenSegment3DigitComplex.c" 1
1175  0028              	NOP
1175  0028              ;# 1175 "C:\Users\Tech\Desktop\CODetector\sevenSegment3DigitComplex\SevenSegment3DigitComplex.c" 1
1175  0028              	NOP
1175  0028              ;# 1175 "C:\Users\Tech\Desktop\CODetector\sevenSegment3DigitComplex\SevenSegment3DigitComplex.c" 1
1175  0028              	NOP
1175  0028              	ENDIF
1175  0028              ;# 1175 "C:\Users\Tech\Desktop\CODetector\sevenSegment3DigitComplex\SevenSegment3DigitComplex.c" 1
1175  0028              	IF (1000<8) AND (1000>3)
1175  0028              ;# 1175 "C:\Users\Tech\Desktop\CODetector\sevenSegment3DigitComplex\SevenSegment3DigitComplex.c" 1
1175  0028              	CALL __DELAY3 + 7 -1000
1175  0028              	ENDIF
1175  0028              ;# 1175 "C:\Users\Tech\Desktop\CODetector\sevenSegment3DigitComplex\SevenSegment3DigitComplex.c" 1
1175  0028              	IF (1000< 0404h) AND (1000>7)
1175  0028              ;# 1175 "C:\Users\Tech\Desktop\CODetector\sevenSegment3DigitComplex\SevenSegment3DigitComplex.c" 1
1175  0028  0FF9        	MOV A,1000/4-1
1175  0029              ;# 1175 "C:\Users\Tech\Desktop\CODetector\sevenSegment3DigitComplex\SevenSegment3DigitComplex.c" 1
1175  0029  2000     E  	CALL __DELAYX3 + 3 -(1000 MOD 4)
1175  002A              	ENDIF
1175  002A              ;# 1175 "C:\Users\Tech\Desktop\CODetector\sevenSegment3DigitComplex\SevenSegment3DigitComplex.c" 1
1175  002A              	IF (1000< 0x40B) AND (1000> 0403h)
1175  002A              ;# 1175 "C:\Users\Tech\Desktop\CODetector\sevenSegment3DigitComplex\SevenSegment3DigitComplex.c" 1
1175  002A              	MOV A,0 
1175  002A              ;# 1175 "C:\Users\Tech\Desktop\CODetector\sevenSegment3DigitComplex\SevenSegment3DigitComplex.c" 1
1175  002A              	CALL __DELAYX6 + 0x40a -1000
1175  002A              	ENDIF
1175  002A              ;# 1175 "C:\Users\Tech\Desktop\CODetector\sevenSegment3DigitComplex\SevenSegment3DigitComplex.c" 1
1175  002A              	IF (1000 >= 0x40b) AND ((((1000-9)%0402h)/4+1)>256)
1175  002A              ;# 1175 "C:\Users\Tech\Desktop\CODetector\sevenSegment3DigitComplex\SevenSegment3DigitComplex.c" 1
1175  002A              	MOV A,(1000-9)/0402h
1175  002A              ;# 1175 "C:\Users\Tech\Desktop\CODetector\sevenSegment3DigitComplex\SevenSegment3DigitComplex.c" 1
1175  002A              	MOV _builtin_holtek_delay_2,A
1175  002A              ;# 1175 "C:\Users\Tech\Desktop\CODetector\sevenSegment3DigitComplex\SevenSegment3DigitComplex.c" 1
1175  002A              	MOV A,0
1175  002A              ;# 1175 "C:\Users\Tech\Desktop\CODetector\sevenSegment3DigitComplex\SevenSegment3DigitComplex.c" 1
1175  002A              	CALL __DELAYY5 +5- (((1000-9)%0402h)%6)
1175  002A              	ENDIF
1175  002A              ;# 1175 "C:\Users\Tech\Desktop\CODetector\sevenSegment3DigitComplex\SevenSegment3DigitComplex.c" 1
1175  002A              	IF (1000 >= 0x40b) AND ((((1000-9)%0402h)/4+1)<=256)
1175  002A              ;# 1175 "C:\Users\Tech\Desktop\CODetector\sevenSegment3DigitComplex\SevenSegment3DigitComplex.c" 1
1175  002A              	MOV A,(1000-9)/0402h
"File: SevenSegment3DigitComplex.c  Assembler  Version HGASM0202      Page 127

1175  002A              ;# 1175 "C:\Users\Tech\Desktop\CODetector\sevenSegment3DigitComplex\SevenSegment3DigitComplex.c" 1
1175  002A              	MOV _builtin_holtek_delay_2,A
1175  002A              ;# 1175 "C:\Users\Tech\Desktop\CODetector\sevenSegment3DigitComplex\SevenSegment3DigitComplex.c" 1
1175  002A              	MOV A,((1000-9)%0402h)/4+1
1175  002A              ;# 1175 "C:\Users\Tech\Desktop\CODetector\sevenSegment3DigitComplex\SevenSegment3DigitComplex.c" 1
1175  002A              	CALL __DELAYY3 +3-(((1000-9)%0402h)%4)
1175  002A              	ENDIF
1175  002A  0003        	ret
1175  002B              _nineDigit2 endp
1175  002B              #line 1175 "C:\Users\Tech\Desktop\CODetector\sevenSegment3DigitComplex\SevenSegment3DigitComplex.c"
1175  002B              #pragma debug scope 1 1
1175  002B              public _nineDigit3
1175  002B              #pragma debug scope 33 1
1177  002B              #line 1177 "C:\Users\Tech\Desktop\CODetector\sevenSegment3DigitComplex\SevenSegment3DigitComplex.c"
1177  0000              _nineDigit3 .section 'code'
1177  0000              _nineDigit3 proc
1178  0000              #line 1178 "C:\Users\Tech\Desktop\CODetector\sevenSegment3DigitComplex\SevenSegment3DigitComplex.c"
1178  0000  3119        	set [25].2
1179  0001              #line 1179 "C:\Users\Tech\Desktop\CODetector\sevenSegment3DigitComplex\SevenSegment3DigitComplex.c"
1179  0001  3099        	set [25].1
1180  0002              #line 1180 "C:\Users\Tech\Desktop\CODetector\sevenSegment3DigitComplex\SevenSegment3DigitComplex.c"
1180  0002  3215        	set [21].4
1181  0003              #line 1181 "C:\Users\Tech\Desktop\CODetector\sevenSegment3DigitComplex\SevenSegment3DigitComplex.c"
1181  0003  3015        	set [21].0
1182  0004              #line 1182 "C:\Users\Tech\Desktop\CODetector\sevenSegment3DigitComplex\SevenSegment3DigitComplex.c"
1182  0004  3115        	set [21].2
1183  0005              #line 1183 "C:\Users\Tech\Desktop\CODetector\sevenSegment3DigitComplex\SevenSegment3DigitComplex.c"
1183  0005  3199        	set [25].3
1185  0006              #line 1185 "C:\Users\Tech\Desktop\CODetector\sevenSegment3DigitComplex\SevenSegment3DigitComplex.c"
1185  0006  3499        	clr [25].1
1186  0007              #line 1186 "C:\Users\Tech\Desktop\CODetector\sevenSegment3DigitComplex\SevenSegment3DigitComplex.c"
1186  0007  3615        	clr [21].4
1187  0008              #line 1187 "C:\Users\Tech\Desktop\CODetector\sevenSegment3DigitComplex\SevenSegment3DigitComplex.c"
1187  0008  3415        	clr [21].0
1188  0009              #line 1188 "C:\Users\Tech\Desktop\CODetector\sevenSegment3DigitComplex\SevenSegment3DigitComplex.c"
1188  0009  3515        	clr [21].2
1189  000A              #line 1189 "C:\Users\Tech\Desktop\CODetector\sevenSegment3DigitComplex\SevenSegment3DigitComplex.c"
1189  000A  3599        	clr [25].3
1190  000B              #line 1190 "C:\Users\Tech\Desktop\CODetector\sevenSegment3DigitComplex\SevenSegment3DigitComplex.c"
1190  000B  3098        	set [24].1
1191  000C              #line 1191 "C:\Users\Tech\Desktop\CODetector\sevenSegment3DigitComplex\SevenSegment3DigitComplex.c"
1191  000C  3614        	clr [20].4
1192  000D              #line 1192 "C:\Users\Tech\Desktop\CODetector\sevenSegment3DigitComplex\SevenSegment3DigitComplex.c"
1192  000D  3414        	clr [20].0
1193  000E              #line 1193 "C:\Users\Tech\Desktop\CODetector\sevenSegment3DigitComplex\SevenSegment3DigitComplex.c"
1193  000E  3514        	clr [20].2
1194  000F              #line 1194 "C:\Users\Tech\Desktop\CODetector\sevenSegment3DigitComplex\SevenSegment3DigitComplex.c"
1194  000F  3598        	clr [24].3
1196  0010              #line 1196 "C:\Users\Tech\Desktop\CODetector\sevenSegment3DigitComplex\SevenSegment3DigitComplex.c"
1196  0010              ;# 1196 "C:\Users\Tech\Desktop\CODetector\sevenSegment3DigitComplex\SevenSegment3DigitComplex.c" 1
1196  0010              	IF 1000>263690
1196  0010              ;# 1196 "C:\Users\Tech\Desktop\CODetector\sevenSegment3DigitComplex\SevenSegment3DigitComplex.c" 1
1196  0010              	ERRMESSAGE 'the value 1000of the argument exceeds the maxinum 263690'
1196  0010              	ENDIF
1196  0010              ;# 1196 "C:\Users\Tech\Desktop\CODetector\sevenSegment3DigitComplex\SevenSegment3DigitComplex.c" 1
1196  0010              	IF 1000<0
1196  0010              ;# 1196 "C:\Users\Tech\Desktop\CODetector\sevenSegment3DigitComplex\SevenSegment3DigitComplex.c" 1
1196  0010              	ERRMESSAGE 'the value 1000 of the argument exceeds the mininum 0'
1196  0010              	ENDIF
1196  0010              ;# 1196 "C:\Users\Tech\Desktop\CODetector\sevenSegment3DigitComplex\SevenSegment3DigitComplex.c" 1
"File: SevenSegment3DigitComplex.c  Assembler  Version HGASM0202      Page 128

1196  0010              	IF 1000==0
1196  0010              ;# 1196 "C:\Users\Tech\Desktop\CODetector\sevenSegment3DigitComplex\SevenSegment3DigitComplex.c" 1
1196  0010              	JMP $
1196  0010              	ENDIF
1196  0010              ;# 1196 "C:\Users\Tech\Desktop\CODetector\sevenSegment3DigitComplex\SevenSegment3DigitComplex.c" 1
1196  0010              	IF 1000==1
1196  0010              ;# 1196 "C:\Users\Tech\Desktop\CODetector\sevenSegment3DigitComplex\SevenSegment3DigitComplex.c" 1
1196  0010              	NOP
1196  0010              	ENDIF
1196  0010              ;# 1196 "C:\Users\Tech\Desktop\CODetector\sevenSegment3DigitComplex\SevenSegment3DigitComplex.c" 1
1196  0010              	IF 1000==2
1196  0010              ;# 1196 "C:\Users\Tech\Desktop\CODetector\sevenSegment3DigitComplex\SevenSegment3DigitComplex.c" 1
1196  0010              	NOP
1196  0010              ;# 1196 "C:\Users\Tech\Desktop\CODetector\sevenSegment3DigitComplex\SevenSegment3DigitComplex.c" 1
1196  0010              	NOP
1196  0010              	ENDIF
1196  0010              ;# 1196 "C:\Users\Tech\Desktop\CODetector\sevenSegment3DigitComplex\SevenSegment3DigitComplex.c" 1
1196  0010              	IF 1000==3
1196  0010              ;# 1196 "C:\Users\Tech\Desktop\CODetector\sevenSegment3DigitComplex\SevenSegment3DigitComplex.c" 1
1196  0010              	NOP
1196  0010              ;# 1196 "C:\Users\Tech\Desktop\CODetector\sevenSegment3DigitComplex\SevenSegment3DigitComplex.c" 1
1196  0010              	NOP
1196  0010              ;# 1196 "C:\Users\Tech\Desktop\CODetector\sevenSegment3DigitComplex\SevenSegment3DigitComplex.c" 1
1196  0010              	NOP
1196  0010              	ENDIF
1196  0010              ;# 1196 "C:\Users\Tech\Desktop\CODetector\sevenSegment3DigitComplex\SevenSegment3DigitComplex.c" 1
1196  0010              	IF (1000<8) AND (1000>3)
1196  0010              ;# 1196 "C:\Users\Tech\Desktop\CODetector\sevenSegment3DigitComplex\SevenSegment3DigitComplex.c" 1
1196  0010              	CALL __DELAY3 + 7 -1000
1196  0010              	ENDIF
1196  0010              ;# 1196 "C:\Users\Tech\Desktop\CODetector\sevenSegment3DigitComplex\SevenSegment3DigitComplex.c" 1
1196  0010              	IF (1000< 0404h) AND (1000>7)
1196  0010              ;# 1196 "C:\Users\Tech\Desktop\CODetector\sevenSegment3DigitComplex\SevenSegment3DigitComplex.c" 1
1196  0010  0FF9        	MOV A,1000/4-1
1196  0011              ;# 1196 "C:\Users\Tech\Desktop\CODetector\sevenSegment3DigitComplex\SevenSegment3DigitComplex.c" 1
1196  0011  2000     E  	CALL __DELAYX3 + 3 -(1000 MOD 4)
1196  0012              	ENDIF
1196  0012              ;# 1196 "C:\Users\Tech\Desktop\CODetector\sevenSegment3DigitComplex\SevenSegment3DigitComplex.c" 1
1196  0012              	IF (1000< 0x40B) AND (1000> 0403h)
1196  0012              ;# 1196 "C:\Users\Tech\Desktop\CODetector\sevenSegment3DigitComplex\SevenSegment3DigitComplex.c" 1
1196  0012              	MOV A,0 
1196  0012              ;# 1196 "C:\Users\Tech\Desktop\CODetector\sevenSegment3DigitComplex\SevenSegment3DigitComplex.c" 1
1196  0012              	CALL __DELAYX6 + 0x40a -1000
1196  0012              	ENDIF
1196  0012              ;# 1196 "C:\Users\Tech\Desktop\CODetector\sevenSegment3DigitComplex\SevenSegment3DigitComplex.c" 1
1196  0012              	IF (1000 >= 0x40b) AND ((((1000-9)%0402h)/4+1)>256)
1196  0012              ;# 1196 "C:\Users\Tech\Desktop\CODetector\sevenSegment3DigitComplex\SevenSegment3DigitComplex.c" 1
1196  0012              	MOV A,(1000-9)/0402h
1196  0012              ;# 1196 "C:\Users\Tech\Desktop\CODetector\sevenSegment3DigitComplex\SevenSegment3DigitComplex.c" 1
1196  0012              	MOV _builtin_holtek_delay_2,A
1196  0012              ;# 1196 "C:\Users\Tech\Desktop\CODetector\sevenSegment3DigitComplex\SevenSegment3DigitComplex.c" 1
1196  0012              	MOV A,0
1196  0012              ;# 1196 "C:\Users\Tech\Desktop\CODetector\sevenSegment3DigitComplex\SevenSegment3DigitComplex.c" 1
1196  0012              	CALL __DELAYY5 +5- (((1000-9)%0402h)%6)
1196  0012              	ENDIF
1196  0012              ;# 1196 "C:\Users\Tech\Desktop\CODetector\sevenSegment3DigitComplex\SevenSegment3DigitComplex.c" 1
1196  0012              	IF (1000 >= 0x40b) AND ((((1000-9)%0402h)/4+1)<=256)
1196  0012              ;# 1196 "C:\Users\Tech\Desktop\CODetector\sevenSegment3DigitComplex\SevenSegment3DigitComplex.c" 1
1196  0012              	MOV A,(1000-9)/0402h
1196  0012              ;# 1196 "C:\Users\Tech\Desktop\CODetector\sevenSegment3DigitComplex\SevenSegment3DigitComplex.c" 1
"File: SevenSegment3DigitComplex.c  Assembler  Version HGASM0202      Page 129

1196  0012              	MOV _builtin_holtek_delay_2,A
1196  0012              ;# 1196 "C:\Users\Tech\Desktop\CODetector\sevenSegment3DigitComplex\SevenSegment3DigitComplex.c" 1
1196  0012              	MOV A,((1000-9)%0402h)/4+1
1196  0012              ;# 1196 "C:\Users\Tech\Desktop\CODetector\sevenSegment3DigitComplex\SevenSegment3DigitComplex.c" 1
1196  0012              	CALL __DELAYY3 +3-(((1000-9)%0402h)%4)
1196  0012              	ENDIF
1197  0012              #line 1197 "C:\Users\Tech\Desktop\CODetector\sevenSegment3DigitComplex\SevenSegment3DigitComplex.c"
1197  0012  3119        	set [25].2
1198  0013              #line 1198 "C:\Users\Tech\Desktop\CODetector\sevenSegment3DigitComplex\SevenSegment3DigitComplex.c"
1198  0013  3099        	set [25].1
1199  0014              #line 1199 "C:\Users\Tech\Desktop\CODetector\sevenSegment3DigitComplex\SevenSegment3DigitComplex.c"
1199  0014  3215        	set [21].4
1200  0015              #line 1200 "C:\Users\Tech\Desktop\CODetector\sevenSegment3DigitComplex\SevenSegment3DigitComplex.c"
1200  0015  3015        	set [21].0
1201  0016              #line 1201 "C:\Users\Tech\Desktop\CODetector\sevenSegment3DigitComplex\SevenSegment3DigitComplex.c"
1201  0016  3115        	set [21].2
1202  0017              #line 1202 "C:\Users\Tech\Desktop\CODetector\sevenSegment3DigitComplex\SevenSegment3DigitComplex.c"
1202  0017  3199        	set [25].3
1204  0018              #line 1204 "C:\Users\Tech\Desktop\CODetector\sevenSegment3DigitComplex\SevenSegment3DigitComplex.c"
1204  0018  3615        	clr [21].4
1205  0019              #line 1205 "C:\Users\Tech\Desktop\CODetector\sevenSegment3DigitComplex\SevenSegment3DigitComplex.c"
1205  0019  3515        	clr [21].2
1206  001A              #line 1206 "C:\Users\Tech\Desktop\CODetector\sevenSegment3DigitComplex\SevenSegment3DigitComplex.c"
1206  001A  3599        	clr [25].3
1207  001B              #line 1207 "C:\Users\Tech\Desktop\CODetector\sevenSegment3DigitComplex\SevenSegment3DigitComplex.c"
1207  001B  3214        	set [20].4
1208  001C              #line 1208 "C:\Users\Tech\Desktop\CODetector\sevenSegment3DigitComplex\SevenSegment3DigitComplex.c"
1208  001C  3514        	clr [20].2
1209  001D              #line 1209 "C:\Users\Tech\Desktop\CODetector\sevenSegment3DigitComplex\SevenSegment3DigitComplex.c"
1209  001D  3598        	clr [24].3
1210  001E              #line 1210 "C:\Users\Tech\Desktop\CODetector\sevenSegment3DigitComplex\SevenSegment3DigitComplex.c"
1210  001E              ;# 1210 "C:\Users\Tech\Desktop\CODetector\sevenSegment3DigitComplex\SevenSegment3DigitComplex.c" 1
1210  001E              	IF 1000>263690
1210  001E              ;# 1210 "C:\Users\Tech\Desktop\CODetector\sevenSegment3DigitComplex\SevenSegment3DigitComplex.c" 1
1210  001E              	ERRMESSAGE 'the value 1000of the argument exceeds the maxinum 263690'
1210  001E              	ENDIF
1210  001E              ;# 1210 "C:\Users\Tech\Desktop\CODetector\sevenSegment3DigitComplex\SevenSegment3DigitComplex.c" 1
1210  001E              	IF 1000<0
1210  001E              ;# 1210 "C:\Users\Tech\Desktop\CODetector\sevenSegment3DigitComplex\SevenSegment3DigitComplex.c" 1
1210  001E              	ERRMESSAGE 'the value 1000 of the argument exceeds the mininum 0'
1210  001E              	ENDIF
1210  001E              ;# 1210 "C:\Users\Tech\Desktop\CODetector\sevenSegment3DigitComplex\SevenSegment3DigitComplex.c" 1
1210  001E              	IF 1000==0
1210  001E              ;# 1210 "C:\Users\Tech\Desktop\CODetector\sevenSegment3DigitComplex\SevenSegment3DigitComplex.c" 1
1210  001E              	JMP $
1210  001E              	ENDIF
1210  001E              ;# 1210 "C:\Users\Tech\Desktop\CODetector\sevenSegment3DigitComplex\SevenSegment3DigitComplex.c" 1
1210  001E              	IF 1000==1
1210  001E              ;# 1210 "C:\Users\Tech\Desktop\CODetector\sevenSegment3DigitComplex\SevenSegment3DigitComplex.c" 1
1210  001E              	NOP
1210  001E              	ENDIF
1210  001E              ;# 1210 "C:\Users\Tech\Desktop\CODetector\sevenSegment3DigitComplex\SevenSegment3DigitComplex.c" 1
1210  001E              	IF 1000==2
1210  001E              ;# 1210 "C:\Users\Tech\Desktop\CODetector\sevenSegment3DigitComplex\SevenSegment3DigitComplex.c" 1
1210  001E              	NOP
1210  001E              ;# 1210 "C:\Users\Tech\Desktop\CODetector\sevenSegment3DigitComplex\SevenSegment3DigitComplex.c" 1
1210  001E              	NOP
1210  001E              	ENDIF
1210  001E              ;# 1210 "C:\Users\Tech\Desktop\CODetector\sevenSegment3DigitComplex\SevenSegment3DigitComplex.c" 1
1210  001E              	IF 1000==3
"File: SevenSegment3DigitComplex.c  Assembler  Version HGASM0202      Page 130

1210  001E              ;# 1210 "C:\Users\Tech\Desktop\CODetector\sevenSegment3DigitComplex\SevenSegment3DigitComplex.c" 1
1210  001E              	NOP
1210  001E              ;# 1210 "C:\Users\Tech\Desktop\CODetector\sevenSegment3DigitComplex\SevenSegment3DigitComplex.c" 1
1210  001E              	NOP
1210  001E              ;# 1210 "C:\Users\Tech\Desktop\CODetector\sevenSegment3DigitComplex\SevenSegment3DigitComplex.c" 1
1210  001E              	NOP
1210  001E              	ENDIF
1210  001E              ;# 1210 "C:\Users\Tech\Desktop\CODetector\sevenSegment3DigitComplex\SevenSegment3DigitComplex.c" 1
1210  001E              	IF (1000<8) AND (1000>3)
1210  001E              ;# 1210 "C:\Users\Tech\Desktop\CODetector\sevenSegment3DigitComplex\SevenSegment3DigitComplex.c" 1
1210  001E              	CALL __DELAY3 + 7 -1000
1210  001E              	ENDIF
1210  001E              ;# 1210 "C:\Users\Tech\Desktop\CODetector\sevenSegment3DigitComplex\SevenSegment3DigitComplex.c" 1
1210  001E              	IF (1000< 0404h) AND (1000>7)
1210  001E              ;# 1210 "C:\Users\Tech\Desktop\CODetector\sevenSegment3DigitComplex\SevenSegment3DigitComplex.c" 1
1210  001E  0FF9        	MOV A,1000/4-1
1210  001F              ;# 1210 "C:\Users\Tech\Desktop\CODetector\sevenSegment3DigitComplex\SevenSegment3DigitComplex.c" 1
1210  001F  2000     E  	CALL __DELAYX3 + 3 -(1000 MOD 4)
1210  0020              	ENDIF
1210  0020              ;# 1210 "C:\Users\Tech\Desktop\CODetector\sevenSegment3DigitComplex\SevenSegment3DigitComplex.c" 1
1210  0020              	IF (1000< 0x40B) AND (1000> 0403h)
1210  0020              ;# 1210 "C:\Users\Tech\Desktop\CODetector\sevenSegment3DigitComplex\SevenSegment3DigitComplex.c" 1
1210  0020              	MOV A,0 
1210  0020              ;# 1210 "C:\Users\Tech\Desktop\CODetector\sevenSegment3DigitComplex\SevenSegment3DigitComplex.c" 1
1210  0020              	CALL __DELAYX6 + 0x40a -1000
1210  0020              	ENDIF
1210  0020              ;# 1210 "C:\Users\Tech\Desktop\CODetector\sevenSegment3DigitComplex\SevenSegment3DigitComplex.c" 1
1210  0020              	IF (1000 >= 0x40b) AND ((((1000-9)%0402h)/4+1)>256)
1210  0020              ;# 1210 "C:\Users\Tech\Desktop\CODetector\sevenSegment3DigitComplex\SevenSegment3DigitComplex.c" 1
1210  0020              	MOV A,(1000-9)/0402h
1210  0020              ;# 1210 "C:\Users\Tech\Desktop\CODetector\sevenSegment3DigitComplex\SevenSegment3DigitComplex.c" 1
1210  0020              	MOV _builtin_holtek_delay_2,A
1210  0020              ;# 1210 "C:\Users\Tech\Desktop\CODetector\sevenSegment3DigitComplex\SevenSegment3DigitComplex.c" 1
1210  0020              	MOV A,0
1210  0020              ;# 1210 "C:\Users\Tech\Desktop\CODetector\sevenSegment3DigitComplex\SevenSegment3DigitComplex.c" 1
1210  0020              	CALL __DELAYY5 +5- (((1000-9)%0402h)%6)
1210  0020              	ENDIF
1210  0020              ;# 1210 "C:\Users\Tech\Desktop\CODetector\sevenSegment3DigitComplex\SevenSegment3DigitComplex.c" 1
1210  0020              	IF (1000 >= 0x40b) AND ((((1000-9)%0402h)/4+1)<=256)
1210  0020              ;# 1210 "C:\Users\Tech\Desktop\CODetector\sevenSegment3DigitComplex\SevenSegment3DigitComplex.c" 1
1210  0020              	MOV A,(1000-9)/0402h
1210  0020              ;# 1210 "C:\Users\Tech\Desktop\CODetector\sevenSegment3DigitComplex\SevenSegment3DigitComplex.c" 1
1210  0020              	MOV _builtin_holtek_delay_2,A
1210  0020              ;# 1210 "C:\Users\Tech\Desktop\CODetector\sevenSegment3DigitComplex\SevenSegment3DigitComplex.c" 1
1210  0020              	MOV A,((1000-9)%0402h)/4+1
1210  0020              ;# 1210 "C:\Users\Tech\Desktop\CODetector\sevenSegment3DigitComplex\SevenSegment3DigitComplex.c" 1
1210  0020              	CALL __DELAYY3 +3-(((1000-9)%0402h)%4)
1210  0020              	ENDIF
1210  0020  0003        	ret
1210  0021              _nineDigit3 endp
1210  0021              #line 1210 "C:\Users\Tech\Desktop\CODetector\sevenSegment3DigitComplex\SevenSegment3DigitComplex.c"
1210  0021              #pragma debug scope 1 1
1210  0021              public _length
1210  0021              #pragma debug scope 34 1
1213  0021              #line 1213 "C:\Users\Tech\Desktop\CODetector\sevenSegment3DigitComplex\SevenSegment3DigitComplex.c"
1213  0000              _length .section 'code'
1213  0000              _length proc
1213  0000              public _length_2
1213  0000  0002[           local _length_2 db 2 dup(?)	; 2,0
            00
"File: SevenSegment3DigitComplex.c  Assembler  Version HGASM0202      Page 131

            ]
1213  0002              #pragma debug variable 11 34 _length_2+0 "number"
1214  0002              #line 1214 "C:\Users\Tech\Desktop\CODetector\sevenSegment3DigitComplex\SevenSegment3DigitComplex.c"
1214  0000  1F00     E  	clr ra
1214  0001  1F00     E  	clr rb
1215  0002              #line 1215 "C:\Users\Tech\Desktop\CODetector\sevenSegment3DigitComplex\SevenSegment3DigitComplex.c"
1215  0002  2800     R  	jmp _L34
1215  0003              _L35:
1217  0003              #line 1217 "C:\Users\Tech\Desktop\CODetector\sevenSegment3DigitComplex\SevenSegment3DigitComplex.c"
1217  0003  0700     R  	mov a,_length_2[0]
1217  0004  0080     E  	mov _builtin_holtek_udivmodhi4_2[0],a
1217  0005  0700     R  	mov a,_length_2[1]
1217  0006  0080     E  	mov _builtin_holtek_udivmodhi4_2[1],a
1217  0007  0F0A        	mov a,10
1217  0008  0080     E  	mov _builtin_holtek_udivmodhi4_2[2],a
1217  0009  0F00        	mov a,0
1217  000A  0080     E  	mov _builtin_holtek_udivmodhi4_2[3],a
1217  000B  2000     E  	call _builtin_holtek_divmodhi4
1217  000C  0700     E  	mov a,_builtin_holtek_udivmodhi4_2[0]
1217  000D  0080     R  	mov _length_2[0],a
1217  000E  0700     E  	mov a,_builtin_holtek_udivmodhi4_2[1]
1217  000F  0080     R  	mov _length_2[1],a
1218  0010              #line 1218 "C:\Users\Tech\Desktop\CODetector\sevenSegment3DigitComplex\SevenSegment3DigitComplex.c"
1218  0010  1480     E  	inc ra
1218  0011  3D0A        	sz z
1218  0012  1480     E  	inc rb
1218  0013              _L34:
1215  0013              #line 1215 "C:\Users\Tech\Desktop\CODetector\sevenSegment3DigitComplex\SevenSegment3DigitComplex.c"
1215  0013  0700     R  	mov a,_length_2[0]
1215  0014  0500     R  	or a,_length_2[1]
1215  0015  390A        	snz z
1215  0016  2800     R  	jmp _L35
1215  0017  0003        	ret
1215  0018              _length endp
1215  0018              #line 1215 "C:\Users\Tech\Desktop\CODetector\sevenSegment3DigitComplex\SevenSegment3DigitComplex.c"
1215  0018              #pragma debug scope 1 1
1215  0018              public _shwoSegment
1215  0018              #pragma debug scope 35 1
1224  0018              #line 1224 "C:\Users\Tech\Desktop\CODetector\sevenSegment3DigitComplex\SevenSegment3DigitComplex.c"
1224  0000              _shwoSegment .section 'code'
1224  0000              _shwoSegment proc
1224  0000              public _shwoSegment_2
1224  0000  0005[           local _shwoSegment_2 db 5 dup(?)	; 2,3
            00
            ]
1224  0005              #pragma debug variable 11 35 _shwoSegment_2+0 "number"
1224  0005              #pragma debug variable 7 35 _shwoSegment_2+4 "powNumber"
1224  0005              #pragma debug variable 11 35 _shwoSegment_2+2 "indexDigit"
1234  0005              #line 1234 "C:\Users\Tech\Desktop\CODetector\sevenSegment3DigitComplex\SevenSegment3DigitComplex.c"
1234  0000  3800     R  	snz _shwoSegment_2[1].7
1234  0001  2800     R  	jmp _L38
1236  0002              #line 1236 "C:\Users\Tech\Desktop\CODetector\sevenSegment3DigitComplex\SevenSegment3DigitComplex.c"
1236  0002  2000     R  	call _error1Seg
1237  0003              #line 1237 "C:\Users\Tech\Desktop\CODetector\sevenSegment3DigitComplex\SevenSegment3DigitComplex.c"
1237  0003  2800     R  	jmp _L39
1237  0004              _L38:
1240  0004              #line 1240 "C:\Users\Tech\Desktop\CODetector\sevenSegment3DigitComplex\SevenSegment3DigitComplex.c"
1240  0004  0FE7        	mov a,231
1240  0005  0200     R  	sub a,_shwoSegment_2[0]
1240  0006  0F03        	mov a,3
"File: SevenSegment3DigitComplex.c  Assembler  Version HGASM0202      Page 132

1240  0007  1200     R  	sbc a,_shwoSegment_2[1]
1240  0008  3F8A        	sz sc
1240  0009  2800     R  	jmp _L40
1240  000A  0700     R  	mov a,_shwoSegment_2[0]
1240  000B  0080     E  	mov rb,a
1240  000C  0700     R  	mov a,_shwoSegment_2[1]
1240  000D  0080     E  	mov rc,a
1240  000E  2800     R  	jmp _L41
1240  000F              _L40:
1242  000F              #line 1242 "C:\Users\Tech\Desktop\CODetector\sevenSegment3DigitComplex\SevenSegment3DigitComplex.c"
1242  000F  2000     R  	call _errorSeg
1243  0010              #line 1243 "C:\Users\Tech\Desktop\CODetector\sevenSegment3DigitComplex\SevenSegment3DigitComplex.c"
1243  0010  2800     R  	jmp _L39
1243  0011              _L41:
1243  0011              #pragma debug scope 36 35
1243  0011              ;begin block, line: 1243.-1
1243  0011              #pragma debug scope 37 36
1243  0011              ;begin block, line: 1243.-1
1215  0011              #line 1215 "C:\Users\Tech\Desktop\CODetector\sevenSegment3DigitComplex\SevenSegment3DigitComplex.c"
1215  0011  0700     E  	mov a,rb
1215  0012  0500     E  	or a,rc
1215  0013  3D0A        	sz z
1215  0014  2800     R  	jmp _L79
1217  0015              #line 1217 "C:\Users\Tech\Desktop\CODetector\sevenSegment3DigitComplex\SevenSegment3DigitComplex.c"
1217  0015  0700     E  	mov a,rb
1217  0016  0080     E  	mov _builtin_holtek_udivmodhi4_2[0],a
1217  0017  0700     E  	mov a,rc
1217  0018  0080     E  	mov _builtin_holtek_udivmodhi4_2[1],a
1217  0019  0F0A        	mov a,10
1217  001A  0080     E  	mov _builtin_holtek_udivmodhi4_2[2],a
1217  001B  0F00        	mov a,0
1217  001C  0080     E  	mov _builtin_holtek_udivmodhi4_2[3],a
1217  001D  2000     E  	call _builtin_holtek_divmodhi4
1217  001E  0700     E  	mov a,_builtin_holtek_udivmodhi4_2[0]
1217  001F  0080     E  	mov rb,a
1217  0020  0700     E  	mov a,_builtin_holtek_udivmodhi4_2[1]
1217  0021  0080     E  	mov rc,a
1217  0022  2800     R  	jmp _L41
1217  0023              _L79:
1215  0023              #line 1215 "C:\Users\Tech\Desktop\CODetector\sevenSegment3DigitComplex\SevenSegment3DigitComplex.c"
1215  0023  0F03        	mov a,3
1215  0024  0080     R  	mov _shwoSegment_2[2],a
1215  0025  1F00     R  	clr _shwoSegment_2[3]
1215  0026  0F64        	mov a,100
1215  0027  0080     R  	mov _shwoSegment_2[4],a
1215  0028              _L78:
1215  0028              #pragma debug scope 36 35
1215  0028              #pragma debug scope 35 1
1252  0028              #line 1252 "C:\Users\Tech\Desktop\CODetector\sevenSegment3DigitComplex\SevenSegment3DigitComplex.c"
1252  0028  0700     R  	mov a,_shwoSegment_2[4]
1252  0029  0080     E  	mov rd,a
1252  002A  1F00     E  	clr re
1252  002B  3F85        	sz acc.7
1252  002C  1F80     E  	set re
1252  002D  0700     R  	mov a,_shwoSegment_2[0]
1252  002E  0080     E  	mov _builtin_holtek_udivmodhi4_2[0],a
1252  002F  0700     R  	mov a,_shwoSegment_2[1]
1252  0030  0080     E  	mov _builtin_holtek_udivmodhi4_2[1],a
1252  0031  0700     E  	mov a,rd
1252  0032  0080     E  	mov _builtin_holtek_udivmodhi4_2[2],a
"File: SevenSegment3DigitComplex.c  Assembler  Version HGASM0202      Page 133

1252  0033  0700     E  	mov a,re
1252  0034  0080     E  	mov _builtin_holtek_udivmodhi4_2[3],a
1252  0035  2000     E  	call _builtin_holtek_divmodhi4
1252  0036  0700     E  	mov a,_builtin_holtek_udivmodhi4_2[0]
1252  0037  0080     E  	mov rb,a
1252  0038  0700     E  	mov a,_builtin_holtek_udivmodhi4_2[1]
1252  0039  0080     E  	mov rc,a
1253  003A              #line 1253 "C:\Users\Tech\Desktop\CODetector\sevenSegment3DigitComplex\SevenSegment3DigitComplex.c"
1253  003A  0700     E  	mov a,rb  
1253  003B  0080     E  	mov _builtin_holtek_mulhi3_2[0],a  
1253  003C  0700     E  	mov a,rc  
1253  003D  0080     E  	mov _builtin_holtek_mulhi3_2[1],a
1253  003E  0700     E  	mov a,rd  
1253  003F  0080     E  	mov _builtin_holtek_mulhi3_2[2],a  
1253  0040  0700     E  	mov a,re  
1253  0041  0080     E  	mov _builtin_holtek_mulhi3_2[3],a
1253  0042  2000     E  	call _builtin_holtek_mulhi3
1253  0043  0700     E  	mov a,_builtin_holtek_mulhi3_2[4]  
1253  0044  0080     E  	mov rd,a  
1253  0045  0700     E  	mov a,_builtin_holtek_mulhi3_2[5]  
1253  0046  0080     E  	mov re,a
1253  0047  0700     R  	mov a,_shwoSegment_2[0]
1253  0048  0200     E  	sub a,rd
1253  0049  0080     R  	mov _shwoSegment_2[0],a
1253  004A  0700     R  	mov a,_shwoSegment_2[1]
1253  004B  1200     E  	sbc a,re
1253  004C  0080     R  	mov _shwoSegment_2[1],a
1256  004D              #line 1256 "C:\Users\Tech\Desktop\CODetector\sevenSegment3DigitComplex\SevenSegment3DigitComplex.c"
1256  004D  0700     R  	mov a,_shwoSegment_2[2]
1256  004E  0C01        	xor a,1
1256  004F  0500     R  	or a,_shwoSegment_2[3]
1256  0050  3D0A        	sz z
1256  0051  2800     R  	jmp _L44
1256  0052  0700     R  	mov a,_shwoSegment_2[2]
1256  0053  0C02        	xor a,2
1256  0054  0500     R  	or a,_shwoSegment_2[3]
1256  0055  3D0A        	sz z
1256  0056  2800     R  	jmp _L45
1256  0057  0700     R  	mov a,_shwoSegment_2[2]
1256  0058  0C03        	xor a,3
1256  0059  0500     R  	or a,_shwoSegment_2[3]
1256  005A  390A        	snz z
1256  005B  2800     R  	jmp _L43
1256  005C  2800     R  	jmp _L80
1256  005D              _L44:
1263  005D              #line 1263 "C:\Users\Tech\Desktop\CODetector\sevenSegment3DigitComplex\SevenSegment3DigitComplex.c"
1263  005D  0700     E  	mov a,rb
1263  005E  0500     E  	or a,rc
1263  005F  3D0A        	sz z
1263  0060  2800     R  	jmp _L47
1263  0061  0700     E  	mov a,rb
1263  0062  0C01        	xor a,1
1263  0063  0500     E  	or a,rc
1263  0064  3D0A        	sz z
1263  0065  2800     R  	jmp _L48
1263  0066  0700     E  	mov a,rb
1263  0067  0C02        	xor a,2
1263  0068  0500     E  	or a,rc
1263  0069  3D0A        	sz z
1263  006A  2800     R  	jmp _L49
"File: SevenSegment3DigitComplex.c  Assembler  Version HGASM0202      Page 134

1263  006B  0700     E  	mov a,rb
1263  006C  0C03        	xor a,3
1263  006D  0500     E  	or a,rc
1263  006E  3D0A        	sz z
1263  006F  2800     R  	jmp _L50
1263  0070  0700     E  	mov a,rb
1263  0071  0C04        	xor a,4
1263  0072  0500     E  	or a,rc
1263  0073  3D0A        	sz z
1263  0074  2800     R  	jmp _L51
1263  0075  0700     E  	mov a,rb
1263  0076  0C05        	xor a,5
1263  0077  0500     E  	or a,rc
1263  0078  3D0A        	sz z
1263  0079  2800     R  	jmp _L52
1263  007A  0700     E  	mov a,rb
1263  007B  0C06        	xor a,6
1263  007C  0500     E  	or a,rc
1263  007D  3D0A        	sz z
1263  007E  2800     R  	jmp _L53
1263  007F  0700     E  	mov a,rb
1263  0080  0C07        	xor a,7
1263  0081  0500     E  	or a,rc
1263  0082  3D0A        	sz z
1263  0083  2800     R  	jmp _L54
1263  0084  0700     E  	mov a,rb
1263  0085  0C08        	xor a,8
1263  0086  0500     E  	or a,rc
1263  0087  3D0A        	sz z
1263  0088  2800     R  	jmp _L55
1263  0089  0700     E  	mov a,rb
1263  008A  0C09        	xor a,9
1263  008B  0500     E  	or a,rc
1263  008C  390A        	snz z
1263  008D  2800     R  	jmp _L43
1275  008E              #line 1275 "C:\Users\Tech\Desktop\CODetector\sevenSegment3DigitComplex\SevenSegment3DigitComplex.c"
1275  008E  2000     R  	call _nineDigit3
1275  008F  2800     R  	jmp _L43
1275  0090              _L47:
1266  0090              #line 1266 "C:\Users\Tech\Desktop\CODetector\sevenSegment3DigitComplex\SevenSegment3DigitComplex.c"
1266  0090  2000     R  	call _ziroDigit3
1266  0091  2800     R  	jmp _L43
1266  0092              _L48:
1267  0092              #line 1267 "C:\Users\Tech\Desktop\CODetector\sevenSegment3DigitComplex\SevenSegment3DigitComplex.c"
1267  0092  2000     R  	call _oneDigit3
1267  0093  2800     R  	jmp _L43
1267  0094              _L49:
1268  0094              #line 1268 "C:\Users\Tech\Desktop\CODetector\sevenSegment3DigitComplex\SevenSegment3DigitComplex.c"
1268  0094  2000     R  	call _towDigit3
1268  0095  2800     R  	jmp _L43
1268  0096              _L50:
1269  0096              #line 1269 "C:\Users\Tech\Desktop\CODetector\sevenSegment3DigitComplex\SevenSegment3DigitComplex.c"
1269  0096  2000     R  	call _threeDigit3
1269  0097  2800     R  	jmp _L43
1269  0098              _L51:
1270  0098              #line 1270 "C:\Users\Tech\Desktop\CODetector\sevenSegment3DigitComplex\SevenSegment3DigitComplex.c"
1270  0098  2000     R  	call _fourDigit3
1270  0099  2800     R  	jmp _L43
1270  009A              _L52:
1271  009A              #line 1271 "C:\Users\Tech\Desktop\CODetector\sevenSegment3DigitComplex\SevenSegment3DigitComplex.c"
"File: SevenSegment3DigitComplex.c  Assembler  Version HGASM0202      Page 135

1271  009A  2000     R  	call _fiveDigit3
1271  009B  2800     R  	jmp _L43
1271  009C              _L53:
1272  009C              #line 1272 "C:\Users\Tech\Desktop\CODetector\sevenSegment3DigitComplex\SevenSegment3DigitComplex.c"
1272  009C  2000     R  	call _sixDigit3
1272  009D  2800     R  	jmp _L43
1272  009E              _L54:
1273  009E              #line 1273 "C:\Users\Tech\Desktop\CODetector\sevenSegment3DigitComplex\SevenSegment3DigitComplex.c"
1273  009E  2000     R  	call _sevenDigit3
1273  009F  2800     R  	jmp _L43
1273  00A0              _L55:
1274  00A0              #line 1274 "C:\Users\Tech\Desktop\CODetector\sevenSegment3DigitComplex\SevenSegment3DigitComplex.c"
1274  00A0  2000     R  	call _eightDigit3
1274  00A1  2800     R  	jmp _L43
1274  00A2              _L45:
1285  00A2              #line 1285 "C:\Users\Tech\Desktop\CODetector\sevenSegment3DigitComplex\SevenSegment3DigitComplex.c"
1285  00A2  0700     E  	mov a,rb
1285  00A3  0500     E  	or a,rc
1285  00A4  3D0A        	sz z
1285  00A5  2800     R  	jmp _L57
1285  00A6  0700     E  	mov a,rb
1285  00A7  0C01        	xor a,1
1285  00A8  0500     E  	or a,rc
1285  00A9  3D0A        	sz z
1285  00AA  2800     R  	jmp _L58
1285  00AB  0700     E  	mov a,rb
1285  00AC  0C02        	xor a,2
1285  00AD  0500     E  	or a,rc
1285  00AE  3D0A        	sz z
1285  00AF  2800     R  	jmp _L59
1285  00B0  0700     E  	mov a,rb
1285  00B1  0C03        	xor a,3
1285  00B2  0500     E  	or a,rc
1285  00B3  3D0A        	sz z
1285  00B4  2800     R  	jmp _L60
1285  00B5  0700     E  	mov a,rb
1285  00B6  0C04        	xor a,4
1285  00B7  0500     E  	or a,rc
1285  00B8  3D0A        	sz z
1285  00B9  2800     R  	jmp _L61
1285  00BA  0700     E  	mov a,rb
1285  00BB  0C05        	xor a,5
1285  00BC  0500     E  	or a,rc
1285  00BD  3D0A        	sz z
1285  00BE  2800     R  	jmp _L62
1285  00BF  0700     E  	mov a,rb
1285  00C0  0C06        	xor a,6
1285  00C1  0500     E  	or a,rc
1285  00C2  3D0A        	sz z
1285  00C3  2800     R  	jmp _L63
1285  00C4  0700     E  	mov a,rb
1285  00C5  0C07        	xor a,7
1285  00C6  0500     E  	or a,rc
1285  00C7  3D0A        	sz z
1285  00C8  2800     R  	jmp _L64
1285  00C9  0700     E  	mov a,rb
1285  00CA  0C08        	xor a,8
1285  00CB  0500     E  	or a,rc
1285  00CC  3D0A        	sz z
1285  00CD  2800     R  	jmp _L65
"File: SevenSegment3DigitComplex.c  Assembler  Version HGASM0202      Page 136

1285  00CE  0700     E  	mov a,rb
1285  00CF  0C09        	xor a,9
1285  00D0  0500     E  	or a,rc
1285  00D1  390A        	snz z
1285  00D2  2800     R  	jmp _L43
1296  00D3              #line 1296 "C:\Users\Tech\Desktop\CODetector\sevenSegment3DigitComplex\SevenSegment3DigitComplex.c"
1296  00D3  2000     R  	call _nineDigit2
1296  00D4  2800     R  	jmp _L43
1296  00D5              _L57:
1287  00D5              #line 1287 "C:\Users\Tech\Desktop\CODetector\sevenSegment3DigitComplex\SevenSegment3DigitComplex.c"
1287  00D5  2000     R  	call _ziroDigit2
1287  00D6  2800     R  	jmp _L43
1287  00D7              _L58:
1288  00D7              #line 1288 "C:\Users\Tech\Desktop\CODetector\sevenSegment3DigitComplex\SevenSegment3DigitComplex.c"
1288  00D7  2000     R  	call _oneDigit2
1288  00D8  2800     R  	jmp _L43
1288  00D9              _L59:
1289  00D9              #line 1289 "C:\Users\Tech\Desktop\CODetector\sevenSegment3DigitComplex\SevenSegment3DigitComplex.c"
1289  00D9  2000     R  	call _towDigit2
1289  00DA  2800     R  	jmp _L43
1289  00DB              _L60:
1290  00DB              #line 1290 "C:\Users\Tech\Desktop\CODetector\sevenSegment3DigitComplex\SevenSegment3DigitComplex.c"
1290  00DB  2000     R  	call _threeDigit2
1290  00DC  2800     R  	jmp _L43
1290  00DD              _L61:
1291  00DD              #line 1291 "C:\Users\Tech\Desktop\CODetector\sevenSegment3DigitComplex\SevenSegment3DigitComplex.c"
1291  00DD  2000     R  	call _fourDigit2
1291  00DE  2800     R  	jmp _L43
1291  00DF              _L62:
1292  00DF              #line 1292 "C:\Users\Tech\Desktop\CODetector\sevenSegment3DigitComplex\SevenSegment3DigitComplex.c"
1292  00DF  2000     R  	call _fiveDigit2
1292  00E0  2800     R  	jmp _L43
1292  00E1              _L63:
1293  00E1              #line 1293 "C:\Users\Tech\Desktop\CODetector\sevenSegment3DigitComplex\SevenSegment3DigitComplex.c"
1293  00E1  2000     R  	call _sixDigit2
1293  00E2  2800     R  	jmp _L43
1293  00E3              _L64:
1294  00E3              #line 1294 "C:\Users\Tech\Desktop\CODetector\sevenSegment3DigitComplex\SevenSegment3DigitComplex.c"
1294  00E3  2000     R  	call _sevenDigit2
1294  00E4  2800     R  	jmp _L43
1294  00E5              _L65:
1295  00E5              #line 1295 "C:\Users\Tech\Desktop\CODetector\sevenSegment3DigitComplex\SevenSegment3DigitComplex.c"
1295  00E5  2000     R  	call _eightDigit2
1295  00E6  2800     R  	jmp _L43
1295  00E7              _L80:
1303  00E7              #line 1303 "C:\Users\Tech\Desktop\CODetector\sevenSegment3DigitComplex\SevenSegment3DigitComplex.c"
1303  00E7  0700     E  	mov a,rb
1303  00E8  0500     E  	or a,rc
1303  00E9  3D0A        	sz z
1303  00EA  2800     R  	jmp _L67
1303  00EB  0700     E  	mov a,rb
1303  00EC  0C01        	xor a,1
1303  00ED  0500     E  	or a,rc
1303  00EE  3D0A        	sz z
1303  00EF  2800     R  	jmp _L68
1303  00F0  0700     E  	mov a,rb
1303  00F1  0C02        	xor a,2
1303  00F2  0500     E  	or a,rc
1303  00F3  3D0A        	sz z
1303  00F4  2800     R  	jmp _L69
"File: SevenSegment3DigitComplex.c  Assembler  Version HGASM0202      Page 137

1303  00F5  0700     E  	mov a,rb
1303  00F6  0C03        	xor a,3
1303  00F7  0500     E  	or a,rc
1303  00F8  3D0A        	sz z
1303  00F9  2800     R  	jmp _L70
1303  00FA  0700     E  	mov a,rb
1303  00FB  0C04        	xor a,4
1303  00FC  0500     E  	or a,rc
1303  00FD  3D0A        	sz z
1303  00FE  2800     R  	jmp _L71
1303  00FF  0700     E  	mov a,rb
1303  0100  0C05        	xor a,5
1303  0101  0500     E  	or a,rc
1303  0102  3D0A        	sz z
1303  0103  2800     R  	jmp _L72
1303  0104  0700     E  	mov a,rb
1303  0105  0C06        	xor a,6
1303  0106  0500     E  	or a,rc
1303  0107  3D0A        	sz z
1303  0108  2800     R  	jmp _L73
1303  0109  0700     E  	mov a,rb
1303  010A  0C07        	xor a,7
1303  010B  0500     E  	or a,rc
1303  010C  3D0A        	sz z
1303  010D  2800     R  	jmp _L74
1303  010E  0700     E  	mov a,rb
1303  010F  0C08        	xor a,8
1303  0110  0500     E  	or a,rc
1303  0111  3D0A        	sz z
1303  0112  2800     R  	jmp _L75
1303  0113  0700     E  	mov a,rb
1303  0114  0C09        	xor a,9
1303  0115  0500     E  	or a,rc
1303  0116  390A        	snz z
1303  0117  2800     R  	jmp _L43
1314  0118              #line 1314 "C:\Users\Tech\Desktop\CODetector\sevenSegment3DigitComplex\SevenSegment3DigitComplex.c"
1314  0118  2000     R  	call _nineDigit1
1314  0119  2800     R  	jmp _L43
1314  011A              _L67:
1305  011A              #line 1305 "C:\Users\Tech\Desktop\CODetector\sevenSegment3DigitComplex\SevenSegment3DigitComplex.c"
1305  011A  2000     R  	call _ziroDigit1
1305  011B  2800     R  	jmp _L43
1305  011C              _L68:
1306  011C              #line 1306 "C:\Users\Tech\Desktop\CODetector\sevenSegment3DigitComplex\SevenSegment3DigitComplex.c"
1306  011C  2000     R  	call _oneDigit1
1306  011D  2800     R  	jmp _L43
1306  011E              _L69:
1307  011E              #line 1307 "C:\Users\Tech\Desktop\CODetector\sevenSegment3DigitComplex\SevenSegment3DigitComplex.c"
1307  011E  2000     R  	call _towDigit1
1307  011F  2800     R  	jmp _L43
1307  0120              _L70:
1308  0120              #line 1308 "C:\Users\Tech\Desktop\CODetector\sevenSegment3DigitComplex\SevenSegment3DigitComplex.c"
1308  0120  2000     R  	call _threeDigit1
1308  0121  2800     R  	jmp _L43
1308  0122              _L71:
1309  0122              #line 1309 "C:\Users\Tech\Desktop\CODetector\sevenSegment3DigitComplex\SevenSegment3DigitComplex.c"
1309  0122  2000     R  	call _fourDigit1
1309  0123  2800     R  	jmp _L43
1309  0124              _L72:
1310  0124              #line 1310 "C:\Users\Tech\Desktop\CODetector\sevenSegment3DigitComplex\SevenSegment3DigitComplex.c"
"File: SevenSegment3DigitComplex.c  Assembler  Version HGASM0202      Page 138

1310  0124  2000     R  	call _fiveDigit1
1310  0125  2800     R  	jmp _L43
1310  0126              _L73:
1311  0126              #line 1311 "C:\Users\Tech\Desktop\CODetector\sevenSegment3DigitComplex\SevenSegment3DigitComplex.c"
1311  0126  2000     R  	call _sixDigit1
1311  0127  2800     R  	jmp _L43
1311  0128              _L74:
1312  0128              #line 1312 "C:\Users\Tech\Desktop\CODetector\sevenSegment3DigitComplex\SevenSegment3DigitComplex.c"
1312  0128  2000     R  	call _sevenDigit1
1312  0129  2800     R  	jmp _L43
1312  012A              _L75:
1313  012A              #line 1313 "C:\Users\Tech\Desktop\CODetector\sevenSegment3DigitComplex\SevenSegment3DigitComplex.c"
1313  012A  2000     R  	call _eightDigit1
1313  012B              _L43:
1322  012B              #line 1322 "C:\Users\Tech\Desktop\CODetector\sevenSegment3DigitComplex\SevenSegment3DigitComplex.c"
1322  012B  0700     R  	mov a,_shwoSegment_2[4]  
1322  012C  0080     E  	mov _builtin_holtek_udivmodqi4_2[0],a
1322  012D  0F0A        	mov a,10  
1322  012E  0080     E  	mov _builtin_holtek_udivmodqi4_2[1],a
1322  012F  2000     E  	call _builtin_holtek_divmodqi4
1322  0130  0700     E  	mov a,_builtin_holtek_udivmodqi4_2[0]  
1322  0131  0080     R  	mov _shwoSegment_2[4],a
1249  0132              #line 1249 "C:\Users\Tech\Desktop\CODetector\sevenSegment3DigitComplex\SevenSegment3DigitComplex.c"
1249  0132  0FFF        	mov a,255
1249  0133  0380     R  	addm a,_shwoSegment_2[2]
1249  0134  0FFF        	mov a,255
1249  0135  1380     R  	adcm a,_shwoSegment_2[3]
1249  0136  0700     R  	mov a,_shwoSegment_2[2]
1249  0137  0600     R  	and a,_shwoSegment_2[3]
1249  0138  0B01        	add a,1
1249  0139  380A        	snz c
1249  013A  2800     R  	jmp _L78
1249  013B  2800     R  	jmp _L37
1249  013C              _L39:
1249  013C  0F01        	mov a,1
1249  013D  0080     E  	mov ra,a
1249  013E  1F00     E  	clr rb
1249  013F              _L37:
1249  013F  0003        	ret
1249  0140              _shwoSegment endp
1249  0140              #line 1249 "C:\Users\Tech\Desktop\CODetector\sevenSegment3DigitComplex\SevenSegment3DigitComplex.c"
1249  0140              #pragma debug scope 1 1
1249  0140              #pragma debug struct_end
1249  0140              #pragma debug struct_end
1249  0140              #pragma debug union_end
1249  0140              #pragma debug union_end
1249  0140              #pragma debug variable 43 1 ___pa "__pa" 1
1249  0140              #pragma debug struct_end
1249  0140              #pragma debug struct_end
1249  0140              #pragma debug union_end
1249  0140              #pragma debug union_end
1249  0140              #pragma debug variable 45 1 ___pac "__pac" 1
1249  0140              #pragma debug struct_end
1249  0140              #pragma debug struct_end
1249  0140              #pragma debug union_end
1249  0140              #pragma debug union_end
1249  0140              #pragma debug variable 47 1 ___pb "__pb" 1
1249  0140              #pragma debug struct_end
1249  0140              #pragma debug struct_end
1249  0140              #pragma debug union_end
"File: SevenSegment3DigitComplex.c  Assembler  Version HGASM0202      Page 139

1249  0140              #pragma debug union_end
1249  0140              #pragma debug variable 49 1 ___pbc "__pbc" 1
1249  0140              extern _builtin_holtek_divmodhi4:near
1249  0140              extern _builtin_holtek_udivmodhi4_2:byte
1249  0140              extern _builtin_holtek_udivmodhi4:near
1249  0140              extern _builtin_holtek_mulhi3_2:byte
1249  0140              extern _builtin_holtek_mulhi3:near
1249  0140              extern _builtin_holtek_divmodqi4:near
1249  0140              extern _builtin_holtek_udivmodqi4_2:byte
1249  0140              extern _builtin_holtek_udivmodqi4:near
1249  0140              
1249  0140              ; 
1249  0140              ; Generated by holtek-gcc v3.19, Sun Aug 27 10:54:55 2023
1249  0140              ; Rebuild 718
1249  0140              ; end of file


        0 Errors, 0