"File: ADC.c         Assembler  Version HGASM0202      Page 1


   1  0000              ; Generated by holtek-gcc v3.19, Sun Oct 01 18:33:21 2023
   2  0000              ; 
   3  0000              ; Configuration:
   4  0000              ;       with long instruction
   5  0000              ;       Single ROM, Multi-RAM
   6  0000              ;       bits_per_rom_unit:16
   7  0000              ;       with mp1
   8  0000              ;       with tbhp, address(0x9)
   9  0000              ;          Use tabrd-const
  10  0000              ;       
  11  0000              ; SFR address of long-instruction arch:
  12  0000              ;    mp0 = -1,1,0
  13  0000              ;    mp1 = 4,3,2
  14  0000              ;    mp2 = 14,13,12
  15  0000              ;    tbp = 9,7,8
  16  0000              ;    acc = 5
  17  0000              ;    pcl = 6
  18  0000              ;    status = 10
  19  0000              ;    bp = 11
  20  0000              ;    intc = 72
  21  0000              ;       
  22  0000              ;       
  23  0000              ; use 'tabrdc' instead of 'tabrd'
  24  0000              ;       
  25  0000              
  26  0000              #pragma translator "holtek-gcc 4.6.4" "3.19" "build 20130711"
  27  0000              ; Rebuild 718
  28  0000              
  29  0000              ir equ [2]
  30  0000              mp equ [3]
  31  0000              sbp equ [4]
  32  0000              acc equ [5]
  33  0000              bp equ [11]
  34  0000              tblp equ [7]
  35  0000              tbhp equ [9]
  36  0000              status equ [10]
  37  0000              c equ [10].0
  38  0000              ac equ [10].1
  39  0000              z equ [10].2
  40  0000              ov equ [10].3
  41  0000              cz equ [10].6
  42  0000              sc equ [10].7
  43  0000              intc equ [72]
  44  0000              
  45  0000              extern ra:byte
  46  0000              extern rb:byte
  47  0000              extern rc:byte
  48  0000              extern rd:byte
  49  0000              extern re:byte
  50  0000              extern rf:byte
  51  0000              extern rg:byte
  52  0000              extern rh:byte
  53  0000              extern _Crom2Prom:near
  54  0000              extern _Crom2PromNext:near
  55  0000              
  56  0000              RAMBANK 0 @BITDATASEC, @BITDATASEC1
  57  0000              @HCCINIT	.section 'data'
  58  0000              @HCCINIT0	.section 'data'
  59  0000              @BITDATASEC	 .section 'data'
"File: ADC.ASM       Assembler  Version HGASM0202      Page 2

  60  0000              @BITDATASEC1	 .section 'data'
  61  0000              
  62  0000              #pragma debug scope 1 1
  63  0000              	extern __DELAY3:near
  64  0000              	extern __DELAYX3:near
  65  0000              	extern __DELAYX6:near
  66  0000              	extern __DELAYY5:near
  67  0000              	extern __DELAYY3:near
  68  0000              	extern _builtin_holtek_delay_2:byte
  69  0000              ___sadc0 equ [47]
  70  0000              ___sadc1 equ [48]
  71  0000              ___intc1 equ [73]
  72  0000              public _S_ADC_Init
  73  0000              #pragma debug scope 2 1

   9  0000              #line 9 "c:\users\tech\desktop\codetector\ADC\ADC.c"
   9  0000              _S_ADC_Init .section 'code'
   9  0000              _S_ADC_Init proc
  11  0000              #line 11 "c:\users\tech\desktop\codetector\ADC\ADC.c"
  11  0000  0F07        	mov a,7
  11  0001  00AF        	mov [47],a
  12  0002              #line 12 "c:\users\tech\desktop\codetector\ADC\ADC.c"
  12  0002  0F6B        	mov a,107
  12  0003  00B0        	mov [48],a
  13  0004              #line 13 "c:\users\tech\desktop\codetector\ADC\ADC.c"
  13  0004  3549        	clr [73].2
  13  0005  0003        	ret
  13  0006              _S_ADC_Init endp
  13  0006              #line 13 "c:\users\tech\desktop\codetector\ADC\ADC.c"
  13  0006              #pragma debug scope 1 1
  13  0006              ___sadol equ [45]
  13  0006              ___sadoh equ [46]
  13  0006              public _S_READ_ADC
  13  0006              #pragma debug scope 3 1
  26  0006              #line 26 "c:\users\tech\desktop\codetector\ADC\ADC.c"
  26  0000              _S_READ_ADC .section 'code'
  26  0000              _S_READ_ADC proc
  26  0000  00              local _S_READ_ADC_2 db 1 dup(?)	; 0,1
  26  0000  0080     E  	mov ra,a
  26  0001  0080     R  	mov _S_READ_ADC_2[0],a
  26  0002              #pragma debug variable 8 3 _S_READ_ADC_2+0 "CH"
  30  0002              #line 30 "c:\users\tech\desktop\codetector\ADC\ADC.c"
  30  0002  0700     E  	mov a,ra
  30  0003  0A00        	sub a,0
  30  0004  3D0A        	sz z
  30  0005  2800     R  	jmp _L4
  30  0006  0A01        	sub a,(1)-(0)
  30  0007  3D0A        	sz z
  30  0008  2800     R  	jmp _L5
  30  0009              #line 30 "c:\users\tech\desktop\codetector\ADC\ADC.c"
  30  0009  0700     E  	mov a,ra
  30  000A  0A02        	sub a,2
  30  000B  3D0A        	sz z
  30  000C  2800     R  	jmp _L6
  30  000D  0A01        	sub a,(3)-(2)
  30  000E  3D0A        	sz z
  30  000F  2800     R  	jmp _L7
  30  0010  0700     E  	mov a,ra
  30  0011  0A04        	sub a,4
  30  0012  3D0A        	sz z
"File: ADC.c         Assembler  Version HGASM0202      Page 3

  30  0013  2800     R  	jmp _L8
  30  0014  0A01        	sub a,(5)-(4)
  30  0015  3D0A        	sz z
  30  0016  2800     R  	jmp _L9
  30  0017  0700     E  	mov a,ra
  30  0018  0A06        	sub a,6
  30  0019  3D0A        	sz z
  30  001A  2800     R  	jmp _L10
  30  001B  0700     E  	mov a,ra
  30  001C  0A07        	sub a,7
  30  001D  390A        	snz z
  30  001E  2800     R  	jmp _L3
  54  001F              #line 54 "c:\users\tech\desktop\codetector\ADC\ADC.c"
  54  001F  0F83        	mov a,131
  54  0020  00B0        	mov [48],a
  54  0021  2800     R  	jmp _L16
  54  0022              _L4:
  33  0022              #line 33 "c:\users\tech\desktop\codetector\ADC\ADC.c"
  33  0022  0F03        	mov a,3
  33  0023  00B0        	mov [48],a
  33  0024  1F2F        	clr [47]
  34  0025              #line 34 "c:\users\tech\desktop\codetector\ADC\ADC.c"
  34  0025  2800     R  	jmp _L3
  34  0026              _L5:
  36  0026              #line 36 "c:\users\tech\desktop\codetector\ADC\ADC.c"
  36  0026  0F09        	mov a,9
  36  0027  00B0        	mov [48],a
  36  0028  0F01        	mov a,1
  36  0029  00AF        	mov [47],a
  37  002A              #line 37 "c:\users\tech\desktop\codetector\ADC\ADC.c"
  37  002A  2800     R  	jmp _L3
  37  002B              _L6:
  39  002B              #line 39 "c:\users\tech\desktop\codetector\ADC\ADC.c"
  39  002B  0F03        	mov a,3
  39  002C  00B0        	mov [48],a
  39  002D  0F02        	mov a,2
  39  002E  00AF        	mov [47],a
  40  002F              #line 40 "c:\users\tech\desktop\codetector\ADC\ADC.c"
  40  002F  2800     R  	jmp _L3
  40  0030              _L7:
  42  0030              #line 42 "c:\users\tech\desktop\codetector\ADC\ADC.c"
  42  0030  0F03        	mov a,3
  42  0031  00B0        	mov [48],a
  42  0032  0F03        	mov a,3
  42  0033  00AF        	mov [47],a
  43  0034              #line 43 "c:\users\tech\desktop\codetector\ADC\ADC.c"
  43  0034  2800     R  	jmp _L3
  43  0035              _L8:
  45  0035              #line 45 "c:\users\tech\desktop\codetector\ADC\ADC.c"
  45  0035  0F2B        	mov a,43
  45  0036  00B0        	mov [48],a
  45  0037  0F17        	mov a,23
  45  0038  00AF        	mov [47],a
  46  0039              #line 46 "c:\users\tech\desktop\codetector\ADC\ADC.c"
  46  0039  2800     R  	jmp _L3
  46  003A              _L9:
  48  003A              #line 48 "c:\users\tech\desktop\codetector\ADC\ADC.c"
  48  003A  0F4B        	mov a,75
  48  003B  00B0        	mov [48],a
  48  003C  2800     R  	jmp _L16
"File: ADC.c         Assembler  Version HGASM0202      Page 4

  48  003D              _L10:
  51  003D              #line 51 "c:\users\tech\desktop\codetector\ADC\ADC.c"
  51  003D  0F6B        	mov a,107
  51  003E  00B0        	mov [48],a
  51  003F              _L16:
  54  003F              #line 54 "c:\users\tech\desktop\codetector\ADC\ADC.c"
  54  003F  0F07        	mov a,7
  54  0040  00AF        	mov [47],a
  54  0041              _L3:
  60  0041              #line 60 "c:\users\tech\desktop\codetector\ADC\ADC.c"
  60  0041  32AF        	set [47].5
  61  0042              #line 61 "c:\users\tech\desktop\codetector\ADC\ADC.c"
  61  0042              ;# 61 "c:\users\tech\desktop\codetector\ADC\ADC.c" 1
  61  0042              	IF 12>263690
  61  0042              ;# 61 "c:\users\tech\desktop\codetector\ADC\ADC.c" 1
  61  0042              	ERRMESSAGE 'the value 12of the argument exceeds the maxinum 263690'
  61  0042              	ENDIF
  61  0042              ;# 61 "c:\users\tech\desktop\codetector\ADC\ADC.c" 1
  61  0042              	IF 12<0
  61  0042              ;# 61 "c:\users\tech\desktop\codetector\ADC\ADC.c" 1
  61  0042              	ERRMESSAGE 'the value 12 of the argument exceeds the mininum 0'
  61  0042              	ENDIF
  61  0042              ;# 61 "c:\users\tech\desktop\codetector\ADC\ADC.c" 1
  61  0042              	IF 12==0
  61  0042              ;# 61 "c:\users\tech\desktop\codetector\ADC\ADC.c" 1
  61  0042              	JMP $
  61  0042              	ENDIF
  61  0042              ;# 61 "c:\users\tech\desktop\codetector\ADC\ADC.c" 1
  61  0042              	IF 12==1
  61  0042              ;# 61 "c:\users\tech\desktop\codetector\ADC\ADC.c" 1
  61  0042              	NOP
  61  0042              	ENDIF
  61  0042              ;# 61 "c:\users\tech\desktop\codetector\ADC\ADC.c" 1
  61  0042              	IF 12==2
  61  0042              ;# 61 "c:\users\tech\desktop\codetector\ADC\ADC.c" 1
  61  0042              	NOP
  61  0042              ;# 61 "c:\users\tech\desktop\codetector\ADC\ADC.c" 1
  61  0042              	NOP
  61  0042              	ENDIF
  61  0042              ;# 61 "c:\users\tech\desktop\codetector\ADC\ADC.c" 1
  61  0042              	IF 12==3
  61  0042              ;# 61 "c:\users\tech\desktop\codetector\ADC\ADC.c" 1
  61  0042              	NOP
  61  0042              ;# 61 "c:\users\tech\desktop\codetector\ADC\ADC.c" 1
  61  0042              	NOP
  61  0042              ;# 61 "c:\users\tech\desktop\codetector\ADC\ADC.c" 1
  61  0042              	NOP
  61  0042              	ENDIF
  61  0042              ;# 61 "c:\users\tech\desktop\codetector\ADC\ADC.c" 1
  61  0042              	IF (12<8) AND (12>3)
  61  0042              ;# 61 "c:\users\tech\desktop\codetector\ADC\ADC.c" 1
  61  0042              	CALL __DELAY3 + 7 -12
  61  0042              	ENDIF
  61  0042              ;# 61 "c:\users\tech\desktop\codetector\ADC\ADC.c" 1
  61  0042              	IF (12< 0404h) AND (12>7)
  61  0042              ;# 61 "c:\users\tech\desktop\codetector\ADC\ADC.c" 1
  61  0042  0F02        	MOV A,12/4-1
  61  0043              ;# 61 "c:\users\tech\desktop\codetector\ADC\ADC.c" 1
  61  0043  2000     E  	CALL __DELAYX3 + 3 -(12 MOD 4)
  61  0044              	ENDIF
"File: ADC.c         Assembler  Version HGASM0202      Page 5

  61  0044              ;# 61 "c:\users\tech\desktop\codetector\ADC\ADC.c" 1
  61  0044              	IF (12< 0x40B) AND (12> 0403h)
  61  0044              ;# 61 "c:\users\tech\desktop\codetector\ADC\ADC.c" 1
  61  0044              	MOV A,0 
  61  0044              ;# 61 "c:\users\tech\desktop\codetector\ADC\ADC.c" 1
  61  0044              	CALL __DELAYX6 + 0x40a -12
  61  0044              	ENDIF
  61  0044              ;# 61 "c:\users\tech\desktop\codetector\ADC\ADC.c" 1
  61  0044              	IF (12 >= 0x40b) AND ((((12-9)%0402h)/4+1)>256)
  61  0044              ;# 61 "c:\users\tech\desktop\codetector\ADC\ADC.c" 1
  61  0044              	MOV A,(12-9)/0402h
  61  0044              ;# 61 "c:\users\tech\desktop\codetector\ADC\ADC.c" 1
  61  0044              	MOV _builtin_holtek_delay_2,A
  61  0044              ;# 61 "c:\users\tech\desktop\codetector\ADC\ADC.c" 1
  61  0044              	MOV A,0
  61  0044              ;# 61 "c:\users\tech\desktop\codetector\ADC\ADC.c" 1
  61  0044              	CALL __DELAYY5 +5- (((12-9)%0402h)%6)
  61  0044              	ENDIF
  61  0044              ;# 61 "c:\users\tech\desktop\codetector\ADC\ADC.c" 1
  61  0044              	IF (12 >= 0x40b) AND ((((12-9)%0402h)/4+1)<=256)
  61  0044              ;# 61 "c:\users\tech\desktop\codetector\ADC\ADC.c" 1
  61  0044              	MOV A,(12-9)/0402h
  61  0044              ;# 61 "c:\users\tech\desktop\codetector\ADC\ADC.c" 1
  61  0044              	MOV _builtin_holtek_delay_2,A
  61  0044              ;# 61 "c:\users\tech\desktop\codetector\ADC\ADC.c" 1
  61  0044              	MOV A,((12-9)%0402h)/4+1
  61  0044              ;# 61 "c:\users\tech\desktop\codetector\ADC\ADC.c" 1
  61  0044              	CALL __DELAYY3 +3-(((12-9)%0402h)%4)
  61  0044              	ENDIF
  62  0044              #line 62 "c:\users\tech\desktop\codetector\ADC\ADC.c"
  62  0044  37AF        	clr [47].7
  63  0045              #line 63 "c:\users\tech\desktop\codetector\ADC\ADC.c"
  63  0045  33AF        	set [47].7
  64  0046              #line 64 "c:\users\tech\desktop\codetector\ADC\ADC.c"
  64  0046  37AF        	clr [47].7
  64  0047              _L13:
  65  0047              #line 65 "c:\users\tech\desktop\codetector\ADC\ADC.c"
  65  0047  3F2F        	sz [47].6
  65  0048  2800     R  	jmp _L13
  66  0049              #line 66 "c:\users\tech\desktop\codetector\ADC\ADC.c"
  66  0049  36AF        	clr [47].5
  78  004A              #line 78 "c:\users\tech\desktop\codetector\ADC\ADC.c"
  78  004A  3A2F        	snz [47].4
  78  004B  2800     R  	jmp _L14
  80  004C              #line 80 "c:\users\tech\desktop\codetector\ADC\ADC.c"
  80  004C  072E        	mov a,[46]
  80  004D  0080     E  	mov rc,a
  80  004E  1F00     E  	clr rb
  80  004F  0700     E  	mov a,rc
  80  0050  0080     E  	mov re,a
  80  0051  072D        	mov a,[45]
  80  0052  0500     E  	or a,rb
  80  0053  0080     E  	mov rd,a
  80  0054  0700     E  	mov a,rd
  80  0055  0080     E  	mov ra,a
  80  0056  0700     E  	mov a,re
  80  0057  0080     E  	mov rb,a
  80  0058  2800     R  	jmp _L15
  80  0059              _L14:
  82  0059              #line 82 "c:\users\tech\desktop\codetector\ADC\ADC.c"
"File: ADC.c         Assembler  Version HGASM0202      Page 6

  82  0059  072E        	mov a,[46]
  82  005A  0080     E  	mov rb,a
  82  005B  1F00     E  	clr rc
  82  005C  0F04        	mov a,4
  82  005D              _LI1:
  82  005D  340A        	clr c
  82  005E  1A80     E  	rlc rb
  82  005F  1A80     E  	rlc rc
  82  0060  1785        	sdz acc
  82  0061  2800     R  	jmp _LI1
  82  0062  112D        	swapa [45]
  82  0063  0E0F        	and a,0fh
  82  0064  0080     E  	mov rd,a
  82  0065  1F00     E  	clr re
  82  0066  0700     E  	mov a,rc
  82  0067  0500     E  	or a,re
  82  0068  0080     E  	mov rg,a
  82  0069  0700     E  	mov a,rb
  82  006A  0500     E  	or a,rd
  82  006B  0080     E  	mov rf,a
  82  006C  0700     E  	mov a,rf
  82  006D  0080     E  	mov ra,a
  82  006E  0700     E  	mov a,rg
  82  006F  0080     E  	mov rb,a
  82  0070              _L15:
  82  0070  0003        	ret
  82  0071              _S_READ_ADC endp
  82  0071              #line 82 "c:\users\tech\desktop\codetector\ADC\ADC.c"
  82  0071              #pragma debug scope 1 1
  82  0071              #pragma debug variable 8 1 ___sadol "__sadol" 1
  82  0071              #pragma debug variable 8 1 ___sadoh "__sadoh" 1
  82  0071              #pragma debug struct_end
  82  0071              #pragma debug struct_end
  82  0071              #pragma debug union_end
  82  0071              #pragma debug union_end
  82  0071              #pragma debug variable 43 1 ___sadc0 "__sadc0" 1
  82  0071              #pragma debug struct_end
  82  0071              #pragma debug struct_end
  82  0071              #pragma debug union_end
  82  0071              #pragma debug union_end
  82  0071              #pragma debug variable 45 1 ___sadc1 "__sadc1" 1
  82  0071              #pragma debug struct_end
  82  0071              #pragma debug struct_end
  82  0071              #pragma debug union_end
  82  0071              #pragma debug union_end
  82  0071              #pragma debug variable 47 1 ___intc1 "__intc1" 1
  82  0071              
  82  0071              ; 
  82  0071              ; Generated by holtek-gcc v3.19, Sun Oct 01 18:33:21 2023
  82  0071              ; Rebuild 718
  82  0071              ; end of file


        0 Errors, 0