"File: CO.c          Assembler  Version HGASM0202      Page 1


   1  0000              ; Generated by holtek-gcc v3.19, Mon Oct 09 18:01:45 2023
   2  0000              ; 
   3  0000              ; Configuration:
   4  0000              ;       with long instruction
   5  0000              ;       Single ROM, Multi-RAM
   6  0000              ;       bits_per_rom_unit:16
   7  0000              ;       with mp1
   8  0000              ;       with tbhp, address(0x9)
   9  0000              ;          Use tabrd-const
  10  0000              ;       
  11  0000              ; SFR address of long-instruction arch:
  12  0000              ;    mp0 = -1,1,0
  13  0000              ;    mp1 = 4,3,2
  14  0000              ;    mp2 = 14,13,12
  15  0000              ;    tbp = 9,7,8
  16  0000              ;    acc = 5
  17  0000              ;    pcl = 6
  18  0000              ;    status = 10
  19  0000              ;    bp = 11
  20  0000              ;    intc = 72
  21  0000              ;       
  22  0000              ;       
  23  0000              ; use 'tabrdc' instead of 'tabrd'
  24  0000              ;       
  25  0000              
  26  0000              #pragma translator "holtek-gcc 4.6.4" "3.19" "build 20130711"
  27  0000              ; Rebuild 718
  28  0000              
  29  0000              ir equ [2]
  30  0000              mp equ [3]
  31  0000              sbp equ [4]
  32  0000              acc equ [5]
  33  0000              bp equ [11]
  34  0000              tblp equ [7]
  35  0000              tbhp equ [9]
  36  0000              status equ [10]
  37  0000              c equ [10].0
  38  0000              ac equ [10].1
  39  0000              z equ [10].2
  40  0000              ov equ [10].3
  41  0000              cz equ [10].6
  42  0000              sc equ [10].7
  43  0000              intc equ [72]
  44  0000              
  45  0000              extern ra:byte
  46  0000              extern rb:byte
  47  0000              extern rc:byte
  48  0000              extern rd:byte
  49  0000              extern re:byte
  50  0000              extern rf:byte
  51  0000              extern rg:byte
  52  0000              extern rh:byte
  53  0000              extern _Crom2Prom:near
  54  0000              extern _Crom2PromNext:near
  55  0000              
  56  0000              RAMBANK 0 @BITDATASEC, @BITDATASEC1
  57  0000              @HCCINIT	.section 'data'
  58  0000              @HCCINIT0	.section 'data'
  59  0000              @BITDATASEC	 .section 'data'
"File: CO.ASM        Assembler  Version HGASM0202      Page 2

  60  0000              @BITDATASEC1	 .section 'data'
  61  0000              
  62  0000              #pragma debug scope 1 1
  63  0000              	extern __DELAY3:near
  64  0000              	extern __DELAYX3:near
  65  0000              	extern __DELAYX6:near
  66  0000              	extern __DELAYY5:near
  67  0000              	extern __DELAYY3:near
  68  0000              	extern _builtin_holtek_delay_2:byte
  69  0000              public _ReadCO
  70  0000              #pragma debug scope 2 1

   3  0000              #line 3 "C:\Users\Tech\Desktop\CODetector\CO\CO.c"
   3  0000              _ReadCO .section 'code'
   3  0000              _ReadCO proc
   3  0000              public _ReadCO_2
   3  0000  000B[           local _ReadCO_2 db 11 dup(?)	; 7,4
            00
            ]
   3  000B              #pragma debug variable 28 2 _ReadCO_2+0 "VCC"
   3  000B              #pragma debug variable 12 2 _ReadCO_2+3 "ADCAmplifier"
   3  000B              #pragma debug variable 10 2 _ReadCO_2+5 "temperatur"
  12  000B              #line 12 "C:\Users\Tech\Desktop\CODetector\CO\CO.c"
  12  0000  0700     R  	mov a,_ReadCO_2[4]
  12  0001  0080     E  	mov _builtin_holtek_mant1[1],a
  12  0002  0700     R  	mov a,_ReadCO_2[3]
  12  0003  0080     E  	mov _builtin_holtek_mant1[0],a
  12  0004  3400     E  	clr _builtin_holtek_signs.0
  12  0005  2000     E  	call _builtin_holtek_uitof
  12  0006  0700     E  	mov a,_builtin_holtek_mant1[2]
  12  0007  0080     E  	mov rh,a
  12  0008  0700     E  	mov a,_builtin_holtek_mant1[1]
  12  0009  0080     E  	mov rg,a
  12  000A  0700     E  	mov a,_builtin_holtek_mant1[0]
  12  000B  0080     E  	mov rf,a
  12  000C  0700     R  	mov a,_ReadCO_2[2]
  12  000D  0080     E  	mov _builtin_holtek_mant1[2],a
  12  000E  0700     R  	mov a,_ReadCO_2[1]
  12  000F  0080     E  	mov _builtin_holtek_mant1[1],a
  12  0010  0700     R  	mov a,_ReadCO_2[0]
  12  0011  0080     E  	mov _builtin_holtek_mant1[0],a
  12  0012  0F45        	mov a,69
  12  0013  0080     E  	mov _builtin_holtek_mant2[2],a
  12  0014  0F7F        	mov a,127
  12  0015  0080     E  	mov _builtin_holtek_mant2[1],a
  12  0016  0FF0        	mov a,240
  12  0017  0080     E  	mov _builtin_holtek_mant2[0],a
  12  0018  2000     E  	call _builtin_holtek_ftdiv
  12  0019  0700     E  	mov a,_builtin_holtek_mant1[2]
  12  001A  0080     E  	mov re,a
  12  001B  0700     E  	mov a,_builtin_holtek_mant1[1]
  12  001C  0080     E  	mov rd,a
  12  001D  0700     E  	mov a,_builtin_holtek_mant1[0]
  12  001E  0080     E  	mov rc,a
  12  001F  0700     E  	mov a,rh
  12  0020  0080     E  	mov _builtin_holtek_mant1[2],a
  12  0021  0700     E  	mov a,rg
  12  0022  0080     E  	mov _builtin_holtek_mant1[1],a
  12  0023  0700     E  	mov a,rf
  12  0024  0080     E  	mov _builtin_holtek_mant1[0],a
"File: CO.c          Assembler  Version HGASM0202      Page 3

  12  0025  0700     E  	mov a,re
  12  0026  0080     E  	mov _builtin_holtek_mant2[2],a
  12  0027  0700     E  	mov a,rd
  12  0028  0080     E  	mov _builtin_holtek_mant2[1],a
  12  0029  0700     E  	mov a,rc
  12  002A  0080     E  	mov _builtin_holtek_mant2[0],a
  12  002B  2000     E  	call _builtin_holtek_ftmul
  12  002C  0700     E  	mov a,_builtin_holtek_mant1[2]
  12  002D  0080     E  	mov re,a
  12  002E  0700     E  	mov a,_builtin_holtek_mant1[1]
  12  002F  0080     E  	mov rd,a
  12  0030  0700     E  	mov a,_builtin_holtek_mant1[0]
  12  0031  0080     E  	mov rc,a
  13  0032              #line 13 "C:\Users\Tech\Desktop\CODetector\CO\CO.c"
  13  0032  0700     E  	mov a,re
  13  0033  0080     E  	mov rg,a
  13  0034  0700     E  	mov a,rd
  13  0035  0080     E  	mov rf,a
  13  0036  0700     E  	mov a,rc
  13  0037  0080     E  	mov re,a
  13  0038  1F00     E  	clr rd
  13  0039  0700     E  	mov a,rg
  13  003A  0080     E  	mov _builtin_holtek_mant12p[0],a
  13  003B  0700     E  	mov a,rf
  13  003C  0080     E  	mov _builtin_holtek_mant1[2],a
  13  003D  0700     E  	mov a,re
  13  003E  0080     E  	mov _builtin_holtek_mant1[1],a
  13  003F  0700     E  	mov a,rd
  13  0040  0080     E  	mov _builtin_holtek_mant1[0],a
  13  0041  0F40        	mov a,64
  13  0042  0080     E  	mov _builtin_holtek_mant12p[1],a
  13  0043  0FF5        	mov a,245
  13  0044  0080     E  	mov _builtin_holtek_mant2[2],a
  13  0045  0F55        	mov a,85
  13  0046  0080     E  	mov _builtin_holtek_mant2[1],a
  13  0047  0F55        	mov a,85
  13  0048  0080     E  	mov _builtin_holtek_mant2[0],a
  13  0049  2000     E  	call _builtin_holtek_dtdiv
  13  004A  0700     E  	mov a,_builtin_holtek_mant12p[0]
  13  004B  0080     E  	mov rg,a
  13  004C  0700     E  	mov a,_builtin_holtek_mant1[2]
  13  004D  0080     E  	mov rf,a
  13  004E  0700     E  	mov a,_builtin_holtek_mant1[1]
  13  004F  0080     E  	mov re,a
  13  0050  0700     E  	mov a,_builtin_holtek_mant1[0]
  13  0051  0080     E  	mov rd,a
  13  0052  0700     E  	mov a,rg
  13  0053  0080     E  	mov _builtin_holtek_mant12p[0],a
  13  0054  0700     E  	mov a,rf
  13  0055  0080     E  	mov _builtin_holtek_mant1[2],a
  13  0056  0700     E  	mov a,re
  13  0057  0080     E  	mov _builtin_holtek_mant1[1],a
  13  0058  0700     E  	mov a,rd
  13  0059  0080     E  	mov _builtin_holtek_mant1[0],a
  13  005A  0F44        	mov a,68
  13  005B  0080     E  	mov _builtin_holtek_mant12p[1],a
  13  005C  0F7A        	mov a,122
  13  005D  0080     E  	mov _builtin_holtek_mant2[2],a
  13  005E  0F00        	mov a,0
  13  005F  0080     E  	mov _builtin_holtek_mant2[1],a
"File: CO.c          Assembler  Version HGASM0202      Page 4

  13  0060  0F00        	mov a,0
  13  0061  0080     E  	mov _builtin_holtek_mant2[0],a
  13  0062  2000     E  	call _builtin_holtek_dtmul
  13  0063  0700     E  	mov a,_builtin_holtek_mant12p[0]
  13  0064  0080     E  	mov rg,a
  13  0065  0700     E  	mov a,_builtin_holtek_mant1[2]
  13  0066  0080     E  	mov rf,a
  13  0067  0700     E  	mov a,_builtin_holtek_mant1[1]
  13  0068  0080     E  	mov re,a
  13  0069  0700     E  	mov a,_builtin_holtek_mant1[0]
  13  006A  0080     E  	mov rd,a
  13  006B  0700     E  	mov a,rg
  13  006C  0080     E  	mov _builtin_holtek_mant12p[0],a
  13  006D  0700     E  	mov a,rf
  13  006E  0080     E  	mov _builtin_holtek_mant1[2],a
  13  006F  0700     E  	mov a,re
  13  0070  0080     E  	mov _builtin_holtek_mant1[1],a
  13  0071  0700     E  	mov a,rd
  13  0072  0080     E  	mov _builtin_holtek_mant1[0],a
  13  0073  0F41        	mov a,65
  13  0074  0080     E  	mov _builtin_holtek_mant12p[1],a
  13  0075  0F70        	mov a,112
  13  0076  0080     E  	mov _builtin_holtek_mant2[2],a
  13  0077  0F00        	mov a,0
  13  0078  0080     E  	mov _builtin_holtek_mant2[1],a
  13  0079  0F00        	mov a,0
  13  007A  0080     E  	mov _builtin_holtek_mant2[0],a
  13  007B  2000     E  	call _builtin_holtek_dtdiv
  13  007C  0700     E  	mov a,_builtin_holtek_mant12p[0]
  13  007D  0080     E  	mov rg,a
  13  007E  0700     E  	mov a,_builtin_holtek_mant1[2]
  13  007F  0080     E  	mov rf,a
  13  0080  0700     E  	mov a,_builtin_holtek_mant1[1]
  13  0081  0080     E  	mov re,a
  13  0082  0700     E  	mov a,_builtin_holtek_mant1[0]
  13  0083  0080     E  	mov rd,a
  13  0084  0700     E  	mov a,rg
  13  0085  0080     E  	mov _builtin_holtek_mant12p[0],a
  13  0086  0700     E  	mov a,rf
  13  0087  0080     E  	mov _builtin_holtek_mant1[2],a
  13  0088  0700     E  	mov a,re
  13  0089  0080     E  	mov _builtin_holtek_mant1[1],a
  13  008A  0700     E  	mov a,rd
  13  008B  0080     E  	mov _builtin_holtek_mant1[0],a
  13  008C  0F44        	mov a,68
  13  008D  0080     E  	mov _builtin_holtek_mant12p[1],a
  13  008E  0F7A        	mov a,122
  13  008F  0080     E  	mov _builtin_holtek_mant2[2],a
  13  0090  0F00        	mov a,0
  13  0091  0080     E  	mov _builtin_holtek_mant2[1],a
  13  0092  0F00        	mov a,0
  13  0093  0080     E  	mov _builtin_holtek_mant2[0],a
  13  0094  2000     E  	call _builtin_holtek_dtmul
  13  0095  0700     E  	mov a,_builtin_holtek_mant12p[0]
  13  0096  0080     E  	mov rg,a
  13  0097  0700     E  	mov a,_builtin_holtek_mant1[2]
  13  0098  0080     E  	mov rf,a
  13  0099  0700     E  	mov a,_builtin_holtek_mant1[1]
  13  009A  0080     E  	mov re,a
  13  009B  0700     E  	mov a,_builtin_holtek_mant1[0]
"File: CO.c          Assembler  Version HGASM0202      Page 5

  13  009C  0080     E  	mov rd,a
  13  009D  0700     E  	mov a,rg
  13  009E  0080     E  	mov _builtin_holtek_mant12p[0],a
  13  009F  0700     E  	mov a,rf
  13  00A0  0080     E  	mov _builtin_holtek_mant1[2],a
  13  00A1  0700     E  	mov a,re
  13  00A2  0080     E  	mov _builtin_holtek_mant1[1],a
  13  00A3  0700     E  	mov a,rd
  13  00A4  0080     E  	mov _builtin_holtek_mant1[0],a
  13  00A5  0F3D        	mov a,61
  13  00A6  0080     E  	mov _builtin_holtek_mant12p[1],a
  13  00A7  0F23        	mov a,35
  13  00A8  0080     E  	mov _builtin_holtek_mant2[2],a
  13  00A9  0FD7        	mov a,215
  13  00AA  0080     E  	mov _builtin_holtek_mant2[1],a
  13  00AB  0F0A        	mov a,10
  13  00AC  0080     E  	mov _builtin_holtek_mant2[0],a
  13  00AD  2000     E  	call _builtin_holtek_dtmul
  13  00AE  0700     E  	mov a,_builtin_holtek_mant12p[0]
  13  00AF  0080     E  	mov rg,a
  13  00B0  0700     E  	mov a,_builtin_holtek_mant1[2]
  13  00B1  0080     E  	mov rf,a
  13  00B2  0700     E  	mov a,_builtin_holtek_mant1[1]
  13  00B3  0080     E  	mov re,a
  13  00B4  0700     E  	mov a,_builtin_holtek_mant1[0]
  13  00B5  0080     E  	mov rd,a
  13  00B6  0700     E  	mov a,rg
  13  00B7  0080     E  	mov _builtin_holtek_mant12p[0],a
  13  00B8  0700     E  	mov a,rf
  13  00B9  0080     E  	mov _builtin_holtek_mant1[2],a
  13  00BA  0700     E  	mov a,re
  13  00BB  0080     E  	mov _builtin_holtek_mant1[1],a
  13  00BC  0700     E  	mov a,rd
  13  00BD  0080     E  	mov _builtin_holtek_mant1[0],a
  13  00BE  2000     E  	call _builtin_holtek_dtol
  13  00BF  0700     E  	mov a,_builtin_holtek_mant12p[0]
  13  00C0  0080     E  	mov rg,a
  13  00C1  0700     E  	mov a,_builtin_holtek_mant1[2]
  13  00C2  0080     E  	mov rf,a
  13  00C3  0700     E  	mov a,_builtin_holtek_mant1[1]
  13  00C4  0080     E  	mov re,a
  13  00C5  0700     E  	mov a,_builtin_holtek_mant1[0]
  13  00C6  0080     E  	mov rd,a
  19  00C7              #line 19 "C:\Users\Tech\Desktop\CODetector\CO\CO.c"
  19  00C7  0F13        	mov a,19
  19  00C8  0200     R  	sub a,_ReadCO_2[5]
  19  00C9  0F00        	mov a,0
  19  00CA  1200     R  	sbc a,_ReadCO_2[6]
  19  00CB  380A        	snz c
  19  00CC  2800     R  	jmp _L2
  21  00CD              #line 21 "C:\Users\Tech\Desktop\CODetector\CO\CO.c"
  21  00CD  0700     R  	mov a,_ReadCO_2[6]
  21  00CE  0080     E  	mov _builtin_holtek_mant1[1],a
  21  00CF  0700     R  	mov a,_ReadCO_2[5]
  21  00D0  0080     E  	mov _builtin_holtek_mant1[0],a
  21  00D1  2000     E  	call _builtin_holtek_itod
  21  00D2  0700     E  	mov a,_builtin_holtek_mant12p[0]
  21  00D3  0080     R  	mov _ReadCO_2[10],a
  21  00D4  0700     E  	mov a,_builtin_holtek_mant1[2]
  21  00D5  0080     R  	mov _ReadCO_2[9],a
"File: CO.c          Assembler  Version HGASM0202      Page 6

  21  00D6  0700     E  	mov a,_builtin_holtek_mant1[1]
  21  00D7  0080     R  	mov _ReadCO_2[8],a
  21  00D8  0700     E  	mov a,_builtin_holtek_mant1[0]
  21  00D9  0080     R  	mov _ReadCO_2[7],a
  21  00DA  0700     R  	mov a,_ReadCO_2[10]
  21  00DB  0080     E  	mov _builtin_holtek_mant12p[0],a
  21  00DC  0700     R  	mov a,_ReadCO_2[9]
  21  00DD  0080     E  	mov _builtin_holtek_mant1[2],a
  21  00DE  0700     R  	mov a,_ReadCO_2[8]
  21  00DF  0080     E  	mov _builtin_holtek_mant1[1],a
  21  00E0  0700     R  	mov a,_ReadCO_2[7]
  21  00E1  0080     E  	mov _builtin_holtek_mant1[0],a
  21  00E2  0F3E        	mov a,62
  21  00E3  0080     E  	mov _builtin_holtek_mant12p[1],a
  21  00E4  0F80        	mov a,128
  21  00E5  0080     E  	mov _builtin_holtek_mant2[2],a
  21  00E6  0F00        	mov a,0
  21  00E7  0080     E  	mov _builtin_holtek_mant2[1],a
  21  00E8  0F00        	mov a,0
  21  00E9  0080     E  	mov _builtin_holtek_mant2[0],a
  21  00EA  2000     E  	call _builtin_holtek_dtmul
  21  00EB  0700     E  	mov a,_builtin_holtek_mant12p[0]
  21  00EC  0080     R  	mov _ReadCO_2[10],a
  21  00ED  0700     E  	mov a,_builtin_holtek_mant1[2]
  21  00EE  0080     R  	mov _ReadCO_2[9],a
  21  00EF  0700     E  	mov a,_builtin_holtek_mant1[1]
  21  00F0  0080     R  	mov _ReadCO_2[8],a
  21  00F1  0700     E  	mov a,_builtin_holtek_mant1[0]
  21  00F2  0080     R  	mov _ReadCO_2[7],a
  21  00F3  0700     R  	mov a,_ReadCO_2[10]
  21  00F4  0080     E  	mov _builtin_holtek_mant12p[0],a
  21  00F5  0700     R  	mov a,_ReadCO_2[9]
  21  00F6  0080     E  	mov _builtin_holtek_mant1[2],a
  21  00F7  0700     R  	mov a,_ReadCO_2[8]
  21  00F8  0080     E  	mov _builtin_holtek_mant1[1],a
  21  00F9  0700     R  	mov a,_ReadCO_2[7]
  21  00FA  0080     E  	mov _builtin_holtek_mant1[0],a
  21  00FB  0F42        	mov a,66
  21  00FC  0080     E  	mov _builtin_holtek_mant12p[1],a
  21  00FD  0F96        	mov a,150
  21  00FE  0080     E  	mov _builtin_holtek_mant2[2],a
  21  00FF  0F00        	mov a,0
  21  0100  0080     E  	mov _builtin_holtek_mant2[1],a
  21  0101  0F00        	mov a,0
  21  0102  0080     E  	mov _builtin_holtek_mant2[0],a
  21  0103  2000     E  	call _builtin_holtek_dtadd
  21  0104  0700     E  	mov a,_builtin_holtek_mant12p[0]
  21  0105  0080     R  	mov _ReadCO_2[10],a
  21  0106  0700     E  	mov a,_builtin_holtek_mant1[2]
  21  0107  0080     R  	mov _ReadCO_2[9],a
  21  0108  0700     E  	mov a,_builtin_holtek_mant1[1]
  21  0109  0080     R  	mov _ReadCO_2[8],a
  21  010A  0700     E  	mov a,_builtin_holtek_mant1[0]
  21  010B  0080     R  	mov _ReadCO_2[7],a
  21  010C  2800     R  	jmp _L5
  21  010D              _L2:
  23  010D              #line 23 "C:\Users\Tech\Desktop\CODetector\CO\CO.c"
  23  010D  0FEC        	mov a,236
  23  010E  0300     R  	add a,_ReadCO_2[5]
  23  010F  0080     E  	mov rb,a
"File: CO.c          Assembler  Version HGASM0202      Page 7

  23  0110  0FFF        	mov a,255
  23  0111  1300     R  	adc a,_ReadCO_2[6]
  23  0112  0080     E  	mov rc,a
  23  0113  0F1D        	mov a,29
  23  0114  0200     E  	sub a,rb
  23  0115  0F00        	mov a,0
  23  0116  1200     E  	sbc a,rc
  23  0117  380A        	snz c
  23  0118  2800     R  	jmp _L4
  25  0119              #line 25 "C:\Users\Tech\Desktop\CODetector\CO\CO.c"
  25  0119  0700     E  	mov a,rc
  25  011A  0080     E  	mov _builtin_holtek_mant1[1],a
  25  011B  0700     E  	mov a,rb
  25  011C  0080     E  	mov _builtin_holtek_mant1[0],a
  25  011D  2000     E  	call _builtin_holtek_itod
  25  011E  0700     E  	mov a,_builtin_holtek_mant12p[0]
  25  011F  0080     R  	mov _ReadCO_2[10],a
  25  0120  0700     E  	mov a,_builtin_holtek_mant1[2]
  25  0121  0080     R  	mov _ReadCO_2[9],a
  25  0122  0700     E  	mov a,_builtin_holtek_mant1[1]
  25  0123  0080     R  	mov _ReadCO_2[8],a
  25  0124  0700     E  	mov a,_builtin_holtek_mant1[0]
  25  0125  0080     R  	mov _ReadCO_2[7],a
  25  0126  0700     R  	mov a,_ReadCO_2[10]
  25  0127  0080     E  	mov _builtin_holtek_mant12p[0],a
  25  0128  0700     R  	mov a,_ReadCO_2[9]
  25  0129  0080     E  	mov _builtin_holtek_mant1[2],a
  25  012A  0700     R  	mov a,_ReadCO_2[8]
  25  012B  0080     E  	mov _builtin_holtek_mant1[1],a
  25  012C  0700     R  	mov a,_ReadCO_2[7]
  25  012D  0080     E  	mov _builtin_holtek_mant1[0],a
  25  012E  0F3F        	mov a,63
  25  012F  0080     E  	mov _builtin_holtek_mant12p[1],a
  25  0130  0F95        	mov a,149
  25  0131  0080     E  	mov _builtin_holtek_mant2[2],a
  25  0132  0F53        	mov a,83
  25  0133  0080     E  	mov _builtin_holtek_mant2[1],a
  25  0134  0F26        	mov a,38
  25  0135  0080     E  	mov _builtin_holtek_mant2[0],a
  25  0136  2000     E  	call _builtin_holtek_dtmul
  25  0137  0700     E  	mov a,_builtin_holtek_mant12p[0]
  25  0138  0080     R  	mov _ReadCO_2[10],a
  25  0139  0700     E  	mov a,_builtin_holtek_mant1[2]
  25  013A  0080     R  	mov _ReadCO_2[9],a
  25  013B  0700     E  	mov a,_builtin_holtek_mant1[1]
  25  013C  0080     R  	mov _ReadCO_2[8],a
  25  013D  0700     E  	mov a,_builtin_holtek_mant1[0]
  25  013E  0080     R  	mov _ReadCO_2[7],a
  25  013F  0700     R  	mov a,_ReadCO_2[10]
  25  0140  0080     E  	mov _builtin_holtek_mant12p[0],a
  25  0141  0700     R  	mov a,_ReadCO_2[9]
  25  0142  0080     E  	mov _builtin_holtek_mant1[2],a
  25  0143  0700     R  	mov a,_ReadCO_2[8]
  25  0144  0080     E  	mov _builtin_holtek_mant1[1],a
  25  0145  0700     R  	mov a,_ReadCO_2[7]
  25  0146  0080     E  	mov _builtin_holtek_mant1[0],a
  25  0147  0F42        	mov a,66
  25  0148  0080     E  	mov _builtin_holtek_mant12p[1],a
  25  0149  0FC8        	mov a,200
  25  014A  0080     E  	mov _builtin_holtek_mant2[2],a
"File: CO.c          Assembler  Version HGASM0202      Page 8

  25  014B  0F00        	mov a,0
  25  014C  0080     E  	mov _builtin_holtek_mant2[1],a
  25  014D  0F00        	mov a,0
  25  014E  0080     E  	mov _builtin_holtek_mant2[0],a
  25  014F  2000     E  	call _builtin_holtek_dtadd
  25  0150  0700     E  	mov a,_builtin_holtek_mant12p[0]
  25  0151  0080     R  	mov _ReadCO_2[10],a
  25  0152  0700     E  	mov a,_builtin_holtek_mant1[2]
  25  0153  0080     R  	mov _ReadCO_2[9],a
  25  0154  0700     E  	mov a,_builtin_holtek_mant1[1]
  25  0155  0080     R  	mov _ReadCO_2[8],a
  25  0156  0700     E  	mov a,_builtin_holtek_mant1[0]
  25  0157  0080     R  	mov _ReadCO_2[7],a
  25  0158  2800     R  	jmp _L5
  25  0159              _L4:
  29  0159              #line 29 "C:\Users\Tech\Desktop\CODetector\CO\CO.c"
  29  0159  0FCE        	mov a,206
  29  015A  0300     R  	add a,_ReadCO_2[5]
  29  015B  0080     E  	mov rb,a
  29  015C  0FFF        	mov a,255
  29  015D  1300     R  	adc a,_ReadCO_2[6]
  29  015E  0080     E  	mov rc,a
  29  015F  0700     E  	mov a,rc
  29  0160  0080     E  	mov _builtin_holtek_mant1[1],a
  29  0161  0700     E  	mov a,rb
  29  0162  0080     E  	mov _builtin_holtek_mant1[0],a
  29  0163  3400     E  	clr _builtin_holtek_signs.0
  29  0164  2000     E  	call _builtin_holtek_uitod
  29  0165  0700     E  	mov a,_builtin_holtek_mant12p[0]
  29  0166  0080     R  	mov _ReadCO_2[10],a
  29  0167  0700     E  	mov a,_builtin_holtek_mant1[2]
  29  0168  0080     R  	mov _ReadCO_2[9],a
  29  0169  0700     E  	mov a,_builtin_holtek_mant1[1]
  29  016A  0080     R  	mov _ReadCO_2[8],a
  29  016B  0700     E  	mov a,_builtin_holtek_mant1[0]
  29  016C  0080     R  	mov _ReadCO_2[7],a
  29  016D  0700     R  	mov a,_ReadCO_2[10]
  29  016E  0080     E  	mov _builtin_holtek_mant12p[0],a
  29  016F  0700     R  	mov a,_ReadCO_2[9]
  29  0170  0080     E  	mov _builtin_holtek_mant1[2],a
  29  0171  0700     R  	mov a,_ReadCO_2[8]
  29  0172  0080     E  	mov _builtin_holtek_mant1[1],a
  29  0173  0700     R  	mov a,_ReadCO_2[7]
  29  0174  0080     E  	mov _builtin_holtek_mant1[0],a
  29  0175  0F3F        	mov a,63
  29  0176  0080     E  	mov _builtin_holtek_mant12p[1],a
  29  0177  0F00        	mov a,0
  29  0178  0080     E  	mov _builtin_holtek_mant2[2],a
  29  0179  0F00        	mov a,0
  29  017A  0080     E  	mov _builtin_holtek_mant2[1],a
  29  017B  0F00        	mov a,0
  29  017C  0080     E  	mov _builtin_holtek_mant2[0],a
  29  017D  2000     E  	call _builtin_holtek_dtmul
  29  017E  0700     E  	mov a,_builtin_holtek_mant12p[0]
  29  017F  0080     R  	mov _ReadCO_2[10],a
  29  0180  0700     E  	mov a,_builtin_holtek_mant1[2]
  29  0181  0080     R  	mov _ReadCO_2[9],a
  29  0182  0700     E  	mov a,_builtin_holtek_mant1[1]
  29  0183  0080     R  	mov _ReadCO_2[8],a
  29  0184  0700     E  	mov a,_builtin_holtek_mant1[0]
"File: CO.c          Assembler  Version HGASM0202      Page 9

  29  0185  0080     R  	mov _ReadCO_2[7],a
  29  0186  0700     R  	mov a,_ReadCO_2[10]
  29  0187  0080     E  	mov _builtin_holtek_mant12p[0],a
  29  0188  0700     R  	mov a,_ReadCO_2[9]
  29  0189  0080     E  	mov _builtin_holtek_mant1[2],a
  29  018A  0700     R  	mov a,_ReadCO_2[8]
  29  018B  0080     E  	mov _builtin_holtek_mant1[1],a
  29  018C  0700     R  	mov a,_ReadCO_2[7]
  29  018D  0080     E  	mov _builtin_holtek_mant1[0],a
  29  018E  0F43        	mov a,67
  29  018F  0080     E  	mov _builtin_holtek_mant12p[1],a
  29  0190  0F07        	mov a,7
  29  0191  0080     E  	mov _builtin_holtek_mant2[2],a
  29  0192  0F00        	mov a,0
  29  0193  0080     E  	mov _builtin_holtek_mant2[1],a
  29  0194  0F00        	mov a,0
  29  0195  0080     E  	mov _builtin_holtek_mant2[0],a
  29  0196  2000     E  	call _builtin_holtek_dtadd
  29  0197  0700     E  	mov a,_builtin_holtek_mant12p[0]
  29  0198  0080     R  	mov _ReadCO_2[10],a
  29  0199  0700     E  	mov a,_builtin_holtek_mant1[2]
  29  019A  0080     R  	mov _ReadCO_2[9],a
  29  019B  0700     E  	mov a,_builtin_holtek_mant1[1]
  29  019C  0080     R  	mov _ReadCO_2[8],a
  29  019D  0700     E  	mov a,_builtin_holtek_mant1[0]
  29  019E  0080     R  	mov _ReadCO_2[7],a
  29  019F              _L5:
  29  019F  0700     R  	mov a,_ReadCO_2[10]
  29  01A0  0080     E  	mov _builtin_holtek_mant12p[0],a
  29  01A1  0700     R  	mov a,_ReadCO_2[9]
  29  01A2  0080     E  	mov _builtin_holtek_mant1[2],a
  29  01A3  0700     R  	mov a,_ReadCO_2[8]
  29  01A4  0080     E  	mov _builtin_holtek_mant1[1],a
  29  01A5  0700     R  	mov a,_ReadCO_2[7]
  29  01A6  0080     E  	mov _builtin_holtek_mant1[0],a
  29  01A7  0F42        	mov a,66
  29  01A8  0080     E  	mov _builtin_holtek_mant12p[1],a
  29  01A9  0FC8        	mov a,200
  29  01AA  0080     E  	mov _builtin_holtek_mant2[2],a
  29  01AB  0F00        	mov a,0
  29  01AC  0080     E  	mov _builtin_holtek_mant2[1],a
  29  01AD  0F00        	mov a,0
  29  01AE  0080     E  	mov _builtin_holtek_mant2[0],a
  29  01AF  2000     E  	call _builtin_holtek_dtdiv
  29  01B0  0700     E  	mov a,_builtin_holtek_mant12p[0]
  29  01B1  0080     R  	mov _ReadCO_2[10],a
  29  01B2  0700     E  	mov a,_builtin_holtek_mant1[2]
  29  01B3  0080     R  	mov _ReadCO_2[9],a
  29  01B4  0700     E  	mov a,_builtin_holtek_mant1[1]
  29  01B5  0080     R  	mov _ReadCO_2[8],a
  29  01B6  0700     E  	mov a,_builtin_holtek_mant1[0]
  29  01B7  0080     R  	mov _ReadCO_2[7],a
  29  01B8  0700     E  	mov a,re
  29  01B9  0080     E  	mov _builtin_holtek_mant1[1],a
  29  01BA  0700     E  	mov a,rd
  29  01BB  0080     E  	mov _builtin_holtek_mant1[0],a
  29  01BC  3400     E  	clr _builtin_holtek_signs.0
  29  01BD  2000     E  	call _builtin_holtek_uitod
  29  01BE  0700     E  	mov a,_builtin_holtek_mant12p[0]
  29  01BF  0080     E  	mov rg,a
"File: CO.c          Assembler  Version HGASM0202      Page 10

  29  01C0  0700     E  	mov a,_builtin_holtek_mant1[2]
  29  01C1  0080     E  	mov rf,a
  29  01C2  0700     E  	mov a,_builtin_holtek_mant1[1]
  29  01C3  0080     E  	mov re,a
  29  01C4  0700     E  	mov a,_builtin_holtek_mant1[0]
  29  01C5  0080     E  	mov rd,a
  29  01C6  0700     R  	mov a,_ReadCO_2[10]
  29  01C7  0080     E  	mov _builtin_holtek_mant12p[0],a
  29  01C8  0700     R  	mov a,_ReadCO_2[9]
  29  01C9  0080     E  	mov _builtin_holtek_mant1[2],a
  29  01CA  0700     R  	mov a,_ReadCO_2[8]
  29  01CB  0080     E  	mov _builtin_holtek_mant1[1],a
  29  01CC  0700     R  	mov a,_ReadCO_2[7]
  29  01CD  0080     E  	mov _builtin_holtek_mant1[0],a
  29  01CE  0700     E  	mov a,rg
  29  01CF  0080     E  	mov _builtin_holtek_mant12p[1],a
  29  01D0  0700     E  	mov a,rf
  29  01D1  0080     E  	mov _builtin_holtek_mant2[2],a
  29  01D2  0700     E  	mov a,re
  29  01D3  0080     E  	mov _builtin_holtek_mant2[1],a
  29  01D4  0700     E  	mov a,rd
  29  01D5  0080     E  	mov _builtin_holtek_mant2[0],a
  29  01D6  2000     E  	call _builtin_holtek_dtmul
  29  01D7  0700     E  	mov a,_builtin_holtek_mant12p[0]
  29  01D8  0080     E  	mov rg,a
  29  01D9  0700     E  	mov a,_builtin_holtek_mant1[2]
  29  01DA  0080     E  	mov rf,a
  29  01DB  0700     E  	mov a,_builtin_holtek_mant1[1]
  29  01DC  0080     E  	mov re,a
  29  01DD  0700     E  	mov a,_builtin_holtek_mant1[0]
  29  01DE  0080     E  	mov rd,a
  29  01DF  0700     E  	mov a,rg
  29  01E0  0080     E  	mov _builtin_holtek_mant12p[0],a
  29  01E1  0700     E  	mov a,rf
  29  01E2  0080     E  	mov _builtin_holtek_mant1[2],a
  29  01E3  0700     E  	mov a,re
  29  01E4  0080     E  	mov _builtin_holtek_mant1[1],a
  29  01E5  0700     E  	mov a,rd
  29  01E6  0080     E  	mov _builtin_holtek_mant1[0],a
  29  01E7  2000     E  	call _builtin_holtek_dtol
  29  01E8  0700     E  	mov a,_builtin_holtek_mant12p[0]
  29  01E9  0080     E  	mov rg,a
  29  01EA  0700     E  	mov a,_builtin_holtek_mant1[2]
  29  01EB  0080     E  	mov rf,a
  29  01EC  0700     E  	mov a,_builtin_holtek_mant1[1]
  29  01ED  0080     E  	mov re,a
  29  01EE  0700     E  	mov a,_builtin_holtek_mant1[0]
  29  01EF  0080     E  	mov rd,a
  37  01F0              #line 37 "C:\Users\Tech\Desktop\CODetector\CO\CO.c"
  37  01F0  0700     E  	mov a,rd
  37  01F1  0080     E  	mov ra,a
  37  01F2  0700     E  	mov a,re
  37  01F3  0080     E  	mov rb,a
  37  01F4  0003        	ret
  37  01F5              _ReadCO endp
  37  01F5              #line 37 "C:\Users\Tech\Desktop\CODetector\CO\CO.c"
  37  01F5              #pragma debug scope 1 1
  37  01F5              extern _builtin_holtek_mant1:byte
  37  01F5              extern _builtin_holtek_signs:byte
  37  01F5              extern _builtin_holtek_uitof:near
"File: CO.c          Assembler  Version HGASM0202      Page 11

  37  01F5              extern _builtin_holtek_mant2:byte
  37  01F5              extern _builtin_holtek_ftdiv:near
  37  01F5              extern _builtin_holtek_ftmul:near
  37  01F5              extern _builtin_holtek_mant12p:byte
  37  01F5              extern _builtin_holtek_dtdiv:near
  37  01F5              extern _builtin_holtek_dtmul:near
  37  01F5              extern _builtin_holtek_dtol:near
  37  01F5              extern _builtin_holtek_itod:near
  37  01F5              extern _builtin_holtek_dtadd:near
  37  01F5              extern _builtin_holtek_uitod:near
  37  01F5              
  37  01F5              ; 
  37  01F5              ; Generated by holtek-gcc v3.19, Mon Oct 09 18:01:45 2023
  37  01F5              ; Rebuild 718
  37  01F5              ; end of file


        0 Errors, 0