"File: co.c          Assembler  Version HGASM0202      Page 1


   1  0000              ; Generated by holtek-gcc v3.19, Sun Oct 01 13:24:22 2023
   2  0000              ; 
   3  0000              ; Configuration:
   4  0000              ;       with long instruction
   5  0000              ;       Single ROM, Multi-RAM
   6  0000              ;       bits_per_rom_unit:16
   7  0000              ;       with mp1
   8  0000              ;       with tbhp, address(0x9)
   9  0000              ;          Use tabrd-const
  10  0000              ;       
  11  0000              ; SFR address of long-instruction arch:
  12  0000              ;    mp0 = -1,1,0
  13  0000              ;    mp1 = 4,3,2
  14  0000              ;    mp2 = 14,13,12
  15  0000              ;    tbp = 9,7,8
  16  0000              ;    acc = 5
  17  0000              ;    pcl = 6
  18  0000              ;    status = 10
  19  0000              ;    bp = 11
  20  0000              ;    intc = 72
  21  0000              ;       
  22  0000              ;       
  23  0000              ; use 'tabrdc' instead of 'tabrd'
  24  0000              ;       
  25  0000              
  26  0000              #pragma translator "holtek-gcc 4.6.4" "3.19" "build 20130711"
  27  0000              ; Rebuild 718
  28  0000              
  29  0000              ir equ [2]
  30  0000              mp equ [3]
  31  0000              sbp equ [4]
  32  0000              acc equ [5]
  33  0000              bp equ [11]
  34  0000              tblp equ [7]
  35  0000              tbhp equ [9]
  36  0000              status equ [10]
  37  0000              c equ [10].0
  38  0000              ac equ [10].1
  39  0000              z equ [10].2
  40  0000              ov equ [10].3
  41  0000              cz equ [10].6
  42  0000              sc equ [10].7
  43  0000              intc equ [72]
  44  0000              
  45  0000              extern ra:byte
  46  0000              extern rb:byte
  47  0000              extern rc:byte
  48  0000              extern rd:byte
  49  0000              extern re:byte
  50  0000              extern rf:byte
  51  0000              extern rg:byte
  52  0000              extern rh:byte
  53  0000              extern _Crom2Prom:near
  54  0000              extern _Crom2PromNext:near
  55  0000              
  56  0000              RAMBANK 0 @BITDATASEC, @BITDATASEC1
  57  0000              @HCCINIT	.section 'data'
  58  0000              @HCCINIT0	.section 'data'
  59  0000              @BITDATASEC	 .section 'data'
"File: co.ASM        Assembler  Version HGASM0202      Page 2

  60  0000              @BITDATASEC1	 .section 'data'
  61  0000              
  62  0000              #pragma debug scope 1 1
  63  0000              	extern __DELAY3:near
  64  0000              	extern __DELAYX3:near
  65  0000              	extern __DELAYX6:near
  66  0000              	extern __DELAYY5:near
  67  0000              	extern __DELAYY3:near
  68  0000              	extern _builtin_holtek_delay_2:byte
  69  0000              public _TempToPPMPercentage
  70  0000              #pragma debug scope 2 1

 162  0000              #line 162 "c:\users\tech\desktop\codetector\co.c"
 162  0000              _TempToPPMPercentage .section 'code'
 162  0000              _TempToPPMPercentage proc
 162  0000              public _TempToPPMPercentage_2
 162  0000  0003[           local _TempToPPMPercentage_2 db 3 dup(?)	; 3,0
            00
            ]
 162  0003              #pragma debug variable 28 2 _TempToPPMPercentage_2+0 "temperatur"
 164  0003              #line 164 "c:\users\tech\desktop\codetector\co.c"
 164  0000  0700     R  	mov a,_TempToPPMPercentage_2[2]
 164  0001  0080     E  	mov _builtin_holtek_mant1[2],a
 164  0002  0700     R  	mov a,_TempToPPMPercentage_2[1]
 164  0003  0080     E  	mov _builtin_holtek_mant1[1],a
 164  0004  0700     R  	mov a,_TempToPPMPercentage_2[0]
 164  0005  0080     E  	mov _builtin_holtek_mant1[0],a
 164  0006  0F00        	mov a,0
 164  0007  0080     E  	mov _builtin_holtek_mant2[2],a
 164  0008  0F00        	mov a,0
 164  0009  0080     E  	mov _builtin_holtek_mant2[1],a
 164  000A  0F00        	mov a,0
 164  000B  0080     E  	mov _builtin_holtek_mant2[0],a
 164  000C  2000     E  	call _builtin_holtek_ftsub
 164  000D  3C00     E  	sz _builtin_holtek_mant1[2].7
 164  000E  2800     R  	jmp _L15
 164  000F  2800     R  	jmp _L2
 164  0010              _L15:
 164  0010              #line 164 "c:\users\tech\desktop\codetector\co.c"
 164  0010  0700     R  	mov a,_TempToPPMPercentage_2[2]
 164  0011  0080     E  	mov _builtin_holtek_mant1[2],a
 164  0012  0700     R  	mov a,_TempToPPMPercentage_2[1]
 164  0013  0080     E  	mov _builtin_holtek_mant1[1],a
 164  0014  0700     R  	mov a,_TempToPPMPercentage_2[0]
 164  0015  0080     E  	mov _builtin_holtek_mant1[0],a
 164  0016  0FC1        	mov a,193
 164  0017  0080     E  	mov _builtin_holtek_mant2[2],a
 164  0018  0FA0        	mov a,160
 164  0019  0080     E  	mov _builtin_holtek_mant2[1],a
 164  001A  0F00        	mov a,0
 164  001B  0080     E  	mov _builtin_holtek_mant2[0],a
 164  001C  2000     E  	call _builtin_holtek_ftsub
 164  001D  3800     E  	snz _builtin_holtek_mant1[2].7
 164  001E  2800     R  	jmp _L16
 164  001F  2800     R  	jmp _L2
 164  0020              _L16:
 166  0020              #line 166 "c:\users\tech\desktop\codetector\co.c"
 166  0020  0700     R  	mov a,_TempToPPMPercentage_2[2]
 166  0021  0080     E  	mov _builtin_holtek_mant1[2],a
 166  0022  0700     R  	mov a,_TempToPPMPercentage_2[1]
"File: co.c          Assembler  Version HGASM0202      Page 3

 166  0023  0080     E  	mov _builtin_holtek_mant1[1],a
 166  0024  0700     R  	mov a,_TempToPPMPercentage_2[0]
 166  0025  0080     E  	mov _builtin_holtek_mant1[0],a
 166  0026  0F41        	mov a,65
 166  0027  0080     E  	mov _builtin_holtek_mant2[2],a
 166  0028  0FA0        	mov a,160
 166  0029  0080     E  	mov _builtin_holtek_mant2[1],a
 166  002A  0F00        	mov a,0
 166  002B  0080     E  	mov _builtin_holtek_mant2[0],a
 166  002C  2000     E  	call _builtin_holtek_ftadd
 166  002D  0700     E  	mov a,_builtin_holtek_mant1[2]
 166  002E  0080     E  	mov re,a
 166  002F  0700     E  	mov a,_builtin_holtek_mant1[1]
 166  0030  0080     E  	mov rd,a
 166  0031  0700     E  	mov a,_builtin_holtek_mant1[0]
 166  0032  0080     E  	mov rc,a
 166  0033  0700     E  	mov a,re
 166  0034  0080     E  	mov rg,a
 166  0035  0700     E  	mov a,rd
 166  0036  0080     E  	mov rf,a
 166  0037  0700     E  	mov a,rc
 166  0038  0080     E  	mov re,a
 166  0039  1F00     E  	clr rd
 166  003A  0700     E  	mov a,rg
 166  003B  0080     E  	mov _builtin_holtek_mant12p[0],a
 166  003C  0700     E  	mov a,rf
 166  003D  0080     E  	mov _builtin_holtek_mant1[2],a
 166  003E  0700     E  	mov a,re
 166  003F  0080     E  	mov _builtin_holtek_mant1[1],a
 166  0040  0700     E  	mov a,rd
 166  0041  0080     E  	mov _builtin_holtek_mant1[0],a
 166  0042  0FBB        	mov a,187
 166  0043  0080     E  	mov _builtin_holtek_mant12p[1],a
 166  0044  0FF5        	mov a,245
 166  0045  0080     E  	mov _builtin_holtek_mant2[2],a
 166  0046  0FC2        	mov a,194
 166  0047  0080     E  	mov _builtin_holtek_mant2[1],a
 166  0048  0F8F        	mov a,143
 166  0049  0080     E  	mov _builtin_holtek_mant2[0],a
 166  004A  2000     E  	call _builtin_holtek_dtmul
 166  004B  0700     E  	mov a,_builtin_holtek_mant12p[0]
 166  004C  0080     E  	mov rg,a
 166  004D  0700     E  	mov a,_builtin_holtek_mant1[2]
 166  004E  0080     E  	mov rf,a
 166  004F  0700     E  	mov a,_builtin_holtek_mant1[1]
 166  0050  0080     E  	mov re,a
 166  0051  0700     E  	mov a,_builtin_holtek_mant1[0]
 166  0052  0080     E  	mov rd,a
 166  0053  0700     E  	mov a,rg
 166  0054  0080     E  	mov _builtin_holtek_mant12p[0],a
 166  0055  0700     E  	mov a,rf
 166  0056  0080     E  	mov _builtin_holtek_mant1[2],a
 166  0057  0700     E  	mov a,re
 166  0058  0080     E  	mov _builtin_holtek_mant1[1],a
 166  0059  0700     E  	mov a,rd
 166  005A  0080     E  	mov _builtin_holtek_mant1[0],a
 166  005B  0F3F        	mov a,63
 166  005C  0080     E  	mov _builtin_holtek_mant12p[1],a
 166  005D  0F19        	mov a,25
 166  005E  0080     E  	mov _builtin_holtek_mant2[2],a
"File: co.c          Assembler  Version HGASM0202      Page 4

 166  005F  0F99        	mov a,153
 166  0060  0080     E  	mov _builtin_holtek_mant2[1],a
 166  0061  0F9A        	mov a,154
 166  0062  0080     E  	mov _builtin_holtek_mant2[0],a
 166  0063  2000     E  	call _builtin_holtek_dtadd
 166  0064  0700     E  	mov a,_builtin_holtek_mant12p[0]
 166  0065  0080     E  	mov rg,a
 166  0066  0700     E  	mov a,_builtin_holtek_mant1[2]
 166  0067  0080     E  	mov rf,a
 166  0068  0700     E  	mov a,_builtin_holtek_mant1[1]
 166  0069  0080     E  	mov re,a
 166  006A  0700     E  	mov a,_builtin_holtek_mant1[0]
 166  006B  0080     E  	mov rd,a
 166  006C  2800     R  	jmp _L23
 166  006D              _L2:
 168  006D              #line 168 "c:\users\tech\desktop\codetector\co.c"
 168  006D  0700     R  	mov a,_TempToPPMPercentage_2[2]
 168  006E  0080     E  	mov _builtin_holtek_mant1[2],a
 168  006F  0700     R  	mov a,_TempToPPMPercentage_2[1]
 168  0070  0080     E  	mov _builtin_holtek_mant1[1],a
 168  0071  0700     R  	mov a,_TempToPPMPercentage_2[0]
 168  0072  0080     E  	mov _builtin_holtek_mant1[0],a
 168  0073  0F00        	mov a,0
 168  0074  0080     E  	mov _builtin_holtek_mant2[2],a
 168  0075  0F00        	mov a,0
 168  0076  0080     E  	mov _builtin_holtek_mant2[1],a
 168  0077  0F00        	mov a,0
 168  0078  0080     E  	mov _builtin_holtek_mant2[0],a
 168  0079  2000     E  	call _builtin_holtek_ftsub
 168  007A  3800     E  	snz _builtin_holtek_mant1[2].7
 168  007B  2800     R  	jmp _L17
 168  007C  2800     R  	jmp _L6
 168  007D              _L17:
 168  007D  0700     R  	mov a,_TempToPPMPercentage_2[2]
 168  007E  0080     E  	mov _builtin_holtek_mant1[2],a
 168  007F  0700     R  	mov a,_TempToPPMPercentage_2[1]
 168  0080  0080     E  	mov _builtin_holtek_mant1[1],a
 168  0081  0700     R  	mov a,_TempToPPMPercentage_2[0]
 168  0082  0080     E  	mov _builtin_holtek_mant1[0],a
 168  0083  0F41        	mov a,65
 168  0084  0080     E  	mov _builtin_holtek_mant2[2],a
 168  0085  0FA0        	mov a,160
 168  0086  0080     E  	mov _builtin_holtek_mant2[1],a
 168  0087  0F00        	mov a,0
 168  0088  0080     E  	mov _builtin_holtek_mant2[0],a
 168  0089  2000     E  	call _builtin_holtek_ftsub
 168  008A  3C00     E  	sz _builtin_holtek_mant1[2].7
 168  008B  2800     R  	jmp _L18
 168  008C  2800     R  	jmp _L6
 168  008D              _L18:
 170  008D              #line 170 "c:\users\tech\desktop\codetector\co.c"
 170  008D  0700     R  	mov a,_TempToPPMPercentage_2[0]
 170  008E  0080     E  	mov re,a
 170  008F  0700     R  	mov a,_TempToPPMPercentage_2[1]
 170  0090  0080     E  	mov rf,a
 170  0091  0700     R  	mov a,_TempToPPMPercentage_2[2]
 170  0092  0080     E  	mov rg,a
 170  0093  1F00     E  	clr rd
 170  0094  0700     E  	mov a,rg
 170  0095  0080     E  	mov _builtin_holtek_mant12p[0],a
"File: co.c          Assembler  Version HGASM0202      Page 5

 170  0096  0700     E  	mov a,rf
 170  0097  0080     E  	mov _builtin_holtek_mant1[2],a
 170  0098  0700     E  	mov a,re
 170  0099  0080     E  	mov _builtin_holtek_mant1[1],a
 170  009A  0700     E  	mov a,rd
 170  009B  0080     E  	mov _builtin_holtek_mant1[0],a
 170  009C  0F3B        	mov a,59
 170  009D  0080     E  	mov _builtin_holtek_mant12p[1],a
 170  009E  0F23        	mov a,35
 170  009F  0080     E  	mov _builtin_holtek_mant2[2],a
 170  00A0  0FD7        	mov a,215
 170  00A1  0080     E  	mov _builtin_holtek_mant2[1],a
 170  00A2  0F0A        	mov a,10
 170  00A3  0080     E  	mov _builtin_holtek_mant2[0],a
 170  00A4  2000     E  	call _builtin_holtek_dtmul
 170  00A5  0700     E  	mov a,_builtin_holtek_mant12p[0]
 170  00A6  0080     E  	mov rg,a
 170  00A7  0700     E  	mov a,_builtin_holtek_mant1[2]
 170  00A8  0080     E  	mov rf,a
 170  00A9  0700     E  	mov a,_builtin_holtek_mant1[1]
 170  00AA  0080     E  	mov re,a
 170  00AB  0700     E  	mov a,_builtin_holtek_mant1[0]
 170  00AC  0080     E  	mov rd,a
 170  00AD  0700     E  	mov a,rg
 170  00AE  0080     E  	mov _builtin_holtek_mant12p[0],a
 170  00AF  0700     E  	mov a,rf
 170  00B0  0080     E  	mov _builtin_holtek_mant1[2],a
 170  00B1  0700     E  	mov a,re
 170  00B2  0080     E  	mov _builtin_holtek_mant1[1],a
 170  00B3  0700     E  	mov a,rd
 170  00B4  0080     E  	mov _builtin_holtek_mant1[0],a
 170  00B5  0F3F        	mov a,63
 170  00B6  0080     E  	mov _builtin_holtek_mant12p[1],a
 170  00B7  0F40        	mov a,64
 170  00B8  0080     E  	mov _builtin_holtek_mant2[2],a
 170  00B9  0F00        	mov a,0
 170  00BA  0080     E  	mov _builtin_holtek_mant2[1],a
 170  00BB  0F00        	mov a,0
 170  00BC  0080     E  	mov _builtin_holtek_mant2[0],a
 170  00BD  2000     E  	call _builtin_holtek_dtadd
 170  00BE  0700     E  	mov a,_builtin_holtek_mant12p[0]
 170  00BF  0080     E  	mov rg,a
 170  00C0  0700     E  	mov a,_builtin_holtek_mant1[2]
 170  00C1  0080     E  	mov rf,a
 170  00C2  0700     E  	mov a,_builtin_holtek_mant1[1]
 170  00C3  0080     E  	mov re,a
 170  00C4  0700     E  	mov a,_builtin_holtek_mant1[0]
 170  00C5  0080     E  	mov rd,a
 170  00C6  2800     R  	jmp _L23
 170  00C7              _L6:
 172  00C7              #line 172 "c:\users\tech\desktop\codetector\co.c"
 172  00C7  0700     R  	mov a,_TempToPPMPercentage_2[2]
 172  00C8  0080     E  	mov _builtin_holtek_mant1[2],a
 172  00C9  0700     R  	mov a,_TempToPPMPercentage_2[1]
 172  00CA  0080     E  	mov _builtin_holtek_mant1[1],a
 172  00CB  0700     R  	mov a,_TempToPPMPercentage_2[0]
 172  00CC  0080     E  	mov _builtin_holtek_mant1[0],a
 172  00CD  0F41        	mov a,65
 172  00CE  0080     E  	mov _builtin_holtek_mant2[2],a
 172  00CF  0FA0        	mov a,160
"File: co.c          Assembler  Version HGASM0202      Page 6

 172  00D0  0080     E  	mov _builtin_holtek_mant2[1],a
 172  00D1  0F00        	mov a,0
 172  00D2  0080     E  	mov _builtin_holtek_mant2[0],a
 172  00D3  2000     E  	call _builtin_holtek_ftsub
 172  00D4  3800     E  	snz _builtin_holtek_mant1[2].7
 172  00D5  2800     R  	jmp _L19
 172  00D6  2800     R  	jmp _L9
 172  00D7              _L19:
 172  00D7  0700     R  	mov a,_TempToPPMPercentage_2[2]
 172  00D8  0080     E  	mov _builtin_holtek_mant1[2],a
 172  00D9  0700     R  	mov a,_TempToPPMPercentage_2[1]
 172  00DA  0080     E  	mov _builtin_holtek_mant1[1],a
 172  00DB  0700     R  	mov a,_TempToPPMPercentage_2[0]
 172  00DC  0080     E  	mov _builtin_holtek_mant1[0],a
 172  00DD  0F42        	mov a,66
 172  00DE  0080     E  	mov _builtin_holtek_mant2[2],a
 172  00DF  0F48        	mov a,72
 172  00E0  0080     E  	mov _builtin_holtek_mant2[1],a
 172  00E1  0F00        	mov a,0
 172  00E2  0080     E  	mov _builtin_holtek_mant2[0],a
 172  00E3  2000     E  	call _builtin_holtek_ftsub
 172  00E4  3C00     E  	sz _builtin_holtek_mant1[2].7
 172  00E5  2800     R  	jmp _L20
 172  00E6  2800     R  	jmp _L9
 172  00E7              _L20:
 174  00E7              #line 174 "c:\users\tech\desktop\codetector\co.c"
 174  00E7  0700     R  	mov a,_TempToPPMPercentage_2[2]
 174  00E8  0080     E  	mov _builtin_holtek_mant1[2],a
 174  00E9  0700     R  	mov a,_TempToPPMPercentage_2[1]
 174  00EA  0080     E  	mov _builtin_holtek_mant1[1],a
 174  00EB  0700     R  	mov a,_TempToPPMPercentage_2[0]
 174  00EC  0080     E  	mov _builtin_holtek_mant1[0],a
 174  00ED  0F41        	mov a,65
 174  00EE  0080     E  	mov _builtin_holtek_mant2[2],a
 174  00EF  0FA0        	mov a,160
 174  00F0  0080     E  	mov _builtin_holtek_mant2[1],a
 174  00F1  0F00        	mov a,0
 174  00F2  0080     E  	mov _builtin_holtek_mant2[0],a
 174  00F3  2000     E  	call _builtin_holtek_ftsub
 174  00F4  0700     E  	mov a,_builtin_holtek_mant1[2]
 174  00F5  0080     E  	mov re,a
 174  00F6  0700     E  	mov a,_builtin_holtek_mant1[1]
 174  00F7  0080     E  	mov rd,a
 174  00F8  0700     E  	mov a,_builtin_holtek_mant1[0]
 174  00F9  0080     E  	mov rc,a
 174  00FA  0700     E  	mov a,re
 174  00FB  0080     E  	mov rg,a
 174  00FC  0700     E  	mov a,rd
 174  00FD  0080     E  	mov rf,a
 174  00FE  0700     E  	mov a,rc
 174  00FF  0080     E  	mov re,a
 174  0100  1F00     E  	clr rd
 174  0101  0700     E  	mov a,rg
 174  0102  0080     E  	mov _builtin_holtek_mant12p[0],a
 174  0103  0700     E  	mov a,rf
 174  0104  0080     E  	mov _builtin_holtek_mant1[2],a
 174  0105  0700     E  	mov a,re
 174  0106  0080     E  	mov _builtin_holtek_mant1[1],a
 174  0107  0700     E  	mov a,rd
 174  0108  0080     E  	mov _builtin_holtek_mant1[0],a
"File: co.c          Assembler  Version HGASM0202      Page 7

 174  0109  0F3C        	mov a,60
 174  010A  0080     E  	mov _builtin_holtek_mant12p[1],a
 174  010B  0F3E        	mov a,62
 174  010C  0080     E  	mov _builtin_holtek_mant2[2],a
 174  010D  0F0D        	mov a,13
 174  010E  0080     E  	mov _builtin_holtek_mant2[1],a
 174  010F  0FED        	mov a,237
 174  0110  0080     E  	mov _builtin_holtek_mant2[0],a
 174  0111  2000     E  	call _builtin_holtek_dtmul
 174  0112  0700     E  	mov a,_builtin_holtek_mant12p[0]
 174  0113  0080     E  	mov rg,a
 174  0114  0700     E  	mov a,_builtin_holtek_mant1[2]
 174  0115  0080     E  	mov rf,a
 174  0116  0700     E  	mov a,_builtin_holtek_mant1[1]
 174  0117  0080     E  	mov re,a
 174  0118  0700     E  	mov a,_builtin_holtek_mant1[0]
 174  0119  0080     E  	mov rd,a
 174  011A  0700     E  	mov a,rg
 174  011B  0080     E  	mov _builtin_holtek_mant12p[0],a
 174  011C  0700     E  	mov a,rf
 174  011D  0080     E  	mov _builtin_holtek_mant1[2],a
 174  011E  0700     E  	mov a,re
 174  011F  0080     E  	mov _builtin_holtek_mant1[1],a
 174  0120  0700     E  	mov a,rd
 174  0121  0080     E  	mov _builtin_holtek_mant1[0],a
 174  0122  0F3D        	mov a,61
 174  0123  0080     E  	mov _builtin_holtek_mant12p[1],a
 174  0124  0FCC        	mov a,204
 174  0125  0080     E  	mov _builtin_holtek_mant2[2],a
 174  0126  0FCC        	mov a,204
 174  0127  0080     E  	mov _builtin_holtek_mant2[1],a
 174  0128  0FCD        	mov a,205
 174  0129  0080     E  	mov _builtin_holtek_mant2[0],a
 174  012A  2000     E  	call _builtin_holtek_dtadd
 174  012B  0700     E  	mov a,_builtin_holtek_mant12p[0]
 174  012C  0080     E  	mov rg,a
 174  012D  0700     E  	mov a,_builtin_holtek_mant1[2]
 174  012E  0080     E  	mov rf,a
 174  012F  0700     E  	mov a,_builtin_holtek_mant1[1]
 174  0130  0080     E  	mov re,a
 174  0131  0700     E  	mov a,_builtin_holtek_mant1[0]
 174  0132  0080     E  	mov rd,a
 174  0133  2800     R  	jmp _L23
 174  0134              _L9:
 176  0134              #line 176 "c:\users\tech\desktop\codetector\co.c"
 176  0134  0700     R  	mov a,_TempToPPMPercentage_2[2]
 176  0135  0080     E  	mov _builtin_holtek_mant1[2],a
 176  0136  0700     R  	mov a,_TempToPPMPercentage_2[1]
 176  0137  0080     E  	mov _builtin_holtek_mant1[1],a
 176  0138  0700     R  	mov a,_TempToPPMPercentage_2[0]
 176  0139  0080     E  	mov _builtin_holtek_mant1[0],a
 176  013A  0F42        	mov a,66
 176  013B  0080     E  	mov _builtin_holtek_mant2[2],a
 176  013C  0F48        	mov a,72
 176  013D  0080     E  	mov _builtin_holtek_mant2[1],a
 176  013E  0F00        	mov a,0
 176  013F  0080     E  	mov _builtin_holtek_mant2[0],a
 176  0140  2000     E  	call _builtin_holtek_ftsub
 176  0141  3800     E  	snz _builtin_holtek_mant1[2].7
 176  0142  2800     R  	jmp _L21
"File: co.c          Assembler  Version HGASM0202      Page 8

 176  0143  2800     R  	jmp _L12
 176  0144              _L21:
 176  0144  0700     R  	mov a,_TempToPPMPercentage_2[2]
 176  0145  0080     E  	mov _builtin_holtek_mant1[2],a
 176  0146  0700     R  	mov a,_TempToPPMPercentage_2[1]
 176  0147  0080     E  	mov _builtin_holtek_mant1[1],a
 176  0148  0700     R  	mov a,_TempToPPMPercentage_2[0]
 176  0149  0080     E  	mov _builtin_holtek_mant1[0],a
 176  014A  0F42        	mov a,66
 176  014B  0080     E  	mov _builtin_holtek_mant2[2],a
 176  014C  0F8C        	mov a,140
 176  014D  0080     E  	mov _builtin_holtek_mant2[1],a
 176  014E  0F00        	mov a,0
 176  014F  0080     E  	mov _builtin_holtek_mant2[0],a
 176  0150  2000     E  	call _builtin_holtek_ftsub
 176  0151  3C00     E  	sz _builtin_holtek_mant1[2].7
 176  0152  2800     R  	jmp _L22
 176  0153  0700     E  	mov a,_builtin_holtek_mant1[2]
 176  0154  0500     E  	or a,_builtin_holtek_mant1[1]
 176  0155  0500     E  	or a,_builtin_holtek_mant1[0]
 176  0156  3D0A        	sz z
 176  0157  2800     R  	jmp _L22
 176  0158  2800     R  	jmp _L12
 176  0159              _L22:
 178  0159              #line 178 "c:\users\tech\desktop\codetector\co.c"
 178  0159  0700     R  	mov a,_TempToPPMPercentage_2[2]
 178  015A  0080     E  	mov _builtin_holtek_mant1[2],a
 178  015B  0700     R  	mov a,_TempToPPMPercentage_2[1]
 178  015C  0080     E  	mov _builtin_holtek_mant1[1],a
 178  015D  0700     R  	mov a,_TempToPPMPercentage_2[0]
 178  015E  0080     E  	mov _builtin_holtek_mant1[0],a
 178  015F  0F42        	mov a,66
 178  0160  0080     E  	mov _builtin_holtek_mant2[2],a
 178  0161  0F48        	mov a,72
 178  0162  0080     E  	mov _builtin_holtek_mant2[1],a
 178  0163  0F00        	mov a,0
 178  0164  0080     E  	mov _builtin_holtek_mant2[0],a
 178  0165  2000     E  	call _builtin_holtek_ftsub
 178  0166  0700     E  	mov a,_builtin_holtek_mant1[2]
 178  0167  0080     E  	mov re,a
 178  0168  0700     E  	mov a,_builtin_holtek_mant1[1]
 178  0169  0080     E  	mov rd,a
 178  016A  0700     E  	mov a,_builtin_holtek_mant1[0]
 178  016B  0080     E  	mov rc,a
 178  016C  0700     E  	mov a,re
 178  016D  0080     E  	mov rg,a
 178  016E  0700     E  	mov a,rd
 178  016F  0080     E  	mov rf,a
 178  0170  0700     E  	mov a,rc
 178  0171  0080     E  	mov re,a
 178  0172  1F00     E  	clr rd
 178  0173  0700     E  	mov a,rg
 178  0174  0080     E  	mov _builtin_holtek_mant12p[0],a
 178  0175  0700     E  	mov a,rf
 178  0176  0080     E  	mov _builtin_holtek_mant1[2],a
 178  0177  0700     E  	mov a,re
 178  0178  0080     E  	mov _builtin_holtek_mant1[1],a
 178  0179  0700     E  	mov a,rd
 178  017A  0080     E  	mov _builtin_holtek_mant1[0],a
 178  017B  0F3B        	mov a,59
"File: co.c          Assembler  Version HGASM0202      Page 9

 178  017C  0080     E  	mov _builtin_holtek_mant12p[1],a
 178  017D  0FA3        	mov a,163
 178  017E  0080     E  	mov _builtin_holtek_mant2[2],a
 178  017F  0FD7        	mov a,215
 178  0180  0080     E  	mov _builtin_holtek_mant2[1],a
 178  0181  0F0A        	mov a,10
 178  0182  0080     E  	mov _builtin_holtek_mant2[0],a
 178  0183  2000     E  	call _builtin_holtek_dtmul
 178  0184  0700     E  	mov a,_builtin_holtek_mant12p[0]
 178  0185  0080     E  	mov rg,a
 178  0186  0700     E  	mov a,_builtin_holtek_mant1[2]
 178  0187  0080     E  	mov rf,a
 178  0188  0700     E  	mov a,_builtin_holtek_mant1[1]
 178  0189  0080     E  	mov re,a
 178  018A  0700     E  	mov a,_builtin_holtek_mant1[0]
 178  018B  0080     E  	mov rd,a
 178  018C  0700     E  	mov a,rg
 178  018D  0080     E  	mov _builtin_holtek_mant12p[0],a
 178  018E  0700     E  	mov a,rf
 178  018F  0080     E  	mov _builtin_holtek_mant1[2],a
 178  0190  0700     E  	mov a,re
 178  0191  0080     E  	mov _builtin_holtek_mant1[1],a
 178  0192  0700     E  	mov a,rd
 178  0193  0080     E  	mov _builtin_holtek_mant1[0],a
 178  0194  0F3E        	mov a,62
 178  0195  0080     E  	mov _builtin_holtek_mant12p[1],a
 178  0196  0F0A        	mov a,10
 178  0197  0080     E  	mov _builtin_holtek_mant2[2],a
 178  0198  0F3D        	mov a,61
 178  0199  0080     E  	mov _builtin_holtek_mant2[1],a
 178  019A  0F71        	mov a,113
 178  019B  0080     E  	mov _builtin_holtek_mant2[0],a
 178  019C  2000     E  	call _builtin_holtek_dtadd
 178  019D  0700     E  	mov a,_builtin_holtek_mant12p[0]
 178  019E  0080     E  	mov rg,a
 178  019F  0700     E  	mov a,_builtin_holtek_mant1[2]
 178  01A0  0080     E  	mov rf,a
 178  01A1  0700     E  	mov a,_builtin_holtek_mant1[1]
 178  01A2  0080     E  	mov re,a
 178  01A3  0700     E  	mov a,_builtin_holtek_mant1[0]
 178  01A4  0080     E  	mov rd,a
 178  01A5              _L23:
 178  01A5  0700     E  	mov a,re
 178  01A6  0080     E  	mov rc,a
 178  01A7  0700     E  	mov a,rf
 178  01A8  0080     E  	mov rd,a
 178  01A9  0700     E  	mov a,rg
 178  01AA  0080     E  	mov re,a
 178  01AB  0700     E  	mov a,rc
 178  01AC  0080     E  	mov ra,a
 178  01AD  0700     E  	mov a,rd
 178  01AE  0080     E  	mov rb,a
 178  01AF  0700     E  	mov a,re
 178  01B0  0080     E  	mov rc,a
 178  01B1  2800     R  	jmp _L1
 178  01B2              _L12:
 178  01B2              _L1:
 178  01B2  0003        	ret
 178  01B3              _TempToPPMPercentage endp
 178  01B3              #line 178 "c:\users\tech\desktop\codetector\co.c"
"File: co.c          Assembler  Version HGASM0202      Page 10

 178  01B3              #pragma debug scope 1 1
 178  01B3              ___status equ [10]
 178  01B3              ___isgenc equ [93]
 178  01B3              ___vbgrc equ [11]
 178  01B3              ___sda0c equ [35]
 178  01B3              ___sda1c equ [37]
 178  01B3              ___papu equ [22]
 178  01B3              ___pawu equ [23]
 178  01B3              public _main
 178  01B3              #pragma debug scope 3 1
  55  01B3              #line 55 "c:\users\tech\desktop\codetector\co.c"
  55  01B3              IFDEF WITH_DEFAULT_STARTUP
  55  01B3              extern _main_initial0:near
  55  01B3              extern _main_startup:near
  55  01B3              ENDIF
  55  01B3              
  55  01B3              ROMBANK 0 @start
  55  0000              @start .section com_l 'code'
  55  0000              _main_startup1:
  55  0000              @start .section com_e 'code'
  55  0000  2800     R  	jmp _main
  55  0001              
  55  0000              _main .section 'code'
  55  0000              _main proc
  55  0000  0003[           local _main_2 db 3 dup(?)
            00
            ]
  57  0003              #line 57 "c:\users\tech\desktop\codetector\co.c"
  57  0000  3E8A        	sz [10].5
  57  0001  2800     R  	jmp _L26
  59  0002              #line 59 "c:\users\tech\desktop\codetector\co.c"
  59  0002  1F00     R  	clr _alarmCounter[0]
  59  0003  1F00     R  	clr _alarmCounter[1]
  59  0004              _L26:
  62  0004              #line 62 "c:\users\tech\desktop\codetector\co.c"
  62  0004  2000     E  	call _ClockInit
  63  0005              #line 63 "c:\users\tech\desktop\codetector\co.c"
  63  0005  2000     E  	call _GPIOInit
  64  0006              #line 64 "c:\users\tech\desktop\codetector\co.c"
  64  0006  2000     E  	call _GPIOToGNDCurentInit
  65  0007              #line 65 "c:\users\tech\desktop\codetector\co.c"
  65  0007  2000     E  	call _OPAMPInit
  66  0008              #line 66 "c:\users\tech\desktop\codetector\co.c"
  66  0008  2000     E  	call _S_ADC_Init
  67  0009              #line 67 "c:\users\tech\desktop\codetector\co.c"
  67  0009  2000     E  	call _PTimerInit
  68  000A              #line 68 "c:\users\tech\desktop\codetector\co.c"
  68  000A  0F00        	mov a,0
  68  000B  2000     E  	call _PWMSeter
  70  000C              #line 70 "c:\users\tech\desktop\codetector\co.c"
  70  000C  305D        	set [93].0
  71  000D              #line 71 "c:\users\tech\desktop\codetector\co.c"
  71  000D  34DD        	clr [93].1
  72  000E              #line 72 "c:\users\tech\desktop\codetector\co.c"
  72  000E  300B        	set [11].0
  73  000F              #line 73 "c:\users\tech\desktop\codetector\co.c"
  73  000F  3323        	set [35].6
  74  0010              #line 74 "c:\users\tech\desktop\codetector\co.c"
  74  0010  3325        	set [37].6
  77  0011              #line 77 "c:\users\tech\desktop\codetector\co.c"
"File: co.c          Assembler  Version HGASM0202      Page 11

  77  0011  2000     E  	call _clearSegment
  78  0012              #line 78 "c:\users\tech\desktop\codetector\co.c"
  78  0012  3216        	set [22].4
  79  0013              #line 79 "c:\users\tech\desktop\codetector\co.c"
  79  0013  3217        	set [23].4
  80  0014              #line 80 "c:\users\tech\desktop\codetector\co.c"
  80  0014  0F38        	mov a,56
  80  0015  0097        	mov [23],a
  83  0016              #line 83 "c:\users\tech\desktop\codetector\co.c"
  83  0016  0F04        	mov a,4
  83  0017  2000     E  	call _S_READ_ADC
  83  0018  0700     E  	mov a,rb
  83  0019  0080     E  	mov _builtin_holtek_mant1[1],a
  83  001A  0700     E  	mov a,ra
  83  001B  0080     E  	mov _builtin_holtek_mant1[0],a
  83  001C  3400     E  	clr _builtin_holtek_signs.0
  83  001D  2000     E  	call _builtin_holtek_uitod
  83  001E  0700     E  	mov a,_builtin_holtek_mant12p[0]
  83  001F  0080     E  	mov rh,a
  83  0020  0700     E  	mov a,_builtin_holtek_mant1[2]
  83  0021  0080     E  	mov rg,a
  83  0022  0700     E  	mov a,_builtin_holtek_mant1[1]
  83  0023  0080     E  	mov rf,a
  83  0024  0700     E  	mov a,_builtin_holtek_mant1[0]
  83  0025  0080     E  	mov re,a
  83  0026  1F00     E  	clr ra
  83  0027  0FF0        	mov a,-16
  83  0028  0080     E  	mov rb,a
  83  0029  0F7F        	mov a,127
  83  002A  0080     E  	mov rc,a
  83  002B  0F45        	mov a,69
  83  002C  0080     E  	mov rd,a
  83  002D  0700     E  	mov a,rd
  83  002E  0080     E  	mov _builtin_holtek_mant12p[0],a
  83  002F  0700     E  	mov a,rc
  83  0030  0080     E  	mov _builtin_holtek_mant1[2],a
  83  0031  0700     E  	mov a,rb
  83  0032  0080     E  	mov _builtin_holtek_mant1[1],a
  83  0033  0700     E  	mov a,ra
  83  0034  0080     E  	mov _builtin_holtek_mant1[0],a
  83  0035  0700     E  	mov a,rh
  83  0036  0080     E  	mov _builtin_holtek_mant12p[1],a
  83  0037  0700     E  	mov a,rg
  83  0038  0080     E  	mov _builtin_holtek_mant2[2],a
  83  0039  0700     E  	mov a,rf
  83  003A  0080     E  	mov _builtin_holtek_mant2[1],a
  83  003B  0700     E  	mov a,re
  83  003C  0080     E  	mov _builtin_holtek_mant2[0],a
  83  003D  2000     E  	call _builtin_holtek_dtdiv
  83  003E  0700     E  	mov a,_builtin_holtek_mant12p[0]
  83  003F  0080     E  	mov rh,a
  83  0040  0700     E  	mov a,_builtin_holtek_mant1[2]
  83  0041  0080     E  	mov rg,a
  83  0042  0700     E  	mov a,_builtin_holtek_mant1[1]
  83  0043  0080     E  	mov rf,a
  83  0044  0700     E  	mov a,_builtin_holtek_mant1[0]
  83  0045  0080     E  	mov re,a
  83  0046  0700     E  	mov a,rh
  83  0047  0080     E  	mov _builtin_holtek_mant12p[0],a
  83  0048  0700     E  	mov a,rg
"File: co.c          Assembler  Version HGASM0202      Page 12

  83  0049  0080     E  	mov _builtin_holtek_mant1[2],a
  83  004A  0700     E  	mov a,rf
  83  004B  0080     E  	mov _builtin_holtek_mant1[1],a
  83  004C  0700     E  	mov a,re
  83  004D  0080     E  	mov _builtin_holtek_mant1[0],a
  83  004E  0F3F        	mov a,63
  83  004F  0080     E  	mov _builtin_holtek_mant12p[1],a
  83  0050  0F99        	mov a,153
  83  0051  0080     E  	mov _builtin_holtek_mant2[2],a
  83  0052  0F99        	mov a,153
  83  0053  0080     E  	mov _builtin_holtek_mant2[1],a
  83  0054  0F9A        	mov a,154
  83  0055  0080     E  	mov _builtin_holtek_mant2[0],a
  83  0056  2000     E  	call _builtin_holtek_dtmul
  83  0057  0700     E  	mov a,_builtin_holtek_mant12p[0]
  83  0058  0080     E  	mov rg,a
  83  0059  0700     E  	mov a,_builtin_holtek_mant1[2]
  83  005A  0080     E  	mov rf,a
  83  005B  0700     E  	mov a,_builtin_holtek_mant1[1]
  83  005C  0080     E  	mov re,a
  83  005D  0700     E  	mov a,_builtin_holtek_mant1[0]
  83  005E  0080     E  	mov rd,a
  83  005F  0700     E  	mov a,rg
  83  0060  0080     R  	mov _main_2[2],a
  83  0061  0700     E  	mov a,rf
  83  0062  0080     R  	mov _main_2[1],a
  83  0063  0700     E  	mov a,re
  83  0064  0080     R  	mov _main_2[0],a
  83  0065  0700     R  	mov a,_main_2[0]
  83  0066  0080     R  	mov _VDD[0],a
  83  0067  0700     R  	mov a,_main_2[1]
  83  0068  0080     R  	mov _VDD[1],a
  83  0069  0700     R  	mov a,_main_2[2]
  83  006A  0080     R  	mov _VDD[2],a
  85  006B              #line 85 "c:\users\tech\desktop\codetector\co.c"
  85  006B  0F01        	mov a,1
  85  006C  2000     E  	call _S_READ_ADC
  85  006D  0700     R  	mov a,_main_2[0]
  85  006E  0080     E  	mov _temperature_2[2],a
  85  006F  0700     R  	mov a,_main_2[1]
  85  0070  0080     E  	mov _temperature_2[3],a
  85  0071  0700     R  	mov a,_main_2[2]
  85  0072  0080     E  	mov _temperature_2[4],a
  85  0073  0700     E  	mov a,ra
  85  0074  0080     E  	mov _temperature_2[0],a
  85  0075  0700     E  	mov a,rb
  85  0076  0080     E  	mov _temperature_2[1],a
  85  0077  2000     E  	call _temperature
  85  0078  0700     E  	mov a,ra
  85  0079  0080     R  	mov _temperatur[0],a
  85  007A  0700     E  	mov a,rb
  85  007B  0080     R  	mov _temperatur[1],a
  85  007C  0700     E  	mov a,rc
  85  007D  0080     R  	mov _temperatur[2],a
  86  007E              #line 86 "c:\users\tech\desktop\codetector\co.c"
  86  007E  0F05        	mov a,5
  86  007F  2000     E  	call _S_READ_ADC
  86  0080  0700     E  	mov a,rb
  86  0081  0080     E  	mov _builtin_holtek_mant1[1],a
  86  0082  0700     E  	mov a,ra
"File: co.c          Assembler  Version HGASM0202      Page 13

  86  0083  0080     E  	mov _builtin_holtek_mant1[0],a
  86  0084  3400     E  	clr _builtin_holtek_signs.0
  86  0085  2000     E  	call _builtin_holtek_uitof
  86  0086  0700     E  	mov a,_builtin_holtek_mant1[2]
  86  0087  0080     E  	mov rh,a
  86  0088  0700     E  	mov a,_builtin_holtek_mant1[1]
  86  0089  0080     E  	mov rg,a
  86  008A  0700     E  	mov a,_builtin_holtek_mant1[0]
  86  008B  0080     E  	mov rf,a
  86  008C  0700     R  	mov a,_VDD[2]
  86  008D  0080     E  	mov _builtin_holtek_mant1[2],a
  86  008E  0700     R  	mov a,_VDD[1]
  86  008F  0080     E  	mov _builtin_holtek_mant1[1],a
  86  0090  0700     R  	mov a,_VDD[0]
  86  0091  0080     E  	mov _builtin_holtek_mant1[0],a
  86  0092  0F45        	mov a,69
  86  0093  0080     E  	mov _builtin_holtek_mant2[2],a
  86  0094  0F7F        	mov a,127
  86  0095  0080     E  	mov _builtin_holtek_mant2[1],a
  86  0096  0FF0        	mov a,240
  86  0097  0080     E  	mov _builtin_holtek_mant2[0],a
  86  0098  2000     E  	call _builtin_holtek_ftdiv
  86  0099  0700     E  	mov a,_builtin_holtek_mant1[2]
  86  009A  0080     E  	mov re,a
  86  009B  0700     E  	mov a,_builtin_holtek_mant1[1]
  86  009C  0080     E  	mov rd,a
  86  009D  0700     E  	mov a,_builtin_holtek_mant1[0]
  86  009E  0080     E  	mov rc,a
  86  009F  0700     E  	mov a,rh
  86  00A0  0080     E  	mov _builtin_holtek_mant1[2],a
  86  00A1  0700     E  	mov a,rg
  86  00A2  0080     E  	mov _builtin_holtek_mant1[1],a
  86  00A3  0700     E  	mov a,rf
  86  00A4  0080     E  	mov _builtin_holtek_mant1[0],a
  86  00A5  0700     E  	mov a,re
  86  00A6  0080     E  	mov _builtin_holtek_mant2[2],a
  86  00A7  0700     E  	mov a,rd
  86  00A8  0080     E  	mov _builtin_holtek_mant2[1],a
  86  00A9  0700     E  	mov a,rc
  86  00AA  0080     E  	mov _builtin_holtek_mant2[0],a
  86  00AB  2000     E  	call _builtin_holtek_ftmul
  86  00AC  0700     E  	mov a,_builtin_holtek_mant1[2]
  86  00AD  0080     R  	mov _main_2[2],a
  86  00AE  0700     E  	mov a,_builtin_holtek_mant1[1]
  86  00AF  0080     R  	mov _main_2[1],a
  86  00B0  0700     E  	mov a,_builtin_holtek_mant1[0]
  86  00B1  0080     R  	mov _main_2[0],a
  86  00B2  0700     R  	mov a,_main_2[0]
  86  00B3  0080     R  	mov _VAmplifier1[0],a
  86  00B4  0700     R  	mov a,_main_2[1]
  86  00B5  0080     R  	mov _VAmplifier1[1],a
  86  00B6  0700     R  	mov a,_main_2[2]
  86  00B7  0080     R  	mov _VAmplifier1[2],a
  88  00B8              #line 88 "c:\users\tech\desktop\codetector\co.c"
  88  00B8  0700     R  	mov a,_temperatur[0]
  88  00B9  0080     R  	mov _TempToPPMPercentage_2[0],a
  88  00BA  0700     R  	mov a,_temperatur[1]
  88  00BB  0080     R  	mov _TempToPPMPercentage_2[1],a
  88  00BC  0700     R  	mov a,_temperatur[2]
  88  00BD  0080     R  	mov _TempToPPMPercentage_2[2],a
"File: co.c          Assembler  Version HGASM0202      Page 14

  88  00BE  2000     R  	call _TempToPPMPercentage
  88  00BF  0700     E  	mov a,rc
  88  00C0  0080     E  	mov _builtin_holtek_mant1[2],a
  88  00C1  0700     E  	mov a,rb
  88  00C2  0080     E  	mov _builtin_holtek_mant1[1],a
  88  00C3  0700     E  	mov a,ra
  88  00C4  0080     E  	mov _builtin_holtek_mant1[0],a
  88  00C5  0F41        	mov a,65
  88  00C6  0080     E  	mov _builtin_holtek_mant2[2],a
  88  00C7  0F20        	mov a,32
  88  00C8  0080     E  	mov _builtin_holtek_mant2[1],a
  88  00C9  0F00        	mov a,0
  88  00CA  0080     E  	mov _builtin_holtek_mant2[0],a
  88  00CB  2000     E  	call _builtin_holtek_ftmul
  88  00CC  0700     E  	mov a,_builtin_holtek_mant1[2]
  88  00CD  0080     E  	mov rc,a
  88  00CE  0700     E  	mov a,_builtin_holtek_mant1[1]
  88  00CF  0080     E  	mov rb,a
  88  00D0  0700     E  	mov a,_builtin_holtek_mant1[0]
  88  00D1  0080     E  	mov ra,a
  87  00D2              #line 87 "c:\users\tech\desktop\codetector\co.c"
  87  00D2  0700     R  	mov a,_main_2[0]
  87  00D3  0080     E  	mov re,a
  87  00D4  0700     R  	mov a,_main_2[1]
  87  00D5  0080     E  	mov rf,a
  87  00D6  0700     R  	mov a,_main_2[2]
  87  00D7  0080     E  	mov rg,a
  87  00D8  1F00     E  	clr rd
  87  00D9  0700     E  	mov a,rg
  87  00DA  0080     E  	mov _builtin_holtek_mant12p[0],a
  87  00DB  0700     E  	mov a,rf
  87  00DC  0080     E  	mov _builtin_holtek_mant1[2],a
  87  00DD  0700     E  	mov a,re
  87  00DE  0080     E  	mov _builtin_holtek_mant1[1],a
  87  00DF  0700     E  	mov a,rd
  87  00E0  0080     E  	mov _builtin_holtek_mant1[0],a
  87  00E1  0F40        	mov a,64
  87  00E2  0080     E  	mov _builtin_holtek_mant12p[1],a
  87  00E3  0FF5        	mov a,245
  87  00E4  0080     E  	mov _builtin_holtek_mant2[2],a
  87  00E5  0F55        	mov a,85
  87  00E6  0080     E  	mov _builtin_holtek_mant2[1],a
  87  00E7  0F55        	mov a,85
  87  00E8  0080     E  	mov _builtin_holtek_mant2[0],a
  87  00E9  2000     E  	call _builtin_holtek_dtdiv
  87  00EA  0700     E  	mov a,_builtin_holtek_mant12p[0]
  87  00EB  0080     E  	mov rg,a
  87  00EC  0700     E  	mov a,_builtin_holtek_mant1[2]
  87  00ED  0080     E  	mov rf,a
  87  00EE  0700     E  	mov a,_builtin_holtek_mant1[1]
  87  00EF  0080     E  	mov re,a
  87  00F0  0700     E  	mov a,_builtin_holtek_mant1[0]
  87  00F1  0080     E  	mov rd,a
  87  00F2  0700     E  	mov a,rg
  87  00F3  0080     E  	mov _builtin_holtek_mant12p[0],a
  87  00F4  0700     E  	mov a,rf
  87  00F5  0080     E  	mov _builtin_holtek_mant1[2],a
  87  00F6  0700     E  	mov a,re
  87  00F7  0080     E  	mov _builtin_holtek_mant1[1],a
  87  00F8  0700     E  	mov a,rd
"File: co.c          Assembler  Version HGASM0202      Page 15

  87  00F9  0080     E  	mov _builtin_holtek_mant1[0],a
  87  00FA  0F44        	mov a,68
  87  00FB  0080     E  	mov _builtin_holtek_mant12p[1],a
  87  00FC  0F7A        	mov a,122
  87  00FD  0080     E  	mov _builtin_holtek_mant2[2],a
  87  00FE  0F00        	mov a,0
  87  00FF  0080     E  	mov _builtin_holtek_mant2[1],a
  87  0100  0F00        	mov a,0
  87  0101  0080     E  	mov _builtin_holtek_mant2[0],a
  87  0102  2000     E  	call _builtin_holtek_dtmul
  87  0103  0700     E  	mov a,_builtin_holtek_mant12p[0]
  87  0104  0080     E  	mov rg,a
  87  0105  0700     E  	mov a,_builtin_holtek_mant1[2]
  87  0106  0080     E  	mov rf,a
  87  0107  0700     E  	mov a,_builtin_holtek_mant1[1]
  87  0108  0080     E  	mov re,a
  87  0109  0700     E  	mov a,_builtin_holtek_mant1[0]
  87  010A  0080     E  	mov rd,a
  87  010B  0700     E  	mov a,rg
  87  010C  0080     E  	mov _builtin_holtek_mant12p[0],a
  87  010D  0700     E  	mov a,rf
  87  010E  0080     E  	mov _builtin_holtek_mant1[2],a
  87  010F  0700     E  	mov a,re
  87  0110  0080     E  	mov _builtin_holtek_mant1[1],a
  87  0111  0700     E  	mov a,rd
  87  0112  0080     E  	mov _builtin_holtek_mant1[0],a
  87  0113  0F41        	mov a,65
  87  0114  0080     E  	mov _builtin_holtek_mant12p[1],a
  87  0115  0F70        	mov a,112
  87  0116  0080     E  	mov _builtin_holtek_mant2[2],a
  87  0117  0F00        	mov a,0
  87  0118  0080     E  	mov _builtin_holtek_mant2[1],a
  87  0119  0F00        	mov a,0
  87  011A  0080     E  	mov _builtin_holtek_mant2[0],a
  87  011B  2000     E  	call _builtin_holtek_dtdiv
  87  011C  0700     E  	mov a,_builtin_holtek_mant12p[0]
  87  011D  0080     E  	mov rg,a
  87  011E  0700     E  	mov a,_builtin_holtek_mant1[2]
  87  011F  0080     E  	mov rf,a
  87  0120  0700     E  	mov a,_builtin_holtek_mant1[1]
  87  0121  0080     E  	mov re,a
  87  0122  0700     E  	mov a,_builtin_holtek_mant1[0]
  87  0123  0080     E  	mov rd,a
  87  0124  0700     E  	mov a,rg
  87  0125  0080     E  	mov _builtin_holtek_mant12p[0],a
  87  0126  0700     E  	mov a,rf
  87  0127  0080     E  	mov _builtin_holtek_mant1[2],a
  87  0128  0700     E  	mov a,re
  87  0129  0080     E  	mov _builtin_holtek_mant1[1],a
  87  012A  0700     E  	mov a,rd
  87  012B  0080     E  	mov _builtin_holtek_mant1[0],a
  87  012C  0F44        	mov a,68
  87  012D  0080     E  	mov _builtin_holtek_mant12p[1],a
  87  012E  0F7A        	mov a,122
  87  012F  0080     E  	mov _builtin_holtek_mant2[2],a
  87  0130  0F00        	mov a,0
  87  0131  0080     E  	mov _builtin_holtek_mant2[1],a
  87  0132  0F00        	mov a,0
  87  0133  0080     E  	mov _builtin_holtek_mant2[0],a
  87  0134  2000     E  	call _builtin_holtek_dtmul
"File: co.c          Assembler  Version HGASM0202      Page 16

  87  0135  0700     E  	mov a,_builtin_holtek_mant12p[0]
  87  0136  0080     E  	mov rg,a
  87  0137  0700     E  	mov a,_builtin_holtek_mant1[2]
  87  0138  0080     E  	mov rf,a
  87  0139  0700     E  	mov a,_builtin_holtek_mant1[1]
  87  013A  0080     E  	mov re,a
  87  013B  0700     E  	mov a,_builtin_holtek_mant1[0]
  87  013C  0080     E  	mov rd,a
  87  013D  0700     E  	mov a,rg
  87  013E  0080     E  	mov _builtin_holtek_mant12p[0],a
  87  013F  0700     E  	mov a,rf
  87  0140  0080     E  	mov _builtin_holtek_mant1[2],a
  87  0141  0700     E  	mov a,re
  87  0142  0080     E  	mov _builtin_holtek_mant1[1],a
  87  0143  0700     E  	mov a,rd
  87  0144  0080     E  	mov _builtin_holtek_mant1[0],a
  87  0145  0F3D        	mov a,61
  87  0146  0080     E  	mov _builtin_holtek_mant12p[1],a
  87  0147  0F23        	mov a,35
  87  0148  0080     E  	mov _builtin_holtek_mant2[2],a
  87  0149  0FD7        	mov a,215
  87  014A  0080     E  	mov _builtin_holtek_mant2[1],a
  87  014B  0F0A        	mov a,10
  87  014C  0080     E  	mov _builtin_holtek_mant2[0],a
  87  014D  2000     E  	call _builtin_holtek_dtmul
  87  014E  0700     E  	mov a,_builtin_holtek_mant12p[0]
  87  014F  0080     E  	mov rg,a
  87  0150  0700     E  	mov a,_builtin_holtek_mant1[2]
  87  0151  0080     E  	mov rf,a
  87  0152  0700     E  	mov a,_builtin_holtek_mant1[1]
  87  0153  0080     E  	mov re,a
  87  0154  0700     E  	mov a,_builtin_holtek_mant1[0]
  87  0155  0080     E  	mov rd,a
  87  0156  0700     E  	mov a,rg
  87  0157  0080     E  	mov rh,a
  87  0158  0700     E  	mov a,rf
  87  0159  0080     E  	mov rg,a
  87  015A  0700     E  	mov a,re
  87  015B  0080     E  	mov rf,a
  88  015C              #line 88 "c:\users\tech\desktop\codetector\co.c"
  88  015C  0700     E  	mov a,rc
  88  015D  0080     E  	mov _builtin_holtek_mant1[2],a
  88  015E  0700     E  	mov a,rb
  88  015F  0080     E  	mov _builtin_holtek_mant1[1],a
  88  0160  0700     E  	mov a,ra
  88  0161  0080     E  	mov _builtin_holtek_mant1[0],a
  88  0162  0700     E  	mov a,rh
  88  0163  0080     E  	mov _builtin_holtek_mant2[2],a
  88  0164  0700     E  	mov a,rg
  88  0165  0080     E  	mov _builtin_holtek_mant2[1],a
  88  0166  0700     E  	mov a,rf
  88  0167  0080     E  	mov _builtin_holtek_mant2[0],a
  88  0168  2000     E  	call _builtin_holtek_ftmul
  88  0169  0700     E  	mov a,_builtin_holtek_mant1[2]
  88  016A  0080     E  	mov re,a
  88  016B  0700     E  	mov a,_builtin_holtek_mant1[1]
  88  016C  0080     E  	mov rd,a
  88  016D  0700     E  	mov a,_builtin_holtek_mant1[0]
  88  016E  0080     E  	mov rc,a
  88  016F  0700     E  	mov a,rc
"File: co.c          Assembler  Version HGASM0202      Page 17

  88  0170  0080     R  	mov _COValue[0],a
  88  0171  0700     E  	mov a,rd
  88  0172  0080     R  	mov _COValue[1],a
  88  0173  0700     E  	mov a,re
  88  0174  0080     R  	mov _COValue[2],a
  89  0175              #line 89 "c:\users\tech\desktop\codetector\co.c"
  89  0175  345D        	clr [93].0
  91  0176              #line 91 "c:\users\tech\desktop\codetector\co.c"
  91  0176  0700     R  	mov a,_alarmCounter[0]
  91  0177  0080     E  	mov rf,a
  91  0178  0700     R  	mov a,_alarmCounter[1]
  91  0179  0080     E  	mov rg,a
  91  017A  0F1D        	mov a,29
  91  017B  0200     E  	sub a,rf
  91  017C  0F00        	mov a,0
  91  017D  1200     E  	sbc a,rg
  91  017E  3C0A        	sz c
  91  017F  2800     R  	jmp _L27
  91  0180  0700     E  	mov a,re
  91  0181  0080     E  	mov _builtin_holtek_mant1[2],a
  91  0182  0700     E  	mov a,rd
  91  0183  0080     E  	mov _builtin_holtek_mant1[1],a
  91  0184  0700     E  	mov a,rc
  91  0185  0080     E  	mov _builtin_holtek_mant1[0],a
  91  0186  0F43        	mov a,67
  91  0187  0080     E  	mov _builtin_holtek_mant2[2],a
  91  0188  0FC8        	mov a,200
  91  0189  0080     E  	mov _builtin_holtek_mant2[1],a
  91  018A  0F00        	mov a,0
  91  018B  0080     E  	mov _builtin_holtek_mant2[0],a
  91  018C  2000     E  	call _builtin_holtek_ftsub
  91  018D  3C00     E  	sz _builtin_holtek_mant1[2].7
  91  018E  2800     R  	jmp _LI1
  91  018F  0700     E  	mov a,_builtin_holtek_mant1[2]
  91  0190  0500     E  	or a,_builtin_holtek_mant1[1]
  91  0191  0500     E  	or a,_builtin_holtek_mant1[0]
  91  0192  390A        	snz z
  91  0193  2800     R  	jmp _L28
  91  0194              _LI1:
  91  0194  0F4A        	mov a,74
  91  0195  0200     E  	sub a,rf
  91  0196  0F00        	mov a,0
  91  0197  1200     E  	sbc a,rg
  91  0198  3C0A        	sz c
  91  0199  2800     R  	jmp _L27
  91  019A  0700     E  	mov a,re
  91  019B  0080     E  	mov _builtin_holtek_mant1[2],a
  91  019C  0700     E  	mov a,rd
  91  019D  0080     E  	mov _builtin_holtek_mant1[1],a
  91  019E  0700     E  	mov a,rc
  91  019F  0080     E  	mov _builtin_holtek_mant1[0],a
  91  01A0  0F42        	mov a,66
  91  01A1  0080     E  	mov _builtin_holtek_mant2[2],a
  91  01A2  0FFA        	mov a,250
  91  01A3  0080     E  	mov _builtin_holtek_mant2[1],a
  91  01A4  0F00        	mov a,0
  91  01A5  0080     E  	mov _builtin_holtek_mant2[0],a
  91  01A6  2000     E  	call _builtin_holtek_ftsub
  91  01A7  3C00     E  	sz _builtin_holtek_mant1[2].7
  91  01A8  2800     R  	jmp _LI2
"File: co.c          Assembler  Version HGASM0202      Page 18

  91  01A9  0700     E  	mov a,_builtin_holtek_mant1[2]
  91  01AA  0500     E  	or a,_builtin_holtek_mant1[1]
  91  01AB  0500     E  	or a,_builtin_holtek_mant1[0]
  91  01AC  390A        	snz z
  91  01AD  2800     R  	jmp _L28
  91  01AE              _LI2:
  91  01AE  0F76        	mov a,118
  91  01AF  0200     E  	sub a,rf
  91  01B0  0F01        	mov a,1
  91  01B1  1200     E  	sbc a,rg
  91  01B2  3C0A        	sz c
  91  01B3  2800     R  	jmp _L27
  91  01B4  0700     E  	mov a,re
  91  01B5  0080     E  	mov _builtin_holtek_mant1[2],a
  91  01B6  0700     E  	mov a,rd
  91  01B7  0080     E  	mov _builtin_holtek_mant1[1],a
  91  01B8  0700     E  	mov a,rc
  91  01B9  0080     E  	mov _builtin_holtek_mant1[0],a
  91  01BA  0F42        	mov a,66
  91  01BB  0080     E  	mov _builtin_holtek_mant2[2],a
  91  01BC  0F96        	mov a,150
  91  01BD  0080     E  	mov _builtin_holtek_mant2[1],a
  91  01BE  0F00        	mov a,0
  91  01BF  0080     E  	mov _builtin_holtek_mant2[0],a
  91  01C0  2000     E  	call _builtin_holtek_ftsub
  91  01C1  3C00     E  	sz _builtin_holtek_mant1[2].7
  91  01C2  2800     R  	jmp _LI3
  91  01C3  0700     E  	mov a,_builtin_holtek_mant1[2]
  91  01C4  0500     E  	or a,_builtin_holtek_mant1[1]
  91  01C5  0500     E  	or a,_builtin_holtek_mant1[0]
  91  01C6  390A        	snz z
  91  01C7  2800     R  	jmp _L28
  91  01C8              _LI3:
  91  01C8  0F0F        	mov a,15
  91  01C9  0200     E  	sub a,rf
  91  01CA  0F0E        	mov a,14
  91  01CB  1200     E  	sbc a,rg
  91  01CC  3C0A        	sz c
  91  01CD  2800     R  	jmp _L27
  91  01CE  0700     E  	mov a,re
  91  01CF  0080     E  	mov _builtin_holtek_mant1[2],a
  91  01D0  0700     E  	mov a,rd
  91  01D1  0080     E  	mov _builtin_holtek_mant1[1],a
  91  01D2  0700     E  	mov a,rc
  91  01D3  0080     E  	mov _builtin_holtek_mant1[0],a
  91  01D4  0F41        	mov a,65
  91  01D5  0080     E  	mov _builtin_holtek_mant2[2],a
  91  01D6  0FF0        	mov a,240
  91  01D7  0080     E  	mov _builtin_holtek_mant2[1],a
  91  01D8  0F00        	mov a,0
  91  01D9  0080     E  	mov _builtin_holtek_mant2[0],a
  91  01DA  2000     E  	call _builtin_holtek_ftsub
  91  01DB  3C00     E  	sz _builtin_holtek_mant1[2].7
  91  01DC  2800     R  	jmp _LI4
  91  01DD  0700     E  	mov a,_builtin_holtek_mant1[2]
  91  01DE  0500     E  	or a,_builtin_holtek_mant1[1]
  91  01DF  0500     E  	or a,_builtin_holtek_mant1[0]
  91  01E0  390A        	snz z
  91  01E1  2800     R  	jmp _L28
  91  01E2              _LI4:
"File: co.c          Assembler  Version HGASM0202      Page 19

  91  01E2  2800     R  	jmp _L27
  91  01E3              _L28:
  91  01E3  0F01        	mov a,1
  91  01E4  2000     E  	call _PWMSeter
  91  01E5              _L27:
  92  01E5              #line 92 "c:\users\tech\desktop\codetector\co.c"
  92  01E5  0700     R  	mov a,_COValue[2]
  92  01E6  0080     E  	mov _builtin_holtek_mant1[2],a
  92  01E7  0700     R  	mov a,_COValue[1]
  92  01E8  0080     E  	mov _builtin_holtek_mant1[1],a
  92  01E9  0700     R  	mov a,_COValue[0]
  92  01EA  0080     E  	mov _builtin_holtek_mant1[0],a
  92  01EB  0F41        	mov a,65
  92  01EC  0080     E  	mov _builtin_holtek_mant2[2],a
  92  01ED  0FF0        	mov a,240
  92  01EE  0080     E  	mov _builtin_holtek_mant2[1],a
  92  01EF  0F00        	mov a,0
  92  01F0  0080     E  	mov _builtin_holtek_mant2[0],a
  92  01F1  2000     E  	call _builtin_holtek_ftsub
  92  01F2  3C00     E  	sz _builtin_holtek_mant1[2].7
  92  01F3  2800     R  	jmp _LI5
  92  01F4  0700     E  	mov a,_builtin_holtek_mant1[2]
  92  01F5  0500     E  	or a,_builtin_holtek_mant1[1]
  92  01F6  0500     E  	or a,_builtin_holtek_mant1[0]
  92  01F7  390A        	snz z
  92  01F8  2800     R  	jmp _L41
  92  01F9              _LI5:
  92  01F9  2800     R  	jmp _L48
  92  01FA              _L41:
  94  01FA              #line 94 "c:\users\tech\desktop\codetector\co.c"
  94  01FA  1480     R  	inc _alarmCounter[0]
  94  01FB  3D0A        	sz z
  94  01FC  1480     R  	inc _alarmCounter[1]
  94  01FD  2800     R  	jmp _L32
  94  01FE              _L48:
  99  01FE              #line 99 "c:\users\tech\desktop\codetector\co.c"
  99  01FE  0700     R  	mov a,_alarmCounter[0]
  99  01FF  0080     E  	mov rb,a
  99  0200  0700     R  	mov a,_alarmCounter[1]
  99  0201  0080     E  	mov rc,a
  99  0202  0700     E  	mov a,rb
  99  0203  0500     E  	or a,rc
  99  0204  3D0A        	sz z
  99  0205  2800     R  	jmp _L33
  99  0206  0FFF        	mov a,255
  99  0207  0300     E  	add a,rb
  99  0208  0080     R  	mov _alarmCounter[0],a
  99  0209  0FFF        	mov a,255
  99  020A  1300     E  	adc a,rc
  99  020B  0080     R  	mov _alarmCounter[1],a
  99  020C              _L33:
 100  020C              #line 100 "c:\users\tech\desktop\codetector\co.c"
 100  020C  0F00        	mov a,0
 100  020D  2000     E  	call _PWMSeter
 100  020E              _L32:
 100  020E              #pragma debug scope 4 3
 100  020E              ;begin block, line: 100.-1
 100  020E              #pragma debug variable 12 4 _main_2+0 "buttonStatus"
 109  020E              #line 109 "c:\users\tech\desktop\codetector\co.c"
 109  020E  2000     E  	call _key
"File: co.c          Assembler  Version HGASM0202      Page 20

 109  020F  0700     E  	mov a,ra
 109  0210  0080     R  	mov _main_2[0],a
 109  0211  0700     E  	mov a,rb
 109  0212  0080     R  	mov _main_2[1],a
 111  0213              #line 111 "c:\users\tech\desktop\codetector\co.c"
 111  0213  0700     E  	mov a,ra
 111  0214  0C04        	xor a,4
 111  0215  0500     E  	or a,rb
 111  0216  390A        	snz z
 111  0217  2800     R  	jmp _L35
 113  0218              #line 113 "c:\users\tech\desktop\codetector\co.c"
 113  0218              ;# 113 "c:\users\tech\desktop\codetector\co.c" 1
 113  0218  0002        	halt
 113  0219  2800     R  	jmp _L36
 113  021A              _L35:
 117  021A              #line 117 "c:\users\tech\desktop\codetector\co.c"
 117  021A  3216        	set [22].4
 118  021B              #line 118 "c:\users\tech\desktop\codetector\co.c"
 118  021B  3217        	set [23].4
 119  021C              #line 119 "c:\users\tech\desktop\codetector\co.c"
 119  021C  0F38        	mov a,56
 119  021D  0097        	mov [23],a
 120  021E              #line 120 "c:\users\tech\desktop\codetector\co.c"
 120  021E  2000     E  	call _clearSegment
 122  021F              #line 122 "c:\users\tech\desktop\codetector\co.c"
 122  021F  0700     R  	mov a,_main_2[0]
 122  0220  0500     R  	or a,_main_2[1]
 122  0221  390A        	snz z
 122  0222  2800     R  	jmp _L37
 124  0223              #line 124 "c:\users\tech\desktop\codetector\co.c"
 124  0223  0F00        	mov a,0
 124  0224  2800     R  	jmp _L46
 124  0225              _L37:
 126  0225              #line 126 "c:\users\tech\desktop\codetector\co.c"
 126  0225  0700     R  	mov a,_main_2[0]
 126  0226  0C01        	xor a,1
 126  0227  0500     R  	or a,_main_2[1]
 126  0228  390A        	snz z
 126  0229  2800     R  	jmp _L39
 128  022A              #line 128 "c:\users\tech\desktop\codetector\co.c"
 128  022A              ;# 128 "c:\users\tech\desktop\codetector\co.c" 1
 128  022A  0001        	clr wdt
 129  022B              #line 129 "c:\users\tech\desktop\codetector\co.c"
 129  022B  1F00     E  	clr _builtin_holtek_mant12p[0]
 129  022C  0700     R  	mov a,_temperatur[2]
 129  022D  0080     E  	mov _builtin_holtek_mant1[2],a
 129  022E  0700     R  	mov a,_temperatur[1]
 129  022F  0080     E  	mov _builtin_holtek_mant1[1],a
 129  0230  0700     R  	mov a,_temperatur[0]
 129  0231  0080     E  	mov _builtin_holtek_mant1[0],a
 129  0232  2000     E  	call _builtin_holtek_ftol
 129  0233  0700     E  	mov a,_builtin_holtek_mant12p[0]
 129  0234  0080     E  	mov rg,a
 129  0235  0700     E  	mov a,_builtin_holtek_mant1[2]
 129  0236  0080     E  	mov rf,a
 129  0237  0700     E  	mov a,_builtin_holtek_mant1[1]
 129  0238  0080     E  	mov re,a
 129  0239  0700     E  	mov a,_builtin_holtek_mant1[0]
 129  023A  0080     E  	mov rd,a
 129  023B  2800     R  	jmp _L47
"File: co.c          Assembler  Version HGASM0202      Page 21

 129  023C              _L39:
 131  023C              #line 131 "c:\users\tech\desktop\codetector\co.c"
 131  023C  0700     R  	mov a,_main_2[0]
 131  023D  0C02        	xor a,2
 131  023E  0500     R  	or a,_main_2[1]
 131  023F  390A        	snz z
 131  0240  2800     R  	jmp _L40
 133  0241              #line 133 "c:\users\tech\desktop\codetector\co.c"
 133  0241              ;# 133 "c:\users\tech\desktop\codetector\co.c" 1
 133  0241  0001        	clr wdt
 134  0242              #line 134 "c:\users\tech\desktop\codetector\co.c"
 134  0242  1F00     E  	clr _builtin_holtek_mant12p[0]
 134  0243  0700     R  	mov a,_COValue[2]
 134  0244  0080     E  	mov _builtin_holtek_mant1[2],a
 134  0245  0700     R  	mov a,_COValue[1]
 134  0246  0080     E  	mov _builtin_holtek_mant1[1],a
 134  0247  0700     R  	mov a,_COValue[0]
 134  0248  0080     E  	mov _builtin_holtek_mant1[0],a
 134  0249  2000     E  	call _builtin_holtek_ftol
 134  024A  0700     E  	mov a,_builtin_holtek_mant12p[0]
 134  024B  0080     E  	mov rg,a
 134  024C  0700     E  	mov a,_builtin_holtek_mant1[2]
 134  024D  0080     E  	mov rf,a
 134  024E  0700     E  	mov a,_builtin_holtek_mant1[1]
 134  024F  0080     E  	mov re,a
 134  0250  0700     E  	mov a,_builtin_holtek_mant1[0]
 134  0251  0080     E  	mov rd,a
 134  0252              _L47:
 134  0252  0700     E  	mov a,rd
 134  0253  0080     E  	mov _shwoSegment_2[0],a
 134  0254  0700     E  	mov a,re
 134  0255  0080     E  	mov _shwoSegment_2[1],a
 134  0256  2000     E  	call _shwoSegment
 134  0257  2800     R  	jmp _L38
 134  0258              _L40:
 137  0258              #line 137 "c:\users\tech\desktop\codetector\co.c"
 137  0258  0700     R  	mov a,_main_2[0]
 137  0259  0C03        	xor a,3
 137  025A  0500     R  	or a,_main_2[1]
 137  025B  390A        	snz z
 137  025C  2800     R  	jmp _L38
 139  025D              #line 139 "c:\users\tech\desktop\codetector\co.c"
 139  025D              ;# 139 "c:\users\tech\desktop\codetector\co.c" 1
 139  025D  0001        	clr wdt
 141  025E              #line 141 "c:\users\tech\desktop\codetector\co.c"
 141  025E  0F01        	mov a,1
 141  025F              _L46:
 141  025F  2000     E  	call _PWMSeter
 141  0260              _L38:
 145  0260              #line 145 "c:\users\tech\desktop\codetector\co.c"
 145  0260  2000     E  	call _clearSegment
 146  0261              #line 146 "c:\users\tech\desktop\codetector\co.c"
 146  0261  3216        	set [22].4
 147  0262              #line 147 "c:\users\tech\desktop\codetector\co.c"
 147  0262  3217        	set [23].4
 147  0263              _L36:
 150  0263              #line 150 "c:\users\tech\desktop\codetector\co.c"
 150  0263  2000     E  	call _clearSegment
 151  0264              #line 151 "c:\users\tech\desktop\codetector\co.c"
 151  0264  3216        	set [22].4
"File: co.c          Assembler  Version HGASM0202      Page 22

 152  0265              #line 152 "c:\users\tech\desktop\codetector\co.c"
 152  0265  3217        	set [23].4
 153  0266              #line 153 "c:\users\tech\desktop\codetector\co.c"
 153  0266  0F38        	mov a,56
 153  0267  0097        	mov [23],a
 153  0268              #pragma debug scope 3 1
 155  0268              #line 155 "c:\users\tech\desktop\codetector\co.c"
 155  0268  2800     R  	jmp _L32
 155  0269  2800     R  	jmp $
 155  026A              _main endp
 155  026A              
 155  026A              @dummy endp
 155  026A              
 155  026A              #line 155 "c:\users\tech\desktop\codetector\co.c"
 155  026A              #pragma debug scope 1 1
  31  026A              #line 31 "c:\users\tech\desktop\codetector\co.c"
  31  026A              public _alarmCounter
  31  0000              @HCCINIT0_alarmCounter .section 'data'
  31  0000  0002[       _alarmCounter	db 2 dup(0)
            00
            ]
  31  0002              #pragma debug variable 12 1 _alarmCounter "alarmCounter"
  31  0002              
  31  0000              @HCCINIT .section 'data'
  31  0000              public _VAmplifier1
  31  0000              @HCCINIT	.section 'data'
  27  0000              #line 27 "c:\users\tech\desktop\codetector\co.c"
  27  0000              @HCCINIT_VAmplifier1 .section 'data'
  27  0000              _VAmplifier1 label byte
  27  0000              #pragma debug variable 28 1 _VAmplifier1 "VAmplifier1"
  27  0000              	db 0
  27  0000              @ROMDATA_BASE .section inpage 'code'
  27  0000              	db 0
  27  0001              @HCCINIT_VAmplifier1 .section 'data'
  27  0001              	db 0
  27  0001              @ROMDATA_BASE .section inpage 'code'
  27  0001              	db 0
  27  0002              @HCCINIT_VAmplifier1 .section 'data'
  27  0002              	db 0
  27  0001              @ROMDATA_BASE .section inpage 'code'
  27  0001              	db 0
  27  0003              @HCCINIT_VAmplifier1 .section 'data'
  27  0003              public _temperatur
  26  0003              #line 26 "c:\users\tech\desktop\codetector\co.c"
  26  0000              @HCCINIT_temperatur .section 'data'
  26  0000              _temperatur label byte
  26  0000              #pragma debug variable 28 1 _temperatur "temperatur"
  26  0000              	db 0
  26  0002              @ROMDATA_BASE .section inpage 'code'
  26  0002              	db 0
  26  0001              @HCCINIT_temperatur .section 'data'
  26  0001              	db 0
  26  0002              @ROMDATA_BASE .section inpage 'code'
  26  0002              	db 0
  26  0002              @HCCINIT_temperatur .section 'data'
  26  0002              	db 0
  26  0003              @ROMDATA_BASE .section inpage 'code'
  26  0003              	db 0
  26  0003              @HCCINIT_temperatur .section 'data'
  26  0003              public _COValue
"File: co.c          Assembler  Version HGASM0202      Page 23

  25  0003              #line 25 "c:\users\tech\desktop\codetector\co.c"
  25  0000              @HCCINIT_COValue .section 'data'
  25  0000              _COValue label byte
  25  0000              #pragma debug variable 28 1 _COValue "COValue"
  25  0000              	db 0
  25  0003              @ROMDATA_BASE .section inpage 'code'
  25  0003              	db 0
  25  0001              @HCCINIT_COValue .section 'data'
  25  0001              	db 0
  25  0004              @ROMDATA_BASE .section inpage 'code'
  25  0004              	db 0
  25  0002              @HCCINIT_COValue .section 'data'
  25  0002              	db 0
  25  0004              @ROMDATA_BASE .section inpage 'code'
  25  0004              	db 0
  25  0003              @HCCINIT_COValue .section 'data'
  25  0003              public _VDD
  24  0003              #line 24 "c:\users\tech\desktop\codetector\co.c"
  24  0000              @HCCINIT_VDD .section 'data'
  24  0000              _VDD label byte
  24  0000              #pragma debug variable 28 1 _VDD "VDD"
  24  0000              	db 0
  24  0005              @ROMDATA_BASE .section inpage 'code'
  24  0005              	db 0
  24  0001              @HCCINIT_VDD .section 'data'
  24  0001              	db 0
  24  0005              @ROMDATA_BASE .section inpage 'code'
  24  0005              	db 0
  24  0002              @HCCINIT_VDD .section 'data'
  24  0002              	db 0
  24  0006              @ROMDATA_BASE .section inpage 'code'
  24  0006              	db 0
  24  0003              @HCCINIT_VDD .section 'data'
  24  0003              #pragma debug struct_end
  24  0003              #pragma debug struct_end
  24  0003              #pragma debug union_end
  24  0003              #pragma debug union_end
  24  0003              #pragma debug variable 43 1 ___status "__status" 1
  24  0003              #pragma debug struct_end
  24  0003              #pragma debug struct_end
  24  0003              #pragma debug union_end
  24  0003              #pragma debug union_end
  24  0003              #pragma debug variable 45 1 ___vbgrc "__vbgrc" 1
  24  0003              #pragma debug struct_end
  24  0003              #pragma debug struct_end
  24  0003              #pragma debug union_end
  24  0003              #pragma debug union_end
  24  0003              #pragma debug variable 47 1 ___papu "__papu" 1
  24  0003              #pragma debug struct_end
  24  0003              #pragma debug struct_end
  24  0003              #pragma debug union_end
  24  0003              #pragma debug union_end
  24  0003              #pragma debug variable 49 1 ___pawu "__pawu" 1
  24  0003              #pragma debug struct_end
  24  0003              #pragma debug struct_end
  24  0003              #pragma debug union_end
  24  0003              #pragma debug union_end
  24  0003              #pragma debug variable 51 1 ___sda0c "__sda0c" 1
  24  0003              #pragma debug struct_end
  24  0003              #pragma debug struct_end
"File: co.c          Assembler  Version HGASM0202      Page 24

  24  0003              #pragma debug union_end
  24  0003              #pragma debug union_end
  24  0003              #pragma debug variable 53 1 ___sda1c "__sda1c" 1
  24  0003              #pragma debug struct_end
  24  0003              #pragma debug struct_end
  24  0003              #pragma debug union_end
  24  0003              #pragma debug union_end
  24  0003              #pragma debug variable 55 1 ___isgenc "__isgenc" 1
  55  0003              #line 55 "c:\users\tech\desktop\codetector\co.c"
  55  0000              @code .section at 0 'code'
  55  0000  2800     R  	jmp _main_startup1
  55  0001              
  55  0001              extern _builtin_holtek_mant1:byte
  55  0001              extern _builtin_holtek_mant2:byte
  55  0001              extern _builtin_holtek_ftsub:near
  55  0001              extern _builtin_holtek_ftadd:near
  55  0001              extern _builtin_holtek_mant12p:byte
  55  0001              extern _builtin_holtek_dtmul:near
  55  0001              extern _builtin_holtek_dtadd:near
  55  0001              extern _ClockInit:near
  55  0001              extern _GPIOInit:near
  55  0001              extern _GPIOToGNDCurentInit:near
  55  0001              extern _OPAMPInit:near
  55  0001              extern _S_ADC_Init:near
  55  0001              extern _PTimerInit:near
  55  0001              extern _PWMSeter:near
  55  0001              extern _clearSegment:near
  55  0001              extern _S_READ_ADC:near
  55  0001              extern _builtin_holtek_signs:byte
  55  0001              extern _builtin_holtek_uitod:near
  55  0001              extern _builtin_holtek_dtdiv:near
  55  0001              extern _temperature_2:byte
  55  0001              extern _temperature:near
  55  0001              extern _builtin_holtek_uitof:near
  55  0001              extern _builtin_holtek_ftdiv:near
  55  0001              extern _builtin_holtek_ftmul:near
  55  0001              extern _key:near
  55  0001              extern _builtin_holtek_ftol:near
  55  0001              extern _shwoSegment_2:byte
  55  0001              extern _shwoSegment:near
  55  0001              
  55  0001              ; 
  55  0001              ; Generated by holtek-gcc v3.19, Sun Oct 01 13:24:22 2023
  55  0001              ; Rebuild 718
  55  0001              ; end of file


        0 Errors, 0