"File: Main.c        Assembler  Version HGASM0202      Page 1


   1  0000              ; Generated by holtek-gcc v3.19, Sat Oct 07 11:57:57 2023
   2  0000              ; 
   3  0000              ; Configuration:
   4  0000              ;       with long instruction
   5  0000              ;       Single ROM, Multi-RAM
   6  0000              ;       bits_per_rom_unit:16
   7  0000              ;       with mp1
   8  0000              ;       with tbhp, address(0x9)
   9  0000              ;          Use tabrd-const
  10  0000              ;       
  11  0000              ; SFR address of long-instruction arch:
  12  0000              ;    mp0 = -1,1,0
  13  0000              ;    mp1 = 4,3,2
  14  0000              ;    mp2 = 14,13,12
  15  0000              ;    tbp = 9,7,8
  16  0000              ;    acc = 5
  17  0000              ;    pcl = 6
  18  0000              ;    status = 10
  19  0000              ;    bp = 11
  20  0000              ;    intc = 72
  21  0000              ;       
  22  0000              ;       
  23  0000              ; use 'tabrdc' instead of 'tabrd'
  24  0000              ;       
  25  0000              
  26  0000              #pragma translator "holtek-gcc 4.6.4" "3.19" "build 20130711"
  27  0000              ; Rebuild 718
  28  0000              
  29  0000              ir equ [2]
  30  0000              mp equ [3]
  31  0000              sbp equ [4]
  32  0000              acc equ [5]
  33  0000              bp equ [11]
  34  0000              tblp equ [7]
  35  0000              tbhp equ [9]
  36  0000              status equ [10]
  37  0000              c equ [10].0
  38  0000              ac equ [10].1
  39  0000              z equ [10].2
  40  0000              ov equ [10].3
  41  0000              cz equ [10].6
  42  0000              sc equ [10].7
  43  0000              intc equ [72]
  44  0000              
  45  0000              extern ra:byte
  46  0000              extern rb:byte
  47  0000              extern rc:byte
  48  0000              extern rd:byte
  49  0000              extern re:byte
  50  0000              extern rf:byte
  51  0000              extern rg:byte
  52  0000              extern rh:byte
  53  0000              extern _Crom2Prom:near
  54  0000              extern _Crom2PromNext:near
  55  0000              
  56  0000              RAMBANK 0 @BITDATASEC, @BITDATASEC1
  57  0000              @HCCINIT	.section 'data'
  58  0000              @HCCINIT0	.section 'data'
  59  0000              @BITDATASEC	 .section 'data'
"File: Main.ASM      Assembler  Version HGASM0202      Page 2

  60  0000              @BITDATASEC1	 .section 'data'
  61  0000              
  62  0000              #pragma debug scope 1 1
  63  0000              	extern __DELAY3:near
  64  0000              	extern __DELAYX3:near
  65  0000              	extern __DELAYX6:near
  66  0000              	extern __DELAYY5:near
  67  0000              	extern __DELAYY3:near
  68  0000              	extern _builtin_holtek_delay_2:byte
  69  0000              public _CO
  70  0000              #pragma debug scope 2 1

  57  0000              #line 57 "c:\users\tech\desktop\codetector\main\Main.c"
  57  0000              _CO .section 'code'
  57  0000              _CO proc
  57  0000              public _CO_2
  57  0000  0005[           local _CO_2 db 5 dup(?)	; 5,0
            00
            ]
  57  0005              #pragma debug variable 28 2 _CO_2+0 "VCO"
  57  0005              #pragma debug variable 12 2 _CO_2+3 "ADC"
  71  0005              #line 71 "c:\users\tech\desktop\codetector\main\Main.c"
  71  0000  0700     R  	mov a,_CO_2[4]
  71  0001  0080     E  	mov _builtin_holtek_mant1[1],a
  71  0002  0700     R  	mov a,_CO_2[3]
  71  0003  0080     E  	mov _builtin_holtek_mant1[0],a
  71  0004  3400     E  	clr _builtin_holtek_signs.0
  71  0005  2000     E  	call _builtin_holtek_uitof
  71  0006  0700     E  	mov a,_builtin_holtek_mant1[2]
  71  0007  0080     E  	mov rh,a
  71  0008  0700     E  	mov a,_builtin_holtek_mant1[1]
  71  0009  0080     E  	mov rg,a
  71  000A  0700     E  	mov a,_builtin_holtek_mant1[0]
  71  000B  0080     E  	mov rf,a
  71  000C  0700     R  	mov a,_CO_2[2]
  71  000D  0080     E  	mov _builtin_holtek_mant1[2],a
  71  000E  0700     R  	mov a,_CO_2[1]
  71  000F  0080     E  	mov _builtin_holtek_mant1[1],a
  71  0010  0700     R  	mov a,_CO_2[0]
  71  0011  0080     E  	mov _builtin_holtek_mant1[0],a
  71  0012  0F45        	mov a,69
  71  0013  0080     E  	mov _builtin_holtek_mant2[2],a
  71  0014  0F7F        	mov a,127
  71  0015  0080     E  	mov _builtin_holtek_mant2[1],a
  71  0016  0FF0        	mov a,240
  71  0017  0080     E  	mov _builtin_holtek_mant2[0],a
  71  0018  2000     E  	call _builtin_holtek_ftdiv
  71  0019  0700     E  	mov a,_builtin_holtek_mant1[2]
  71  001A  0080     E  	mov re,a
  71  001B  0700     E  	mov a,_builtin_holtek_mant1[1]
  71  001C  0080     E  	mov rd,a
  71  001D  0700     E  	mov a,_builtin_holtek_mant1[0]
  71  001E  0080     E  	mov rc,a
  71  001F  0700     E  	mov a,rh
  71  0020  0080     E  	mov _builtin_holtek_mant1[2],a
  71  0021  0700     E  	mov a,rg
  71  0022  0080     E  	mov _builtin_holtek_mant1[1],a
  71  0023  0700     E  	mov a,rf
  71  0024  0080     E  	mov _builtin_holtek_mant1[0],a
  71  0025  0700     E  	mov a,re
"File: Main.c        Assembler  Version HGASM0202      Page 3

  71  0026  0080     E  	mov _builtin_holtek_mant2[2],a
  71  0027  0700     E  	mov a,rd
  71  0028  0080     E  	mov _builtin_holtek_mant2[1],a
  71  0029  0700     E  	mov a,rc
  71  002A  0080     E  	mov _builtin_holtek_mant2[0],a
  71  002B  2000     E  	call _builtin_holtek_ftmul
  71  002C  0700     E  	mov a,_builtin_holtek_mant1[2]
  71  002D  0080     E  	mov re,a
  71  002E  0700     E  	mov a,_builtin_holtek_mant1[1]
  71  002F  0080     E  	mov rd,a
  71  0030  0700     E  	mov a,_builtin_holtek_mant1[0]
  71  0031  0080     E  	mov rc,a
  72  0032              #line 72 "c:\users\tech\desktop\codetector\main\Main.c"
  72  0032  0700     E  	mov a,re
  72  0033  0080     E  	mov rg,a
  72  0034  0700     E  	mov a,rd
  72  0035  0080     E  	mov rf,a
  72  0036  0700     E  	mov a,rc
  72  0037  0080     E  	mov re,a
  72  0038  1F00     E  	clr rd
  72  0039  0700     E  	mov a,rg
  72  003A  0080     E  	mov _builtin_holtek_mant12p[0],a
  72  003B  0700     E  	mov a,rf
  72  003C  0080     E  	mov _builtin_holtek_mant1[2],a
  72  003D  0700     E  	mov a,re
  72  003E  0080     E  	mov _builtin_holtek_mant1[1],a
  72  003F  0700     E  	mov a,rd
  72  0040  0080     E  	mov _builtin_holtek_mant1[0],a
  72  0041  0F40        	mov a,64
  72  0042  0080     E  	mov _builtin_holtek_mant12p[1],a
  72  0043  0FF5        	mov a,245
  72  0044  0080     E  	mov _builtin_holtek_mant2[2],a
  72  0045  0F55        	mov a,85
  72  0046  0080     E  	mov _builtin_holtek_mant2[1],a
  72  0047  0F55        	mov a,85
  72  0048  0080     E  	mov _builtin_holtek_mant2[0],a
  72  0049  2000     E  	call _builtin_holtek_dtdiv
  72  004A  0700     E  	mov a,_builtin_holtek_mant12p[0]
  72  004B  0080     E  	mov rg,a
  72  004C  0700     E  	mov a,_builtin_holtek_mant1[2]
  72  004D  0080     E  	mov rf,a
  72  004E  0700     E  	mov a,_builtin_holtek_mant1[1]
  72  004F  0080     E  	mov re,a
  72  0050  0700     E  	mov a,_builtin_holtek_mant1[0]
  72  0051  0080     E  	mov rd,a
  72  0052  0700     E  	mov a,rg
  72  0053  0080     E  	mov _builtin_holtek_mant12p[0],a
  72  0054  0700     E  	mov a,rf
  72  0055  0080     E  	mov _builtin_holtek_mant1[2],a
  72  0056  0700     E  	mov a,re
  72  0057  0080     E  	mov _builtin_holtek_mant1[1],a
  72  0058  0700     E  	mov a,rd
  72  0059  0080     E  	mov _builtin_holtek_mant1[0],a
  72  005A  0F44        	mov a,68
  72  005B  0080     E  	mov _builtin_holtek_mant12p[1],a
  72  005C  0F7A        	mov a,122
  72  005D  0080     E  	mov _builtin_holtek_mant2[2],a
  72  005E  0F00        	mov a,0
  72  005F  0080     E  	mov _builtin_holtek_mant2[1],a
  72  0060  0F00        	mov a,0
"File: Main.c        Assembler  Version HGASM0202      Page 4

  72  0061  0080     E  	mov _builtin_holtek_mant2[0],a
  72  0062  2000     E  	call _builtin_holtek_dtmul
  72  0063  0700     E  	mov a,_builtin_holtek_mant12p[0]
  72  0064  0080     E  	mov rg,a
  72  0065  0700     E  	mov a,_builtin_holtek_mant1[2]
  72  0066  0080     E  	mov rf,a
  72  0067  0700     E  	mov a,_builtin_holtek_mant1[1]
  72  0068  0080     E  	mov re,a
  72  0069  0700     E  	mov a,_builtin_holtek_mant1[0]
  72  006A  0080     E  	mov rd,a
  72  006B  0700     E  	mov a,rg
  72  006C  0080     E  	mov _builtin_holtek_mant12p[0],a
  72  006D  0700     E  	mov a,rf
  72  006E  0080     E  	mov _builtin_holtek_mant1[2],a
  72  006F  0700     E  	mov a,re
  72  0070  0080     E  	mov _builtin_holtek_mant1[1],a
  72  0071  0700     E  	mov a,rd
  72  0072  0080     E  	mov _builtin_holtek_mant1[0],a
  72  0073  0F41        	mov a,65
  72  0074  0080     E  	mov _builtin_holtek_mant12p[1],a
  72  0075  0F70        	mov a,112
  72  0076  0080     E  	mov _builtin_holtek_mant2[2],a
  72  0077  0F00        	mov a,0
  72  0078  0080     E  	mov _builtin_holtek_mant2[1],a
  72  0079  0F00        	mov a,0
  72  007A  0080     E  	mov _builtin_holtek_mant2[0],a
  72  007B  2000     E  	call _builtin_holtek_dtdiv
  72  007C  0700     E  	mov a,_builtin_holtek_mant12p[0]
  72  007D  0080     E  	mov rg,a
  72  007E  0700     E  	mov a,_builtin_holtek_mant1[2]
  72  007F  0080     E  	mov rf,a
  72  0080  0700     E  	mov a,_builtin_holtek_mant1[1]
  72  0081  0080     E  	mov re,a
  72  0082  0700     E  	mov a,_builtin_holtek_mant1[0]
  72  0083  0080     E  	mov rd,a
  72  0084  0700     E  	mov a,rg
  72  0085  0080     E  	mov _builtin_holtek_mant12p[0],a
  72  0086  0700     E  	mov a,rf
  72  0087  0080     E  	mov _builtin_holtek_mant1[2],a
  72  0088  0700     E  	mov a,re
  72  0089  0080     E  	mov _builtin_holtek_mant1[1],a
  72  008A  0700     E  	mov a,rd
  72  008B  0080     E  	mov _builtin_holtek_mant1[0],a
  72  008C  0F44        	mov a,68
  72  008D  0080     E  	mov _builtin_holtek_mant12p[1],a
  72  008E  0F7A        	mov a,122
  72  008F  0080     E  	mov _builtin_holtek_mant2[2],a
  72  0090  0F00        	mov a,0
  72  0091  0080     E  	mov _builtin_holtek_mant2[1],a
  72  0092  0F00        	mov a,0
  72  0093  0080     E  	mov _builtin_holtek_mant2[0],a
  72  0094  2000     E  	call _builtin_holtek_dtmul
  72  0095  0700     E  	mov a,_builtin_holtek_mant12p[0]
  72  0096  0080     E  	mov rg,a
  72  0097  0700     E  	mov a,_builtin_holtek_mant1[2]
  72  0098  0080     E  	mov rf,a
  72  0099  0700     E  	mov a,_builtin_holtek_mant1[1]
  72  009A  0080     E  	mov re,a
  72  009B  0700     E  	mov a,_builtin_holtek_mant1[0]
  72  009C  0080     E  	mov rd,a
"File: Main.c        Assembler  Version HGASM0202      Page 5

  72  009D  0700     E  	mov a,rg
  72  009E  0080     E  	mov _builtin_holtek_mant12p[0],a
  72  009F  0700     E  	mov a,rf
  72  00A0  0080     E  	mov _builtin_holtek_mant1[2],a
  72  00A1  0700     E  	mov a,re
  72  00A2  0080     E  	mov _builtin_holtek_mant1[1],a
  72  00A3  0700     E  	mov a,rd
  72  00A4  0080     E  	mov _builtin_holtek_mant1[0],a
  72  00A5  0F3D        	mov a,61
  72  00A6  0080     E  	mov _builtin_holtek_mant12p[1],a
  72  00A7  0F23        	mov a,35
  72  00A8  0080     E  	mov _builtin_holtek_mant2[2],a
  72  00A9  0FD7        	mov a,215
  72  00AA  0080     E  	mov _builtin_holtek_mant2[1],a
  72  00AB  0F0A        	mov a,10
  72  00AC  0080     E  	mov _builtin_holtek_mant2[0],a
  72  00AD  2000     E  	call _builtin_holtek_dtmul
  72  00AE  0700     E  	mov a,_builtin_holtek_mant12p[0]
  72  00AF  0080     E  	mov rg,a
  72  00B0  0700     E  	mov a,_builtin_holtek_mant1[2]
  72  00B1  0080     E  	mov rf,a
  72  00B2  0700     E  	mov a,_builtin_holtek_mant1[1]
  72  00B3  0080     E  	mov re,a
  72  00B4  0700     E  	mov a,_builtin_holtek_mant1[0]
  72  00B5  0080     E  	mov rd,a
  72  00B6  0700     E  	mov a,re
  72  00B7  0080     E  	mov rc,a
  72  00B8  0700     E  	mov a,rf
  72  00B9  0080     E  	mov rd,a
  72  00BA  0700     E  	mov a,rg
  72  00BB  0080     E  	mov re,a
  74  00BC              #line 74 "c:\users\tech\desktop\codetector\main\Main.c"
  74  00BC  1F00     E  	clr _builtin_holtek_mant12p[0]
  74  00BD  0700     E  	mov a,re
  74  00BE  0080     E  	mov _builtin_holtek_mant1[2],a
  74  00BF  0700     E  	mov a,rd
  74  00C0  0080     E  	mov _builtin_holtek_mant1[1],a
  74  00C1  0700     E  	mov a,rc
  74  00C2  0080     E  	mov _builtin_holtek_mant1[0],a
  74  00C3  2000     E  	call _builtin_holtek_ftol
  74  00C4  0700     E  	mov a,_builtin_holtek_mant12p[0]
  74  00C5  0080     E  	mov rd,a
  74  00C6  0700     E  	mov a,_builtin_holtek_mant1[2]
  74  00C7  0080     E  	mov rc,a
  74  00C8  0700     E  	mov a,_builtin_holtek_mant1[1]
  74  00C9  0080     E  	mov rb,a
  74  00CA  0700     E  	mov a,_builtin_holtek_mant1[0]
  74  00CB  0080     E  	mov ra,a
  74  00CC  0003        	ret
  74  00CD              _CO endp
  74  00CD              #line 74 "c:\users\tech\desktop\codetector\main\Main.c"
  74  00CD              #pragma debug scope 1 1
  74  00CD              public _buzzerBIB
  74  00CD              #pragma debug scope 3 1
  87  00CD              #line 87 "c:\users\tech\desktop\codetector\main\Main.c"
  87  0000              _buzzerBIB .section 'code'
  87  0000              _buzzerBIB proc
  87  0000  0003[           local _buzzerBIB_2 db 3 dup(?)	; 0,3
            00
            ]
"File: Main.c        Assembler  Version HGASM0202      Page 6

  87  0000  0080     R  	mov _buzzerBIB_2[0],a
  87  0001              #pragma debug variable 7 3 _buzzerBIB_2+0 "number"
  89  0001              #line 89 "c:\users\tech\desktop\codetector\main\Main.c"
  89  0001  1F00     E  	clr rb
  89  0002  1F00     E  	clr rc
  89  0003              _L3:
  94  0003              #line 94 "c:\users\tech\desktop\codetector\main\Main.c"
  94  0003  0F01        	mov a,1
  94  0004  0300     E  	add a,rb
  94  0005  0080     R  	mov _buzzerBIB_2[1],a
  94  0006  0F00        	mov a,0
  94  0007  1300     E  	adc a,rc
  94  0008  0080     R  	mov _buzzerBIB_2[2],a
  95  0009              #line 95 "c:\users\tech\desktop\codetector\main\Main.c"
  95  0009              ;# 95 "c:\users\tech\desktop\codetector\main\Main.c" 1
  95  0009              	IF 30000>263690
  95  0009              ;# 95 "c:\users\tech\desktop\codetector\main\Main.c" 1
  95  0009              	ERRMESSAGE 'the value 30000of the argument exceeds the maxinum 263690'
  95  0009              	ENDIF
  95  0009              ;# 95 "c:\users\tech\desktop\codetector\main\Main.c" 1
  95  0009              	IF 30000<0
  95  0009              ;# 95 "c:\users\tech\desktop\codetector\main\Main.c" 1
  95  0009              	ERRMESSAGE 'the value 30000 of the argument exceeds the mininum 0'
  95  0009              	ENDIF
  95  0009              ;# 95 "c:\users\tech\desktop\codetector\main\Main.c" 1
  95  0009              	IF 30000==0
  95  0009              ;# 95 "c:\users\tech\desktop\codetector\main\Main.c" 1
  95  0009              	JMP $
  95  0009              	ENDIF
  95  0009              ;# 95 "c:\users\tech\desktop\codetector\main\Main.c" 1
  95  0009              	IF 30000==1
  95  0009              ;# 95 "c:\users\tech\desktop\codetector\main\Main.c" 1
  95  0009              	NOP
  95  0009              	ENDIF
  95  0009              ;# 95 "c:\users\tech\desktop\codetector\main\Main.c" 1
  95  0009              	IF 30000==2
  95  0009              ;# 95 "c:\users\tech\desktop\codetector\main\Main.c" 1
  95  0009              	NOP
  95  0009              ;# 95 "c:\users\tech\desktop\codetector\main\Main.c" 1
  95  0009              	NOP
  95  0009              	ENDIF
  95  0009              ;# 95 "c:\users\tech\desktop\codetector\main\Main.c" 1
  95  0009              	IF 30000==3
  95  0009              ;# 95 "c:\users\tech\desktop\codetector\main\Main.c" 1
  95  0009              	NOP
  95  0009              ;# 95 "c:\users\tech\desktop\codetector\main\Main.c" 1
  95  0009              	NOP
  95  0009              ;# 95 "c:\users\tech\desktop\codetector\main\Main.c" 1
  95  0009              	NOP
  95  0009              	ENDIF
  95  0009              ;# 95 "c:\users\tech\desktop\codetector\main\Main.c" 1
  95  0009              	IF (30000<8) AND (30000>3)
  95  0009              ;# 95 "c:\users\tech\desktop\codetector\main\Main.c" 1
  95  0009              	CALL __DELAY3 + 7 -30000
  95  0009              	ENDIF
  95  0009              ;# 95 "c:\users\tech\desktop\codetector\main\Main.c" 1
  95  0009              	IF (30000< 0404h) AND (30000>7)
  95  0009              ;# 95 "c:\users\tech\desktop\codetector\main\Main.c" 1
  95  0009              	MOV A,30000/4-1
  95  0009              ;# 95 "c:\users\tech\desktop\codetector\main\Main.c" 1
"File: Main.c        Assembler  Version HGASM0202      Page 7

  95  0009              	CALL __DELAYX3 + 3 -(30000 MOD 4)
  95  0009              	ENDIF
  95  0009              ;# 95 "c:\users\tech\desktop\codetector\main\Main.c" 1
  95  0009              	IF (30000< 0x40B) AND (30000> 0403h)
  95  0009              ;# 95 "c:\users\tech\desktop\codetector\main\Main.c" 1
  95  0009              	MOV A,0 
  95  0009              ;# 95 "c:\users\tech\desktop\codetector\main\Main.c" 1
  95  0009              	CALL __DELAYX6 + 0x40a -30000
  95  0009              	ENDIF
  95  0009              ;# 95 "c:\users\tech\desktop\codetector\main\Main.c" 1
  95  0009              	IF (30000 >= 0x40b) AND ((((30000-9)%0402h)/4+1)>256)
  95  0009              ;# 95 "c:\users\tech\desktop\codetector\main\Main.c" 1
  95  0009              	MOV A,(30000-9)/0402h
  95  0009              ;# 95 "c:\users\tech\desktop\codetector\main\Main.c" 1
  95  0009              	MOV _builtin_holtek_delay_2,A
  95  0009              ;# 95 "c:\users\tech\desktop\codetector\main\Main.c" 1
  95  0009              	MOV A,0
  95  0009              ;# 95 "c:\users\tech\desktop\codetector\main\Main.c" 1
  95  0009              	CALL __DELAYY5 +5- (((30000-9)%0402h)%6)
  95  0009              	ENDIF
  95  0009              ;# 95 "c:\users\tech\desktop\codetector\main\Main.c" 1
  95  0009              	IF (30000 >= 0x40b) AND ((((30000-9)%0402h)/4+1)<=256)
  95  0009              ;# 95 "c:\users\tech\desktop\codetector\main\Main.c" 1
  95  0009  0F1D        	MOV A,(30000-9)/0402h
  95  000A              ;# 95 "c:\users\tech\desktop\codetector\main\Main.c" 1
  95  000A  0080     E  	MOV _builtin_holtek_delay_2,A
  95  000B              ;# 95 "c:\users\tech\desktop\codetector\main\Main.c" 1
  95  000B  0F3C        	MOV A,((30000-9)%0402h)/4+1
  95  000C              ;# 95 "c:\users\tech\desktop\codetector\main\Main.c" 1
  95  000C  2000     E  	CALL __DELAYY3 +3-(((30000-9)%0402h)%4)
  95  000D              	ENDIF
  95  000D  0FFF        	mov a,255
  95  000E  0300     E  	add a,rb
  95  000F  0080     E  	mov rd,a
  95  0010  0FFF        	mov a,255
  95  0011  1300     E  	adc a,rc
  95  0012  0080     E  	mov re,a
  96  0013              #line 96 "c:\users\tech\desktop\codetector\main\Main.c"
  96  0013  0F05        	mov a,5
  96  0014  0200     E  	sub a,rd
  96  0015  0F00        	mov a,0
  96  0016  1200     E  	sbc a,re
  96  0017  380A        	snz c
  96  0018  2800     R  	jmp _L4
  96  0019              _L7:
  96  0019  0F01        	mov a,1
  96  001A  2800     R  	jmp _L9
  96  001B              _L4:
  96  001B  0FF9        	mov a,249
  96  001C  0300     E  	add a,rb
  96  001D  0080     E  	mov rd,a
  96  001E  0FFF        	mov a,255
  96  001F  1300     E  	adc a,rc
  96  0020  0080     E  	mov re,a
  97  0021              #line 97 "c:\users\tech\desktop\codetector\main\Main.c"
  97  0021  0F04        	mov a,4
  97  0022  0200     E  	sub a,rd
  97  0023  0F00        	mov a,0
  97  0024  1200     E  	sbc a,re
  97  0025  380A        	snz c
"File: Main.c        Assembler  Version HGASM0202      Page 8

  97  0026  2800     R  	jmp _L6
  97  0027              _L8:
  97  0027  0F00        	mov a,0
  97  0028              _L9:
  97  0028  2000     E  	call _PWMSeter
  97  0029              _L5:
  94  0029              #line 94 "c:\users\tech\desktop\codetector\main\Main.c"
  94  0029  0700     R  	mov a,_buzzerBIB_2[1]
  94  002A  0080     E  	mov rb,a
  94  002B  0700     R  	mov a,_buzzerBIB_2[2]
  94  002C  0080     E  	mov rc,a
  94  002D  2800     R  	jmp _L3
  94  002E              _L6:
  94  002E  0FF4        	mov a,244
  94  002F  0300     E  	add a,rb
  94  0030  0080     E  	mov rd,a
  94  0031  0FFF        	mov a,255
  94  0032  1300     E  	adc a,rc
  94  0033  0080     E  	mov re,a
  99  0034              #line 99 "c:\users\tech\desktop\codetector\main\Main.c"
  99  0034  0F05        	mov a,5
  99  0035  0200     E  	sub a,rd
  99  0036  0F00        	mov a,0
  99  0037  1200     E  	sbc a,re
  99  0038  3C0A        	sz c
  99  0039  2800     R  	jmp _L7
  99  003A  0FEE        	mov a,238
  99  003B  0300     E  	add a,rb
  99  003C  0080     E  	mov rd,a
  99  003D  0FFF        	mov a,255
  99  003E  1300     E  	adc a,rc
  99  003F  0080     E  	mov re,a
 100  0040              #line 100 "c:\users\tech\desktop\codetector\main\Main.c"
 100  0040  0F04        	mov a,4
 100  0041  0200     E  	sub a,rd
 100  0042  0F00        	mov a,0
 100  0043  1200     E  	sbc a,re
 100  0044  3C0A        	sz c
 100  0045  2800     R  	jmp _L8
 100  0046  0FE9        	mov a,233
 100  0047  0300     E  	add a,rb
 100  0048  0080     E  	mov rd,a
 100  0049  0FFF        	mov a,255
 100  004A  1300     E  	adc a,rc
 100  004B  0080     E  	mov re,a
 102  004C              #line 102 "c:\users\tech\desktop\codetector\main\Main.c"
 102  004C  0F05        	mov a,5
 102  004D  0200     E  	sub a,rd
 102  004E  0F00        	mov a,0
 102  004F  1200     E  	sbc a,re
 102  0050  3C0A        	sz c
 102  0051  2800     R  	jmp _L7
 102  0052  0FE3        	mov a,227
 102  0053  0300     E  	add a,rb
 102  0054  0080     E  	mov rd,a
 102  0055  0FFF        	mov a,255
 102  0056  1300     E  	adc a,rc
 102  0057  0080     E  	mov re,a
 103  0058              #line 103 "c:\users\tech\desktop\codetector\main\Main.c"
 103  0058  0F04        	mov a,4
"File: Main.c        Assembler  Version HGASM0202      Page 9

 103  0059  0200     E  	sub a,rd
 103  005A  0F00        	mov a,0
 103  005B  1200     E  	sbc a,re
 103  005C  3C0A        	sz c
 103  005D  2800     R  	jmp _L8
 103  005E  0FDE        	mov a,222
 103  005F  0300     E  	add a,rb
 103  0060  0080     E  	mov rd,a
 103  0061  0FFF        	mov a,255
 103  0062  1300     E  	adc a,rc
 103  0063  0080     E  	mov re,a
 105  0064              #line 105 "c:\users\tech\desktop\codetector\main\Main.c"
 105  0064  0F05        	mov a,5
 105  0065  0200     E  	sub a,rd
 105  0066  0F00        	mov a,0
 105  0067  1200     E  	sbc a,re
 105  0068  3C0A        	sz c
 105  0069  2800     R  	jmp _L7
 105  006A  0FD8        	mov a,216
 105  006B  0380     E  	addm a,rb
 105  006C  0FFF        	mov a,255
 105  006D  1380     E  	adcm a,rc
 106  006E              #line 106 "c:\users\tech\desktop\codetector\main\Main.c"
 106  006E  0F04        	mov a,4
 106  006F  0200     E  	sub a,rb
 106  0070  0F00        	mov a,0
 106  0071  1200     E  	sbc a,rc
 106  0072  380A        	snz c
 106  0073  2800     R  	jmp _L5
 106  0074  2800     R  	jmp _L8
 106  0075  0003        	ret
 106  0076              _buzzerBIB endp
 106  0076              #line 106 "c:\users\tech\desktop\codetector\main\Main.c"
 106  0076              #pragma debug scope 1 1
 106  0076              ___status equ [10]
 106  0076              ___isgenc equ [93]
 106  0076              ___vbgrc equ [11]
 106  0076              ___sda0c equ [35]
 106  0076              ___sda1c equ [37]
 106  0076              ___papu equ [22]
 106  0076              ___pawu equ [23]
 106  0076              ___pac equ [21]
 106  0076              ___pa equ [20]
 106  0076              public _main
 106  0076              #pragma debug scope 4 1
 119  0076              #line 119 "c:\users\tech\desktop\codetector\main\Main.c"
 119  0076              IFDEF WITH_DEFAULT_STARTUP
 119  0076              extern _main_initial0:near
 119  0076              extern _main_startup:near
 119  0076              ENDIF
 119  0076              
 119  0076              ROMBANK 0 @start
 119  0000              @start .section com_l 'code'
 119  0000              _main_startup1:
 119  0000              @start .section com_e 'code'
 119  0000  2800     R  	jmp _main
 119  0001              
 119  0000              _main .section 'code'
 119  0000              _main proc
 119  0000  0002[           local _main_2 db 2 dup(?)
"File: Main.c        Assembler  Version HGASM0202      Page 10

            00
            ]
 121  0002              #line 121 "c:\users\tech\desktop\codetector\main\Main.c"
 121  0000  3E8A        	sz [10].5
 121  0001  2800     R  	jmp _L12
 123  0002              #line 123 "c:\users\tech\desktop\codetector\main\Main.c"
 123  0002  1F00     R  	clr _alarmCounter[0]
 123  0003  1F00     R  	clr _alarmCounter[1]
 123  0004              _L12:
 126  0004              #line 126 "c:\users\tech\desktop\codetector\main\Main.c"
 126  0004  2000     E  	call _ClockInit
 127  0005              #line 127 "c:\users\tech\desktop\codetector\main\Main.c"
 127  0005  2000     E  	call _GPIOInit
 128  0006              #line 128 "c:\users\tech\desktop\codetector\main\Main.c"
 128  0006  2000     E  	call _GPIOToGNDCurentInit
 129  0007              #line 129 "c:\users\tech\desktop\codetector\main\Main.c"
 129  0007  2000     E  	call _OPAMPInit
 130  0008              #line 130 "c:\users\tech\desktop\codetector\main\Main.c"
 130  0008  2000     E  	call _S_ADC_Init
 131  0009              #line 131 "c:\users\tech\desktop\codetector\main\Main.c"
 131  0009  2000     E  	call _PTimerInit
 136  000A              #line 136 "c:\users\tech\desktop\codetector\main\Main.c"
 136  000A  305D        	set [93].0
 138  000B              #line 138 "c:\users\tech\desktop\codetector\main\Main.c"
 138  000B  300B        	set [11].0
 139  000C              #line 139 "c:\users\tech\desktop\codetector\main\Main.c"
 139  000C  3323        	set [35].6
 140  000D              #line 140 "c:\users\tech\desktop\codetector\main\Main.c"
 140  000D  3325        	set [37].6
 142  000E              #line 142 "c:\users\tech\desktop\codetector\main\Main.c"
 142  000E  2000     E  	call _clearSegment
 143  000F              #line 143 "c:\users\tech\desktop\codetector\main\Main.c"
 143  000F  3216        	set [22].4
 144  0010              #line 144 "c:\users\tech\desktop\codetector\main\Main.c"
 144  0010  3217        	set [23].4
 145  0011              #line 145 "c:\users\tech\desktop\codetector\main\Main.c"
 145  0011  0F38        	mov a,56
 145  0012  0097        	mov [23],a
 146  0013              #line 146 "c:\users\tech\desktop\codetector\main\Main.c"
 146  0013  0F04        	mov a,4
 146  0014  2000     E  	call _S_READ_ADC
 146  0015  0700     E  	mov a,rb
 146  0016  0080     E  	mov _builtin_holtek_mant1[1],a
 146  0017  0700     E  	mov a,ra
 146  0018  0080     E  	mov _builtin_holtek_mant1[0],a
 146  0019  3400     E  	clr _builtin_holtek_signs.0
 146  001A  2000     E  	call _builtin_holtek_uitod
 146  001B  0700     E  	mov a,_builtin_holtek_mant12p[0]
 146  001C  0080     E  	mov rh,a
 146  001D  0700     E  	mov a,_builtin_holtek_mant1[2]
 146  001E  0080     E  	mov rg,a
 146  001F  0700     E  	mov a,_builtin_holtek_mant1[1]
 146  0020  0080     E  	mov rf,a
 146  0021  0700     E  	mov a,_builtin_holtek_mant1[0]
 146  0022  0080     E  	mov re,a
 146  0023  1F00     E  	clr ra
 146  0024  0FF0        	mov a,-16
 146  0025  0080     E  	mov rb,a
 146  0026  0F7F        	mov a,127
 146  0027  0080     E  	mov rc,a
"File: Main.c        Assembler  Version HGASM0202      Page 11

 146  0028  0F45        	mov a,69
 146  0029  0080     E  	mov rd,a
 146  002A  0700     E  	mov a,rd
 146  002B  0080     E  	mov _builtin_holtek_mant12p[0],a
 146  002C  0700     E  	mov a,rc
 146  002D  0080     E  	mov _builtin_holtek_mant1[2],a
 146  002E  0700     E  	mov a,rb
 146  002F  0080     E  	mov _builtin_holtek_mant1[1],a
 146  0030  0700     E  	mov a,ra
 146  0031  0080     E  	mov _builtin_holtek_mant1[0],a
 146  0032  0700     E  	mov a,rh
 146  0033  0080     E  	mov _builtin_holtek_mant12p[1],a
 146  0034  0700     E  	mov a,rg
 146  0035  0080     E  	mov _builtin_holtek_mant2[2],a
 146  0036  0700     E  	mov a,rf
 146  0037  0080     E  	mov _builtin_holtek_mant2[1],a
 146  0038  0700     E  	mov a,re
 146  0039  0080     E  	mov _builtin_holtek_mant2[0],a
 146  003A  2000     E  	call _builtin_holtek_dtdiv
 146  003B  0700     E  	mov a,_builtin_holtek_mant12p[0]
 146  003C  0080     E  	mov rh,a
 146  003D  0700     E  	mov a,_builtin_holtek_mant1[2]
 146  003E  0080     E  	mov rg,a
 146  003F  0700     E  	mov a,_builtin_holtek_mant1[1]
 146  0040  0080     E  	mov rf,a
 146  0041  0700     E  	mov a,_builtin_holtek_mant1[0]
 146  0042  0080     E  	mov re,a
 146  0043  0700     E  	mov a,rh
 146  0044  0080     E  	mov _builtin_holtek_mant12p[0],a
 146  0045  0700     E  	mov a,rg
 146  0046  0080     E  	mov _builtin_holtek_mant1[2],a
 146  0047  0700     E  	mov a,rf
 146  0048  0080     E  	mov _builtin_holtek_mant1[1],a
 146  0049  0700     E  	mov a,re
 146  004A  0080     E  	mov _builtin_holtek_mant1[0],a
 146  004B  0F3F        	mov a,63
 146  004C  0080     E  	mov _builtin_holtek_mant12p[1],a
 146  004D  0F99        	mov a,153
 146  004E  0080     E  	mov _builtin_holtek_mant2[2],a
 146  004F  0F99        	mov a,153
 146  0050  0080     E  	mov _builtin_holtek_mant2[1],a
 146  0051  0F9A        	mov a,154
 146  0052  0080     E  	mov _builtin_holtek_mant2[0],a
 146  0053  2000     E  	call _builtin_holtek_dtmul
 146  0054  0700     E  	mov a,_builtin_holtek_mant12p[0]
 146  0055  0080     E  	mov rg,a
 146  0056  0700     E  	mov a,_builtin_holtek_mant1[2]
 146  0057  0080     E  	mov rf,a
 146  0058  0700     E  	mov a,_builtin_holtek_mant1[1]
 146  0059  0080     E  	mov re,a
 146  005A  0700     E  	mov a,_builtin_holtek_mant1[0]
 146  005B  0080     E  	mov rd,a
 146  005C  0700     E  	mov a,rg
 146  005D  0080     R  	mov _VDD[2],a
 146  005E  0700     E  	mov a,rf
 146  005F  0080     R  	mov _VDD[1],a
 146  0060  0700     E  	mov a,re
 146  0061  0080     R  	mov _VDD[0],a
 147  0062              #line 147 "c:\users\tech\desktop\codetector\main\Main.c"
 147  0062  0F05        	mov a,5
"File: Main.c        Assembler  Version HGASM0202      Page 12

 147  0063  2000     E  	call _S_READ_ADC
 147  0064  0700     E  	mov a,ra
 147  0065  0080     R  	mov _CO_2[3],a
 147  0066  0700     E  	mov a,rb
 147  0067  0080     R  	mov _CO_2[4],a
 147  0068  0700     R  	mov a,_VDD[0]
 147  0069  0080     R  	mov _CO_2[0],a
 147  006A  0700     R  	mov a,_VDD[1]
 147  006B  0080     R  	mov _CO_2[1],a
 147  006C  0700     R  	mov a,_VDD[2]
 147  006D  0080     R  	mov _CO_2[2],a
 147  006E  2000     R  	call _CO
 147  006F  0700     E  	mov a,ra
 147  0070  0080     R  	mov _COValue[0],a
 147  0071  0700     E  	mov a,rb
 147  0072  0080     R  	mov _COValue[1],a
 149  0073              #line 149 "c:\users\tech\desktop\codetector\main\Main.c"
 149  0073  345D        	clr [93].0
 154  0074              #line 154 "c:\users\tech\desktop\codetector\main\Main.c"
 154  0074  0F1E        	mov a,30
 154  0075  0200     E  	sub a,ra
 154  0076  0F00        	mov a,0
 154  0077  1200     E  	sbc a,rb
 154  0078  3C0A        	sz c
 154  0079  2800     R  	jmp _L13
 156  007A              #line 156 "c:\users\tech\desktop\codetector\main\Main.c"
 156  007A  1480     R  	inc _alarmCounter[0]
 156  007B  3D0A        	sz z
 156  007C  1480     R  	inc _alarmCounter[1]
 156  007D  2800     R  	jmp _L14
 156  007E              _L13:
 160  007E              #line 160 "c:\users\tech\desktop\codetector\main\Main.c"
 160  007E  0700     R  	mov a,_alarmCounter[0]
 160  007F  0080     E  	mov rb,a
 160  0080  0700     R  	mov a,_alarmCounter[1]
 160  0081  0080     E  	mov rc,a
 160  0082  0700     E  	mov a,rb
 160  0083  0500     E  	or a,rc
 160  0084  3D0A        	sz z
 160  0085  2800     R  	jmp _L15
 160  0086  0FFF        	mov a,255
 160  0087  0300     E  	add a,rb
 160  0088  0080     R  	mov _alarmCounter[0],a
 160  0089  0FFF        	mov a,255
 160  008A  1300     E  	adc a,rc
 160  008B  0080     R  	mov _alarmCounter[1],a
 160  008C              _L15:
 161  008C              #line 161 "c:\users\tech\desktop\codetector\main\Main.c"
 161  008C  0F00        	mov a,0
 161  008D  2000     E  	call _PWMSeter
 161  008E              _L14:
 165  008E              #line 165 "c:\users\tech\desktop\codetector\main\Main.c"
 165  008E  3595        	clr [21].3
 166  008F              #line 166 "c:\users\tech\desktop\codetector\main\Main.c"
 166  008F  3194        	set [20].3
 166  0090              _L26:
 166  0090              #pragma debug scope 5 4
 166  0090              ;begin block, line: 166.-1
 166  0090              #pragma debug variable 12 5 _main_2+0 "buttonStatus"
 177  0090              #line 177 "c:\users\tech\desktop\codetector\main\Main.c"
"File: Main.c        Assembler  Version HGASM0202      Page 13

 177  0090  2000     E  	call _key
 177  0091  0700     E  	mov a,ra
 177  0092  0080     R  	mov _main_2[0],a
 177  0093  0700     E  	mov a,rb
 177  0094  0080     R  	mov _main_2[1],a
 179  0095              #line 179 "c:\users\tech\desktop\codetector\main\Main.c"
 179  0095  0700     E  	mov a,ra
 179  0096  0C04        	xor a,4
 179  0097  0500     E  	or a,rb
 179  0098  390A        	snz z
 179  0099  2800     R  	jmp _L16
 181  009A              #line 181 "c:\users\tech\desktop\codetector\main\Main.c"
 181  009A              ;# 181 "c:\users\tech\desktop\codetector\main\Main.c" 1
 181  009A  0002        	halt
 181  009B  2800     R  	jmp _L17
 181  009C              _L16:
 185  009C              #line 185 "c:\users\tech\desktop\codetector\main\Main.c"
 185  009C  3216        	set [22].4
 186  009D              #line 186 "c:\users\tech\desktop\codetector\main\Main.c"
 186  009D  3217        	set [23].4
 187  009E              #line 187 "c:\users\tech\desktop\codetector\main\Main.c"
 187  009E  0F38        	mov a,56
 187  009F  0097        	mov [23],a
 188  00A0              #line 188 "c:\users\tech\desktop\codetector\main\Main.c"
 188  00A0  2000     E  	call _clearSegment
 190  00A1              #line 190 "c:\users\tech\desktop\codetector\main\Main.c"
 190  00A1  0700     R  	mov a,_main_2[0]
 190  00A2  0500     R  	or a,_main_2[1]
 190  00A3  390A        	snz z
 190  00A4  2800     R  	jmp _L18
 192  00A5              #line 192 "c:\users\tech\desktop\codetector\main\Main.c"
 192  00A5  0F00        	mov a,0
 192  00A6  2000     E  	call _PWMSeter
 192  00A7  2800     R  	jmp _L19
 192  00A8              _L18:
 194  00A8              #line 194 "c:\users\tech\desktop\codetector\main\Main.c"
 194  00A8  0700     R  	mov a,_main_2[0]
 194  00A9  0C01        	xor a,1
 194  00AA  0500     R  	or a,_main_2[1]
 194  00AB  390A        	snz z
 194  00AC  2800     R  	jmp _L20
 196  00AD              #line 196 "c:\users\tech\desktop\codetector\main\Main.c"
 196  00AD              ;# 196 "c:\users\tech\desktop\codetector\main\Main.c" 1
 196  00AD  0001        	clr wdt
 197  00AE              #line 197 "c:\users\tech\desktop\codetector\main\Main.c"
 197  00AE  0700     R  	mov a,_COValue[0]
 197  00AF  0080     E  	mov _shwoSegment_2[0],a
 197  00B0  0700     R  	mov a,_COValue[1]
 197  00B1  0080     E  	mov _shwoSegment_2[1],a
 197  00B2  2800     R  	jmp _L34
 197  00B3              _L20:
 199  00B3              #line 199 "c:\users\tech\desktop\codetector\main\Main.c"
 199  00B3  0700     R  	mov a,_main_2[0]
 199  00B4  0C02        	xor a,2
 199  00B5  0500     R  	or a,_main_2[1]
 199  00B6  390A        	snz z
 199  00B7  2800     R  	jmp _L21
 201  00B8              #line 201 "c:\users\tech\desktop\codetector\main\Main.c"
 201  00B8              ;# 201 "c:\users\tech\desktop\codetector\main\Main.c" 1
 201  00B8  0001        	clr wdt
"File: Main.c        Assembler  Version HGASM0202      Page 14

 204  00B9              #line 204 "c:\users\tech\desktop\codetector\main\Main.c"
 204  00B9  0700     R  	mov a,_VDD[0]
 204  00BA  0080     E  	mov ra,a
 204  00BB  0700     R  	mov a,_VDD[1]
 204  00BC  0080     E  	mov rb,a
 204  00BD  0700     R  	mov a,_VDD[2]
 204  00BE  0080     E  	mov rc,a
 204  00BF  0700     E  	mov a,ra
 204  00C0  0080     E  	mov re,a
 204  00C1  0700     E  	mov a,rb
 204  00C2  0080     E  	mov rf,a
 204  00C3  0700     E  	mov a,rc
 204  00C4  0080     E  	mov rg,a
 204  00C5  1F00     E  	clr rd
 204  00C6  0700     E  	mov a,rg
 204  00C7  0080     E  	mov _builtin_holtek_mant12p[0],a
 204  00C8  0700     E  	mov a,rf
 204  00C9  0080     E  	mov _builtin_holtek_mant1[2],a
 204  00CA  0700     E  	mov a,re
 204  00CB  0080     E  	mov _builtin_holtek_mant1[1],a
 204  00CC  0700     E  	mov a,rd
 204  00CD  0080     E  	mov _builtin_holtek_mant1[0],a
 204  00CE  0F40        	mov a,64
 204  00CF  0080     E  	mov _builtin_holtek_mant12p[1],a
 204  00D0  0F6C        	mov a,108
 204  00D1  0080     E  	mov _builtin_holtek_mant2[2],a
 204  00D2  0FCC        	mov a,204
 204  00D3  0080     E  	mov _builtin_holtek_mant2[1],a
 204  00D4  0FCD        	mov a,205
 204  00D5  0080     E  	mov _builtin_holtek_mant2[0],a
 204  00D6  2000     E  	call _builtin_holtek_dtsub
 204  00D7  3C00     E  	sz _builtin_holtek_mant12p[0].7
 204  00D8  2800     R  	jmp _LI1
 204  00D9  0700     E  	mov a,_builtin_holtek_mant12p[0]
 204  00DA  0500     E  	or a,_builtin_holtek_mant1[2]
 204  00DB  0500     E  	or a,_builtin_holtek_mant1[1]
 204  00DC  0500     E  	or a,_builtin_holtek_mant1[0]
 204  00DD  390A        	snz z
 204  00DE  2800     R  	jmp _L27
 204  00DF              _LI1:
 204  00DF  2800     R  	jmp _L35
 204  00E0              _L27:
 204  00E0  0F64        	mov a,100
 204  00E1  0080     E  	mov _shwoSegment_2[0],a
 204  00E2  1F00     E  	clr _shwoSegment_2[1]
 204  00E3              _L34:
 204  00E3  2000     E  	call _shwoSegment
 204  00E4  2800     R  	jmp _L19
 204  00E5              _L35:
 205  00E5              #line 205 "c:\users\tech\desktop\codetector\main\Main.c"
 205  00E5  0700     E  	mov a,rc
 205  00E6  0080     E  	mov _builtin_holtek_mant1[2],a
 205  00E7  0700     E  	mov a,rb
 205  00E8  0080     E  	mov _builtin_holtek_mant1[1],a
 205  00E9  0700     E  	mov a,ra
 205  00EA  0080     E  	mov _builtin_holtek_mant1[0],a
 205  00EB  0F40        	mov a,64
 205  00EC  0080     E  	mov _builtin_holtek_mant2[2],a
 205  00ED  0F40        	mov a,64
 205  00EE  0080     E  	mov _builtin_holtek_mant2[1],a
"File: Main.c        Assembler  Version HGASM0202      Page 15

 205  00EF  0F00        	mov a,0
 205  00F0  0080     E  	mov _builtin_holtek_mant2[0],a
 205  00F1  2000     E  	call _builtin_holtek_ftsub
 205  00F2  3C00     E  	sz _builtin_holtek_mant1[2].7
 205  00F3  2800     R  	jmp _L28
 206  00F4              #line 206 "c:\users\tech\desktop\codetector\main\Main.c"
 206  00F4  0F0F        	mov a,15
 206  00F5  0080     E  	mov _shwoSegment_2[0],a
 206  00F6  1F00     E  	clr _shwoSegment_2[1]
 206  00F7  2800     R  	jmp _L34
 206  00F8              _L28:
 205  00F8              #line 205 "c:\users\tech\desktop\codetector\main\Main.c"
 205  00F8  0F4B        	mov a,75
 205  00F9  0080     E  	mov _shwoSegment_2[0],a
 205  00FA  1F00     E  	clr _shwoSegment_2[1]
 205  00FB  2800     R  	jmp _L34
 205  00FC              _L21:
 209  00FC              #line 209 "c:\users\tech\desktop\codetector\main\Main.c"
 209  00FC  0700     R  	mov a,_main_2[0]
 209  00FD  0C03        	xor a,3
 209  00FE  0500     R  	or a,_main_2[1]
 209  00FF  390A        	snz z
 209  0100  2800     R  	jmp _L19
 216  0101              #line 216 "c:\users\tech\desktop\codetector\main\Main.c"
 216  0101              ;# 216 "c:\users\tech\desktop\codetector\main\Main.c" 1
 216  0101  0001        	clr wdt
 218  0102              #line 218 "c:\users\tech\desktop\codetector\main\Main.c"
 218  0102  0F02        	mov a,2
 218  0103  2000     R  	call _buzzerBIB
 218  0104              _L19:
 222  0104              #line 222 "c:\users\tech\desktop\codetector\main\Main.c"
 222  0104  2000     E  	call _clearSegment
 223  0105              #line 223 "c:\users\tech\desktop\codetector\main\Main.c"
 223  0105  3216        	set [22].4
 224  0106              #line 224 "c:\users\tech\desktop\codetector\main\Main.c"
 224  0106  3217        	set [23].4
 224  0107              _L17:
 227  0107              #line 227 "c:\users\tech\desktop\codetector\main\Main.c"
 227  0107  2000     E  	call _clearSegment
 228  0108              #line 228 "c:\users\tech\desktop\codetector\main\Main.c"
 228  0108  3216        	set [22].4
 229  0109              #line 229 "c:\users\tech\desktop\codetector\main\Main.c"
 229  0109  3217        	set [23].4
 230  010A              #line 230 "c:\users\tech\desktop\codetector\main\Main.c"
 230  010A  0F38        	mov a,56
 230  010B  0097        	mov [23],a
 230  010C              #pragma debug scope 4 1
 232  010C              #line 232 "c:\users\tech\desktop\codetector\main\Main.c"
 232  010C  2800     R  	jmp _L26
 232  010D  2800     R  	jmp $
 232  010E              _main endp
 232  010E              
 232  010E              @dummy endp
 232  010E              
 232  010E              #line 232 "c:\users\tech\desktop\codetector\main\Main.c"
 232  010E              #pragma debug scope 1 1
 232  010E              public _TempToPPMPercentage
 232  010E              #pragma debug scope 6 1
 239  010E              #line 239 "c:\users\tech\desktop\codetector\main\Main.c"
 239  0000              _TempToPPMPercentage .section 'code'
"File: Main.c        Assembler  Version HGASM0202      Page 16

 239  0000              _TempToPPMPercentage proc
 239  0000              public _TempToPPMPercentage_2
 239  0000  0003[           local _TempToPPMPercentage_2 db 3 dup(?)	; 3,0
            00
            ]
 239  0003              #pragma debug variable 28 6 _TempToPPMPercentage_2+0 "temperatur"
 241  0003              #line 241 "c:\users\tech\desktop\codetector\main\Main.c"
 241  0000  0700     R  	mov a,_TempToPPMPercentage_2[2]
 241  0001  0080     E  	mov _builtin_holtek_mant1[2],a
 241  0002  0700     R  	mov a,_TempToPPMPercentage_2[1]
 241  0003  0080     E  	mov _builtin_holtek_mant1[1],a
 241  0004  0700     R  	mov a,_TempToPPMPercentage_2[0]
 241  0005  0080     E  	mov _builtin_holtek_mant1[0],a
 241  0006  0F00        	mov a,0
 241  0007  0080     E  	mov _builtin_holtek_mant2[2],a
 241  0008  0F00        	mov a,0
 241  0009  0080     E  	mov _builtin_holtek_mant2[1],a
 241  000A  0F00        	mov a,0
 241  000B  0080     E  	mov _builtin_holtek_mant2[0],a
 241  000C  2000     E  	call _builtin_holtek_ftsub
 241  000D  3C00     E  	sz _builtin_holtek_mant1[2].7
 241  000E  2800     R  	jmp _L50
 241  000F  2800     R  	jmp _L37
 241  0010              _L50:
 241  0010              #line 241 "c:\users\tech\desktop\codetector\main\Main.c"
 241  0010  0700     R  	mov a,_TempToPPMPercentage_2[2]
 241  0011  0080     E  	mov _builtin_holtek_mant1[2],a
 241  0012  0700     R  	mov a,_TempToPPMPercentage_2[1]
 241  0013  0080     E  	mov _builtin_holtek_mant1[1],a
 241  0014  0700     R  	mov a,_TempToPPMPercentage_2[0]
 241  0015  0080     E  	mov _builtin_holtek_mant1[0],a
 241  0016  0FC1        	mov a,193
 241  0017  0080     E  	mov _builtin_holtek_mant2[2],a
 241  0018  0FA0        	mov a,160
 241  0019  0080     E  	mov _builtin_holtek_mant2[1],a
 241  001A  0F00        	mov a,0
 241  001B  0080     E  	mov _builtin_holtek_mant2[0],a
 241  001C  2000     E  	call _builtin_holtek_ftsub
 241  001D  3800     E  	snz _builtin_holtek_mant1[2].7
 241  001E  2800     R  	jmp _L51
 241  001F  2800     R  	jmp _L37
 241  0020              _L51:
 243  0020              #line 243 "c:\users\tech\desktop\codetector\main\Main.c"
 243  0020  0700     R  	mov a,_TempToPPMPercentage_2[2]
 243  0021  0080     E  	mov _builtin_holtek_mant1[2],a
 243  0022  0700     R  	mov a,_TempToPPMPercentage_2[1]
 243  0023  0080     E  	mov _builtin_holtek_mant1[1],a
 243  0024  0700     R  	mov a,_TempToPPMPercentage_2[0]
 243  0025  0080     E  	mov _builtin_holtek_mant1[0],a
 243  0026  0F41        	mov a,65
 243  0027  0080     E  	mov _builtin_holtek_mant2[2],a
 243  0028  0FA0        	mov a,160
 243  0029  0080     E  	mov _builtin_holtek_mant2[1],a
 243  002A  0F00        	mov a,0
 243  002B  0080     E  	mov _builtin_holtek_mant2[0],a
 243  002C  2000     E  	call _builtin_holtek_ftadd
 243  002D  0700     E  	mov a,_builtin_holtek_mant1[2]
 243  002E  0080     E  	mov re,a
 243  002F  0700     E  	mov a,_builtin_holtek_mant1[1]
 243  0030  0080     E  	mov rd,a
"File: Main.c        Assembler  Version HGASM0202      Page 17

 243  0031  0700     E  	mov a,_builtin_holtek_mant1[0]
 243  0032  0080     E  	mov rc,a
 243  0033  0700     E  	mov a,re
 243  0034  0080     E  	mov rg,a
 243  0035  0700     E  	mov a,rd
 243  0036  0080     E  	mov rf,a
 243  0037  0700     E  	mov a,rc
 243  0038  0080     E  	mov re,a
 243  0039  1F00     E  	clr rd
 243  003A  0700     E  	mov a,rg
 243  003B  0080     E  	mov _builtin_holtek_mant12p[0],a
 243  003C  0700     E  	mov a,rf
 243  003D  0080     E  	mov _builtin_holtek_mant1[2],a
 243  003E  0700     E  	mov a,re
 243  003F  0080     E  	mov _builtin_holtek_mant1[1],a
 243  0040  0700     E  	mov a,rd
 243  0041  0080     E  	mov _builtin_holtek_mant1[0],a
 243  0042  0FBB        	mov a,187
 243  0043  0080     E  	mov _builtin_holtek_mant12p[1],a
 243  0044  0FF5        	mov a,245
 243  0045  0080     E  	mov _builtin_holtek_mant2[2],a
 243  0046  0FC2        	mov a,194
 243  0047  0080     E  	mov _builtin_holtek_mant2[1],a
 243  0048  0F8F        	mov a,143
 243  0049  0080     E  	mov _builtin_holtek_mant2[0],a
 243  004A  2000     E  	call _builtin_holtek_dtmul
 243  004B  0700     E  	mov a,_builtin_holtek_mant12p[0]
 243  004C  0080     E  	mov rg,a
 243  004D  0700     E  	mov a,_builtin_holtek_mant1[2]
 243  004E  0080     E  	mov rf,a
 243  004F  0700     E  	mov a,_builtin_holtek_mant1[1]
 243  0050  0080     E  	mov re,a
 243  0051  0700     E  	mov a,_builtin_holtek_mant1[0]
 243  0052  0080     E  	mov rd,a
 243  0053  0700     E  	mov a,rg
 243  0054  0080     E  	mov _builtin_holtek_mant12p[0],a
 243  0055  0700     E  	mov a,rf
 243  0056  0080     E  	mov _builtin_holtek_mant1[2],a
 243  0057  0700     E  	mov a,re
 243  0058  0080     E  	mov _builtin_holtek_mant1[1],a
 243  0059  0700     E  	mov a,rd
 243  005A  0080     E  	mov _builtin_holtek_mant1[0],a
 243  005B  0F3F        	mov a,63
 243  005C  0080     E  	mov _builtin_holtek_mant12p[1],a
 243  005D  0F19        	mov a,25
 243  005E  0080     E  	mov _builtin_holtek_mant2[2],a
 243  005F  0F99        	mov a,153
 243  0060  0080     E  	mov _builtin_holtek_mant2[1],a
 243  0061  0F9A        	mov a,154
 243  0062  0080     E  	mov _builtin_holtek_mant2[0],a
 243  0063  2000     E  	call _builtin_holtek_dtadd
 243  0064  0700     E  	mov a,_builtin_holtek_mant12p[0]
 243  0065  0080     E  	mov rg,a
 243  0066  0700     E  	mov a,_builtin_holtek_mant1[2]
 243  0067  0080     E  	mov rf,a
 243  0068  0700     E  	mov a,_builtin_holtek_mant1[1]
 243  0069  0080     E  	mov re,a
 243  006A  0700     E  	mov a,_builtin_holtek_mant1[0]
 243  006B  0080     E  	mov rd,a
 243  006C  2800     R  	jmp _L58
"File: Main.c        Assembler  Version HGASM0202      Page 18

 243  006D              _L37:
 245  006D              #line 245 "c:\users\tech\desktop\codetector\main\Main.c"
 245  006D  0700     R  	mov a,_TempToPPMPercentage_2[2]
 245  006E  0080     E  	mov _builtin_holtek_mant1[2],a
 245  006F  0700     R  	mov a,_TempToPPMPercentage_2[1]
 245  0070  0080     E  	mov _builtin_holtek_mant1[1],a
 245  0071  0700     R  	mov a,_TempToPPMPercentage_2[0]
 245  0072  0080     E  	mov _builtin_holtek_mant1[0],a
 245  0073  0F00        	mov a,0
 245  0074  0080     E  	mov _builtin_holtek_mant2[2],a
 245  0075  0F00        	mov a,0
 245  0076  0080     E  	mov _builtin_holtek_mant2[1],a
 245  0077  0F00        	mov a,0
 245  0078  0080     E  	mov _builtin_holtek_mant2[0],a
 245  0079  2000     E  	call _builtin_holtek_ftsub
 245  007A  3800     E  	snz _builtin_holtek_mant1[2].7
 245  007B  2800     R  	jmp _L52
 245  007C  2800     R  	jmp _L41
 245  007D              _L52:
 245  007D  0700     R  	mov a,_TempToPPMPercentage_2[2]
 245  007E  0080     E  	mov _builtin_holtek_mant1[2],a
 245  007F  0700     R  	mov a,_TempToPPMPercentage_2[1]
 245  0080  0080     E  	mov _builtin_holtek_mant1[1],a
 245  0081  0700     R  	mov a,_TempToPPMPercentage_2[0]
 245  0082  0080     E  	mov _builtin_holtek_mant1[0],a
 245  0083  0F41        	mov a,65
 245  0084  0080     E  	mov _builtin_holtek_mant2[2],a
 245  0085  0FA0        	mov a,160
 245  0086  0080     E  	mov _builtin_holtek_mant2[1],a
 245  0087  0F00        	mov a,0
 245  0088  0080     E  	mov _builtin_holtek_mant2[0],a
 245  0089  2000     E  	call _builtin_holtek_ftsub
 245  008A  3C00     E  	sz _builtin_holtek_mant1[2].7
 245  008B  2800     R  	jmp _L53
 245  008C  2800     R  	jmp _L41
 245  008D              _L53:
 247  008D              #line 247 "c:\users\tech\desktop\codetector\main\Main.c"
 247  008D  0700     R  	mov a,_TempToPPMPercentage_2[0]
 247  008E  0080     E  	mov re,a
 247  008F  0700     R  	mov a,_TempToPPMPercentage_2[1]
 247  0090  0080     E  	mov rf,a
 247  0091  0700     R  	mov a,_TempToPPMPercentage_2[2]
 247  0092  0080     E  	mov rg,a
 247  0093  1F00     E  	clr rd
 247  0094  0700     E  	mov a,rg
 247  0095  0080     E  	mov _builtin_holtek_mant12p[0],a
 247  0096  0700     E  	mov a,rf
 247  0097  0080     E  	mov _builtin_holtek_mant1[2],a
 247  0098  0700     E  	mov a,re
 247  0099  0080     E  	mov _builtin_holtek_mant1[1],a
 247  009A  0700     E  	mov a,rd
 247  009B  0080     E  	mov _builtin_holtek_mant1[0],a
 247  009C  0F3B        	mov a,59
 247  009D  0080     E  	mov _builtin_holtek_mant12p[1],a
 247  009E  0F23        	mov a,35
 247  009F  0080     E  	mov _builtin_holtek_mant2[2],a
 247  00A0  0FD7        	mov a,215
 247  00A1  0080     E  	mov _builtin_holtek_mant2[1],a
 247  00A2  0F0A        	mov a,10
 247  00A3  0080     E  	mov _builtin_holtek_mant2[0],a
"File: Main.c        Assembler  Version HGASM0202      Page 19

 247  00A4  2000     E  	call _builtin_holtek_dtmul
 247  00A5  0700     E  	mov a,_builtin_holtek_mant12p[0]
 247  00A6  0080     E  	mov rg,a
 247  00A7  0700     E  	mov a,_builtin_holtek_mant1[2]
 247  00A8  0080     E  	mov rf,a
 247  00A9  0700     E  	mov a,_builtin_holtek_mant1[1]
 247  00AA  0080     E  	mov re,a
 247  00AB  0700     E  	mov a,_builtin_holtek_mant1[0]
 247  00AC  0080     E  	mov rd,a
 247  00AD  0700     E  	mov a,rg
 247  00AE  0080     E  	mov _builtin_holtek_mant12p[0],a
 247  00AF  0700     E  	mov a,rf
 247  00B0  0080     E  	mov _builtin_holtek_mant1[2],a
 247  00B1  0700     E  	mov a,re
 247  00B2  0080     E  	mov _builtin_holtek_mant1[1],a
 247  00B3  0700     E  	mov a,rd
 247  00B4  0080     E  	mov _builtin_holtek_mant1[0],a
 247  00B5  0F3F        	mov a,63
 247  00B6  0080     E  	mov _builtin_holtek_mant12p[1],a
 247  00B7  0F40        	mov a,64
 247  00B8  0080     E  	mov _builtin_holtek_mant2[2],a
 247  00B9  0F00        	mov a,0
 247  00BA  0080     E  	mov _builtin_holtek_mant2[1],a
 247  00BB  0F00        	mov a,0
 247  00BC  0080     E  	mov _builtin_holtek_mant2[0],a
 247  00BD  2000     E  	call _builtin_holtek_dtadd
 247  00BE  0700     E  	mov a,_builtin_holtek_mant12p[0]
 247  00BF  0080     E  	mov rg,a
 247  00C0  0700     E  	mov a,_builtin_holtek_mant1[2]
 247  00C1  0080     E  	mov rf,a
 247  00C2  0700     E  	mov a,_builtin_holtek_mant1[1]
 247  00C3  0080     E  	mov re,a
 247  00C4  0700     E  	mov a,_builtin_holtek_mant1[0]
 247  00C5  0080     E  	mov rd,a
 247  00C6  2800     R  	jmp _L58
 247  00C7              _L41:
 249  00C7              #line 249 "c:\users\tech\desktop\codetector\main\Main.c"
 249  00C7  0700     R  	mov a,_TempToPPMPercentage_2[2]
 249  00C8  0080     E  	mov _builtin_holtek_mant1[2],a
 249  00C9  0700     R  	mov a,_TempToPPMPercentage_2[1]
 249  00CA  0080     E  	mov _builtin_holtek_mant1[1],a
 249  00CB  0700     R  	mov a,_TempToPPMPercentage_2[0]
 249  00CC  0080     E  	mov _builtin_holtek_mant1[0],a
 249  00CD  0F41        	mov a,65
 249  00CE  0080     E  	mov _builtin_holtek_mant2[2],a
 249  00CF  0FA0        	mov a,160
 249  00D0  0080     E  	mov _builtin_holtek_mant2[1],a
 249  00D1  0F00        	mov a,0
 249  00D2  0080     E  	mov _builtin_holtek_mant2[0],a
 249  00D3  2000     E  	call _builtin_holtek_ftsub
 249  00D4  3800     E  	snz _builtin_holtek_mant1[2].7
 249  00D5  2800     R  	jmp _L54
 249  00D6  2800     R  	jmp _L44
 249  00D7              _L54:
 249  00D7  0700     R  	mov a,_TempToPPMPercentage_2[2]
 249  00D8  0080     E  	mov _builtin_holtek_mant1[2],a
 249  00D9  0700     R  	mov a,_TempToPPMPercentage_2[1]
 249  00DA  0080     E  	mov _builtin_holtek_mant1[1],a
 249  00DB  0700     R  	mov a,_TempToPPMPercentage_2[0]
 249  00DC  0080     E  	mov _builtin_holtek_mant1[0],a
"File: Main.c        Assembler  Version HGASM0202      Page 20

 249  00DD  0F42        	mov a,66
 249  00DE  0080     E  	mov _builtin_holtek_mant2[2],a
 249  00DF  0F48        	mov a,72
 249  00E0  0080     E  	mov _builtin_holtek_mant2[1],a
 249  00E1  0F00        	mov a,0
 249  00E2  0080     E  	mov _builtin_holtek_mant2[0],a
 249  00E3  2000     E  	call _builtin_holtek_ftsub
 249  00E4  3C00     E  	sz _builtin_holtek_mant1[2].7
 249  00E5  2800     R  	jmp _L55
 249  00E6  2800     R  	jmp _L44
 249  00E7              _L55:
 251  00E7              #line 251 "c:\users\tech\desktop\codetector\main\Main.c"
 251  00E7  0700     R  	mov a,_TempToPPMPercentage_2[2]
 251  00E8  0080     E  	mov _builtin_holtek_mant1[2],a
 251  00E9  0700     R  	mov a,_TempToPPMPercentage_2[1]
 251  00EA  0080     E  	mov _builtin_holtek_mant1[1],a
 251  00EB  0700     R  	mov a,_TempToPPMPercentage_2[0]
 251  00EC  0080     E  	mov _builtin_holtek_mant1[0],a
 251  00ED  0F41        	mov a,65
 251  00EE  0080     E  	mov _builtin_holtek_mant2[2],a
 251  00EF  0FA0        	mov a,160
 251  00F0  0080     E  	mov _builtin_holtek_mant2[1],a
 251  00F1  0F00        	mov a,0
 251  00F2  0080     E  	mov _builtin_holtek_mant2[0],a
 251  00F3  2000     E  	call _builtin_holtek_ftsub
 251  00F4  0700     E  	mov a,_builtin_holtek_mant1[2]
 251  00F5  0080     E  	mov re,a
 251  00F6  0700     E  	mov a,_builtin_holtek_mant1[1]
 251  00F7  0080     E  	mov rd,a
 251  00F8  0700     E  	mov a,_builtin_holtek_mant1[0]
 251  00F9  0080     E  	mov rc,a
 251  00FA  0700     E  	mov a,re
 251  00FB  0080     E  	mov rg,a
 251  00FC  0700     E  	mov a,rd
 251  00FD  0080     E  	mov rf,a
 251  00FE  0700     E  	mov a,rc
 251  00FF  0080     E  	mov re,a
 251  0100  1F00     E  	clr rd
 251  0101  0700     E  	mov a,rg
 251  0102  0080     E  	mov _builtin_holtek_mant12p[0],a
 251  0103  0700     E  	mov a,rf
 251  0104  0080     E  	mov _builtin_holtek_mant1[2],a
 251  0105  0700     E  	mov a,re
 251  0106  0080     E  	mov _builtin_holtek_mant1[1],a
 251  0107  0700     E  	mov a,rd
 251  0108  0080     E  	mov _builtin_holtek_mant1[0],a
 251  0109  0F3C        	mov a,60
 251  010A  0080     E  	mov _builtin_holtek_mant12p[1],a
 251  010B  0F3E        	mov a,62
 251  010C  0080     E  	mov _builtin_holtek_mant2[2],a
 251  010D  0F0D        	mov a,13
 251  010E  0080     E  	mov _builtin_holtek_mant2[1],a
 251  010F  0FED        	mov a,237
 251  0110  0080     E  	mov _builtin_holtek_mant2[0],a
 251  0111  2000     E  	call _builtin_holtek_dtmul
 251  0112  0700     E  	mov a,_builtin_holtek_mant12p[0]
 251  0113  0080     E  	mov rg,a
 251  0114  0700     E  	mov a,_builtin_holtek_mant1[2]
 251  0115  0080     E  	mov rf,a
 251  0116  0700     E  	mov a,_builtin_holtek_mant1[1]
"File: Main.c        Assembler  Version HGASM0202      Page 21

 251  0117  0080     E  	mov re,a
 251  0118  0700     E  	mov a,_builtin_holtek_mant1[0]
 251  0119  0080     E  	mov rd,a
 251  011A  0700     E  	mov a,rg
 251  011B  0080     E  	mov _builtin_holtek_mant12p[0],a
 251  011C  0700     E  	mov a,rf
 251  011D  0080     E  	mov _builtin_holtek_mant1[2],a
 251  011E  0700     E  	mov a,re
 251  011F  0080     E  	mov _builtin_holtek_mant1[1],a
 251  0120  0700     E  	mov a,rd
 251  0121  0080     E  	mov _builtin_holtek_mant1[0],a
 251  0122  0F3D        	mov a,61
 251  0123  0080     E  	mov _builtin_holtek_mant12p[1],a
 251  0124  0FCC        	mov a,204
 251  0125  0080     E  	mov _builtin_holtek_mant2[2],a
 251  0126  0FCC        	mov a,204
 251  0127  0080     E  	mov _builtin_holtek_mant2[1],a
 251  0128  0FCD        	mov a,205
 251  0129  0080     E  	mov _builtin_holtek_mant2[0],a
 251  012A  2000     E  	call _builtin_holtek_dtadd
 251  012B  0700     E  	mov a,_builtin_holtek_mant12p[0]
 251  012C  0080     E  	mov rg,a
 251  012D  0700     E  	mov a,_builtin_holtek_mant1[2]
 251  012E  0080     E  	mov rf,a
 251  012F  0700     E  	mov a,_builtin_holtek_mant1[1]
 251  0130  0080     E  	mov re,a
 251  0131  0700     E  	mov a,_builtin_holtek_mant1[0]
 251  0132  0080     E  	mov rd,a
 251  0133  2800     R  	jmp _L58
 251  0134              _L44:
 253  0134              #line 253 "c:\users\tech\desktop\codetector\main\Main.c"
 253  0134  0700     R  	mov a,_TempToPPMPercentage_2[2]
 253  0135  0080     E  	mov _builtin_holtek_mant1[2],a
 253  0136  0700     R  	mov a,_TempToPPMPercentage_2[1]
 253  0137  0080     E  	mov _builtin_holtek_mant1[1],a
 253  0138  0700     R  	mov a,_TempToPPMPercentage_2[0]
 253  0139  0080     E  	mov _builtin_holtek_mant1[0],a
 253  013A  0F42        	mov a,66
 253  013B  0080     E  	mov _builtin_holtek_mant2[2],a
 253  013C  0F48        	mov a,72
 253  013D  0080     E  	mov _builtin_holtek_mant2[1],a
 253  013E  0F00        	mov a,0
 253  013F  0080     E  	mov _builtin_holtek_mant2[0],a
 253  0140  2000     E  	call _builtin_holtek_ftsub
 253  0141  3800     E  	snz _builtin_holtek_mant1[2].7
 253  0142  2800     R  	jmp _L56
 253  0143  2800     R  	jmp _L47
 253  0144              _L56:
 253  0144  0700     R  	mov a,_TempToPPMPercentage_2[2]
 253  0145  0080     E  	mov _builtin_holtek_mant1[2],a
 253  0146  0700     R  	mov a,_TempToPPMPercentage_2[1]
 253  0147  0080     E  	mov _builtin_holtek_mant1[1],a
 253  0148  0700     R  	mov a,_TempToPPMPercentage_2[0]
 253  0149  0080     E  	mov _builtin_holtek_mant1[0],a
 253  014A  0F42        	mov a,66
 253  014B  0080     E  	mov _builtin_holtek_mant2[2],a
 253  014C  0F8C        	mov a,140
 253  014D  0080     E  	mov _builtin_holtek_mant2[1],a
 253  014E  0F00        	mov a,0
 253  014F  0080     E  	mov _builtin_holtek_mant2[0],a
"File: Main.c        Assembler  Version HGASM0202      Page 22

 253  0150  2000     E  	call _builtin_holtek_ftsub
 253  0151  3C00     E  	sz _builtin_holtek_mant1[2].7
 253  0152  2800     R  	jmp _L57
 253  0153  0700     E  	mov a,_builtin_holtek_mant1[2]
 253  0154  0500     E  	or a,_builtin_holtek_mant1[1]
 253  0155  0500     E  	or a,_builtin_holtek_mant1[0]
 253  0156  3D0A        	sz z
 253  0157  2800     R  	jmp _L57
 253  0158  2800     R  	jmp _L47
 253  0159              _L57:
 255  0159              #line 255 "c:\users\tech\desktop\codetector\main\Main.c"
 255  0159  0700     R  	mov a,_TempToPPMPercentage_2[2]
 255  015A  0080     E  	mov _builtin_holtek_mant1[2],a
 255  015B  0700     R  	mov a,_TempToPPMPercentage_2[1]
 255  015C  0080     E  	mov _builtin_holtek_mant1[1],a
 255  015D  0700     R  	mov a,_TempToPPMPercentage_2[0]
 255  015E  0080     E  	mov _builtin_holtek_mant1[0],a
 255  015F  0F42        	mov a,66
 255  0160  0080     E  	mov _builtin_holtek_mant2[2],a
 255  0161  0F48        	mov a,72
 255  0162  0080     E  	mov _builtin_holtek_mant2[1],a
 255  0163  0F00        	mov a,0
 255  0164  0080     E  	mov _builtin_holtek_mant2[0],a
 255  0165  2000     E  	call _builtin_holtek_ftsub
 255  0166  0700     E  	mov a,_builtin_holtek_mant1[2]
 255  0167  0080     E  	mov re,a
 255  0168  0700     E  	mov a,_builtin_holtek_mant1[1]
 255  0169  0080     E  	mov rd,a
 255  016A  0700     E  	mov a,_builtin_holtek_mant1[0]
 255  016B  0080     E  	mov rc,a
 255  016C  0700     E  	mov a,re
 255  016D  0080     E  	mov rg,a
 255  016E  0700     E  	mov a,rd
 255  016F  0080     E  	mov rf,a
 255  0170  0700     E  	mov a,rc
 255  0171  0080     E  	mov re,a
 255  0172  1F00     E  	clr rd
 255  0173  0700     E  	mov a,rg
 255  0174  0080     E  	mov _builtin_holtek_mant12p[0],a
 255  0175  0700     E  	mov a,rf
 255  0176  0080     E  	mov _builtin_holtek_mant1[2],a
 255  0177  0700     E  	mov a,re
 255  0178  0080     E  	mov _builtin_holtek_mant1[1],a
 255  0179  0700     E  	mov a,rd
 255  017A  0080     E  	mov _builtin_holtek_mant1[0],a
 255  017B  0F3B        	mov a,59
 255  017C  0080     E  	mov _builtin_holtek_mant12p[1],a
 255  017D  0FA3        	mov a,163
 255  017E  0080     E  	mov _builtin_holtek_mant2[2],a
 255  017F  0FD7        	mov a,215
 255  0180  0080     E  	mov _builtin_holtek_mant2[1],a
 255  0181  0F0A        	mov a,10
 255  0182  0080     E  	mov _builtin_holtek_mant2[0],a
 255  0183  2000     E  	call _builtin_holtek_dtmul
 255  0184  0700     E  	mov a,_builtin_holtek_mant12p[0]
 255  0185  0080     E  	mov rg,a
 255  0186  0700     E  	mov a,_builtin_holtek_mant1[2]
 255  0187  0080     E  	mov rf,a
 255  0188  0700     E  	mov a,_builtin_holtek_mant1[1]
 255  0189  0080     E  	mov re,a
"File: Main.c        Assembler  Version HGASM0202      Page 23

 255  018A  0700     E  	mov a,_builtin_holtek_mant1[0]
 255  018B  0080     E  	mov rd,a
 255  018C  0700     E  	mov a,rg
 255  018D  0080     E  	mov _builtin_holtek_mant12p[0],a
 255  018E  0700     E  	mov a,rf
 255  018F  0080     E  	mov _builtin_holtek_mant1[2],a
 255  0190  0700     E  	mov a,re
 255  0191  0080     E  	mov _builtin_holtek_mant1[1],a
 255  0192  0700     E  	mov a,rd
 255  0193  0080     E  	mov _builtin_holtek_mant1[0],a
 255  0194  0F3E        	mov a,62
 255  0195  0080     E  	mov _builtin_holtek_mant12p[1],a
 255  0196  0F0A        	mov a,10
 255  0197  0080     E  	mov _builtin_holtek_mant2[2],a
 255  0198  0F3D        	mov a,61
 255  0199  0080     E  	mov _builtin_holtek_mant2[1],a
 255  019A  0F71        	mov a,113
 255  019B  0080     E  	mov _builtin_holtek_mant2[0],a
 255  019C  2000     E  	call _builtin_holtek_dtadd
 255  019D  0700     E  	mov a,_builtin_holtek_mant12p[0]
 255  019E  0080     E  	mov rg,a
 255  019F  0700     E  	mov a,_builtin_holtek_mant1[2]
 255  01A0  0080     E  	mov rf,a
 255  01A1  0700     E  	mov a,_builtin_holtek_mant1[1]
 255  01A2  0080     E  	mov re,a
 255  01A3  0700     E  	mov a,_builtin_holtek_mant1[0]
 255  01A4  0080     E  	mov rd,a
 255  01A5              _L58:
 255  01A5  0700     E  	mov a,re
 255  01A6  0080     E  	mov rc,a
 255  01A7  0700     E  	mov a,rf
 255  01A8  0080     E  	mov rd,a
 255  01A9  0700     E  	mov a,rg
 255  01AA  0080     E  	mov re,a
 255  01AB  0700     E  	mov a,rc
 255  01AC  0080     E  	mov ra,a
 255  01AD  0700     E  	mov a,rd
 255  01AE  0080     E  	mov rb,a
 255  01AF  0700     E  	mov a,re
 255  01B0  0080     E  	mov rc,a
 255  01B1  2800     R  	jmp _L36
 255  01B2              _L47:
 255  01B2              _L36:
 255  01B2  0003        	ret
 255  01B3              _TempToPPMPercentage endp
 255  01B3              #line 255 "c:\users\tech\desktop\codetector\main\Main.c"
 255  01B3              #pragma debug scope 1 1
 255  01B3              public _COValue
 255  0000              @HCCINIT	.section 'data'
  55  0000              #line 55 "c:\users\tech\desktop\codetector\main\Main.c"
  55  0000              @HCCINIT_COValue .section 'data'
  55  0000              _COValue label byte
  55  0000              #pragma debug variable 12 1 _COValue "COValue"
  55  0000              	db 0
  55  0000              @ROMDATA_BASE .section inpage 'code'
  55  0000              	db 0
  55  0001              @HCCINIT_COValue .section 'data'
  55  0001              	db 0
  55  0001              @ROMDATA_BASE .section inpage 'code'
  55  0001              	db 0
"File: Main.c        Assembler  Version HGASM0202      Page 24

  55  0002              @HCCINIT_COValue .section 'data'
  55  0002              public _VDD
  54  0002              #line 54 "c:\users\tech\desktop\codetector\main\Main.c"
  54  0000              @HCCINIT_VDD .section 'data'
  54  0000              _VDD label byte
  54  0000              #pragma debug variable 28 1 _VDD "VDD"
  54  0000              	db 0
  54  0001              @ROMDATA_BASE .section inpage 'code'
  54  0001              	db 0
  54  0001              @HCCINIT_VDD .section 'data'
  54  0001              	db 0
  54  0002              @ROMDATA_BASE .section inpage 'code'
  54  0002              	db 0
  54  0002              @HCCINIT_VDD .section 'data'
  54  0002              	db 0
  54  0002              @ROMDATA_BASE .section inpage 'code'
  54  0002              	db 0
  54  0003              @HCCINIT_VDD .section 'data'
  29  0003              #line 29 "c:\users\tech\desktop\codetector\main\Main.c"
  29  0003              public _alarmCounter
  29  0000              @HCCINIT0_alarmCounter .section 'data'
  29  0000  0002[       _alarmCounter	db 2 dup(0)
            00
            ]
  29  0002              #pragma debug variable 12 1 _alarmCounter "alarmCounter"
  29  0002              
  29  0000              @HCCINIT .section 'data'
  29  0000              #pragma debug struct_end
  29  0000              #pragma debug struct_end
  29  0000              #pragma debug union_end
  29  0000              #pragma debug union_end
  29  0000              #pragma debug variable 43 1 ___status "__status" 1
  29  0000              #pragma debug struct_end
  29  0000              #pragma debug struct_end
  29  0000              #pragma debug union_end
  29  0000              #pragma debug union_end
  29  0000              #pragma debug variable 45 1 ___vbgrc "__vbgrc" 1
  29  0000              #pragma debug struct_end
  29  0000              #pragma debug struct_end
  29  0000              #pragma debug union_end
  29  0000              #pragma debug union_end
  29  0000              #pragma debug variable 47 1 ___pa "__pa" 1
  29  0000              #pragma debug struct_end
  29  0000              #pragma debug struct_end
  29  0000              #pragma debug union_end
  29  0000              #pragma debug union_end
  29  0000              #pragma debug variable 49 1 ___pac "__pac" 1
  29  0000              #pragma debug struct_end
  29  0000              #pragma debug struct_end
  29  0000              #pragma debug union_end
  29  0000              #pragma debug union_end
  29  0000              #pragma debug variable 51 1 ___papu "__papu" 1
  29  0000              #pragma debug struct_end
  29  0000              #pragma debug struct_end
  29  0000              #pragma debug union_end
  29  0000              #pragma debug union_end
  29  0000              #pragma debug variable 53 1 ___pawu "__pawu" 1
  29  0000              #pragma debug struct_end
  29  0000              #pragma debug struct_end
  29  0000              #pragma debug union_end
"File: Main.c        Assembler  Version HGASM0202      Page 25

  29  0000              #pragma debug union_end
  29  0000              #pragma debug variable 55 1 ___sda0c "__sda0c" 1
  29  0000              #pragma debug struct_end
  29  0000              #pragma debug struct_end
  29  0000              #pragma debug union_end
  29  0000              #pragma debug union_end
  29  0000              #pragma debug variable 57 1 ___sda1c "__sda1c" 1
  29  0000              #pragma debug struct_end
  29  0000              #pragma debug struct_end
  29  0000              #pragma debug union_end
  29  0000              #pragma debug union_end
  29  0000              #pragma debug variable 59 1 ___isgenc "__isgenc" 1
 119  0000              #line 119 "c:\users\tech\desktop\codetector\main\Main.c"
 119  0000              @code .section at 0 'code'
 119  0000  2800     R  	jmp _main_startup1
 119  0001              
 119  0001              extern _builtin_holtek_mant1:byte
 119  0001              extern _builtin_holtek_signs:byte
 119  0001              extern _builtin_holtek_uitof:near
 119  0001              extern _builtin_holtek_mant2:byte
 119  0001              extern _builtin_holtek_ftdiv:near
 119  0001              extern _builtin_holtek_ftmul:near
 119  0001              extern _builtin_holtek_mant12p:byte
 119  0001              extern _builtin_holtek_dtdiv:near
 119  0001              extern _builtin_holtek_dtmul:near
 119  0001              extern _builtin_holtek_ftol:near
 119  0001              extern _PWMSeter:near
 119  0001              extern _ClockInit:near
 119  0001              extern _GPIOInit:near
 119  0001              extern _GPIOToGNDCurentInit:near
 119  0001              extern _OPAMPInit:near
 119  0001              extern _S_ADC_Init:near
 119  0001              extern _PTimerInit:near
 119  0001              extern _clearSegment:near
 119  0001              extern _S_READ_ADC:near
 119  0001              extern _builtin_holtek_uitod:near
 119  0001              extern _key:near
 119  0001              extern _shwoSegment_2:byte
 119  0001              extern _shwoSegment:near
 119  0001              extern _builtin_holtek_dtsub:near
 119  0001              extern _builtin_holtek_ftsub:near
 119  0001              extern _builtin_holtek_ftadd:near
 119  0001              extern _builtin_holtek_dtadd:near
 119  0001              
 119  0001              ; 
 119  0001              ; Generated by holtek-gcc v3.19, Sat Oct 07 11:57:57 2023
 119  0001              ; Rebuild 718
 119  0001              ; end of file


        0 Errors, 0