"File: Main.c        Assembler  Version HGASM0202      Page 1


   1  0000              ; Generated by holtek-gcc v3.19, Sun Oct 08 11:53:22 2023
   2  0000              ; 
   3  0000              ; Configuration:
   4  0000              ;       with long instruction
   5  0000              ;       Single ROM, Multi-RAM
   6  0000              ;       bits_per_rom_unit:16
   7  0000              ;       with mp1
   8  0000              ;       with tbhp, address(0x9)
   9  0000              ;          Use tabrd-const
  10  0000              ;       
  11  0000              ; SFR address of long-instruction arch:
  12  0000              ;    mp0 = -1,1,0
  13  0000              ;    mp1 = 4,3,2
  14  0000              ;    mp2 = 14,13,12
  15  0000              ;    tbp = 9,7,8
  16  0000              ;    acc = 5
  17  0000              ;    pcl = 6
  18  0000              ;    status = 10
  19  0000              ;    bp = 11
  20  0000              ;    intc = 72
  21  0000              ;       
  22  0000              ;       
  23  0000              ; use 'tabrdc' instead of 'tabrd'
  24  0000              ;       
  25  0000              
  26  0000              #pragma translator "holtek-gcc 4.6.4" "3.19" "build 20130711"
  27  0000              ; Rebuild 718
  28  0000              
  29  0000              ir equ [2]
  30  0000              mp equ [3]
  31  0000              sbp equ [4]
  32  0000              acc equ [5]
  33  0000              bp equ [11]
  34  0000              tblp equ [7]
  35  0000              tbhp equ [9]
  36  0000              status equ [10]
  37  0000              c equ [10].0
  38  0000              ac equ [10].1
  39  0000              z equ [10].2
  40  0000              ov equ [10].3
  41  0000              cz equ [10].6
  42  0000              sc equ [10].7
  43  0000              intc equ [72]
  44  0000              
  45  0000              extern ra:byte
  46  0000              extern rb:byte
  47  0000              extern rc:byte
  48  0000              extern rd:byte
  49  0000              extern re:byte
  50  0000              extern rf:byte
  51  0000              extern rg:byte
  52  0000              extern rh:byte
  53  0000              extern _Crom2Prom:near
  54  0000              extern _Crom2PromNext:near
  55  0000              
  56  0000              RAMBANK 0 @BITDATASEC, @BITDATASEC1
  57  0000              @HCCINIT	.section 'data'
  58  0000              @HCCINIT0	.section 'data'
  59  0000              @BITDATASEC	 .section 'data'
"File: Main.ASM      Assembler  Version HGASM0202      Page 2

  60  0000              @BITDATASEC1	 .section 'data'
  61  0000              
  62  0000              #pragma debug scope 1 1
  63  0000              	extern __DELAY3:near
  64  0000              	extern __DELAYX3:near
  65  0000              	extern __DELAYX6:near
  66  0000              	extern __DELAYY5:near
  67  0000              	extern __DELAYY3:near
  68  0000              	extern _builtin_holtek_delay_2:byte
  69  0000              public _CO
  70  0000              #pragma debug scope 2 1

  62  0000              #line 62 "c:\users\tech\desktop\codetector\main\Main.c"
  62  0000              _CO .section 'code'
  62  0000              _CO proc
  62  0000              public _CO_2
  62  0000  0009[           local _CO_2 db 9 dup(?)	; 5,4
            00
            ]
  62  0009              #pragma debug variable 28 2 _CO_2+0 "VCC"
  62  0009              #pragma debug variable 12 2 _CO_2+3 "ADC"
  75  0009              #line 75 "c:\users\tech\desktop\codetector\main\Main.c"
  75  0000  0F01        	mov a,1
  75  0001  2000     E  	call _S_READ_ADC
  75  0002  0700     R  	mov a,_CO_2[0]
  75  0003  0080     E  	mov _temperature_2[2],a
  75  0004  0700     R  	mov a,_CO_2[1]
  75  0005  0080     E  	mov _temperature_2[3],a
  75  0006  0700     R  	mov a,_CO_2[2]
  75  0007  0080     E  	mov _temperature_2[4],a
  75  0008  0700     E  	mov a,ra
  75  0009  0080     E  	mov _temperature_2[0],a
  75  000A  0700     E  	mov a,rb
  75  000B  0080     E  	mov _temperature_2[1],a
  75  000C  2000     E  	call _temperature
  85  000D              #line 85 "c:\users\tech\desktop\codetector\main\Main.c"
  85  000D  0700     E  	mov a,ra
  85  000E  0080     E  	mov re,a
  85  000F  0700     E  	mov a,rb
  85  0010  0080     E  	mov rf,a
  85  0011  0700     E  	mov a,rc
  85  0012  0080     E  	mov rg,a
  85  0013  1F00     E  	clr rd
  85  0014  0700     E  	mov a,rg
  85  0015  0080     E  	mov _builtin_holtek_mant12p[0],a
  85  0016  0700     E  	mov a,rf
  85  0017  0080     E  	mov _builtin_holtek_mant1[2],a
  85  0018  0700     E  	mov a,re
  85  0019  0080     E  	mov _builtin_holtek_mant1[1],a
  85  001A  0700     E  	mov a,rd
  85  001B  0080     E  	mov _builtin_holtek_mant1[0],a
  85  001C  0F3B        	mov a,59
  85  001D  0080     E  	mov _builtin_holtek_mant12p[1],a
  85  001E  0F23        	mov a,35
  85  001F  0080     E  	mov _builtin_holtek_mant2[2],a
  85  0020  0FD7        	mov a,215
  85  0021  0080     E  	mov _builtin_holtek_mant2[1],a
  85  0022  0F0A        	mov a,10
  85  0023  0080     E  	mov _builtin_holtek_mant2[0],a
  85  0024  2000     E  	call _builtin_holtek_dtmul
"File: Main.c        Assembler  Version HGASM0202      Page 3

  85  0025  0700     E  	mov a,_builtin_holtek_mant12p[0]
  85  0026  0080     E  	mov rg,a
  85  0027  0700     E  	mov a,_builtin_holtek_mant1[2]
  85  0028  0080     E  	mov rf,a
  85  0029  0700     E  	mov a,_builtin_holtek_mant1[1]
  85  002A  0080     E  	mov re,a
  85  002B  0700     E  	mov a,_builtin_holtek_mant1[0]
  85  002C  0080     E  	mov rd,a
  85  002D  0700     E  	mov a,rg
  85  002E  0080     E  	mov _builtin_holtek_mant12p[0],a
  85  002F  0700     E  	mov a,rf
  85  0030  0080     E  	mov _builtin_holtek_mant1[2],a
  85  0031  0700     E  	mov a,re
  85  0032  0080     E  	mov _builtin_holtek_mant1[1],a
  85  0033  0700     E  	mov a,rd
  85  0034  0080     E  	mov _builtin_holtek_mant1[0],a
  85  0035  0F3F        	mov a,63
  85  0036  0080     E  	mov _builtin_holtek_mant12p[1],a
  85  0037  0F40        	mov a,64
  85  0038  0080     E  	mov _builtin_holtek_mant2[2],a
  85  0039  0F00        	mov a,0
  85  003A  0080     E  	mov _builtin_holtek_mant2[1],a
  85  003B  0F00        	mov a,0
  85  003C  0080     E  	mov _builtin_holtek_mant2[0],a
  85  003D  2000     E  	call _builtin_holtek_dtadd
  85  003E  0700     E  	mov a,_builtin_holtek_mant12p[0]
  85  003F  0080     R  	mov _CO_2[8],a
  85  0040  0700     E  	mov a,_builtin_holtek_mant1[2]
  85  0041  0080     R  	mov _CO_2[7],a
  85  0042  0700     E  	mov a,_builtin_holtek_mant1[1]
  85  0043  0080     R  	mov _CO_2[6],a
  85  0044  0700     E  	mov a,_builtin_holtek_mant1[0]
  85  0045  0080     R  	mov _CO_2[5],a
  76  0046              #line 76 "c:\users\tech\desktop\codetector\main\Main.c"
  76  0046  0700     R  	mov a,_CO_2[4]
  76  0047  0080     E  	mov _builtin_holtek_mant1[1],a
  76  0048  0700     R  	mov a,_CO_2[3]
  76  0049  0080     E  	mov _builtin_holtek_mant1[0],a
  76  004A  3400     E  	clr _builtin_holtek_signs.0
  76  004B  2000     E  	call _builtin_holtek_uitof
  76  004C  0700     E  	mov a,_builtin_holtek_mant1[2]
  76  004D  0080     E  	mov rh,a
  76  004E  0700     E  	mov a,_builtin_holtek_mant1[1]
  76  004F  0080     E  	mov rg,a
  76  0050  0700     E  	mov a,_builtin_holtek_mant1[0]
  76  0051  0080     E  	mov rf,a
  76  0052  0700     R  	mov a,_CO_2[2]
  76  0053  0080     E  	mov _builtin_holtek_mant1[2],a
  76  0054  0700     R  	mov a,_CO_2[1]
  76  0055  0080     E  	mov _builtin_holtek_mant1[1],a
  76  0056  0700     R  	mov a,_CO_2[0]
  76  0057  0080     E  	mov _builtin_holtek_mant1[0],a
  76  0058  0F45        	mov a,69
  76  0059  0080     E  	mov _builtin_holtek_mant2[2],a
  76  005A  0F7F        	mov a,127
  76  005B  0080     E  	mov _builtin_holtek_mant2[1],a
  76  005C  0FF0        	mov a,240
  76  005D  0080     E  	mov _builtin_holtek_mant2[0],a
  76  005E  2000     E  	call _builtin_holtek_ftdiv
  76  005F  0700     E  	mov a,_builtin_holtek_mant1[2]
"File: Main.c        Assembler  Version HGASM0202      Page 4

  76  0060  0080     E  	mov re,a
  76  0061  0700     E  	mov a,_builtin_holtek_mant1[1]
  76  0062  0080     E  	mov rd,a
  76  0063  0700     E  	mov a,_builtin_holtek_mant1[0]
  76  0064  0080     E  	mov rc,a
  76  0065  0700     E  	mov a,rh
  76  0066  0080     E  	mov _builtin_holtek_mant1[2],a
  76  0067  0700     E  	mov a,rg
  76  0068  0080     E  	mov _builtin_holtek_mant1[1],a
  76  0069  0700     E  	mov a,rf
  76  006A  0080     E  	mov _builtin_holtek_mant1[0],a
  76  006B  0700     E  	mov a,re
  76  006C  0080     E  	mov _builtin_holtek_mant2[2],a
  76  006D  0700     E  	mov a,rd
  76  006E  0080     E  	mov _builtin_holtek_mant2[1],a
  76  006F  0700     E  	mov a,rc
  76  0070  0080     E  	mov _builtin_holtek_mant2[0],a
  76  0071  2000     E  	call _builtin_holtek_ftmul
  76  0072  0700     E  	mov a,_builtin_holtek_mant1[2]
  76  0073  0080     E  	mov re,a
  76  0074  0700     E  	mov a,_builtin_holtek_mant1[1]
  76  0075  0080     E  	mov rd,a
  76  0076  0700     E  	mov a,_builtin_holtek_mant1[0]
  76  0077  0080     E  	mov rc,a
  77  0078              #line 77 "c:\users\tech\desktop\codetector\main\Main.c"
  77  0078  0700     E  	mov a,re
  77  0079  0080     E  	mov rg,a
  77  007A  0700     E  	mov a,rd
  77  007B  0080     E  	mov rf,a
  77  007C  0700     E  	mov a,rc
  77  007D  0080     E  	mov re,a
  77  007E  1F00     E  	clr rd
  77  007F  0700     E  	mov a,rg
  77  0080  0080     E  	mov _builtin_holtek_mant12p[0],a
  77  0081  0700     E  	mov a,rf
  77  0082  0080     E  	mov _builtin_holtek_mant1[2],a
  77  0083  0700     E  	mov a,re
  77  0084  0080     E  	mov _builtin_holtek_mant1[1],a
  77  0085  0700     E  	mov a,rd
  77  0086  0080     E  	mov _builtin_holtek_mant1[0],a
  77  0087  0F40        	mov a,64
  77  0088  0080     E  	mov _builtin_holtek_mant12p[1],a
  77  0089  0FF5        	mov a,245
  77  008A  0080     E  	mov _builtin_holtek_mant2[2],a
  77  008B  0F55        	mov a,85
  77  008C  0080     E  	mov _builtin_holtek_mant2[1],a
  77  008D  0F55        	mov a,85
  77  008E  0080     E  	mov _builtin_holtek_mant2[0],a
  77  008F  2000     E  	call _builtin_holtek_dtdiv
  77  0090  0700     E  	mov a,_builtin_holtek_mant12p[0]
  77  0091  0080     E  	mov rg,a
  77  0092  0700     E  	mov a,_builtin_holtek_mant1[2]
  77  0093  0080     E  	mov rf,a
  77  0094  0700     E  	mov a,_builtin_holtek_mant1[1]
  77  0095  0080     E  	mov re,a
  77  0096  0700     E  	mov a,_builtin_holtek_mant1[0]
  77  0097  0080     E  	mov rd,a
  77  0098  0700     E  	mov a,rg
  77  0099  0080     E  	mov _builtin_holtek_mant12p[0],a
  77  009A  0700     E  	mov a,rf
"File: Main.c        Assembler  Version HGASM0202      Page 5

  77  009B  0080     E  	mov _builtin_holtek_mant1[2],a
  77  009C  0700     E  	mov a,re
  77  009D  0080     E  	mov _builtin_holtek_mant1[1],a
  77  009E  0700     E  	mov a,rd
  77  009F  0080     E  	mov _builtin_holtek_mant1[0],a
  77  00A0  0F44        	mov a,68
  77  00A1  0080     E  	mov _builtin_holtek_mant12p[1],a
  77  00A2  0F7A        	mov a,122
  77  00A3  0080     E  	mov _builtin_holtek_mant2[2],a
  77  00A4  0F00        	mov a,0
  77  00A5  0080     E  	mov _builtin_holtek_mant2[1],a
  77  00A6  0F00        	mov a,0
  77  00A7  0080     E  	mov _builtin_holtek_mant2[0],a
  77  00A8  2000     E  	call _builtin_holtek_dtmul
  77  00A9  0700     E  	mov a,_builtin_holtek_mant12p[0]
  77  00AA  0080     E  	mov rg,a
  77  00AB  0700     E  	mov a,_builtin_holtek_mant1[2]
  77  00AC  0080     E  	mov rf,a
  77  00AD  0700     E  	mov a,_builtin_holtek_mant1[1]
  77  00AE  0080     E  	mov re,a
  77  00AF  0700     E  	mov a,_builtin_holtek_mant1[0]
  77  00B0  0080     E  	mov rd,a
  77  00B1  0700     E  	mov a,rg
  77  00B2  0080     E  	mov _builtin_holtek_mant12p[0],a
  77  00B3  0700     E  	mov a,rf
  77  00B4  0080     E  	mov _builtin_holtek_mant1[2],a
  77  00B5  0700     E  	mov a,re
  77  00B6  0080     E  	mov _builtin_holtek_mant1[1],a
  77  00B7  0700     E  	mov a,rd
  77  00B8  0080     E  	mov _builtin_holtek_mant1[0],a
  77  00B9  0F41        	mov a,65
  77  00BA  0080     E  	mov _builtin_holtek_mant12p[1],a
  77  00BB  0F70        	mov a,112
  77  00BC  0080     E  	mov _builtin_holtek_mant2[2],a
  77  00BD  0F00        	mov a,0
  77  00BE  0080     E  	mov _builtin_holtek_mant2[1],a
  77  00BF  0F00        	mov a,0
  77  00C0  0080     E  	mov _builtin_holtek_mant2[0],a
  77  00C1  2000     E  	call _builtin_holtek_dtdiv
  77  00C2  0700     E  	mov a,_builtin_holtek_mant12p[0]
  77  00C3  0080     E  	mov rg,a
  77  00C4  0700     E  	mov a,_builtin_holtek_mant1[2]
  77  00C5  0080     E  	mov rf,a
  77  00C6  0700     E  	mov a,_builtin_holtek_mant1[1]
  77  00C7  0080     E  	mov re,a
  77  00C8  0700     E  	mov a,_builtin_holtek_mant1[0]
  77  00C9  0080     E  	mov rd,a
  77  00CA  0700     E  	mov a,rg
  77  00CB  0080     E  	mov _builtin_holtek_mant12p[0],a
  77  00CC  0700     E  	mov a,rf
  77  00CD  0080     E  	mov _builtin_holtek_mant1[2],a
  77  00CE  0700     E  	mov a,re
  77  00CF  0080     E  	mov _builtin_holtek_mant1[1],a
  77  00D0  0700     E  	mov a,rd
  77  00D1  0080     E  	mov _builtin_holtek_mant1[0],a
  77  00D2  0F44        	mov a,68
  77  00D3  0080     E  	mov _builtin_holtek_mant12p[1],a
  77  00D4  0F7A        	mov a,122
  77  00D5  0080     E  	mov _builtin_holtek_mant2[2],a
  77  00D6  0F00        	mov a,0
"File: Main.c        Assembler  Version HGASM0202      Page 6

  77  00D7  0080     E  	mov _builtin_holtek_mant2[1],a
  77  00D8  0F00        	mov a,0
  77  00D9  0080     E  	mov _builtin_holtek_mant2[0],a
  77  00DA  2000     E  	call _builtin_holtek_dtmul
  77  00DB  0700     E  	mov a,_builtin_holtek_mant12p[0]
  77  00DC  0080     E  	mov rg,a
  77  00DD  0700     E  	mov a,_builtin_holtek_mant1[2]
  77  00DE  0080     E  	mov rf,a
  77  00DF  0700     E  	mov a,_builtin_holtek_mant1[1]
  77  00E0  0080     E  	mov re,a
  77  00E1  0700     E  	mov a,_builtin_holtek_mant1[0]
  77  00E2  0080     E  	mov rd,a
  77  00E3  0700     E  	mov a,rg
  77  00E4  0080     E  	mov _builtin_holtek_mant12p[0],a
  77  00E5  0700     E  	mov a,rf
  77  00E6  0080     E  	mov _builtin_holtek_mant1[2],a
  77  00E7  0700     E  	mov a,re
  77  00E8  0080     E  	mov _builtin_holtek_mant1[1],a
  77  00E9  0700     E  	mov a,rd
  77  00EA  0080     E  	mov _builtin_holtek_mant1[0],a
  77  00EB  0F3D        	mov a,61
  77  00EC  0080     E  	mov _builtin_holtek_mant12p[1],a
  77  00ED  0F23        	mov a,35
  77  00EE  0080     E  	mov _builtin_holtek_mant2[2],a
  77  00EF  0FD7        	mov a,215
  77  00F0  0080     E  	mov _builtin_holtek_mant2[1],a
  77  00F1  0F0A        	mov a,10
  77  00F2  0080     E  	mov _builtin_holtek_mant2[0],a
  77  00F3  2000     E  	call _builtin_holtek_dtmul
  77  00F4  0700     E  	mov a,_builtin_holtek_mant12p[0]
  77  00F5  0080     E  	mov rg,a
  77  00F6  0700     E  	mov a,_builtin_holtek_mant1[2]
  77  00F7  0080     E  	mov rf,a
  77  00F8  0700     E  	mov a,_builtin_holtek_mant1[1]
  77  00F9  0080     E  	mov re,a
  77  00FA  0700     E  	mov a,_builtin_holtek_mant1[0]
  77  00FB  0080     E  	mov rd,a
  77  00FC  0700     E  	mov a,re
  77  00FD  0080     E  	mov rc,a
  77  00FE  0700     E  	mov a,rf
  77  00FF  0080     E  	mov rd,a
  77  0100  0700     E  	mov a,rg
  77  0101  0080     E  	mov re,a
  85  0102              #line 85 "c:\users\tech\desktop\codetector\main\Main.c"
  85  0102  0700     E  	mov a,re
  85  0103  0080     E  	mov rg,a
  85  0104  0700     E  	mov a,rd
  85  0105  0080     E  	mov rf,a
  85  0106  0700     E  	mov a,rc
  85  0107  0080     E  	mov re,a
  85  0108  1F00     E  	clr rd
  85  0109  0700     R  	mov a,_CO_2[8]
  85  010A  0080     E  	mov _builtin_holtek_mant12p[0],a
  85  010B  0700     R  	mov a,_CO_2[7]
  85  010C  0080     E  	mov _builtin_holtek_mant1[2],a
  85  010D  0700     R  	mov a,_CO_2[6]
  85  010E  0080     E  	mov _builtin_holtek_mant1[1],a
  85  010F  0700     R  	mov a,_CO_2[5]
  85  0110  0080     E  	mov _builtin_holtek_mant1[0],a
  85  0111  0700     E  	mov a,rg
"File: Main.c        Assembler  Version HGASM0202      Page 7

  85  0112  0080     E  	mov _builtin_holtek_mant12p[1],a
  85  0113  0700     E  	mov a,rf
  85  0114  0080     E  	mov _builtin_holtek_mant2[2],a
  85  0115  0700     E  	mov a,re
  85  0116  0080     E  	mov _builtin_holtek_mant2[1],a
  85  0117  0700     E  	mov a,rd
  85  0118  0080     E  	mov _builtin_holtek_mant2[0],a
  85  0119  2000     E  	call _builtin_holtek_dtmul
  85  011A  0700     E  	mov a,_builtin_holtek_mant12p[0]
  85  011B  0080     E  	mov rg,a
  85  011C  0700     E  	mov a,_builtin_holtek_mant1[2]
  85  011D  0080     E  	mov rf,a
  85  011E  0700     E  	mov a,_builtin_holtek_mant1[1]
  85  011F  0080     E  	mov re,a
  85  0120  0700     E  	mov a,_builtin_holtek_mant1[0]
  85  0121  0080     E  	mov rd,a
  85  0122  0700     E  	mov a,rg
  85  0123  0080     E  	mov _builtin_holtek_mant12p[0],a
  85  0124  0700     E  	mov a,rf
  85  0125  0080     E  	mov _builtin_holtek_mant1[2],a
  85  0126  0700     E  	mov a,re
  85  0127  0080     E  	mov _builtin_holtek_mant1[1],a
  85  0128  0700     E  	mov a,rd
  85  0129  0080     E  	mov _builtin_holtek_mant1[0],a
  85  012A  2000     E  	call _builtin_holtek_dtol
  85  012B  0700     E  	mov a,_builtin_holtek_mant12p[0]
  85  012C  0080     E  	mov rd,a
  85  012D  0700     E  	mov a,_builtin_holtek_mant1[2]
  85  012E  0080     E  	mov rc,a
  85  012F  0700     E  	mov a,_builtin_holtek_mant1[1]
  85  0130  0080     E  	mov rb,a
  85  0131  0700     E  	mov a,_builtin_holtek_mant1[0]
  85  0132  0080     E  	mov ra,a
  85  0133  0003        	ret
  85  0134              _CO endp
  85  0134              #line 85 "c:\users\tech\desktop\codetector\main\Main.c"
  85  0134              #pragma debug scope 1 1
  85  0134              public _buzzerBIB
  85  0134              #pragma debug scope 3 1
 117  0134              #line 117 "c:\users\tech\desktop\codetector\main\Main.c"
 117  0000              _buzzerBIB .section 'code'
 117  0000              _buzzerBIB proc
 117  0000  0003[           local _buzzerBIB_2 db 3 dup(?)	; 0,3
            00
            ]
 117  0000  0080     R  	mov _buzzerBIB_2[0],a
 117  0001              #pragma debug variable 7 3 _buzzerBIB_2+0 "number"
 117  0001              #pragma debug variable 8 3 _buzzerBIB_2+1 "i"
 125  0001              #line 125 "c:\users\tech\desktop\codetector\main\Main.c"
 125  0001  1F00     R  	clr _buzzerBIB_2[1]
 125  0002              _L3:
 125  0002              #line 125 "c:\users\tech\desktop\codetector\main\Main.c"
 125  0002  0700     R  	mov a,_buzzerBIB_2[1]
 125  0003  0080     E  	mov rd,a
 125  0004  1F00     E  	clr re
 125  0005  0700     R  	mov a,_buzzerBIB_2[0]
 125  0006  0080     E  	mov rb,a
 125  0007  1F00     E  	clr rc
 125  0008  3F85        	sz acc.7
 125  0009  1F80     E  	set rc
"File: Main.c        Assembler  Version HGASM0202      Page 8

 125  000A  0700     E  	mov a,rd
 125  000B  0200     E  	sub a,rb
 125  000C  0700     E  	mov a,re
 125  000D  1200     E  	sbc a,rc
 125  000E  3B8A        	snz sc
 125  000F  2800     R  	jmp _L7
 125  0010  1F00     E  	clr ra
 125  0011              _L8:
 129  0011              #line 129 "c:\users\tech\desktop\codetector\main\Main.c"
 129  0011  1400     E  	inca ra
 129  0012  0080     R  	mov _buzzerBIB_2[2],a
 130  0013              #line 130 "c:\users\tech\desktop\codetector\main\Main.c"
 130  0013              ;# 130 "c:\users\tech\desktop\codetector\main\Main.c" 1
 130  0013              	IF 30000>263690
 130  0013              ;# 130 "c:\users\tech\desktop\codetector\main\Main.c" 1
 130  0013              	ERRMESSAGE 'the value 30000of the argument exceeds the maxinum 263690'
 130  0013              	ENDIF
 130  0013              ;# 130 "c:\users\tech\desktop\codetector\main\Main.c" 1
 130  0013              	IF 30000<0
 130  0013              ;# 130 "c:\users\tech\desktop\codetector\main\Main.c" 1
 130  0013              	ERRMESSAGE 'the value 30000 of the argument exceeds the mininum 0'
 130  0013              	ENDIF
 130  0013              ;# 130 "c:\users\tech\desktop\codetector\main\Main.c" 1
 130  0013              	IF 30000==0
 130  0013              ;# 130 "c:\users\tech\desktop\codetector\main\Main.c" 1
 130  0013              	JMP $
 130  0013              	ENDIF
 130  0013              ;# 130 "c:\users\tech\desktop\codetector\main\Main.c" 1
 130  0013              	IF 30000==1
 130  0013              ;# 130 "c:\users\tech\desktop\codetector\main\Main.c" 1
 130  0013              	NOP
 130  0013              	ENDIF
 130  0013              ;# 130 "c:\users\tech\desktop\codetector\main\Main.c" 1
 130  0013              	IF 30000==2
 130  0013              ;# 130 "c:\users\tech\desktop\codetector\main\Main.c" 1
 130  0013              	NOP
 130  0013              ;# 130 "c:\users\tech\desktop\codetector\main\Main.c" 1
 130  0013              	NOP
 130  0013              	ENDIF
 130  0013              ;# 130 "c:\users\tech\desktop\codetector\main\Main.c" 1
 130  0013              	IF 30000==3
 130  0013              ;# 130 "c:\users\tech\desktop\codetector\main\Main.c" 1
 130  0013              	NOP
 130  0013              ;# 130 "c:\users\tech\desktop\codetector\main\Main.c" 1
 130  0013              	NOP
 130  0013              ;# 130 "c:\users\tech\desktop\codetector\main\Main.c" 1
 130  0013              	NOP
 130  0013              	ENDIF
 130  0013              ;# 130 "c:\users\tech\desktop\codetector\main\Main.c" 1
 130  0013              	IF (30000<8) AND (30000>3)
 130  0013              ;# 130 "c:\users\tech\desktop\codetector\main\Main.c" 1
 130  0013              	CALL __DELAY3 + 7 -30000
 130  0013              	ENDIF
 130  0013              ;# 130 "c:\users\tech\desktop\codetector\main\Main.c" 1
 130  0013              	IF (30000< 0404h) AND (30000>7)
 130  0013              ;# 130 "c:\users\tech\desktop\codetector\main\Main.c" 1
 130  0013              	MOV A,30000/4-1
 130  0013              ;# 130 "c:\users\tech\desktop\codetector\main\Main.c" 1
 130  0013              	CALL __DELAYX3 + 3 -(30000 MOD 4)
 130  0013              	ENDIF
"File: Main.c        Assembler  Version HGASM0202      Page 9

 130  0013              ;# 130 "c:\users\tech\desktop\codetector\main\Main.c" 1
 130  0013              	IF (30000< 0x40B) AND (30000> 0403h)
 130  0013              ;# 130 "c:\users\tech\desktop\codetector\main\Main.c" 1
 130  0013              	MOV A,0 
 130  0013              ;# 130 "c:\users\tech\desktop\codetector\main\Main.c" 1
 130  0013              	CALL __DELAYX6 + 0x40a -30000
 130  0013              	ENDIF
 130  0013              ;# 130 "c:\users\tech\desktop\codetector\main\Main.c" 1
 130  0013              	IF (30000 >= 0x40b) AND ((((30000-9)%0402h)/4+1)>256)
 130  0013              ;# 130 "c:\users\tech\desktop\codetector\main\Main.c" 1
 130  0013              	MOV A,(30000-9)/0402h
 130  0013              ;# 130 "c:\users\tech\desktop\codetector\main\Main.c" 1
 130  0013              	MOV _builtin_holtek_delay_2,A
 130  0013              ;# 130 "c:\users\tech\desktop\codetector\main\Main.c" 1
 130  0013              	MOV A,0
 130  0013              ;# 130 "c:\users\tech\desktop\codetector\main\Main.c" 1
 130  0013              	CALL __DELAYY5 +5- (((30000-9)%0402h)%6)
 130  0013              	ENDIF
 130  0013              ;# 130 "c:\users\tech\desktop\codetector\main\Main.c" 1
 130  0013              	IF (30000 >= 0x40b) AND ((((30000-9)%0402h)/4+1)<=256)
 130  0013              ;# 130 "c:\users\tech\desktop\codetector\main\Main.c" 1
 130  0013  0F1D        	MOV A,(30000-9)/0402h
 130  0014              ;# 130 "c:\users\tech\desktop\codetector\main\Main.c" 1
 130  0014  0080     E  	MOV _builtin_holtek_delay_2,A
 130  0015              ;# 130 "c:\users\tech\desktop\codetector\main\Main.c" 1
 130  0015  0F3C        	MOV A,((30000-9)%0402h)/4+1
 130  0016              ;# 130 "c:\users\tech\desktop\codetector\main\Main.c" 1
 130  0016  2000     E  	CALL __DELAYY3 +3-(((30000-9)%0402h)%4)
 130  0017              	ENDIF
 130  0017  1500     E  	deca ra
 130  0018  0080     E  	mov rb,a
 131  0019              #line 131 "c:\users\tech\desktop\codetector\main\Main.c"
 131  0019  0F05        	mov a,5
 131  001A  0200     E  	sub a,rb
 131  001B  380A        	snz c
 131  001C  2800     R  	jmp _L4
 131  001D  0F01        	mov a,1
 131  001E  2800     R  	jmp _L11
 131  001F              _L4:
 131  001F  0FF9        	mov a,249
 131  0020  0380     E  	addm a,ra
 132  0021              #line 132 "c:\users\tech\desktop\codetector\main\Main.c"
 132  0021  0F04        	mov a,4
 132  0022  0200     E  	sub a,ra
 132  0023  380A        	snz c
 132  0024  2800     R  	jmp _L6
 132  0025  0F00        	mov a,0
 132  0026              _L11:
 132  0026  2000     E  	call _PWMSeter
 132  0027              _L5:
 129  0027              #line 129 "c:\users\tech\desktop\codetector\main\Main.c"
 129  0027  0700     R  	mov a,_buzzerBIB_2[2]
 129  0028  0080     E  	mov ra,a
 129  0029  2800     R  	jmp _L8
 129  002A              _L6:
 133  002A              #line 133 "c:\users\tech\desktop\codetector\main\Main.c"
 133  002A  0F12        	mov a,18
 133  002B  0200     R  	sub a,_buzzerBIB_2[2]
 133  002C  3C0A        	sz c
 133  002D  2800     R  	jmp _L5
"File: Main.c        Assembler  Version HGASM0202      Page 10

 125  002E              #line 125 "c:\users\tech\desktop\codetector\main\Main.c"
 125  002E  1480     R  	inc _buzzerBIB_2[1]
 125  002F  2800     R  	jmp _L3
 125  0030              _L7:
 138  0030              #line 138 "c:\users\tech\desktop\codetector\main\Main.c"
 138  0030  3800     R  	snz _buzzerBIB_2[0].7
 138  0031  1E00     R  	snz _buzzerBIB_2[0]
 138  0032  2800     R  	jmp _L2
 138  0033              _L10:
 138  0033  2800     R  	jmp _L10
 138  0034              _L2:
 138  0034  0003        	ret
 138  0035              _buzzerBIB endp
 138  0035              #line 138 "c:\users\tech\desktop\codetector\main\Main.c"
 138  0035              #pragma debug scope 1 1
 138  0035              ___status equ [10]
 138  0035              ___isgenc equ [93]
 138  0035              ___vbgrc equ [11]
 138  0035              ___sda0c equ [35]
 138  0035              ___sda1c equ [37]
 138  0035              ___papu equ [22]
 138  0035              ___pawu equ [23]
 138  0035              ___pac equ [21]
 138  0035              ___pa equ [20]
 138  0035              public _main
 138  0035              #pragma debug scope 4 1
 145  0035              #line 145 "c:\users\tech\desktop\codetector\main\Main.c"
 145  0035              IFDEF WITH_DEFAULT_STARTUP
 145  0035              extern _main_initial0:near
 145  0035              extern _main_startup:near
 145  0035              ENDIF
 145  0035              
 145  0035              ROMBANK 0 @start
 145  0000              @start .section com_l 'code'
 145  0000              _main_startup1:
 145  0000              @start .section com_e 'code'
 145  0000  2800     R  	jmp _main
 145  0001              
 145  0000              _main .section 'code'
 145  0000              _main proc
 145  0000  0002[           local _main_2 db 2 dup(?)
            00
            ]
 147  0002              #line 147 "c:\users\tech\desktop\codetector\main\Main.c"
 147  0000  3E8A        	sz [10].5
 147  0001  2800     R  	jmp _L14
 149  0002              #line 149 "c:\users\tech\desktop\codetector\main\Main.c"
 149  0002  1F00     R  	clr _alarmCounter[0]
 149  0003  1F00     R  	clr _alarmCounter[1]
 149  0004              _L14:
 152  0004              #line 152 "c:\users\tech\desktop\codetector\main\Main.c"
 152  0004  2000     E  	call _ClockInit
 153  0005              #line 153 "c:\users\tech\desktop\codetector\main\Main.c"
 153  0005  2000     E  	call _GPIOInit
 154  0006              #line 154 "c:\users\tech\desktop\codetector\main\Main.c"
 154  0006  2000     E  	call _GPIOToGNDCurentInit
 155  0007              #line 155 "c:\users\tech\desktop\codetector\main\Main.c"
 155  0007  2000     E  	call _OPAMPInit
 156  0008              #line 156 "c:\users\tech\desktop\codetector\main\Main.c"
 156  0008  2000     E  	call _S_ADC_Init
"File: Main.c        Assembler  Version HGASM0202      Page 11

 157  0009              #line 157 "c:\users\tech\desktop\codetector\main\Main.c"
 157  0009  2000     E  	call _PTimerInit
 162  000A              #line 162 "c:\users\tech\desktop\codetector\main\Main.c"
 162  000A  305D        	set [93].0
 164  000B              #line 164 "c:\users\tech\desktop\codetector\main\Main.c"
 164  000B  300B        	set [11].0
 165  000C              #line 165 "c:\users\tech\desktop\codetector\main\Main.c"
 165  000C  3323        	set [35].6
 166  000D              #line 166 "c:\users\tech\desktop\codetector\main\Main.c"
 166  000D  3325        	set [37].6
 168  000E              #line 168 "c:\users\tech\desktop\codetector\main\Main.c"
 168  000E  2000     E  	call _clearSegment
 169  000F              #line 169 "c:\users\tech\desktop\codetector\main\Main.c"
 169  000F  3216        	set [22].4
 170  0010              #line 170 "c:\users\tech\desktop\codetector\main\Main.c"
 170  0010  3217        	set [23].4
 171  0011              #line 171 "c:\users\tech\desktop\codetector\main\Main.c"
 171  0011  0F38        	mov a,56
 171  0012  0097        	mov [23],a
 173  0013              #line 173 "c:\users\tech\desktop\codetector\main\Main.c"
 173  0013  0F04        	mov a,4
 173  0014  2000     E  	call _S_READ_ADC
 173  0015  0700     E  	mov a,rb
 173  0016  0080     E  	mov _builtin_holtek_mant1[1],a
 173  0017  0700     E  	mov a,ra
 173  0018  0080     E  	mov _builtin_holtek_mant1[0],a
 173  0019  3400     E  	clr _builtin_holtek_signs.0
 173  001A  2000     E  	call _builtin_holtek_uitod
 173  001B  0700     E  	mov a,_builtin_holtek_mant12p[0]
 173  001C  0080     E  	mov rh,a
 173  001D  0700     E  	mov a,_builtin_holtek_mant1[2]
 173  001E  0080     E  	mov rg,a
 173  001F  0700     E  	mov a,_builtin_holtek_mant1[1]
 173  0020  0080     E  	mov rf,a
 173  0021  0700     E  	mov a,_builtin_holtek_mant1[0]
 173  0022  0080     E  	mov re,a
 173  0023  1F00     E  	clr ra
 173  0024  0FF0        	mov a,-16
 173  0025  0080     E  	mov rb,a
 173  0026  0F7F        	mov a,127
 173  0027  0080     E  	mov rc,a
 173  0028  0F45        	mov a,69
 173  0029  0080     E  	mov rd,a
 173  002A  0700     E  	mov a,rd
 173  002B  0080     E  	mov _builtin_holtek_mant12p[0],a
 173  002C  0700     E  	mov a,rc
 173  002D  0080     E  	mov _builtin_holtek_mant1[2],a
 173  002E  0700     E  	mov a,rb
 173  002F  0080     E  	mov _builtin_holtek_mant1[1],a
 173  0030  0700     E  	mov a,ra
 173  0031  0080     E  	mov _builtin_holtek_mant1[0],a
 173  0032  0700     E  	mov a,rh
 173  0033  0080     E  	mov _builtin_holtek_mant12p[1],a
 173  0034  0700     E  	mov a,rg
 173  0035  0080     E  	mov _builtin_holtek_mant2[2],a
 173  0036  0700     E  	mov a,rf
 173  0037  0080     E  	mov _builtin_holtek_mant2[1],a
 173  0038  0700     E  	mov a,re
 173  0039  0080     E  	mov _builtin_holtek_mant2[0],a
 173  003A  2000     E  	call _builtin_holtek_dtdiv
"File: Main.c        Assembler  Version HGASM0202      Page 12

 173  003B  0700     E  	mov a,_builtin_holtek_mant12p[0]
 173  003C  0080     E  	mov rh,a
 173  003D  0700     E  	mov a,_builtin_holtek_mant1[2]
 173  003E  0080     E  	mov rg,a
 173  003F  0700     E  	mov a,_builtin_holtek_mant1[1]
 173  0040  0080     E  	mov rf,a
 173  0041  0700     E  	mov a,_builtin_holtek_mant1[0]
 173  0042  0080     E  	mov re,a
 173  0043  0700     E  	mov a,rh
 173  0044  0080     E  	mov _builtin_holtek_mant12p[0],a
 173  0045  0700     E  	mov a,rg
 173  0046  0080     E  	mov _builtin_holtek_mant1[2],a
 173  0047  0700     E  	mov a,rf
 173  0048  0080     E  	mov _builtin_holtek_mant1[1],a
 173  0049  0700     E  	mov a,re
 173  004A  0080     E  	mov _builtin_holtek_mant1[0],a
 173  004B  0F3F        	mov a,63
 173  004C  0080     E  	mov _builtin_holtek_mant12p[1],a
 173  004D  0F99        	mov a,153
 173  004E  0080     E  	mov _builtin_holtek_mant2[2],a
 173  004F  0F99        	mov a,153
 173  0050  0080     E  	mov _builtin_holtek_mant2[1],a
 173  0051  0F9A        	mov a,154
 173  0052  0080     E  	mov _builtin_holtek_mant2[0],a
 173  0053  2000     E  	call _builtin_holtek_dtmul
 173  0054  0700     E  	mov a,_builtin_holtek_mant12p[0]
 173  0055  0080     E  	mov rg,a
 173  0056  0700     E  	mov a,_builtin_holtek_mant1[2]
 173  0057  0080     E  	mov rf,a
 173  0058  0700     E  	mov a,_builtin_holtek_mant1[1]
 173  0059  0080     E  	mov re,a
 173  005A  0700     E  	mov a,_builtin_holtek_mant1[0]
 173  005B  0080     E  	mov rd,a
 173  005C  0700     E  	mov a,rg
 173  005D  0080     R  	mov _VDD[2],a
 173  005E  0700     E  	mov a,rf
 173  005F  0080     R  	mov _VDD[1],a
 173  0060  0700     E  	mov a,re
 173  0061  0080     R  	mov _VDD[0],a
 174  0062              #line 174 "c:\users\tech\desktop\codetector\main\Main.c"
 174  0062  0F05        	mov a,5
 174  0063  2000     E  	call _S_READ_ADC
 174  0064  0700     E  	mov a,ra
 174  0065  0080     R  	mov _CO_2[3],a
 174  0066  0700     E  	mov a,rb
 174  0067  0080     R  	mov _CO_2[4],a
 174  0068  0700     R  	mov a,_VDD[0]
 174  0069  0080     R  	mov _CO_2[0],a
 174  006A  0700     R  	mov a,_VDD[1]
 174  006B  0080     R  	mov _CO_2[1],a
 174  006C  0700     R  	mov a,_VDD[2]
 174  006D  0080     R  	mov _CO_2[2],a
 174  006E  2000     R  	call _CO
 174  006F  0700     E  	mov a,ra
 174  0070  0080     E  	mov rd,a
 174  0071  0700     E  	mov a,rb
 174  0072  0080     E  	mov re,a
 174  0073  0700     E  	mov a,ra
 174  0074  0080     R  	mov _COValue[0],a
 174  0075  0700     E  	mov a,rb
"File: Main.c        Assembler  Version HGASM0202      Page 13

 174  0076  0080     R  	mov _COValue[1],a
 176  0077              #line 176 "c:\users\tech\desktop\codetector\main\Main.c"
 176  0077  345D        	clr [93].0
 178  0078              #line 178 "c:\users\tech\desktop\codetector\main\Main.c"
 178  0078  0700     R  	mov a,_alarmCounter[0]
 178  0079  0080     E  	mov rb,a
 178  007A  0700     R  	mov a,_alarmCounter[1]
 178  007B  0080     E  	mov rc,a
 178  007C  0F02        	mov a,2
 178  007D  0200     E  	sub a,rb
 178  007E  0F00        	mov a,0
 178  007F  1200     E  	sbc a,rc
 178  0080  3C0A        	sz c
 178  0081  2800     R  	jmp _L15
 178  0082  0F90        	mov a,144
 178  0083  0200     E  	sub a,rd
 178  0084  0F01        	mov a,1
 178  0085  1200     E  	sbc a,re
 178  0086  380A        	snz c
 178  0087  2800     R  	jmp _L44
 178  0088  0F4A        	mov a,74
 178  0089  0200     E  	sub a,rb
 178  008A  0F00        	mov a,0
 178  008B  1200     E  	sbc a,rc
 178  008C  3C0A        	sz c
 178  008D  2800     R  	jmp _L15
 178  008E  0F7D        	mov a,125
 178  008F  0200     E  	sub a,rd
 178  0090  0F00        	mov a,0
 178  0091  1200     E  	sbc a,re
 178  0092  380A        	snz c
 178  0093  2800     R  	jmp _L44
 178  0094  0F76        	mov a,118
 178  0095  0200     E  	sub a,rb
 178  0096  0F01        	mov a,1
 178  0097  1200     E  	sbc a,rc
 178  0098  3C0A        	sz c
 178  0099  2800     R  	jmp _L15
 178  009A  0F4B        	mov a,75
 178  009B  0200     E  	sub a,rd
 178  009C  0F00        	mov a,0
 178  009D  1200     E  	sbc a,re
 178  009E  380A        	snz c
 178  009F  2800     R  	jmp _L44
 178  00A0  0F0F        	mov a,15
 178  00A1  0200     E  	sub a,rb
 178  00A2  0F0E        	mov a,14
 178  00A3  1200     E  	sbc a,rc
 178  00A4  3C0A        	sz c
 178  00A5  2800     R  	jmp _L15
 178  00A6  0F1E        	mov a,30
 178  00A7  0200     E  	sub a,rd
 178  00A8  0F00        	mov a,0
 178  00A9  1200     E  	sbc a,re
 178  00AA  3C0A        	sz c
 178  00AB  2800     R  	jmp _L21
 178  00AC              _L44:
 182  00AC              #line 182 "c:\users\tech\desktop\codetector\main\Main.c"
 182  00AC              ;# 182 "c:\users\tech\desktop\codetector\main\Main.c" 1
 182  00AC  0001        	clr wdt
"File: Main.c        Assembler  Version HGASM0202      Page 14

 183  00AD              #line 183 "c:\users\tech\desktop\codetector\main\Main.c"
 183  00AD  30DD        	set [93].1
 184  00AE              #line 184 "c:\users\tech\desktop\codetector\main\Main.c"
 184  00AE  0F00        	mov a,0
 184  00AF  2000     R  	call _buzzerBIB
 184  00B0  2800     R  	jmp _L44
 184  00B1              _L15:
 188  00B1              #line 188 "c:\users\tech\desktop\codetector\main\Main.c"
 188  00B1  0F1E        	mov a,30
 188  00B2  0200     E  	sub a,rd
 188  00B3  0F00        	mov a,0
 188  00B4  1200     E  	sbc a,re
 188  00B5  3C0A        	sz c
 188  00B6  2800     R  	jmp _L22
 190  00B7              #line 190 "c:\users\tech\desktop\codetector\main\Main.c"
 190  00B7  30DD        	set [93].1
 191  00B8              #line 191 "c:\users\tech\desktop\codetector\main\Main.c"
 191  00B8  0F01        	mov a,1
 191  00B9  2000     R  	call _buzzerBIB
 192  00BA              #line 192 "c:\users\tech\desktop\codetector\main\Main.c"
 192  00BA  1480     R  	inc _alarmCounter[0]
 192  00BB  3D0A        	sz z
 192  00BC  1480     R  	inc _alarmCounter[1]
 193  00BD              #line 193 "c:\users\tech\desktop\codetector\main\Main.c"
 193  00BD  34DD        	clr [93].1
 193  00BE  2800     R  	jmp _L23
 193  00BF              _L22:
 198  00BF              #line 198 "c:\users\tech\desktop\codetector\main\Main.c"
 198  00BF  0700     E  	mov a,rb
 198  00C0  0500     E  	or a,rc
 198  00C1  3D0A        	sz z
 198  00C2  2800     R  	jmp _L24
 198  00C3              _L21:
 198  00C3  0FFF        	mov a,255
 198  00C4  0300     E  	add a,rb
 198  00C5  0080     R  	mov _alarmCounter[0],a
 198  00C6  0FFF        	mov a,255
 198  00C7  1300     E  	adc a,rc
 198  00C8  0080     R  	mov _alarmCounter[1],a
 198  00C9              _L24:
 199  00C9              #line 199 "c:\users\tech\desktop\codetector\main\Main.c"
 199  00C9  0F00        	mov a,0
 199  00CA  2000     E  	call _PWMSeter
 199  00CB              _L23:
 203  00CB              #line 203 "c:\users\tech\desktop\codetector\main\Main.c"
 203  00CB  3595        	clr [21].3
 204  00CC              #line 204 "c:\users\tech\desktop\codetector\main\Main.c"
 204  00CC  3194        	set [20].3
 207  00CD              #line 207 "c:\users\tech\desktop\codetector\main\Main.c"
 207  00CD  0700     R  	mov a,_VDD[2]
 207  00CE  0080     E  	mov _builtin_holtek_mant1[2],a
 207  00CF  0700     R  	mov a,_VDD[1]
 207  00D0  0080     E  	mov _builtin_holtek_mant1[1],a
 207  00D1  0700     R  	mov a,_VDD[0]
 207  00D2  0080     E  	mov _builtin_holtek_mant1[0],a
 207  00D3  0F41        	mov a,65
 207  00D4  0080     E  	mov _builtin_holtek_mant2[2],a
 207  00D5  0FF0        	mov a,240
 207  00D6  0080     E  	mov _builtin_holtek_mant2[1],a
 207  00D7  0F00        	mov a,0
"File: Main.c        Assembler  Version HGASM0202      Page 15

 207  00D8  0080     E  	mov _builtin_holtek_mant2[0],a
 207  00D9  2000     E  	call _builtin_holtek_ftsub
 207  00DA  3C00     E  	sz _builtin_holtek_mant1[2].7
 207  00DB  2800     R  	jmp _L37
 207  00DC  0700     E  	mov a,_builtin_holtek_mant1[2]
 207  00DD  0500     E  	or a,_builtin_holtek_mant1[1]
 207  00DE  0500     E  	or a,_builtin_holtek_mant1[0]
 207  00DF  3D0A        	sz z
 207  00E0  2800     R  	jmp _L37
 207  00E1  2800     R  	jmp _L25
 207  00E2              _L37:
 209  00E2              #line 209 "c:\users\tech\desktop\codetector\main\Main.c"
 209  00E2  3595        	clr [21].3
 210  00E3              #line 210 "c:\users\tech\desktop\codetector\main\Main.c"
 210  00E3  3194        	set [20].3
 211  00E4              #line 211 "c:\users\tech\desktop\codetector\main\Main.c"
 211  00E4  0F01        	mov a,1
 211  00E5  2000     R  	call _buzzerBIB
 212  00E6              #line 212 "c:\users\tech\desktop\codetector\main\Main.c"
 212  00E6  3595        	clr [21].3
 213  00E7              #line 213 "c:\users\tech\desktop\codetector\main\Main.c"
 213  00E7  3594        	clr [20].3
 214  00E8              #line 214 "c:\users\tech\desktop\codetector\main\Main.c"
 214  00E8  0F01        	mov a,1
 214  00E9  2000     R  	call _buzzerBIB
 214  00EA              _L25:
 217  00EA              #line 217 "c:\users\tech\desktop\codetector\main\Main.c"
 217  00EA  3595        	clr [21].3
 218  00EB              #line 218 "c:\users\tech\desktop\codetector\main\Main.c"
 218  00EB  3194        	set [20].3
 219  00EC              #line 219 "c:\users\tech\desktop\codetector\main\Main.c"
 219  00EC  3595        	clr [21].3
 220  00ED              #line 220 "c:\users\tech\desktop\codetector\main\Main.c"
 220  00ED  3594        	clr [20].3
 220  00EE              _L36:
 220  00EE              #pragma debug scope 5 4
 220  00EE              ;begin block, line: 220.-1
 220  00EE              #pragma debug variable 12 5 _main_2+0 "buttonStatus"
 229  00EE              #line 229 "c:\users\tech\desktop\codetector\main\Main.c"
 229  00EE  2000     E  	call _key
 229  00EF  0700     E  	mov a,ra
 229  00F0  0080     R  	mov _main_2[0],a
 229  00F1  0700     E  	mov a,rb
 229  00F2  0080     R  	mov _main_2[1],a
 231  00F3              #line 231 "c:\users\tech\desktop\codetector\main\Main.c"
 231  00F3  0700     E  	mov a,ra
 231  00F4  0C04        	xor a,4
 231  00F5  0500     E  	or a,rb
 231  00F6  390A        	snz z
 231  00F7  2800     R  	jmp _L27
 233  00F8              #line 233 "c:\users\tech\desktop\codetector\main\Main.c"
 233  00F8              ;# 233 "c:\users\tech\desktop\codetector\main\Main.c" 1
 233  00F8  0002        	halt
 233  00F9  2800     R  	jmp _L28
 233  00FA              _L27:
 237  00FA              #line 237 "c:\users\tech\desktop\codetector\main\Main.c"
 237  00FA  3216        	set [22].4
 238  00FB              #line 238 "c:\users\tech\desktop\codetector\main\Main.c"
 238  00FB  3217        	set [23].4
 239  00FC              #line 239 "c:\users\tech\desktop\codetector\main\Main.c"
"File: Main.c        Assembler  Version HGASM0202      Page 16

 239  00FC  0F38        	mov a,56
 239  00FD  0097        	mov [23],a
 240  00FE              #line 240 "c:\users\tech\desktop\codetector\main\Main.c"
 240  00FE  2000     E  	call _clearSegment
 242  00FF              #line 242 "c:\users\tech\desktop\codetector\main\Main.c"
 242  00FF  0700     R  	mov a,_main_2[0]
 242  0100  0500     R  	or a,_main_2[1]
 242  0101  3D0A        	sz z
 242  0102  2800     R  	jmp _L29
 246  0103              #line 246 "c:\users\tech\desktop\codetector\main\Main.c"
 246  0103  0700     R  	mov a,_main_2[0]
 246  0104  0C01        	xor a,1
 246  0105  0500     R  	or a,_main_2[1]
 246  0106  390A        	snz z
 246  0107  2800     R  	jmp _L30
 248  0108              #line 248 "c:\users\tech\desktop\codetector\main\Main.c"
 248  0108              ;# 248 "c:\users\tech\desktop\codetector\main\Main.c" 1
 248  0108  0001        	clr wdt
 249  0109              #line 249 "c:\users\tech\desktop\codetector\main\Main.c"
 249  0109  0700     R  	mov a,_COValue[0]
 249  010A  0080     E  	mov _shwoSegment_2[0],a
 249  010B  0700     R  	mov a,_COValue[1]
 249  010C  0080     E  	mov _shwoSegment_2[1],a
 249  010D  2800     R  	jmp _L49
 249  010E              _L30:
 251  010E              #line 251 "c:\users\tech\desktop\codetector\main\Main.c"
 251  010E  0700     R  	mov a,_main_2[0]
 251  010F  0C02        	xor a,2
 251  0110  0500     R  	or a,_main_2[1]
 251  0111  390A        	snz z
 251  0112  2800     R  	jmp _L31
 253  0113              #line 253 "c:\users\tech\desktop\codetector\main\Main.c"
 253  0113              ;# 253 "c:\users\tech\desktop\codetector\main\Main.c" 1
 253  0113  0001        	clr wdt
 254  0114              #line 254 "c:\users\tech\desktop\codetector\main\Main.c"
 254  0114  0700     R  	mov a,_VDD[0]
 254  0115  0080     E  	mov rc,a
 254  0116  0700     R  	mov a,_VDD[1]
 254  0117  0080     E  	mov rd,a
 254  0118  0700     R  	mov a,_VDD[2]
 254  0119  0080     E  	mov re,a
 254  011A  0700     E  	mov a,re
 254  011B  0080     E  	mov _builtin_holtek_mant1[2],a
 254  011C  0700     E  	mov a,rd
 254  011D  0080     E  	mov _builtin_holtek_mant1[1],a
 254  011E  0700     E  	mov a,rc
 254  011F  0080     E  	mov _builtin_holtek_mant1[0],a
 254  0120  0F42        	mov a,66
 254  0121  0080     E  	mov _builtin_holtek_mant2[2],a
 254  0122  0F20        	mov a,32
 254  0123  0080     E  	mov _builtin_holtek_mant2[1],a
 254  0124  0F00        	mov a,0
 254  0125  0080     E  	mov _builtin_holtek_mant2[0],a
 254  0126  2000     E  	call _builtin_holtek_ftsub
 254  0127  3800     E  	snz _builtin_holtek_mant1[2].7
 254  0128  2800     R  	jmp _L38
 254  0129  2800     R  	jmp _L50
 254  012A              _L38:
 254  012A  0F64        	mov a,100
 254  012B  0080     E  	mov _shwoSegment_2[0],a
"File: Main.c        Assembler  Version HGASM0202      Page 17

 254  012C  1F00     E  	clr _shwoSegment_2[1]
 254  012D  2800     R  	jmp _L49
 254  012E              _L50:
 255  012E              #line 255 "c:\users\tech\desktop\codetector\main\Main.c"
 255  012E  0700     E  	mov a,re
 255  012F  0080     E  	mov _builtin_holtek_mant1[2],a
 255  0130  0700     E  	mov a,rd
 255  0131  0080     E  	mov _builtin_holtek_mant1[1],a
 255  0132  0700     E  	mov a,rc
 255  0133  0080     E  	mov _builtin_holtek_mant1[0],a
 255  0134  0F41        	mov a,65
 255  0135  0080     E  	mov _builtin_holtek_mant2[2],a
 255  0136  0FF0        	mov a,240
 255  0137  0080     E  	mov _builtin_holtek_mant2[1],a
 255  0138  0F00        	mov a,0
 255  0139  0080     E  	mov _builtin_holtek_mant2[0],a
 255  013A  2000     E  	call _builtin_holtek_ftsub
 255  013B  3C00     E  	sz _builtin_holtek_mant1[2].7
 255  013C  2800     R  	jmp _L39
 256  013D              #line 256 "c:\users\tech\desktop\codetector\main\Main.c"
 256  013D  0F4B        	mov a,75
 256  013E  0080     E  	mov _shwoSegment_2[0],a
 256  013F  1F00     E  	clr _shwoSegment_2[1]
 256  0140  2800     R  	jmp _L49
 256  0141              _L39:
 255  0141              #line 255 "c:\users\tech\desktop\codetector\main\Main.c"
 255  0141  0F0F        	mov a,15
 255  0142  0080     E  	mov _shwoSegment_2[0],a
 255  0143  1F00     E  	clr _shwoSegment_2[1]
 255  0144              _L49:
 255  0144  2000     E  	call _shwoSegment
 255  0145  2800     R  	jmp _L29
 255  0146              _L31:
 259  0146              #line 259 "c:\users\tech\desktop\codetector\main\Main.c"
 259  0146  0700     R  	mov a,_main_2[0]
 259  0147  0C03        	xor a,3
 259  0148  0500     R  	or a,_main_2[1]
 259  0149  390A        	snz z
 259  014A  2800     R  	jmp _L29
 262  014B              #line 262 "c:\users\tech\desktop\codetector\main\Main.c"
 262  014B              ;# 262 "c:\users\tech\desktop\codetector\main\Main.c" 1
 262  014B  0001        	clr wdt
 263  014C              #line 263 "c:\users\tech\desktop\codetector\main\Main.c"
 263  014C  0F04        	mov a,4
 263  014D  2000     R  	call _buzzerBIB
 263  014E              _L29:
 267  014E              #line 267 "c:\users\tech\desktop\codetector\main\Main.c"
 267  014E  2000     E  	call _clearSegment
 268  014F              #line 268 "c:\users\tech\desktop\codetector\main\Main.c"
 268  014F  3216        	set [22].4
 269  0150              #line 269 "c:\users\tech\desktop\codetector\main\Main.c"
 269  0150  3217        	set [23].4
 269  0151              _L28:
 272  0151              #line 272 "c:\users\tech\desktop\codetector\main\Main.c"
 272  0151  2000     E  	call _clearSegment
 273  0152              #line 273 "c:\users\tech\desktop\codetector\main\Main.c"
 273  0152  3216        	set [22].4
 274  0153              #line 274 "c:\users\tech\desktop\codetector\main\Main.c"
 274  0153  3217        	set [23].4
 275  0154              #line 275 "c:\users\tech\desktop\codetector\main\Main.c"
"File: Main.c        Assembler  Version HGASM0202      Page 18

 275  0154  0F38        	mov a,56
 275  0155  0097        	mov [23],a
 275  0156              #pragma debug scope 4 1
 277  0156              #line 277 "c:\users\tech\desktop\codetector\main\Main.c"
 277  0156  2800     R  	jmp _L36
 277  0157  2800     R  	jmp $
 277  0158              _main endp
 277  0158              
 277  0158              @dummy endp
 277  0158              
 277  0158              #line 277 "c:\users\tech\desktop\codetector\main\Main.c"
 277  0158              #pragma debug scope 1 1
 277  0158              public _COValue
 277  0000              @HCCINIT	.section 'data'
  60  0000              #line 60 "c:\users\tech\desktop\codetector\main\Main.c"
  60  0000              @HCCINIT_COValue .section 'data'
  60  0000              _COValue label byte
  60  0000              #pragma debug variable 12 1 _COValue "COValue"
  60  0000              	db 0
  60  0000              @ROMDATA_BASE .section inpage 'code'
  60  0000              	db 0
  60  0001              @HCCINIT_COValue .section 'data'
  60  0001              	db 0
  60  0001              @ROMDATA_BASE .section inpage 'code'
  60  0001              	db 0
  60  0002              @HCCINIT_COValue .section 'data'
  60  0002              public _VDD
  59  0002              #line 59 "c:\users\tech\desktop\codetector\main\Main.c"
  59  0000              @HCCINIT_VDD .section 'data'
  59  0000              _VDD label byte
  59  0000              #pragma debug variable 28 1 _VDD "VDD"
  59  0000              	db 0
  59  0001              @ROMDATA_BASE .section inpage 'code'
  59  0001              	db 0
  59  0001              @HCCINIT_VDD .section 'data'
  59  0001              	db 0
  59  0002              @ROMDATA_BASE .section inpage 'code'
  59  0002              	db 0
  59  0002              @HCCINIT_VDD .section 'data'
  59  0002              	db 0
  59  0002              @ROMDATA_BASE .section inpage 'code'
  59  0002              	db 0
  59  0003              @HCCINIT_VDD .section 'data'
  33  0003              #line 33 "c:\users\tech\desktop\codetector\main\Main.c"
  33  0003              public _alarmCounter
  33  0000              @HCCINIT0_alarmCounter .section 'data'
  33  0000  0002[       _alarmCounter	db 2 dup(0)
            00
            ]
  33  0002              #pragma debug variable 12 1 _alarmCounter "alarmCounter"
  33  0002              
  33  0000              @HCCINIT .section 'data'
  33  0000              #pragma debug struct_end
  33  0000              #pragma debug struct_end
  33  0000              #pragma debug union_end
  33  0000              #pragma debug union_end
  33  0000              #pragma debug variable 43 1 ___status "__status" 1
  33  0000              #pragma debug struct_end
  33  0000              #pragma debug struct_end
  33  0000              #pragma debug union_end
"File: Main.c        Assembler  Version HGASM0202      Page 19

  33  0000              #pragma debug union_end
  33  0000              #pragma debug variable 45 1 ___vbgrc "__vbgrc" 1
  33  0000              #pragma debug struct_end
  33  0000              #pragma debug struct_end
  33  0000              #pragma debug union_end
  33  0000              #pragma debug union_end
  33  0000              #pragma debug variable 47 1 ___pa "__pa" 1
  33  0000              #pragma debug struct_end
  33  0000              #pragma debug struct_end
  33  0000              #pragma debug union_end
  33  0000              #pragma debug union_end
  33  0000              #pragma debug variable 49 1 ___pac "__pac" 1
  33  0000              #pragma debug struct_end
  33  0000              #pragma debug struct_end
  33  0000              #pragma debug union_end
  33  0000              #pragma debug union_end
  33  0000              #pragma debug variable 51 1 ___papu "__papu" 1
  33  0000              #pragma debug struct_end
  33  0000              #pragma debug struct_end
  33  0000              #pragma debug union_end
  33  0000              #pragma debug union_end
  33  0000              #pragma debug variable 53 1 ___pawu "__pawu" 1
  33  0000              #pragma debug struct_end
  33  0000              #pragma debug struct_end
  33  0000              #pragma debug union_end
  33  0000              #pragma debug union_end
  33  0000              #pragma debug variable 55 1 ___sda0c "__sda0c" 1
  33  0000              #pragma debug struct_end
  33  0000              #pragma debug struct_end
  33  0000              #pragma debug union_end
  33  0000              #pragma debug union_end
  33  0000              #pragma debug variable 57 1 ___sda1c "__sda1c" 1
  33  0000              #pragma debug struct_end
  33  0000              #pragma debug struct_end
  33  0000              #pragma debug union_end
  33  0000              #pragma debug union_end
  33  0000              #pragma debug variable 59 1 ___isgenc "__isgenc" 1
 145  0000              #line 145 "c:\users\tech\desktop\codetector\main\Main.c"
 145  0000              @code .section at 0 'code'
 145  0000  2800     R  	jmp _main_startup1
 145  0001              
 145  0001              extern _S_READ_ADC:near
 145  0001              extern _temperature_2:byte
 145  0001              extern _temperature:near
 145  0001              extern _builtin_holtek_mant1:byte
 145  0001              extern _builtin_holtek_mant2:byte
 145  0001              extern _builtin_holtek_mant12p:byte
 145  0001              extern _builtin_holtek_dtmul:near
 145  0001              extern _builtin_holtek_dtadd:near
 145  0001              extern _builtin_holtek_signs:byte
 145  0001              extern _builtin_holtek_uitof:near
 145  0001              extern _builtin_holtek_ftdiv:near
 145  0001              extern _builtin_holtek_ftmul:near
 145  0001              extern _builtin_holtek_dtdiv:near
 145  0001              extern _builtin_holtek_dtol:near
 145  0001              extern _PWMSeter:near
 145  0001              extern _ClockInit:near
 145  0001              extern _GPIOInit:near
 145  0001              extern _GPIOToGNDCurentInit:near
 145  0001              extern _OPAMPInit:near
"File: Main.c        Assembler  Version HGASM0202      Page 20

 145  0001              extern _S_ADC_Init:near
 145  0001              extern _PTimerInit:near
 145  0001              extern _clearSegment:near
 145  0001              extern _builtin_holtek_uitod:near
 145  0001              extern _builtin_holtek_ftsub:near
 145  0001              extern _key:near
 145  0001              extern _shwoSegment_2:byte
 145  0001              extern _shwoSegment:near
 145  0001              
 145  0001              ; 
 145  0001              ; Generated by holtek-gcc v3.19, Sun Oct 08 11:53:22 2023
 145  0001              ; Rebuild 718
 145  0001              ; end of file


        0 Errors, 0