"File: Main.c        Assembler  Version HGASM0202      Page 1


   1  0000              ; Generated by holtek-gcc v3.19, Mon Oct 09 18:01:44 2023
   2  0000              ; 
   3  0000              ; Configuration:
   4  0000              ;       with long instruction
   5  0000              ;       Single ROM, Multi-RAM
   6  0000              ;       bits_per_rom_unit:16
   7  0000              ;       with mp1
   8  0000              ;       with tbhp, address(0x9)
   9  0000              ;          Use tabrd-const
  10  0000              ;       
  11  0000              ; SFR address of long-instruction arch:
  12  0000              ;    mp0 = -1,1,0
  13  0000              ;    mp1 = 4,3,2
  14  0000              ;    mp2 = 14,13,12
  15  0000              ;    tbp = 9,7,8
  16  0000              ;    acc = 5
  17  0000              ;    pcl = 6
  18  0000              ;    status = 10
  19  0000              ;    bp = 11
  20  0000              ;    intc = 72
  21  0000              ;       
  22  0000              ;       
  23  0000              ; use 'tabrdc' instead of 'tabrd'
  24  0000              ;       
  25  0000              
  26  0000              #pragma translator "holtek-gcc 4.6.4" "3.19" "build 20130711"
  27  0000              ; Rebuild 718
  28  0000              
  29  0000              ir equ [2]
  30  0000              mp equ [3]
  31  0000              sbp equ [4]
  32  0000              acc equ [5]
  33  0000              bp equ [11]
  34  0000              tblp equ [7]
  35  0000              tbhp equ [9]
  36  0000              status equ [10]
  37  0000              c equ [10].0
  38  0000              ac equ [10].1
  39  0000              z equ [10].2
  40  0000              ov equ [10].3
  41  0000              cz equ [10].6
  42  0000              sc equ [10].7
  43  0000              intc equ [72]
  44  0000              
  45  0000              extern ra:byte
  46  0000              extern rb:byte
  47  0000              extern rc:byte
  48  0000              extern rd:byte
  49  0000              extern re:byte
  50  0000              extern rf:byte
  51  0000              extern rg:byte
  52  0000              extern rh:byte
  53  0000              extern _Crom2Prom:near
  54  0000              extern _Crom2PromNext:near
  55  0000              
  56  0000              RAMBANK 0 @BITDATASEC, @BITDATASEC1
  57  0000              @HCCINIT	.section 'data'
  58  0000              @HCCINIT0	.section 'data'
  59  0000              @BITDATASEC	 .section 'data'
"File: Main.ASM      Assembler  Version HGASM0202      Page 2

  60  0000              @BITDATASEC1	 .section 'data'
  61  0000              
  62  0000              #pragma debug scope 1 1
  63  0000              	extern __DELAY3:near
  64  0000              	extern __DELAYX3:near
  65  0000              	extern __DELAYX6:near
  66  0000              	extern __DELAYY5:near
  67  0000              	extern __DELAYY3:near
  68  0000              	extern _builtin_holtek_delay_2:byte
  69  0000              public _buzzerAlarm
  70  0000              #pragma debug scope 2 1

 190  0000              #line 190 "c:\users\tech\desktop\codetector\main\Main.c"
 190  0000              _buzzerAlarm .section 'code'
 190  0000              _buzzerAlarm proc
 190  0000  0004[           local _buzzerAlarm_2 db 4 dup(?)	; 0,4
            00
            ]
 190  0000  0080     E  	mov ra,a
 190  0001  0080     R  	mov _buzzerAlarm_2[0],a
 190  0002              #pragma debug variable 7 2 _buzzerAlarm_2+0 "number"
 190  0002              #pragma debug variable 8 2 _buzzerAlarm_2+1 "i"
 196  0002              #line 196 "c:\users\tech\desktop\codetector\main\Main.c"
 196  0002  1E00     E  	snz ra
 196  0003  2800     R  	jmp _L11
 196  0004              #line 196 "c:\users\tech\desktop\codetector\main\Main.c"
 196  0004  0700     R  	mov a,_buzzerAlarm_2[0]
 196  0005  0080     R  	mov _buzzerAlarm_2[2],a
 196  0006  2800     R  	jmp _L2
 196  0007              _L11:
 196  0007  0F01        	mov a,1
 196  0008  0080     R  	mov _buzzerAlarm_2[2],a
 196  0009              _L2:
 198  0009              #line 198 "c:\users\tech\desktop\codetector\main\Main.c"
 198  0009  1F00     R  	clr _buzzerAlarm_2[1]
 198  000A              _L3:
 198  000A  0700     R  	mov a,_buzzerAlarm_2[1]
 198  000B  0080     E  	mov rd,a
 198  000C  1F00     E  	clr re
 198  000D  0700     R  	mov a,_buzzerAlarm_2[2]
 198  000E  0080     E  	mov rb,a
 198  000F  1F00     E  	clr rc
 198  0010  3F85        	sz acc.7
 198  0011  1F80     E  	set rc
 198  0012  0700     E  	mov a,rd
 198  0013  0200     E  	sub a,rb
 198  0014  0700     E  	mov a,re
 198  0015  1200     E  	sbc a,rc
 198  0016  3B8A        	snz sc
 198  0017  2800     R  	jmp _L7
 198  0018  1F00     E  	clr ra
 198  0019              _L8:
 202  0019              #line 202 "c:\users\tech\desktop\codetector\main\Main.c"
 202  0019  1400     E  	inca ra
 202  001A  0080     R  	mov _buzzerAlarm_2[3],a
 203  001B              #line 203 "c:\users\tech\desktop\codetector\main\Main.c"
 203  001B              ;# 203 "c:\users\tech\desktop\codetector\main\Main.c" 1
 203  001B              	IF 30000>263690
 203  001B              ;# 203 "c:\users\tech\desktop\codetector\main\Main.c" 1
 203  001B              	ERRMESSAGE 'the value 30000of the argument exceeds the maxinum 263690'
"File: Main.c        Assembler  Version HGASM0202      Page 3

 203  001B              	ENDIF
 203  001B              ;# 203 "c:\users\tech\desktop\codetector\main\Main.c" 1
 203  001B              	IF 30000<0
 203  001B              ;# 203 "c:\users\tech\desktop\codetector\main\Main.c" 1
 203  001B              	ERRMESSAGE 'the value 30000 of the argument exceeds the mininum 0'
 203  001B              	ENDIF
 203  001B              ;# 203 "c:\users\tech\desktop\codetector\main\Main.c" 1
 203  001B              	IF 30000==0
 203  001B              ;# 203 "c:\users\tech\desktop\codetector\main\Main.c" 1
 203  001B              	JMP $
 203  001B              	ENDIF
 203  001B              ;# 203 "c:\users\tech\desktop\codetector\main\Main.c" 1
 203  001B              	IF 30000==1
 203  001B              ;# 203 "c:\users\tech\desktop\codetector\main\Main.c" 1
 203  001B              	NOP
 203  001B              	ENDIF
 203  001B              ;# 203 "c:\users\tech\desktop\codetector\main\Main.c" 1
 203  001B              	IF 30000==2
 203  001B              ;# 203 "c:\users\tech\desktop\codetector\main\Main.c" 1
 203  001B              	NOP
 203  001B              ;# 203 "c:\users\tech\desktop\codetector\main\Main.c" 1
 203  001B              	NOP
 203  001B              	ENDIF
 203  001B              ;# 203 "c:\users\tech\desktop\codetector\main\Main.c" 1
 203  001B              	IF 30000==3
 203  001B              ;# 203 "c:\users\tech\desktop\codetector\main\Main.c" 1
 203  001B              	NOP
 203  001B              ;# 203 "c:\users\tech\desktop\codetector\main\Main.c" 1
 203  001B              	NOP
 203  001B              ;# 203 "c:\users\tech\desktop\codetector\main\Main.c" 1
 203  001B              	NOP
 203  001B              	ENDIF
 203  001B              ;# 203 "c:\users\tech\desktop\codetector\main\Main.c" 1
 203  001B              	IF (30000<8) AND (30000>3)
 203  001B              ;# 203 "c:\users\tech\desktop\codetector\main\Main.c" 1
 203  001B              	CALL __DELAY3 + 7 -30000
 203  001B              	ENDIF
 203  001B              ;# 203 "c:\users\tech\desktop\codetector\main\Main.c" 1
 203  001B              	IF (30000< 0404h) AND (30000>7)
 203  001B              ;# 203 "c:\users\tech\desktop\codetector\main\Main.c" 1
 203  001B              	MOV A,30000/4-1
 203  001B              ;# 203 "c:\users\tech\desktop\codetector\main\Main.c" 1
 203  001B              	CALL __DELAYX3 + 3 -(30000 MOD 4)
 203  001B              	ENDIF
 203  001B              ;# 203 "c:\users\tech\desktop\codetector\main\Main.c" 1
 203  001B              	IF (30000< 0x40B) AND (30000> 0403h)
 203  001B              ;# 203 "c:\users\tech\desktop\codetector\main\Main.c" 1
 203  001B              	MOV A,0 
 203  001B              ;# 203 "c:\users\tech\desktop\codetector\main\Main.c" 1
 203  001B              	CALL __DELAYX6 + 0x40a -30000
 203  001B              	ENDIF
 203  001B              ;# 203 "c:\users\tech\desktop\codetector\main\Main.c" 1
 203  001B              	IF (30000 >= 0x40b) AND ((((30000-9)%0402h)/4+1)>256)
 203  001B              ;# 203 "c:\users\tech\desktop\codetector\main\Main.c" 1
 203  001B              	MOV A,(30000-9)/0402h
 203  001B              ;# 203 "c:\users\tech\desktop\codetector\main\Main.c" 1
 203  001B              	MOV _builtin_holtek_delay_2,A
 203  001B              ;# 203 "c:\users\tech\desktop\codetector\main\Main.c" 1
 203  001B              	MOV A,0
 203  001B              ;# 203 "c:\users\tech\desktop\codetector\main\Main.c" 1
"File: Main.c        Assembler  Version HGASM0202      Page 4

 203  001B              	CALL __DELAYY5 +5- (((30000-9)%0402h)%6)
 203  001B              	ENDIF
 203  001B              ;# 203 "c:\users\tech\desktop\codetector\main\Main.c" 1
 203  001B              	IF (30000 >= 0x40b) AND ((((30000-9)%0402h)/4+1)<=256)
 203  001B              ;# 203 "c:\users\tech\desktop\codetector\main\Main.c" 1
 203  001B  0F1D        	MOV A,(30000-9)/0402h
 203  001C              ;# 203 "c:\users\tech\desktop\codetector\main\Main.c" 1
 203  001C  0080     E  	MOV _builtin_holtek_delay_2,A
 203  001D              ;# 203 "c:\users\tech\desktop\codetector\main\Main.c" 1
 203  001D  0F3C        	MOV A,((30000-9)%0402h)/4+1
 203  001E              ;# 203 "c:\users\tech\desktop\codetector\main\Main.c" 1
 203  001E  2000     E  	CALL __DELAYY3 +3-(((30000-9)%0402h)%4)
 203  001F              	ENDIF
 203  001F  1500     E  	deca ra
 203  0020  0080     E  	mov rb,a
 204  0021              #line 204 "c:\users\tech\desktop\codetector\main\Main.c"
 204  0021  0F05        	mov a,5
 204  0022  0200     E  	sub a,rb
 204  0023  380A        	snz c
 204  0024  2800     R  	jmp _L4
 204  0025  0F01        	mov a,1
 204  0026  2800     R  	jmp _L12
 204  0027              _L4:
 204  0027  0FF9        	mov a,249
 204  0028  0380     E  	addm a,ra
 205  0029              #line 205 "c:\users\tech\desktop\codetector\main\Main.c"
 205  0029  0F04        	mov a,4
 205  002A  0200     E  	sub a,ra
 205  002B  380A        	snz c
 205  002C  2800     R  	jmp _L6
 205  002D  0F00        	mov a,0
 205  002E              _L12:
 205  002E  2000     E  	call _PWMSeter
 205  002F              _L5:
 202  002F              #line 202 "c:\users\tech\desktop\codetector\main\Main.c"
 202  002F  0700     R  	mov a,_buzzerAlarm_2[3]
 202  0030  0080     E  	mov ra,a
 202  0031  2800     R  	jmp _L8
 202  0032              _L6:
 206  0032              #line 206 "c:\users\tech\desktop\codetector\main\Main.c"
 206  0032  0F12        	mov a,18
 206  0033  0200     R  	sub a,_buzzerAlarm_2[3]
 206  0034  3C0A        	sz c
 206  0035  2800     R  	jmp _L5
 198  0036              #line 198 "c:\users\tech\desktop\codetector\main\Main.c"
 198  0036  1480     R  	inc _buzzerAlarm_2[1]
 198  0037  2800     R  	jmp _L3
 198  0038              _L7:
 211  0038              #line 211 "c:\users\tech\desktop\codetector\main\Main.c"
 211  0038  3800     R  	snz _buzzerAlarm_2[0].7
 211  0039  1E00     R  	snz _buzzerAlarm_2[0]
 211  003A  2800     R  	jmp _L1
 211  003B              _L10:
 211  003B  2800     R  	jmp _L10
 211  003C              _L1:
 211  003C  0003        	ret
 211  003D              _buzzerAlarm endp
 211  003D              #line 211 "c:\users\tech\desktop\codetector\main\Main.c"
 211  003D              #pragma debug scope 1 1
 211  003D              ___status equ [10]
"File: Main.c        Assembler  Version HGASM0202      Page 5

 211  003D              ___isgenc equ [93]
 211  003D              ___vbgrc equ [11]
 211  003D              ___sda0c equ [35]
 211  003D              ___sda1c equ [37]
 211  003D              ___pawu equ [23]
 211  003D              ___papu equ [22]
 211  003D              ___pac equ [21]
 211  003D              ___pa equ [20]
 211  003D              public _main
 211  003D              #pragma debug scope 3 1
  57  003D              #line 57 "c:\users\tech\desktop\codetector\main\Main.c"
  57  003D              IFDEF WITH_DEFAULT_STARTUP
  57  003D              extern _main_initial0:near
  57  003D              extern _main_startup:near
  57  003D              ENDIF
  57  003D              
  57  003D              ROMBANK 0 @start
  57  0000              @start .section com_l 'code'
  57  0000              _main_startup1:
  57  0000              @start .section com_e 'code'
  57  0000  2800     R  	jmp _main
  57  0001              
  57  0000              _main .section 'code'
  57  0000              _main proc
  57  0000  0004[           local _main_2 db 4 dup(?)
            00
            ]
  59  0004              #line 59 "c:\users\tech\desktop\codetector\main\Main.c"
  59  0000  3E8A        	sz [10].5
  59  0001  2800     R  	jmp _L15
  61  0002              #line 61 "c:\users\tech\desktop\codetector\main\Main.c"
  61  0002  1F00     R  	clr _alarmCounter[0]
  61  0003  1F00     R  	clr _alarmCounter[1]
  61  0004              _L15:
  64  0004              #line 64 "c:\users\tech\desktop\codetector\main\Main.c"
  64  0004  2000     E  	call _ClockInit
  65  0005              #line 65 "c:\users\tech\desktop\codetector\main\Main.c"
  65  0005  2000     E  	call _GPIOInit
  66  0006              #line 66 "c:\users\tech\desktop\codetector\main\Main.c"
  66  0006  2000     E  	call _GPIOToGNDCurentInit
  67  0007              #line 67 "c:\users\tech\desktop\codetector\main\Main.c"
  67  0007  2000     E  	call _OPAMPInit
  68  0008              #line 68 "c:\users\tech\desktop\codetector\main\Main.c"
  68  0008  2000     E  	call _S_ADC_Init
  69  0009              #line 69 "c:\users\tech\desktop\codetector\main\Main.c"
  69  0009  2000     E  	call _PTimerInit
  74  000A              #line 74 "c:\users\tech\desktop\codetector\main\Main.c"
  74  000A  305D        	set [93].0
  76  000B              #line 76 "c:\users\tech\desktop\codetector\main\Main.c"
  76  000B  300B        	set [11].0
  77  000C              #line 77 "c:\users\tech\desktop\codetector\main\Main.c"
  77  000C  3323        	set [35].6
  78  000D              #line 78 "c:\users\tech\desktop\codetector\main\Main.c"
  78  000D  3325        	set [37].6
  80  000E              #line 80 "c:\users\tech\desktop\codetector\main\Main.c"
  80  000E  2000     E  	call _clearSegment
  81  000F              #line 81 "c:\users\tech\desktop\codetector\main\Main.c"
  81  000F  3217        	set [23].4
  81  0010  3216        	set [22].4
  85  0011              #line 85 "c:\users\tech\desktop\codetector\main\Main.c"
"File: Main.c        Assembler  Version HGASM0202      Page 6

  85  0011  300B        	set [11].0
  86  0012              #line 86 "c:\users\tech\desktop\codetector\main\Main.c"
  86  0012  3323        	set [35].6
  87  0013              #line 87 "c:\users\tech\desktop\codetector\main\Main.c"
  87  0013  3325        	set [37].6
  89  0014              #line 89 "c:\users\tech\desktop\codetector\main\Main.c"
  89  0014  0F04        	mov a,4
  89  0015  2000     E  	call _S_READ_ADC
  89  0016  0700     E  	mov a,rb
  89  0017  0080     E  	mov _builtin_holtek_mant1[1],a
  89  0018  0700     E  	mov a,ra
  89  0019  0080     E  	mov _builtin_holtek_mant1[0],a
  89  001A  3400     E  	clr _builtin_holtek_signs.0
  89  001B  2000     E  	call _builtin_holtek_uitod
  89  001C  0700     E  	mov a,_builtin_holtek_mant12p[0]
  89  001D  0080     E  	mov rh,a
  89  001E  0700     E  	mov a,_builtin_holtek_mant1[2]
  89  001F  0080     E  	mov rg,a
  89  0020  0700     E  	mov a,_builtin_holtek_mant1[1]
  89  0021  0080     E  	mov rf,a
  89  0022  0700     E  	mov a,_builtin_holtek_mant1[0]
  89  0023  0080     E  	mov re,a
  89  0024  1F00     E  	clr ra
  89  0025  0FF0        	mov a,-16
  89  0026  0080     E  	mov rb,a
  89  0027  0F7F        	mov a,127
  89  0028  0080     E  	mov rc,a
  89  0029  0F45        	mov a,69
  89  002A  0080     E  	mov rd,a
  89  002B  0700     E  	mov a,rd
  89  002C  0080     E  	mov _builtin_holtek_mant12p[0],a
  89  002D  0700     E  	mov a,rc
  89  002E  0080     E  	mov _builtin_holtek_mant1[2],a
  89  002F  0700     E  	mov a,rb
  89  0030  0080     E  	mov _builtin_holtek_mant1[1],a
  89  0031  0700     E  	mov a,ra
  89  0032  0080     E  	mov _builtin_holtek_mant1[0],a
  89  0033  0700     E  	mov a,rh
  89  0034  0080     E  	mov _builtin_holtek_mant12p[1],a
  89  0035  0700     E  	mov a,rg
  89  0036  0080     E  	mov _builtin_holtek_mant2[2],a
  89  0037  0700     E  	mov a,rf
  89  0038  0080     E  	mov _builtin_holtek_mant2[1],a
  89  0039  0700     E  	mov a,re
  89  003A  0080     E  	mov _builtin_holtek_mant2[0],a
  89  003B  2000     E  	call _builtin_holtek_dtdiv
  89  003C  0700     E  	mov a,_builtin_holtek_mant12p[0]
  89  003D  0080     E  	mov rh,a
  89  003E  0700     E  	mov a,_builtin_holtek_mant1[2]
  89  003F  0080     E  	mov rg,a
  89  0040  0700     E  	mov a,_builtin_holtek_mant1[1]
  89  0041  0080     E  	mov rf,a
  89  0042  0700     E  	mov a,_builtin_holtek_mant1[0]
  89  0043  0080     E  	mov re,a
  89  0044  0700     E  	mov a,rh
  89  0045  0080     E  	mov _builtin_holtek_mant12p[0],a
  89  0046  0700     E  	mov a,rg
  89  0047  0080     E  	mov _builtin_holtek_mant1[2],a
  89  0048  0700     E  	mov a,rf
  89  0049  0080     E  	mov _builtin_holtek_mant1[1],a
"File: Main.c        Assembler  Version HGASM0202      Page 7

  89  004A  0700     E  	mov a,re
  89  004B  0080     E  	mov _builtin_holtek_mant1[0],a
  89  004C  0F3F        	mov a,63
  89  004D  0080     E  	mov _builtin_holtek_mant12p[1],a
  89  004E  0F99        	mov a,153
  89  004F  0080     E  	mov _builtin_holtek_mant2[2],a
  89  0050  0F99        	mov a,153
  89  0051  0080     E  	mov _builtin_holtek_mant2[1],a
  89  0052  0F9A        	mov a,154
  89  0053  0080     E  	mov _builtin_holtek_mant2[0],a
  89  0054  2000     E  	call _builtin_holtek_dtmul
  89  0055  0700     E  	mov a,_builtin_holtek_mant12p[0]
  89  0056  0080     E  	mov rg,a
  89  0057  0700     E  	mov a,_builtin_holtek_mant1[2]
  89  0058  0080     E  	mov rf,a
  89  0059  0700     E  	mov a,_builtin_holtek_mant1[1]
  89  005A  0080     E  	mov re,a
  89  005B  0700     E  	mov a,_builtin_holtek_mant1[0]
  89  005C  0080     E  	mov rd,a
  89  005D  0700     E  	mov a,rg
  89  005E  0080     R  	mov _main_2[2],a
  89  005F  0700     E  	mov a,rf
  89  0060  0080     R  	mov _main_2[1],a
  89  0061  0700     E  	mov a,re
  89  0062  0080     R  	mov _main_2[0],a
  89  0063  0700     R  	mov a,_main_2[0]
  89  0064  0080     R  	mov _VDD[0],a
  89  0065  0700     R  	mov a,_main_2[1]
  89  0066  0080     R  	mov _VDD[1],a
  89  0067  0700     R  	mov a,_main_2[2]
  89  0068  0080     R  	mov _VDD[2],a
  90  0069              #line 90 "c:\users\tech\desktop\codetector\main\Main.c"
  90  0069  0F01        	mov a,1
  90  006A  2000     E  	call _S_READ_ADC
  90  006B  0700     R  	mov a,_main_2[0]
  90  006C  0080     E  	mov _temperature_2[2],a
  90  006D  0700     R  	mov a,_main_2[1]
  90  006E  0080     E  	mov _temperature_2[3],a
  90  006F  0700     R  	mov a,_main_2[2]
  90  0070  0080     E  	mov _temperature_2[4],a
  90  0071  0700     E  	mov a,ra
  90  0072  0080     E  	mov _temperature_2[0],a
  90  0073  0700     E  	mov a,rb
  90  0074  0080     E  	mov _temperature_2[1],a
  90  0075  2000     E  	call _temperature
  90  0076  1F00     E  	clr _builtin_holtek_mant12p[0]
  90  0077  0700     E  	mov a,rc
  90  0078  0080     E  	mov _builtin_holtek_mant1[2],a
  90  0079  0700     E  	mov a,rb
  90  007A  0080     E  	mov _builtin_holtek_mant1[1],a
  90  007B  0700     E  	mov a,ra
  90  007C  0080     E  	mov _builtin_holtek_mant1[0],a
  90  007D  2000     E  	call _builtin_holtek_ftol
  90  007E  0700     E  	mov a,_builtin_holtek_mant12p[0]
  90  007F  0080     R  	mov _main_2[3],a
  90  0080  0700     E  	mov a,_builtin_holtek_mant1[2]
  90  0081  0080     R  	mov _main_2[2],a
  90  0082  0700     E  	mov a,_builtin_holtek_mant1[1]
  90  0083  0080     R  	mov _main_2[1],a
  90  0084  0700     E  	mov a,_builtin_holtek_mant1[0]
"File: Main.c        Assembler  Version HGASM0202      Page 8

  90  0085  0080     R  	mov _main_2[0],a
  90  0086  0700     R  	mov a,_main_2[0]
  90  0087  0080     R  	mov _temperatur[0],a
  90  0088  0700     R  	mov a,_main_2[1]
  90  0089  0080     R  	mov _temperatur[1],a
  91  008A              #line 91 "c:\users\tech\desktop\codetector\main\Main.c"
  91  008A  0F05        	mov a,5
  91  008B  2000     E  	call _S_READ_ADC
  91  008C  0700     R  	mov a,_main_2[0]
  91  008D  0080     E  	mov _ReadCO_2[5],a
  91  008E  0700     R  	mov a,_main_2[1]
  91  008F  0080     E  	mov _ReadCO_2[6],a
  91  0090  0700     E  	mov a,ra
  91  0091  0080     E  	mov _ReadCO_2[3],a
  91  0092  0700     E  	mov a,rb
  91  0093  0080     E  	mov _ReadCO_2[4],a
  91  0094  0700     R  	mov a,_VDD[0]
  91  0095  0080     E  	mov _ReadCO_2[0],a
  91  0096  0700     R  	mov a,_VDD[1]
  91  0097  0080     E  	mov _ReadCO_2[1],a
  91  0098  0700     R  	mov a,_VDD[2]
  91  0099  0080     E  	mov _ReadCO_2[2],a
  91  009A  2000     E  	call _ReadCO
  91  009B  0700     E  	mov a,ra
  91  009C  0080     E  	mov rd,a
  91  009D  0700     E  	mov a,rb
  91  009E  0080     E  	mov re,a
  91  009F  0700     E  	mov a,ra
  91  00A0  0080     R  	mov _COValue[0],a
  91  00A1  0700     E  	mov a,rb
  91  00A2  0080     R  	mov _COValue[1],a
  93  00A3              #line 93 "c:\users\tech\desktop\codetector\main\Main.c"
  93  00A3  345D        	clr [93].0
  95  00A4              #line 95 "c:\users\tech\desktop\codetector\main\Main.c"
  95  00A4  0700     R  	mov a,_alarmCounter[0]
  95  00A5  0080     E  	mov rb,a
  95  00A6  0700     R  	mov a,_alarmCounter[1]
  95  00A7  0080     E  	mov rc,a
  95  00A8  0F1D        	mov a,29
  95  00A9  0200     E  	sub a,rb
  95  00AA  0F00        	mov a,0
  95  00AB  1200     E  	sbc a,rc
  95  00AC  3C0A        	sz c
  95  00AD  2800     R  	jmp _L16
  95  00AE  0F90        	mov a,144
  95  00AF  0200     E  	sub a,rd
  95  00B0  0F01        	mov a,1
  95  00B1  1200     E  	sbc a,re
  95  00B2  380A        	snz c
  95  00B3  2800     R  	jmp _L45
  95  00B4  0F4A        	mov a,74
  95  00B5  0200     E  	sub a,rb
  95  00B6  0F00        	mov a,0
  95  00B7  1200     E  	sbc a,rc
  95  00B8  3C0A        	sz c
  95  00B9  2800     R  	jmp _L16
  95  00BA  0F7D        	mov a,125
  95  00BB  0200     E  	sub a,rd
  95  00BC  0F00        	mov a,0
  95  00BD  1200     E  	sbc a,re
"File: Main.c        Assembler  Version HGASM0202      Page 9

  95  00BE  380A        	snz c
  95  00BF  2800     R  	jmp _L45
  95  00C0  0F76        	mov a,118
  95  00C1  0200     E  	sub a,rb
  95  00C2  0F01        	mov a,1
  95  00C3  1200     E  	sbc a,rc
  95  00C4  3C0A        	sz c
  95  00C5  2800     R  	jmp _L16
  95  00C6  0F4B        	mov a,75
  95  00C7  0200     E  	sub a,rd
  95  00C8  0F00        	mov a,0
  95  00C9  1200     E  	sbc a,re
  95  00CA  380A        	snz c
  95  00CB  2800     R  	jmp _L45
  95  00CC  0F0F        	mov a,15
  95  00CD  0200     E  	sub a,rb
  95  00CE  0F0E        	mov a,14
  95  00CF  1200     E  	sbc a,rc
  95  00D0  3C0A        	sz c
  95  00D1  2800     R  	jmp _L16
  95  00D2  0F1E        	mov a,30
  95  00D3  0200     E  	sub a,rd
  95  00D4  0F00        	mov a,0
  95  00D5  1200     E  	sbc a,re
  95  00D6  3C0A        	sz c
  95  00D7  2800     R  	jmp _L22
  95  00D8              _L45:
  99  00D8              #line 99 "c:\users\tech\desktop\codetector\main\Main.c"
  99  00D8              ;# 99 "c:\users\tech\desktop\codetector\main\Main.c" 1
  99  00D8  0001        	clr wdt
 100  00D9              #line 100 "c:\users\tech\desktop\codetector\main\Main.c"
 100  00D9  30DD        	set [93].1
 101  00DA              #line 101 "c:\users\tech\desktop\codetector\main\Main.c"
 101  00DA  0F00        	mov a,0
 101  00DB  2000     R  	call _buzzerAlarm
 101  00DC  2800     R  	jmp _L45
 101  00DD              _L16:
 106  00DD              #line 106 "c:\users\tech\desktop\codetector\main\Main.c"
 106  00DD  0F1E        	mov a,30
 106  00DE  0200     E  	sub a,rd
 106  00DF  0F00        	mov a,0
 106  00E0  1200     E  	sbc a,re
 106  00E1  3C0A        	sz c
 106  00E2  2800     R  	jmp _L23
 108  00E3              #line 108 "c:\users\tech\desktop\codetector\main\Main.c"
 108  00E3  30DD        	set [93].1
 109  00E4              #line 109 "c:\users\tech\desktop\codetector\main\Main.c"
 109  00E4  0F00        	mov a,0
 109  00E5  2000     R  	call _buzzerAlarm
 110  00E6              #line 110 "c:\users\tech\desktop\codetector\main\Main.c"
 110  00E6  1480     R  	inc _alarmCounter[0]
 110  00E7  3D0A        	sz z
 110  00E8  1480     R  	inc _alarmCounter[1]
 111  00E9              #line 111 "c:\users\tech\desktop\codetector\main\Main.c"
 111  00E9  34DD        	clr [93].1
 111  00EA  2800     R  	jmp _L24
 111  00EB              _L23:
 116  00EB              #line 116 "c:\users\tech\desktop\codetector\main\Main.c"
 116  00EB  0700     E  	mov a,rb
 116  00EC  0500     E  	or a,rc
"File: Main.c        Assembler  Version HGASM0202      Page 10

 116  00ED  3D0A        	sz z
 116  00EE  2800     R  	jmp _L25
 116  00EF              _L22:
 116  00EF  0FFF        	mov a,255
 116  00F0  0300     E  	add a,rb
 116  00F1  0080     R  	mov _alarmCounter[0],a
 116  00F2  0FFF        	mov a,255
 116  00F3  1300     E  	adc a,rc
 116  00F4  0080     R  	mov _alarmCounter[1],a
 116  00F5              _L25:
 117  00F5              #line 117 "c:\users\tech\desktop\codetector\main\Main.c"
 117  00F5  0F00        	mov a,0
 117  00F6  2000     E  	call _PWMSeter
 117  00F7              _L24:
 121  00F7              #line 121 "c:\users\tech\desktop\codetector\main\Main.c"
 121  00F7  3595        	clr [21].3
 121  00F8  3194        	set [20].3
 121  00F9              ;# 121 "c:\users\tech\desktop\codetector\main\Main.c" 1
 121  00F9              	IF 4000>263690
 121  00F9              ;# 121 "c:\users\tech\desktop\codetector\main\Main.c" 1
 121  00F9              	ERRMESSAGE 'the value 4000of the argument exceeds the maxinum 263690'
 121  00F9              	ENDIF
 121  00F9              ;# 121 "c:\users\tech\desktop\codetector\main\Main.c" 1
 121  00F9              	IF 4000<0
 121  00F9              ;# 121 "c:\users\tech\desktop\codetector\main\Main.c" 1
 121  00F9              	ERRMESSAGE 'the value 4000 of the argument exceeds the mininum 0'
 121  00F9              	ENDIF
 121  00F9              ;# 121 "c:\users\tech\desktop\codetector\main\Main.c" 1
 121  00F9              	IF 4000==0
 121  00F9              ;# 121 "c:\users\tech\desktop\codetector\main\Main.c" 1
 121  00F9              	JMP $
 121  00F9              	ENDIF
 121  00F9              ;# 121 "c:\users\tech\desktop\codetector\main\Main.c" 1
 121  00F9              	IF 4000==1
 121  00F9              ;# 121 "c:\users\tech\desktop\codetector\main\Main.c" 1
 121  00F9              	NOP
 121  00F9              	ENDIF
 121  00F9              ;# 121 "c:\users\tech\desktop\codetector\main\Main.c" 1
 121  00F9              	IF 4000==2
 121  00F9              ;# 121 "c:\users\tech\desktop\codetector\main\Main.c" 1
 121  00F9              	NOP
 121  00F9              ;# 121 "c:\users\tech\desktop\codetector\main\Main.c" 1
 121  00F9              	NOP
 121  00F9              	ENDIF
 121  00F9              ;# 121 "c:\users\tech\desktop\codetector\main\Main.c" 1
 121  00F9              	IF 4000==3
 121  00F9              ;# 121 "c:\users\tech\desktop\codetector\main\Main.c" 1
 121  00F9              	NOP
 121  00F9              ;# 121 "c:\users\tech\desktop\codetector\main\Main.c" 1
 121  00F9              	NOP
 121  00F9              ;# 121 "c:\users\tech\desktop\codetector\main\Main.c" 1
 121  00F9              	NOP
 121  00F9              	ENDIF
 121  00F9              ;# 121 "c:\users\tech\desktop\codetector\main\Main.c" 1
 121  00F9              	IF (4000<8) AND (4000>3)
 121  00F9              ;# 121 "c:\users\tech\desktop\codetector\main\Main.c" 1
 121  00F9              	CALL __DELAY3 + 7 -4000
 121  00F9              	ENDIF
 121  00F9              ;# 121 "c:\users\tech\desktop\codetector\main\Main.c" 1
 121  00F9              	IF (4000< 0404h) AND (4000>7)
"File: Main.c        Assembler  Version HGASM0202      Page 11

 121  00F9              ;# 121 "c:\users\tech\desktop\codetector\main\Main.c" 1
 121  00F9              	MOV A,4000/4-1
 121  00F9              ;# 121 "c:\users\tech\desktop\codetector\main\Main.c" 1
 121  00F9              	CALL __DELAYX3 + 3 -(4000 MOD 4)
 121  00F9              	ENDIF
 121  00F9              ;# 121 "c:\users\tech\desktop\codetector\main\Main.c" 1
 121  00F9              	IF (4000< 0x40B) AND (4000> 0403h)
 121  00F9              ;# 121 "c:\users\tech\desktop\codetector\main\Main.c" 1
 121  00F9              	MOV A,0 
 121  00F9              ;# 121 "c:\users\tech\desktop\codetector\main\Main.c" 1
 121  00F9              	CALL __DELAYX6 + 0x40a -4000
 121  00F9              	ENDIF
 121  00F9              ;# 121 "c:\users\tech\desktop\codetector\main\Main.c" 1
 121  00F9              	IF (4000 >= 0x40b) AND ((((4000-9)%0402h)/4+1)>256)
 121  00F9              ;# 121 "c:\users\tech\desktop\codetector\main\Main.c" 1
 121  00F9              	MOV A,(4000-9)/0402h
 121  00F9              ;# 121 "c:\users\tech\desktop\codetector\main\Main.c" 1
 121  00F9              	MOV _builtin_holtek_delay_2,A
 121  00F9              ;# 121 "c:\users\tech\desktop\codetector\main\Main.c" 1
 121  00F9              	MOV A,0
 121  00F9              ;# 121 "c:\users\tech\desktop\codetector\main\Main.c" 1
 121  00F9              	CALL __DELAYY5 +5- (((4000-9)%0402h)%6)
 121  00F9              	ENDIF
 121  00F9              ;# 121 "c:\users\tech\desktop\codetector\main\Main.c" 1
 121  00F9              	IF (4000 >= 0x40b) AND ((((4000-9)%0402h)/4+1)<=256)
 121  00F9              ;# 121 "c:\users\tech\desktop\codetector\main\Main.c" 1
 121  00F9  0F03        	MOV A,(4000-9)/0402h
 121  00FA              ;# 121 "c:\users\tech\desktop\codetector\main\Main.c" 1
 121  00FA  0080     E  	MOV _builtin_holtek_delay_2,A
 121  00FB              ;# 121 "c:\users\tech\desktop\codetector\main\Main.c" 1
 121  00FB  0FE5        	MOV A,((4000-9)%0402h)/4+1
 121  00FC              ;# 121 "c:\users\tech\desktop\codetector\main\Main.c" 1
 121  00FC  2000     E  	CALL __DELAYY3 +3-(((4000-9)%0402h)%4)
 121  00FD              	ENDIF
 121  00FD  3595        	clr [21].3
 121  00FE  3594        	clr [20].3
 123  00FF              #line 123 "c:\users\tech\desktop\codetector\main\Main.c"
 123  00FF  0700     R  	mov a,_VDD[2]
 123  0100  0080     E  	mov _builtin_holtek_mant1[2],a
 123  0101  0700     R  	mov a,_VDD[1]
 123  0102  0080     E  	mov _builtin_holtek_mant1[1],a
 123  0103  0700     R  	mov a,_VDD[0]
 123  0104  0080     E  	mov _builtin_holtek_mant1[0],a
 123  0105  0F40        	mov a,64
 123  0106  0080     E  	mov _builtin_holtek_mant2[2],a
 123  0107  0F40        	mov a,64
 123  0108  0080     E  	mov _builtin_holtek_mant2[1],a
 123  0109  0F00        	mov a,0
 123  010A  0080     E  	mov _builtin_holtek_mant2[0],a
 123  010B  2000     E  	call _builtin_holtek_ftsub
 123  010C  3C00     E  	sz _builtin_holtek_mant1[2].7
 123  010D  2800     R  	jmp _L38
 123  010E  0700     E  	mov a,_builtin_holtek_mant1[2]
 123  010F  0500     E  	or a,_builtin_holtek_mant1[1]
 123  0110  0500     E  	or a,_builtin_holtek_mant1[0]
 123  0111  3D0A        	sz z
 123  0112  2800     R  	jmp _L38
 123  0113  2800     R  	jmp _L37
 123  0114              _L38:
 125  0114              #line 125 "c:\users\tech\desktop\codetector\main\Main.c"
"File: Main.c        Assembler  Version HGASM0202      Page 12

 125  0114  3595        	clr [21].3
 125  0115  3194        	set [20].3
 126  0116              #line 126 "c:\users\tech\desktop\codetector\main\Main.c"
 126  0116  0F00        	mov a,0
 126  0117  2000     R  	call _buzzerAlarm
 127  0118              #line 127 "c:\users\tech\desktop\codetector\main\Main.c"
 127  0118  3595        	clr [21].3
 127  0119  3594        	clr [20].3
 127  011A              _L37:
 127  011A              #pragma debug scope 4 3
 127  011A              ;begin block, line: 127.-1
 127  011A              #pragma debug variable 12 4 _main_2+0 "buttonStatus"
 138  011A              #line 138 "c:\users\tech\desktop\codetector\main\Main.c"
 138  011A  2000     E  	call _key
 138  011B  0700     E  	mov a,ra
 138  011C  0080     R  	mov _main_2[0],a
 138  011D  0700     E  	mov a,rb
 138  011E  0080     R  	mov _main_2[1],a
 140  011F              #line 140 "c:\users\tech\desktop\codetector\main\Main.c"
 140  011F  0700     E  	mov a,ra
 140  0120  0C04        	xor a,4
 140  0121  0500     E  	or a,rb
 140  0122  390A        	snz z
 140  0123  2800     R  	jmp _L28
 142  0124              #line 142 "c:\users\tech\desktop\codetector\main\Main.c"
 142  0124              ;# 142 "c:\users\tech\desktop\codetector\main\Main.c" 1
 142  0124  0002        	halt
 142  0125  2800     R  	jmp _L29
 142  0126              _L28:
 146  0126              #line 146 "c:\users\tech\desktop\codetector\main\Main.c"
 146  0126  3217        	set [23].4
 146  0127  3216        	set [22].4
 147  0128              #line 147 "c:\users\tech\desktop\codetector\main\Main.c"
 147  0128  2000     E  	call _clearSegment
 149  0129              #line 149 "c:\users\tech\desktop\codetector\main\Main.c"
 149  0129  0700     R  	mov a,_main_2[0]
 149  012A  0500     R  	or a,_main_2[1]
 149  012B  3D0A        	sz z
 149  012C  2800     R  	jmp _L30
 153  012D              #line 153 "c:\users\tech\desktop\codetector\main\Main.c"
 153  012D  0700     R  	mov a,_main_2[0]
 153  012E  0C01        	xor a,1
 153  012F  0500     R  	or a,_main_2[1]
 153  0130  390A        	snz z
 153  0131  2800     R  	jmp _L31
 155  0132              #line 155 "c:\users\tech\desktop\codetector\main\Main.c"
 155  0132              ;# 155 "c:\users\tech\desktop\codetector\main\Main.c" 1
 155  0132  0001        	clr wdt
 156  0133              #line 156 "c:\users\tech\desktop\codetector\main\Main.c"
 156  0133  0700     R  	mov a,_COValue[0]
 156  0134  0080     E  	mov _shwoSegment_2[0],a
 156  0135  0700     R  	mov a,_COValue[1]
 156  0136  0080     E  	mov _shwoSegment_2[1],a
 156  0137  2800     R  	jmp _L50
 156  0138              _L31:
 158  0138              #line 158 "c:\users\tech\desktop\codetector\main\Main.c"
 158  0138  0700     R  	mov a,_main_2[0]
 158  0139  0C02        	xor a,2
 158  013A  0500     R  	or a,_main_2[1]
 158  013B  390A        	snz z
"File: Main.c        Assembler  Version HGASM0202      Page 13

 158  013C  2800     R  	jmp _L32
 160  013D              #line 160 "c:\users\tech\desktop\codetector\main\Main.c"
 160  013D              ;# 160 "c:\users\tech\desktop\codetector\main\Main.c" 1
 160  013D  0001        	clr wdt
 161  013E              #line 161 "c:\users\tech\desktop\codetector\main\Main.c"
 161  013E  0700     R  	mov a,_VDD[0]
 161  013F  0080     E  	mov rc,a
 161  0140  0700     R  	mov a,_VDD[1]
 161  0141  0080     E  	mov rd,a
 161  0142  0700     R  	mov a,_VDD[2]
 161  0143  0080     E  	mov re,a
 161  0144  0700     E  	mov a,re
 161  0145  0080     E  	mov _builtin_holtek_mant1[2],a
 161  0146  0700     E  	mov a,rd
 161  0147  0080     E  	mov _builtin_holtek_mant1[1],a
 161  0148  0700     E  	mov a,rc
 161  0149  0080     E  	mov _builtin_holtek_mant1[0],a
 161  014A  0F40        	mov a,64
 161  014B  0080     E  	mov _builtin_holtek_mant2[2],a
 161  014C  0F80        	mov a,128
 161  014D  0080     E  	mov _builtin_holtek_mant2[1],a
 161  014E  0F00        	mov a,0
 161  014F  0080     E  	mov _builtin_holtek_mant2[0],a
 161  0150  2000     E  	call _builtin_holtek_ftsub
 161  0151  3800     E  	snz _builtin_holtek_mant1[2].7
 161  0152  2800     R  	jmp _L39
 161  0153  2800     R  	jmp _L51
 161  0154              _L39:
 161  0154  0F64        	mov a,100
 161  0155  0080     E  	mov _shwoSegment_2[0],a
 161  0156  1F00     E  	clr _shwoSegment_2[1]
 161  0157  2800     R  	jmp _L50
 161  0158              _L51:
 162  0158              #line 162 "c:\users\tech\desktop\codetector\main\Main.c"
 162  0158  0700     E  	mov a,re
 162  0159  0080     E  	mov _builtin_holtek_mant1[2],a
 162  015A  0700     E  	mov a,rd
 162  015B  0080     E  	mov _builtin_holtek_mant1[1],a
 162  015C  0700     E  	mov a,rc
 162  015D  0080     E  	mov _builtin_holtek_mant1[0],a
 162  015E  0F40        	mov a,64
 162  015F  0080     E  	mov _builtin_holtek_mant2[2],a
 162  0160  0F40        	mov a,64
 162  0161  0080     E  	mov _builtin_holtek_mant2[1],a
 162  0162  0F00        	mov a,0
 162  0163  0080     E  	mov _builtin_holtek_mant2[0],a
 162  0164  2000     E  	call _builtin_holtek_ftsub
 162  0165  3C00     E  	sz _builtin_holtek_mant1[2].7
 162  0166  2800     R  	jmp _L40
 163  0167              #line 163 "c:\users\tech\desktop\codetector\main\Main.c"
 163  0167  0F0F        	mov a,15
 163  0168  0080     E  	mov _shwoSegment_2[0],a
 163  0169  1F00     E  	clr _shwoSegment_2[1]
 163  016A  2800     R  	jmp _L50
 163  016B              _L40:
 162  016B              #line 162 "c:\users\tech\desktop\codetector\main\Main.c"
 162  016B  0F4B        	mov a,75
 162  016C  0080     E  	mov _shwoSegment_2[0],a
 162  016D  1F00     E  	clr _shwoSegment_2[1]
 162  016E              _L50:
"File: Main.c        Assembler  Version HGASM0202      Page 14

 162  016E  2000     E  	call _shwoSegment
 162  016F  2800     R  	jmp _L30
 162  0170              _L32:
 166  0170              #line 166 "c:\users\tech\desktop\codetector\main\Main.c"
 166  0170  0700     R  	mov a,_main_2[0]
 166  0171  0C03        	xor a,3
 166  0172  0500     R  	or a,_main_2[1]
 166  0173  390A        	snz z
 166  0174  2800     R  	jmp _L30
 169  0175              #line 169 "c:\users\tech\desktop\codetector\main\Main.c"
 169  0175              ;# 169 "c:\users\tech\desktop\codetector\main\Main.c" 1
 169  0175  0001        	clr wdt
 170  0176              #line 170 "c:\users\tech\desktop\codetector\main\Main.c"
 170  0176  0F04        	mov a,4
 170  0177  2000     R  	call _buzzerAlarm
 170  0178              _L30:
 175  0178              #line 175 "c:\users\tech\desktop\codetector\main\Main.c"
 175  0178  2000     E  	call _clearSegment
 176  0179              #line 176 "c:\users\tech\desktop\codetector\main\Main.c"
 176  0179  3217        	set [23].4
 176  017A  3216        	set [22].4
 176  017B              _L29:
 180  017B              #line 180 "c:\users\tech\desktop\codetector\main\Main.c"
 180  017B  2000     E  	call _clearSegment
 181  017C              #line 181 "c:\users\tech\desktop\codetector\main\Main.c"
 181  017C  3217        	set [23].4
 181  017D  3216        	set [22].4
 181  017E              #pragma debug scope 3 1
 184  017E              #line 184 "c:\users\tech\desktop\codetector\main\Main.c"
 184  017E  2800     R  	jmp _L37
 184  017F  2800     R  	jmp $
 184  0180              _main endp
 184  0180              
 184  0180              @dummy endp
 184  0180              
 184  0180              #line 184 "c:\users\tech\desktop\codetector\main\Main.c"
 184  0180              #pragma debug scope 1 1
 184  0180              public _COValue
 184  0000              @HCCINIT	.section 'data'
  52  0000              #line 52 "c:\users\tech\desktop\codetector\main\Main.c"
  52  0000              @HCCINIT_COValue .section 'data'
  52  0000              _COValue label byte
  52  0000              #pragma debug variable 12 1 _COValue "COValue"
  52  0000              	db 0
  52  0000              @ROMDATA_BASE .section inpage 'code'
  52  0000              	db 0
  52  0001              @HCCINIT_COValue .section 'data'
  52  0001              	db 0
  52  0001              @ROMDATA_BASE .section inpage 'code'
  52  0001              	db 0
  52  0002              @HCCINIT_COValue .section 'data'
  52  0002              public _temperatur
  51  0002              #line 51 "c:\users\tech\desktop\codetector\main\Main.c"
  51  0000              @HCCINIT_temperatur .section 'data'
  51  0000              _temperatur label byte
  51  0000              #pragma debug variable 10 1 _temperatur "temperatur"
  51  0000              	db 0
  51  0001              @ROMDATA_BASE .section inpage 'code'
  51  0001              	db 0
  51  0001              @HCCINIT_temperatur .section 'data'
"File: Main.c        Assembler  Version HGASM0202      Page 15

  51  0001              	db 0
  51  0002              @ROMDATA_BASE .section inpage 'code'
  51  0002              	db 0
  51  0002              @HCCINIT_temperatur .section 'data'
  51  0002              public _VDD
  50  0002              #line 50 "c:\users\tech\desktop\codetector\main\Main.c"
  50  0000              @HCCINIT_VDD .section 'data'
  50  0000              _VDD label byte
  50  0000              #pragma debug variable 28 1 _VDD "VDD"
  50  0000              	db 0
  50  0002              @ROMDATA_BASE .section inpage 'code'
  50  0002              	db 0
  50  0001              @HCCINIT_VDD .section 'data'
  50  0001              	db 0
  50  0003              @ROMDATA_BASE .section inpage 'code'
  50  0003              	db 0
  50  0002              @HCCINIT_VDD .section 'data'
  50  0002              	db 0
  50  0003              @ROMDATA_BASE .section inpage 'code'
  50  0003              	db 0
  50  0003              @HCCINIT_VDD .section 'data'
  19  0003              #line 19 "c:\users\tech\desktop\codetector\main\Main.c"
  19  0003              public _alarmCounter
  19  0000              @HCCINIT0_alarmCounter .section 'data'
  19  0000  0002[       _alarmCounter	db 2 dup(0)
            00
            ]
  19  0002              #pragma debug variable 12 1 _alarmCounter "alarmCounter"
  19  0002              
  19  0000              @HCCINIT .section 'data'
  19  0000              #pragma debug struct_end
  19  0000              #pragma debug struct_end
  19  0000              #pragma debug union_end
  19  0000              #pragma debug union_end
  19  0000              #pragma debug variable 43 1 ___status "__status" 1
  19  0000              #pragma debug struct_end
  19  0000              #pragma debug struct_end
  19  0000              #pragma debug union_end
  19  0000              #pragma debug union_end
  19  0000              #pragma debug variable 45 1 ___vbgrc "__vbgrc" 1
  19  0000              #pragma debug struct_end
  19  0000              #pragma debug struct_end
  19  0000              #pragma debug union_end
  19  0000              #pragma debug union_end
  19  0000              #pragma debug variable 47 1 ___pa "__pa" 1
  19  0000              #pragma debug struct_end
  19  0000              #pragma debug struct_end
  19  0000              #pragma debug union_end
  19  0000              #pragma debug union_end
  19  0000              #pragma debug variable 49 1 ___pac "__pac" 1
  19  0000              #pragma debug struct_end
  19  0000              #pragma debug struct_end
  19  0000              #pragma debug union_end
  19  0000              #pragma debug union_end
  19  0000              #pragma debug variable 51 1 ___papu "__papu" 1
  19  0000              #pragma debug struct_end
  19  0000              #pragma debug struct_end
  19  0000              #pragma debug union_end
  19  0000              #pragma debug union_end
  19  0000              #pragma debug variable 53 1 ___pawu "__pawu" 1
"File: Main.c        Assembler  Version HGASM0202      Page 16

  19  0000              #pragma debug struct_end
  19  0000              #pragma debug struct_end
  19  0000              #pragma debug union_end
  19  0000              #pragma debug union_end
  19  0000              #pragma debug variable 55 1 ___sda0c "__sda0c" 1
  19  0000              #pragma debug struct_end
  19  0000              #pragma debug struct_end
  19  0000              #pragma debug union_end
  19  0000              #pragma debug union_end
  19  0000              #pragma debug variable 57 1 ___sda1c "__sda1c" 1
  19  0000              #pragma debug struct_end
  19  0000              #pragma debug struct_end
  19  0000              #pragma debug union_end
  19  0000              #pragma debug union_end
  19  0000              #pragma debug variable 59 1 ___isgenc "__isgenc" 1
  57  0000              #line 57 "c:\users\tech\desktop\codetector\main\Main.c"
  57  0000              @code .section at 0 'code'
  57  0000  2800     R  	jmp _main_startup1
  57  0001              
  57  0001              extern _PWMSeter:near
  57  0001              extern _ClockInit:near
  57  0001              extern _GPIOInit:near
  57  0001              extern _GPIOToGNDCurentInit:near
  57  0001              extern _OPAMPInit:near
  57  0001              extern _S_ADC_Init:near
  57  0001              extern _PTimerInit:near
  57  0001              extern _clearSegment:near
  57  0001              extern _S_READ_ADC:near
  57  0001              extern _builtin_holtek_mant1:byte
  57  0001              extern _builtin_holtek_mant12p:byte
  57  0001              extern _builtin_holtek_signs:byte
  57  0001              extern _builtin_holtek_uitod:near
  57  0001              extern _builtin_holtek_mant2:byte
  57  0001              extern _builtin_holtek_dtdiv:near
  57  0001              extern _builtin_holtek_dtmul:near
  57  0001              extern _temperature_2:byte
  57  0001              extern _temperature:near
  57  0001              extern _builtin_holtek_ftol:near
  57  0001              extern _ReadCO_2:byte
  57  0001              extern _ReadCO:near
  57  0001              extern _builtin_holtek_ftsub:near
  57  0001              extern _key:near
  57  0001              extern _shwoSegment_2:byte
  57  0001              extern _shwoSegment:near
  57  0001              
  57  0001              ; 
  57  0001              ; Generated by holtek-gcc v3.19, Mon Oct 09 18:01:44 2023
  57  0001              ; Rebuild 718
  57  0001              ; end of file


        0 Errors, 0