"File: OPAMP.h       Assembler  Version HGASM0202      Page 1


   1  0000              ; Generated by holtek-gcc v3.19, Mon Oct 09 18:01:45 2023
   2  0000              ; 
   3  0000              ; Configuration:
   4  0000              ;       with long instruction
   5  0000              ;       Single ROM, Multi-RAM
   6  0000              ;       bits_per_rom_unit:16
   7  0000              ;       with mp1
   8  0000              ;       with tbhp, address(0x9)
   9  0000              ;          Use tabrd-const
  10  0000              ;       
  11  0000              ; SFR address of long-instruction arch:
  12  0000              ;    mp0 = -1,1,0
  13  0000              ;    mp1 = 4,3,2
  14  0000              ;    mp2 = 14,13,12
  15  0000              ;    tbp = 9,7,8
  16  0000              ;    acc = 5
  17  0000              ;    pcl = 6
  18  0000              ;    status = 10
  19  0000              ;    bp = 11
  20  0000              ;    intc = 72
  21  0000              ;       
  22  0000              ;       
  23  0000              ; use 'tabrdc' instead of 'tabrd'
  24  0000              ;       
  25  0000              
  26  0000              #pragma translator "holtek-gcc 4.6.4" "3.19" "build 20130711"
  27  0000              ; Rebuild 718
  28  0000              
  29  0000              ir equ [2]
  30  0000              mp equ [3]
  31  0000              sbp equ [4]
  32  0000              acc equ [5]
  33  0000              bp equ [11]
  34  0000              tblp equ [7]
  35  0000              tbhp equ [9]
  36  0000              status equ [10]
  37  0000              c equ [10].0
  38  0000              ac equ [10].1
  39  0000              z equ [10].2
  40  0000              ov equ [10].3
  41  0000              cz equ [10].6
  42  0000              sc equ [10].7
  43  0000              intc equ [72]
  44  0000              
  45  0000              extern ra:byte
  46  0000              extern rb:byte
  47  0000              extern rc:byte
  48  0000              extern rd:byte
  49  0000              extern re:byte
  50  0000              extern rf:byte
  51  0000              extern rg:byte
  52  0000              extern rh:byte
  53  0000              extern _Crom2Prom:near
  54  0000              extern _Crom2PromNext:near
  55  0000              
  56  0000              RAMBANK 0 @BITDATASEC, @BITDATASEC1
  57  0000              @HCCINIT	.section 'data'
  58  0000              @HCCINIT0	.section 'data'
  59  0000              @BITDATASEC	 .section 'data'
"File: OPAMP.ASM     Assembler  Version HGASM0202      Page 2

  60  0000              @BITDATASEC1	 .section 'data'
  61  0000              
  62  0000              #pragma debug scope 1 1
  63  0000              	extern __DELAY3:near
  64  0000              	extern __DELAYX3:near
  65  0000              	extern __DELAYX6:near
  66  0000              	extern __DELAYY5:near
  67  0000              	extern __DELAYY3:near
  68  0000              	extern _builtin_holtek_delay_2:byte
  69  0000              ___sda0c equ [35]
  70  0000              ___sda0vos equ [36]
  71  0000              ___sda1c equ [37]
  72  0000              ___sda1vos equ [38]
  73  0000              public _OPAMPset
  74  0000              #pragma debug scope 2 1

   8  0000              #line 8 "c:\users\tech\desktop\codetector\OPAMP\OPAMP.c"
   8  0000              _OPAMPset .section 'code'
   8  0000              _OPAMPset proc
   9  0000              #line 9 "c:\users\tech\desktop\codetector\OPAMP\OPAMP.c"
   9  0000  3000     R  	set _FT
  13  0001              #line 13 "c:\users\tech\desktop\codetector\OPAMP\OPAMP.c"
  13  0001  3323        	set [35].6
  20  0002              #line 20 "c:\users\tech\desktop\codetector\OPAMP\OPAMP.c"
  20  0002  33A4        	set [36].7
  21  0003              #line 21 "c:\users\tech\desktop\codetector\OPAMP\OPAMP.c"
  21  0003  3324        	set [36].6
  25  0004              #line 25 "c:\users\tech\desktop\codetector\OPAMP\OPAMP.c"
  25  0004  3424        	clr [36].0
  26  0005              #line 26 "c:\users\tech\desktop\codetector\OPAMP\OPAMP.c"
  26  0005  34A4        	clr [36].1
  27  0006              #line 27 "c:\users\tech\desktop\codetector\OPAMP\OPAMP.c"
  27  0006  3524        	clr [36].2
  28  0007              #line 28 "c:\users\tech\desktop\codetector\OPAMP\OPAMP.c"
  28  0007  35A4        	clr [36].3
  29  0008              #line 29 "c:\users\tech\desktop\codetector\OPAMP\OPAMP.c"
  29  0008  3624        	clr [36].4
  30  0009              #line 30 "c:\users\tech\desktop\codetector\OPAMP\OPAMP.c"
  30  0009  36A4        	clr [36].5
  32  000A              #line 32 "c:\users\tech\desktop\codetector\OPAMP\OPAMP.c"
  32  000A  1F00     E  	clr ra
  32  000B  3EA3        	sz [35].5
  32  000C  1480     E  	inc ra
  32  000D              	;
  32  000D  3400     R  	clr _opamp0
  32  000E  3C00     E  	sz ra.0
  32  000F  3000     R  	set _opamp0
  32  0010              _L2:
  36  0010              #line 36 "c:\users\tech\desktop\codetector\OPAMP\OPAMP.c"
  36  0010  1F00     E  	clr rb
  36  0011  3EA3        	sz [35].5
  36  0012  1480     E  	inc rb
  36  0013  3C00     E  	sz ra.0
  36  0014  2800     R  	jmp _LI1
  36  0015  3C00     E  	sz rb.0
  36  0016  2800     R  	jmp _L3
  36  0017  2800     R  	jmp _LI2
  36  0018              _LI1:
  36  0018  3800     E  	snz rb.0
  36  0019  2800     R  	jmp _L3
"File: OPAMP.c       Assembler  Version HGASM0202      Page 3

  36  001A              _LI2:
  37  001A              #line 37 "c:\users\tech\desktop\codetector\OPAMP\OPAMP.c"
  37  001A  1624        	siza [36]
  37  001B  2800     R  	jmp _LI3
  37  001C  2800     R  	jmp _L3
  37  001D              _LI3:
  38  001D              #line 38 "c:\users\tech\desktop\codetector\OPAMP\OPAMP.c"
  38  001D  14A4        	inc [36]
  38  001E  2800     R  	jmp _L2
  38  001F              _L3:
  41  001F              #line 41 "c:\users\tech\desktop\codetector\OPAMP\OPAMP.c"
  41  001F  3C24        	sz [36].0
  41  0020  2800     R  	jmp _L5
  41  0021  3CA4        	sz [36].1
  41  0022  2800     R  	jmp _L5
  41  0023  3D24        	sz [36].2
  41  0024  2800     R  	jmp _L5
  41  0025  3DA4        	sz [36].3
  41  0026  2800     R  	jmp _L5
  41  0027  3E24        	sz [36].4
  41  0028  2800     R  	jmp _L5
  41  0029  0724        	mov a,[36]
  41  002A  0080     E  	mov ra,a
  41  002B              _L5:
  44  002B              #line 44 "c:\users\tech\desktop\codetector\OPAMP\OPAMP.c"
  44  002B  3024        	set [36].0
  45  002C              #line 45 "c:\users\tech\desktop\codetector\OPAMP\OPAMP.c"
  45  002C  30A4        	set [36].1
  46  002D              #line 46 "c:\users\tech\desktop\codetector\OPAMP\OPAMP.c"
  46  002D  3124        	set [36].2
  47  002E              #line 47 "c:\users\tech\desktop\codetector\OPAMP\OPAMP.c"
  47  002E  31A4        	set [36].3
  48  002F              #line 48 "c:\users\tech\desktop\codetector\OPAMP\OPAMP.c"
  48  002F  3224        	set [36].4
  49  0030              #line 49 "c:\users\tech\desktop\codetector\OPAMP\OPAMP.c"
  49  0030  32A4        	set [36].5
  51  0031              #line 51 "c:\users\tech\desktop\codetector\OPAMP\OPAMP.c"
  51  0031  1F00     E  	clr ra
  51  0032  3EA3        	sz [35].5
  51  0033  1480     E  	inc ra
  51  0034              	;
  51  0034  3400     R  	clr _opamp0
  51  0035  3C00     E  	sz ra.0
  51  0036  3000     R  	set _opamp0
  55  0037              #line 55 "c:\users\tech\desktop\codetector\OPAMP\OPAMP.c"
  55  0037  0724        	mov a,[36]
  55  0038  0080     E  	mov rb,a
  55  0039  0F00        	mov a,0
  55  003A  0200     E  	sub a,rb
  55  003B  0080     E  	mov rc,a
  55  003C  0700     E  	mov a,rc
  55  003D  0580     E  	orm a,rb
  55  003E  1A80     E  	rlc rb
  55  003F  1F00     E  	clr rb
  55  0040  1A80     E  	rlc rb
  55  0041  0700     E  	mov a,rb
  55  0042  0080     E  	mov rd,a
  55  0043  1F00     E  	clr re
  55  0044  0700     E  	mov a,rb
  55  0045  0080     R  	mov _VA0OS1[0],a
"File: OPAMP.c       Assembler  Version HGASM0202      Page 4

  55  0046              _L6:
  57  0046              #line 57 "c:\users\tech\desktop\codetector\OPAMP\OPAMP.c"
  57  0046  1F00     E  	clr rb
  57  0047  3EA3        	sz [35].5
  57  0048  1480     E  	inc rb
  57  0049  3C00     E  	sz ra.0
  57  004A  2800     R  	jmp _LI4
  57  004B  3C00     E  	sz rb.0
  57  004C  2800     R  	jmp _L11
  57  004D  2800     R  	jmp _LI5
  57  004E              _LI4:
  57  004E  3800     E  	snz rb.0
  57  004F  2800     R  	jmp _L11
  57  0050              _LI5:
  58  0050              #line 58 "c:\users\tech\desktop\codetector\OPAMP\OPAMP.c"
  58  0050  15A4        	dec [36]
  59  0051              #line 59 "c:\users\tech\desktop\codetector\OPAMP\OPAMP.c"
  59  0051  0724        	mov a,[36]
  59  0052  0AC0        	sub a,192
  59  0053  390A        	snz z
  59  0054  2800     R  	jmp _L6
  59  0055              _L11:
  62  0055              #line 62 "c:\users\tech\desktop\codetector\OPAMP\OPAMP.c"
  62  0055  3C24        	sz [36].0
  62  0056  2800     R  	jmp _L28
  62  0057  3CA4        	sz [36].1
  62  0058  2800     R  	jmp _L28
  62  0059  3D24        	sz [36].2
  62  005A  2800     R  	jmp _L28
  62  005B  3DA4        	sz [36].3
  62  005C  2800     R  	jmp _L28
  62  005D  3E24        	sz [36].4
  62  005E  2800     R  	jmp _L28
  62  005F  1F00     E  	clr rb
  62  0060  3EA4        	sz [36].5
  62  0061  1480     E  	inc rb
  62  0062  1F00     E  	clr rc
  62  0063  2800     R  	jmp _L8
  62  0064              _L28:
  62  0064  0F01        	mov a,1
  62  0065  0080     E  	mov rb,a
  62  0066  1F00     E  	clr rc
  62  0067              _L8:
  62  0067  0700     E  	mov a,rb
  62  0068  0080     R  	mov _VA0OS2[0],a
  66  0069              #line 66 "c:\users\tech\desktop\codetector\OPAMP\OPAMP.c"
  66  0069  0700     E  	mov a,rd
  66  006A  0380     E  	addm a,rb
  66  006B  0700     E  	mov a,re
  66  006C  1380     E  	adcm a,rc
  66  006D  1A00     E  	rlca rc
  66  006E  1B80     E  	rrc rc
  66  006F  1B80     E  	rrc rb
  66  0070  0700     E  	mov a,rb
  66  0071  0080     R  	mov _VA0OS[0],a
  67  0072              #line 67 "c:\users\tech\desktop\codetector\OPAMP\OPAMP.c"
  67  0072  0700     E  	mov a,rb
  67  0073  00A4        	mov [36],a
  72  0074              #line 72 "c:\users\tech\desktop\codetector\OPAMP\OPAMP.c"
  72  0074  3723        	clr [35].6
"File: OPAMP.c       Assembler  Version HGASM0202      Page 5

  80  0075              #line 80 "c:\users\tech\desktop\codetector\OPAMP\OPAMP.c"
  80  0075  3325        	set [37].6
  87  0076              #line 87 "c:\users\tech\desktop\codetector\OPAMP\OPAMP.c"
  87  0076  33A6        	set [38].7
  88  0077              #line 88 "c:\users\tech\desktop\codetector\OPAMP\OPAMP.c"
  88  0077  3326        	set [38].6
  92  0078              #line 92 "c:\users\tech\desktop\codetector\OPAMP\OPAMP.c"
  92  0078  3426        	clr [38].0
  93  0079              #line 93 "c:\users\tech\desktop\codetector\OPAMP\OPAMP.c"
  93  0079  34A6        	clr [38].1
  94  007A              #line 94 "c:\users\tech\desktop\codetector\OPAMP\OPAMP.c"
  94  007A  3526        	clr [38].2
  95  007B              #line 95 "c:\users\tech\desktop\codetector\OPAMP\OPAMP.c"
  95  007B  35A6        	clr [38].3
  96  007C              #line 96 "c:\users\tech\desktop\codetector\OPAMP\OPAMP.c"
  96  007C  3626        	clr [38].4
  97  007D              #line 97 "c:\users\tech\desktop\codetector\OPAMP\OPAMP.c"
  97  007D  36A6        	clr [38].5
  99  007E              #line 99 "c:\users\tech\desktop\codetector\OPAMP\OPAMP.c"
  99  007E  1F00     E  	clr rb
  99  007F  3EA5        	sz [37].5
  99  0080  1480     E  	inc rb
  99  0081              	;
  99  0081  3400     R  	clr _opamp1
  99  0082  3C00     E  	sz rb.0
  99  0083  3000     R  	set _opamp1
 106  0084              #line 106 "c:\users\tech\desktop\codetector\OPAMP\OPAMP.c"
 106  0084  0700     R  	mov a,_VA1OS1[0]
 106  0085  0080     E  	mov rd,a
 106  0086  0700     R  	mov a,_VA0OS1[0]
 106  0087  0080     E  	mov ra,a
 106  0088              _L12:
 103  0088              #line 103 "c:\users\tech\desktop\codetector\OPAMP\OPAMP.c"
 103  0088  1F00     E  	clr rc
 103  0089  3EA5        	sz [37].5
 103  008A  1480     E  	inc rc
 103  008B  3C00     E  	sz rb.0
 103  008C  2800     R  	jmp _LI6
 103  008D  3C00     E  	sz rc.0
 103  008E  2800     R  	jmp _L40
 103  008F  2800     R  	jmp _LI7
 103  0090              _LI6:
 103  0090  3800     E  	snz rc.0
 103  0091  2800     R  	jmp _L40
 103  0092              _LI7:
 104  0092              #line 104 "c:\users\tech\desktop\codetector\OPAMP\OPAMP.c"
 104  0092  14A6        	inc [38]
 105  0093              #line 105 "c:\users\tech\desktop\codetector\OPAMP\OPAMP.c"
 105  0093  0726        	mov a,[38]
 105  0094  0080     E  	mov ra,a
 105  0095  0F00        	mov a,0
 105  0096  0200     E  	sub a,ra
 105  0097  0080     E  	mov rc,a
 105  0098  0700     E  	mov a,rc
 105  0099  0580     E  	orm a,ra
 105  009A  1A80     E  	rlc ra
 105  009B  1F00     E  	clr ra
 105  009C  1A80     E  	rlc ra
 106  009D              #line 106 "c:\users\tech\desktop\codetector\OPAMP\OPAMP.c"
 106  009D  0F3E        	mov a,62
"File: OPAMP.c       Assembler  Version HGASM0202      Page 6

 106  009E  0200     E  	sub a,rd
 106  009F  3B8A        	snz sc
 106  00A0  2800     R  	jmp _L12
 106  00A1              _L40:
 106  00A1  0700     E  	mov a,ra
 106  00A2  0080     R  	mov _VA0OS1[0],a
 108  00A3              #line 108 "c:\users\tech\desktop\codetector\OPAMP\OPAMP.c"
 108  00A3  3C26        	sz [38].0
 108  00A4  2800     R  	jmp _L14
 108  00A5  3CA6        	sz [38].1
 108  00A6  2800     R  	jmp _L14
 108  00A7  3D26        	sz [38].2
 108  00A8  2800     R  	jmp _L14
 108  00A9  3DA6        	sz [38].3
 108  00AA  2800     R  	jmp _L14
 108  00AB  3E26        	sz [38].4
 108  00AC  2800     R  	jmp _L14
 108  00AD  0726        	mov a,[38]
 108  00AE  0080     E  	mov ra,a
 108  00AF              _L14:
 111  00AF              #line 111 "c:\users\tech\desktop\codetector\OPAMP\OPAMP.c"
 111  00AF  3026        	set [38].0
 112  00B0              #line 112 "c:\users\tech\desktop\codetector\OPAMP\OPAMP.c"
 112  00B0  30A6        	set [38].1
 113  00B1              #line 113 "c:\users\tech\desktop\codetector\OPAMP\OPAMP.c"
 113  00B1  3126        	set [38].2
 114  00B2              #line 114 "c:\users\tech\desktop\codetector\OPAMP\OPAMP.c"
 114  00B2  31A6        	set [38].3
 115  00B3              #line 115 "c:\users\tech\desktop\codetector\OPAMP\OPAMP.c"
 115  00B3  3226        	set [38].4
 116  00B4              #line 116 "c:\users\tech\desktop\codetector\OPAMP\OPAMP.c"
 116  00B4  32A6        	set [38].5
 118  00B5              #line 118 "c:\users\tech\desktop\codetector\OPAMP\OPAMP.c"
 118  00B5  1F00     E  	clr ra
 118  00B6  3EA5        	sz [37].5
 118  00B7  1480     E  	inc ra
 118  00B8              	;
 118  00B8  3400     R  	clr _opamp1
 118  00B9  3C00     E  	sz ra.0
 118  00BA  3000     R  	set _opamp1
 122  00BB              #line 122 "c:\users\tech\desktop\codetector\OPAMP\OPAMP.c"
 122  00BB  0726        	mov a,[38]
 122  00BC  0080     E  	mov rb,a
 122  00BD  0F00        	mov a,0
 122  00BE  0200     E  	sub a,rb
 122  00BF  0080     E  	mov rc,a
 122  00C0  0700     E  	mov a,rc
 122  00C1  0580     E  	orm a,rb
 122  00C2  1800     E  	rla rb
 122  00C3  0E01        	and a,1
 122  00C4  0080     R  	mov _VA1OS1[0],a
 122  00C5              _L18:
 124  00C5              #line 124 "c:\users\tech\desktop\codetector\OPAMP\OPAMP.c"
 124  00C5  1F00     E  	clr rb
 124  00C6  3EA5        	sz [37].5
 124  00C7  1480     E  	inc rb
 124  00C8  3C00     E  	sz ra.0
 124  00C9  2800     R  	jmp _LI8
 124  00CA  3C00     E  	sz rb.0
 124  00CB  2800     R  	jmp _L23
"File: OPAMP.c       Assembler  Version HGASM0202      Page 7

 124  00CC  2800     R  	jmp _LI9
 124  00CD              _LI8:
 124  00CD  3800     E  	snz rb.0
 124  00CE  2800     R  	jmp _L23
 124  00CF              _LI9:
 125  00CF              #line 125 "c:\users\tech\desktop\codetector\OPAMP\OPAMP.c"
 125  00CF  15A6        	dec [38]
 126  00D0              #line 126 "c:\users\tech\desktop\codetector\OPAMP\OPAMP.c"
 126  00D0  0726        	mov a,[38]
 126  00D1  0080     E  	mov rb,a
 126  00D2  0F00        	mov a,0
 126  00D3  0200     E  	sub a,rb
 126  00D4  0080     E  	mov rc,a
 126  00D5  0700     E  	mov a,rc
 126  00D6  0580     E  	orm a,rb
 127  00D7              #line 127 "c:\users\tech\desktop\codetector\OPAMP\OPAMP.c"
 127  00D7  3C00     E  	sz rb.7
 127  00D8  2800     R  	jmp _L18
 127  00D9              _L23:
 130  00D9              #line 130 "c:\users\tech\desktop\codetector\OPAMP\OPAMP.c"
 130  00D9  3C26        	sz [38].0
 130  00DA  2800     R  	jmp _L33
 130  00DB  3CA6        	sz [38].1
 130  00DC  2800     R  	jmp _L33
 130  00DD  3D26        	sz [38].2
 130  00DE  2800     R  	jmp _L33
 130  00DF  3DA6        	sz [38].3
 130  00E0  2800     R  	jmp _L33
 130  00E1  3E26        	sz [38].4
 130  00E2  2800     R  	jmp _L33
 130  00E3  1F00     E  	clr rb
 130  00E4  3EA6        	sz [38].5
 130  00E5  1480     E  	inc rb
 130  00E6  1F00     E  	clr rc
 130  00E7  2800     R  	jmp _L20
 130  00E8              _L33:
 130  00E8  0F01        	mov a,1
 130  00E9  0080     E  	mov rb,a
 130  00EA  1F00     E  	clr rc
 130  00EB              _L20:
 130  00EB  0700     E  	mov a,rb
 130  00EC  0080     R  	mov _VA1OS2[0],a
 134  00ED              #line 134 "c:\users\tech\desktop\codetector\OPAMP\OPAMP.c"
 134  00ED  0700     R  	mov a,_VA0OS1[0]
 134  00EE  0080     E  	mov rd,a
 134  00EF  1F00     E  	clr re
 134  00F0  3F85        	sz acc.7
 134  00F1  1F80     E  	set re
 134  00F2  0700     E  	mov a,rd
 134  00F3  0380     E  	addm a,rb
 134  00F4  0700     E  	mov a,re
 134  00F5  1380     E  	adcm a,rc
 134  00F6  0700     E  	mov a,rb
 134  00F7  0080     E  	mov rd,a
 134  00F8  0700     E  	mov a,rc
 134  00F9  0080     E  	mov re,a
 134  00FA  1A80     E  	rlc re
 134  00FB  1F00     E  	clr rd
 134  00FC  1A80     E  	rlc rd
 134  00FD  1F00     E  	clr re
"File: OPAMP.c       Assembler  Version HGASM0202      Page 8

 134  00FE  0700     E  	mov a,rd
 134  00FF  0380     E  	addm a,rb
 134  0100  0700     E  	mov a,re
 134  0101  1380     E  	adcm a,rc
 134  0102  1A00     E  	rlca rc
 134  0103  1B80     E  	rrc rc
 134  0104  1B80     E  	rrc rb
 134  0105  0700     E  	mov a,rb
 134  0106  0080     E  	mov ra,a
 134  0107  0700     E  	mov a,rb
 134  0108  0080     R  	mov _VA1OS[0],a
 135  0109              #line 135 "c:\users\tech\desktop\codetector\OPAMP\OPAMP.c"
 135  0109  0F00        	mov a,0
 135  010A  0280     E  	subm a,ra
 135  010B  0700     E  	mov a,ra
 135  010C  0580     E  	orm a,rb
 135  010D  1800     E  	rla rb
 135  010E  0E01        	and a,1
 135  010F  00A6        	mov [38],a
 140  0110              #line 140 "c:\users\tech\desktop\codetector\OPAMP\OPAMP.c"
 140  0110  3725        	clr [37].6
 140  0111  0003        	ret
 140  0112              _OPAMPset endp
 140  0112              #line 140 "c:\users\tech\desktop\codetector\OPAMP\OPAMP.c"
 140  0112              #pragma debug scope 1 1
 140  0112              ___pas0 equ [76]
 140  0112              ___sdsw equ [32]
 140  0112              ___sdpgac0 equ [33]
 140  0112              ___sdpgac1 equ [34]
 140  0112              public _OPAMPInit
 140  0112              #pragma debug scope 3 1
 149  0112              #line 149 "c:\users\tech\desktop\codetector\OPAMP\OPAMP.c"
 149  0000              _OPAMPInit .section 'code'
 149  0000              _OPAMPInit proc
 153  0000              #line 153 "c:\users\tech\desktop\codetector\OPAMP\OPAMP.c"
 153  0000  314C        	set [76].2
 154  0001              #line 154 "c:\users\tech\desktop\codetector\OPAMP\OPAMP.c"
 154  0001  31CC        	set [76].3
 161  0002              #line 161 "c:\users\tech\desktop\codetector\OPAMP\OPAMP.c"
 161  0002  3420        	clr [32].0
 162  0003              #line 162 "c:\users\tech\desktop\codetector\OPAMP\OPAMP.c"
 162  0003  34A0        	clr [32].1
 163  0004              #line 163 "c:\users\tech\desktop\codetector\OPAMP\OPAMP.c"
 163  0004  3120        	set [32].2
 164  0005              #line 164 "c:\users\tech\desktop\codetector\OPAMP\OPAMP.c"
 164  0005  35A0        	clr [32].3
 165  0006              #line 165 "c:\users\tech\desktop\codetector\OPAMP\OPAMP.c"
 165  0006  3220        	set [32].4
 167  0007              #line 167 "c:\users\tech\desktop\codetector\OPAMP\OPAMP.c"
 167  0007  36A0        	clr [32].5
 168  0008              #line 168 "c:\users\tech\desktop\codetector\OPAMP\OPAMP.c"
 168  0008  3720        	clr [32].6
 170  0009              #line 170 "c:\users\tech\desktop\codetector\OPAMP\OPAMP.c"
 170  0009  37A4        	clr [36].7
 171  000A              #line 171 "c:\users\tech\desktop\codetector\OPAMP\OPAMP.c"
 171  000A  37A6        	clr [38].7
 174  000B              #line 174 "c:\users\tech\desktop\codetector\OPAMP\OPAMP.c"
 174  000B  0F01        	mov a,1
 174  000C  00A1        	mov [33],a
 179  000D              #line 179 "c:\users\tech\desktop\codetector\OPAMP\OPAMP.c"
"File: OPAMP.c       Assembler  Version HGASM0202      Page 9

 179  000D  0FC1        	mov a,193
 179  000E  00A2        	mov [34],a
 182  000F              #line 182 "c:\users\tech\desktop\codetector\OPAMP\OPAMP.c"
 182  000F  3423        	clr [35].0
 183  0010              #line 183 "c:\users\tech\desktop\codetector\OPAMP\OPAMP.c"
 183  0010  34A3        	clr [35].1
 186  0011              #line 186 "c:\users\tech\desktop\codetector\OPAMP\OPAMP.c"
 186  0011  3425        	clr [37].0
 187  0012              #line 187 "c:\users\tech\desktop\codetector\OPAMP\OPAMP.c"
 187  0012  34A5        	clr [37].1
 191  0013              #line 191 "c:\users\tech\desktop\codetector\OPAMP\OPAMP.c"
 191  0013  3323        	set [35].6
 194  0014              #line 194 "c:\users\tech\desktop\codetector\OPAMP\OPAMP.c"
 194  0014  37A4        	clr [36].7
 195  0015              #line 195 "c:\users\tech\desktop\codetector\OPAMP\OPAMP.c"
 195  0015  3724        	clr [36].6
 197  0016              #line 197 "c:\users\tech\desktop\codetector\OPAMP\OPAMP.c"
 197  0016  37A6        	clr [38].7
 198  0017              #line 198 "c:\users\tech\desktop\codetector\OPAMP\OPAMP.c"
 198  0017  3726        	clr [38].6
 203  0018              #line 203 "c:\users\tech\desktop\codetector\OPAMP\OPAMP.c"
 203  0018  3C00     R  	sz _FT
 203  0019  2800     R  	jmp _L42
 204  001A              #line 204 "c:\users\tech\desktop\codetector\OPAMP\OPAMP.c"
 204  001A  2000     R  	call _OPAMPset
 204  001B              _L42:
 204  001B  0003        	ret
 204  001C              _OPAMPInit endp
 204  001C              #line 204 "c:\users\tech\desktop\codetector\OPAMP\OPAMP.c"
 204  001C              #pragma debug scope 1 1

  11  001C              #line 11 "c:\users\tech\desktop\codetector\OPAMP\OPAMP.h"
  11  001C              public _opamp1
  11  0000              @BITDATASEC .section 'data'
  11  0000  00          _opamp1	dbit 0
  11  0001              #pragma debug variable 2 1 _opamp1 "opamp1"
  11  0001              
  11  0000              @HCCINIT .section 'data'
  11  0000              #line 11 "c:\users\tech\desktop\codetector\OPAMP\OPAMP.h"
  11  0000              public _opamp0
  11  0001              @BITDATASEC .section 'data'
  11  0000              _opamp0	dbit 0
  11  0001              #pragma debug variable 2 1 _opamp0 "opamp0"
  11  0001              
  11  0000              @HCCINIT .section 'data'
  10  0000              #line 10 "c:\users\tech\desktop\codetector\OPAMP\OPAMP.h"
  10  0000              public _VA1OS2
  10  0000              @HCCINIT0_VA1OS2 .section 'data'
  10  0000              _VA1OS2	db 0
  10  0001              #pragma debug variable 7 1 _VA1OS2 "VA1OS2"
  10  0001              
  10  0000              @HCCINIT .section 'data'
  10  0000              #line 10 "c:\users\tech\desktop\codetector\OPAMP\OPAMP.h"
  10  0000              public _VA1OS1
  10  0000              @HCCINIT0_VA1OS1 .section 'data'
  10  0000              _VA1OS1	db 0
  10  0001              #pragma debug variable 7 1 _VA1OS1 "VA1OS1"
  10  0001              
  10  0000              @HCCINIT .section 'data'
  10  0000              #line 10 "c:\users\tech\desktop\codetector\OPAMP\OPAMP.h"
"File: OPAMP.h       Assembler  Version HGASM0202      Page 10

  10  0000              public _VA1OS
  10  0000              @HCCINIT0_VA1OS .section 'data'
  10  0000              _VA1OS	db 0
  10  0001              #pragma debug variable 7 1 _VA1OS "VA1OS"
  10  0001              
  10  0000              @HCCINIT .section 'data'
   9  0000              #line 9 "c:\users\tech\desktop\codetector\OPAMP\OPAMP.h"
   9  0000              public _VA0OS2
   9  0000              @HCCINIT0_VA0OS2 .section 'data'
   9  0000              _VA0OS2	db 0
   9  0001              #pragma debug variable 7 1 _VA0OS2 "VA0OS2"
   9  0001              
   9  0000              @HCCINIT .section 'data'
   9  0000              #line 9 "c:\users\tech\desktop\codetector\OPAMP\OPAMP.h"
   9  0000              public _VA0OS1
   9  0000              @HCCINIT0_VA0OS1 .section 'data'
   9  0000              _VA0OS1	db 0
   9  0001              #pragma debug variable 7 1 _VA0OS1 "VA0OS1"
   9  0001              
   9  0000              @HCCINIT .section 'data'
   9  0000              #line 9 "c:\users\tech\desktop\codetector\OPAMP\OPAMP.h"
   9  0000              public _VA0OS
   9  0000              @HCCINIT0_VA0OS .section 'data'
   9  0000              _VA0OS	db 0
   9  0001              #pragma debug variable 7 1 _VA0OS "VA0OS"
   9  0001              
   9  0000              @HCCINIT .section 'data'
   8  0000              #line 8 "c:\users\tech\desktop\codetector\OPAMP\OPAMP.h"
   8  0000              public _V_op1
   8  0000              @HCCINIT0_V_op1 .section 'data'
   8  0000  0002[       _V_op1	db 2 dup(0)
            00
            ]
   8  0002              #pragma debug variable 11 1 _V_op1 "V_op1"
   8  0002              
   8  0000              @HCCINIT .section 'data'
   7  0000              #line 7 "c:\users\tech\desktop\codetector\OPAMP\OPAMP.h"
   7  0000              public _V_op0
   7  0000              @HCCINIT0_V_op0 .section 'data'
   7  0000  0002[       _V_op0	db 2 dup(0)
            00
            ]
   7  0002              #pragma debug variable 11 1 _V_op0 "V_op0"
   7  0002              
   7  0000              @HCCINIT .section 'data'
   7  0000              public _FT
   7  0000              @HCCINIT	.section 'data'
   6  0000              #line 6 "c:\users\tech\desktop\codetector\OPAMP\OPAMP.h"
   6  0001              @BITDATASEC .section 'data'
   6  0000              _FT	dbit 0
   6  0001              #pragma debug variable 2 1 _FT "FT"
   6  0001              #pragma debug struct_end
   6  0001              #pragma debug struct_end
   6  0001              #pragma debug union_end
   6  0001              #pragma debug union_end
   6  0001              #pragma debug variable 43 1 ___sdsw "__sdsw" 1
   6  0001              #pragma debug struct_end
   6  0001              #pragma debug struct_end
   6  0001              #pragma debug union_end
   6  0001              #pragma debug union_end
"File: OPAMP.h       Assembler  Version HGASM0202      Page 11

   6  0001              #pragma debug variable 45 1 ___sdpgac0 "__sdpgac0" 1
   6  0001              #pragma debug struct_end
   6  0001              #pragma debug struct_end
   6  0001              #pragma debug union_end
   6  0001              #pragma debug union_end
   6  0001              #pragma debug variable 47 1 ___sdpgac1 "__sdpgac1" 1
   6  0001              #pragma debug struct_end
   6  0001              #pragma debug struct_end
   6  0001              #pragma debug union_end
   6  0001              #pragma debug union_end
   6  0001              #pragma debug variable 49 1 ___sda0c "__sda0c" 1
   6  0001              #pragma debug struct_end
   6  0001              #pragma debug struct_end
   6  0001              #pragma debug union_end
   6  0001              #pragma debug union_end
   6  0001              #pragma debug variable 51 1 ___sda0vos "__sda0vos" 1
   6  0001              #pragma debug struct_end
   6  0001              #pragma debug struct_end
   6  0001              #pragma debug union_end
   6  0001              #pragma debug union_end
   6  0001              #pragma debug variable 53 1 ___sda1c "__sda1c" 1
   6  0001              #pragma debug struct_end
   6  0001              #pragma debug struct_end
   6  0001              #pragma debug union_end
   6  0001              #pragma debug union_end
   6  0001              #pragma debug variable 55 1 ___sda1vos "__sda1vos" 1
   6  0001              #pragma debug struct_end
   6  0001              #pragma debug struct_end
   6  0001              #pragma debug union_end
   6  0001              #pragma debug union_end
   6  0001              #pragma debug variable 57 1 ___pas0 "__pas0" 1
   6  0001              
   6  0001              ; 
   6  0001              ; Generated by holtek-gcc v3.19, Mon Oct 09 18:01:45 2023
   6  0001              ; Rebuild 718
   6  0001              ; end of file


        0 Errors, 0