"File: SevenSegment3DigitComplex.c  Assembler  Version HGASM0202      Page 1


   1  0000              ; Generated by holtek-gcc v3.19, Mon Oct 09 19:17:30 2023
   2  0000              ; 
   3  0000              ; Configuration:
   4  0000              ;       with long instruction
   5  0000              ;       Single ROM, Multi-RAM
   6  0000              ;       bits_per_rom_unit:16
   7  0000              ;       with mp1
   8  0000              ;       with tbhp, address(0x9)
   9  0000              ;          Use tabrd-const
  10  0000              ;       
  11  0000              ; SFR address of long-instruction arch:
  12  0000              ;    mp0 = -1,1,0
  13  0000              ;    mp1 = 4,3,2
  14  0000              ;    mp2 = 14,13,12
  15  0000              ;    tbp = 9,7,8
  16  0000              ;    acc = 5
  17  0000              ;    pcl = 6
  18  0000              ;    status = 10
  19  0000              ;    bp = 11
  20  0000              ;    intc = 72
  21  0000              ;       
  22  0000              ;       
  23  0000              ; use 'tabrdc' instead of 'tabrd'
  24  0000              ;       
  25  0000              
  26  0000              #pragma translator "holtek-gcc 4.6.4" "3.19" "build 20130711"
  27  0000              ; Rebuild 718
  28  0000              
  29  0000              ir equ [2]
  30  0000              mp equ [3]
  31  0000              sbp equ [4]
  32  0000              acc equ [5]
  33  0000              bp equ [11]
  34  0000              tblp equ [7]
  35  0000              tbhp equ [9]
  36  0000              status equ [10]
  37  0000              c equ [10].0
  38  0000              ac equ [10].1
  39  0000              z equ [10].2
  40  0000              ov equ [10].3
  41  0000              cz equ [10].6
  42  0000              sc equ [10].7
  43  0000              intc equ [72]
  44  0000              
  45  0000              extern ra:byte
  46  0000              extern rb:byte
  47  0000              extern rc:byte
  48  0000              extern rd:byte
  49  0000              extern re:byte
  50  0000              extern rf:byte
  51  0000              extern rg:byte
  52  0000              extern rh:byte
  53  0000              extern _Crom2Prom:near
  54  0000              extern _Crom2PromNext:near
  55  0000              
  56  0000              RAMBANK 0 @BITDATASEC, @BITDATASEC1
  57  0000              @HCCINIT	.section 'data'
  58  0000              @HCCINIT0	.section 'data'
  59  0000              @BITDATASEC	 .section 'data'
"File: SevenSegment3DigitComplex.ASM  Assembler  Version HGASM0202      Page 2

  60  0000              @BITDATASEC1	 .section 'data'
  61  0000              
  62  0000              #pragma debug scope 1 1
  63  0000              	extern __DELAY3:near
  64  0000              	extern __DELAYX3:near
  65  0000              	extern __DELAYX6:near
  66  0000              	extern __DELAYY5:near
  67  0000              	extern __DELAYY3:near
  68  0000              	extern _builtin_holtek_delay_2:byte
  69  0000              public _errorSeg
  70  0000              #pragma debug scope 2 1

   7  0000              #line 7 "c:\users\tech\desktop\codetector\sevenSegment3DigitComplex\SevenSegment3DigitComplex.c"
   7  0000              _errorSeg .section 'code'
   7  0000              _errorSeg proc
   7  0000  0003        	ret
   7  0001              _errorSeg endp
   7  0001              #line 7 "c:\users\tech\desktop\codetector\sevenSegment3DigitComplex\SevenSegment3DigitComplex.c"
   7  0001              #pragma debug scope 1 1
   7  0001              public _error1Seg
   7  0001              #pragma debug scope 3 1
  47  0001              #line 47 "c:\users\tech\desktop\codetector\sevenSegment3DigitComplex\SevenSegment3DigitComplex.c"
  47  0000              _error1Seg .section 'code'
  47  0000              _error1Seg proc
  47  0000  0003        	ret
  47  0001              _error1Seg endp
  47  0001              #line 47 "c:\users\tech\desktop\codetector\sevenSegment3DigitComplex\SevenSegment3DigitComplex.c"
  47  0001              #pragma debug scope 1 1
  47  0001              ___pbc equ [25]
  47  0001              ___pac equ [21]
  47  0001              ___pb equ [24]
  47  0001              ___pa equ [20]
  47  0001              public _sevenDigit1
  47  0001              #pragma debug scope 4 1
 603  0001              #line 603 "c:\users\tech\desktop\codetector\sevenSegment3DigitComplex\SevenSegment3DigitComplex.c"
 603  0000              _sevenDigit1 .section 'code'
 603  0000              _sevenDigit1 proc
 606  0000              #line 606 "c:\users\tech\desktop\codetector\sevenSegment3DigitComplex\SevenSegment3DigitComplex.c"
 606  0000  3499        	clr [25].1
 607  0001              #line 607 "c:\users\tech\desktop\codetector\sevenSegment3DigitComplex\SevenSegment3DigitComplex.c"
 607  0001  3519        	clr [25].2
 608  0002              #line 608 "c:\users\tech\desktop\codetector\sevenSegment3DigitComplex\SevenSegment3DigitComplex.c"
 608  0002  3615        	clr [21].4
 609  0003              #line 609 "c:\users\tech\desktop\codetector\sevenSegment3DigitComplex\SevenSegment3DigitComplex.c"
 609  0003  3415        	clr [21].0
 610  0004              #line 610 "c:\users\tech\desktop\codetector\sevenSegment3DigitComplex\SevenSegment3DigitComplex.c"
 610  0004  3518        	clr [24].2
 611  0005              #line 611 "c:\users\tech\desktop\codetector\sevenSegment3DigitComplex\SevenSegment3DigitComplex.c"
 611  0005  3098        	set [24].1
 612  0006              #line 612 "c:\users\tech\desktop\codetector\sevenSegment3DigitComplex\SevenSegment3DigitComplex.c"
 612  0006  3214        	set [20].4
 613  0007              #line 613 "c:\users\tech\desktop\codetector\sevenSegment3DigitComplex\SevenSegment3DigitComplex.c"
 613  0007  3014        	set [20].0
 613  0008  0003        	ret
 613  0009              _sevenDigit1 endp
 613  0009              #line 613 "c:\users\tech\desktop\codetector\sevenSegment3DigitComplex\SevenSegment3DigitComplex.c"
 613  0009              #pragma debug scope 1 1
 613  0009              public _sevenDigit2
 613  0009              #pragma debug scope 5 1
 618  0009              #line 618 "c:\users\tech\desktop\codetector\sevenSegment3DigitComplex\SevenSegment3DigitComplex.c"
"File: SevenSegment3DigitComplex.c  Assembler  Version HGASM0202      Page 3

 618  0000              _sevenDigit2 .section 'code'
 618  0000              _sevenDigit2 proc
 622  0000              #line 622 "c:\users\tech\desktop\codetector\sevenSegment3DigitComplex\SevenSegment3DigitComplex.c"
 622  0000  3519        	clr [25].2
 623  0001              #line 623 "c:\users\tech\desktop\codetector\sevenSegment3DigitComplex\SevenSegment3DigitComplex.c"
 623  0001  3499        	clr [25].1
 624  0002              #line 624 "c:\users\tech\desktop\codetector\sevenSegment3DigitComplex\SevenSegment3DigitComplex.c"
 624  0002  3615        	clr [21].4
 625  0003              #line 625 "c:\users\tech\desktop\codetector\sevenSegment3DigitComplex\SevenSegment3DigitComplex.c"
 625  0003  3415        	clr [21].0
 627  0004              #line 627 "c:\users\tech\desktop\codetector\sevenSegment3DigitComplex\SevenSegment3DigitComplex.c"
 627  0004  3118        	set [24].2
 628  0005              #line 628 "c:\users\tech\desktop\codetector\sevenSegment3DigitComplex\SevenSegment3DigitComplex.c"
 628  0005  3498        	clr [24].1
 629  0006              #line 629 "c:\users\tech\desktop\codetector\sevenSegment3DigitComplex\SevenSegment3DigitComplex.c"
 629  0006  3614        	clr [20].4
 630  0007              #line 630 "c:\users\tech\desktop\codetector\sevenSegment3DigitComplex\SevenSegment3DigitComplex.c"
 630  0007  3414        	clr [20].0
 630  0008  0003        	ret
 630  0009              _sevenDigit2 endp
 630  0009              #line 630 "c:\users\tech\desktop\codetector\sevenSegment3DigitComplex\SevenSegment3DigitComplex.c"
 630  0009              #pragma debug scope 1 1
 630  0009              public _sevenDigit3
 630  0009              #pragma debug scope 6 1
 633  0009              #line 633 "c:\users\tech\desktop\codetector\sevenSegment3DigitComplex\SevenSegment3DigitComplex.c"
 633  0000              _sevenDigit3 .section 'code'
 633  0000              _sevenDigit3 proc
 637  0000              #line 637 "c:\users\tech\desktop\codetector\sevenSegment3DigitComplex\SevenSegment3DigitComplex.c"
 637  0000  3499        	clr [25].1
 638  0001              #line 638 "c:\users\tech\desktop\codetector\sevenSegment3DigitComplex\SevenSegment3DigitComplex.c"
 638  0001  3615        	clr [21].4
 639  0002              #line 639 "c:\users\tech\desktop\codetector\sevenSegment3DigitComplex\SevenSegment3DigitComplex.c"
 639  0002  3415        	clr [21].0
 640  0003              #line 640 "c:\users\tech\desktop\codetector\sevenSegment3DigitComplex\SevenSegment3DigitComplex.c"
 640  0003  3515        	clr [21].2
 641  0004              #line 641 "c:\users\tech\desktop\codetector\sevenSegment3DigitComplex\SevenSegment3DigitComplex.c"
 641  0004  3098        	set [24].1
 642  0005              #line 642 "c:\users\tech\desktop\codetector\sevenSegment3DigitComplex\SevenSegment3DigitComplex.c"
 642  0005  3614        	clr [20].4
 643  0006              #line 643 "c:\users\tech\desktop\codetector\sevenSegment3DigitComplex\SevenSegment3DigitComplex.c"
 643  0006  3414        	clr [20].0
 644  0007              #line 644 "c:\users\tech\desktop\codetector\sevenSegment3DigitComplex\SevenSegment3DigitComplex.c"
 644  0007  3514        	clr [20].2
 644  0008  0003        	ret
 644  0009              _sevenDigit3 endp
 644  0009              #line 644 "c:\users\tech\desktop\codetector\sevenSegment3DigitComplex\SevenSegment3DigitComplex.c"
 644  0009              #pragma debug scope 1 1
 644  0009              public _length
 644  0009              #pragma debug scope 7 1
 832  0009              #line 832 "c:\users\tech\desktop\codetector\sevenSegment3DigitComplex\SevenSegment3DigitComplex.c"
 832  0000              _length .section 'code'
 832  0000              _length proc
 832  0000              public _length_2
 832  0000  0002[           local _length_2 db 2 dup(?)	; 2,0
            00
            ]
 832  0002              #pragma debug variable 11 7 _length_2+0 "number"
 833  0002              #line 833 "c:\users\tech\desktop\codetector\sevenSegment3DigitComplex\SevenSegment3DigitComplex.c"
 833  0000  1F00     E  	clr ra
 833  0001  1F00     E  	clr rb
"File: SevenSegment3DigitComplex.c  Assembler  Version HGASM0202      Page 4

 834  0002              #line 834 "c:\users\tech\desktop\codetector\sevenSegment3DigitComplex\SevenSegment3DigitComplex.c"
 834  0002  2800     R  	jmp _L7
 834  0003              _L8:
 836  0003              #line 836 "c:\users\tech\desktop\codetector\sevenSegment3DigitComplex\SevenSegment3DigitComplex.c"
 836  0003  0700     R  	mov a,_length_2[0]
 836  0004  0080     E  	mov _builtin_holtek_udivmodhi4_2[0],a
 836  0005  0700     R  	mov a,_length_2[1]
 836  0006  0080     E  	mov _builtin_holtek_udivmodhi4_2[1],a
 836  0007  0F0A        	mov a,10
 836  0008  0080     E  	mov _builtin_holtek_udivmodhi4_2[2],a
 836  0009  0F00        	mov a,0
 836  000A  0080     E  	mov _builtin_holtek_udivmodhi4_2[3],a
 836  000B  2000     E  	call _builtin_holtek_divmodhi4
 836  000C  0700     E  	mov a,_builtin_holtek_udivmodhi4_2[0]
 836  000D  0080     R  	mov _length_2[0],a
 836  000E  0700     E  	mov a,_builtin_holtek_udivmodhi4_2[1]
 836  000F  0080     R  	mov _length_2[1],a
 837  0010              #line 837 "c:\users\tech\desktop\codetector\sevenSegment3DigitComplex\SevenSegment3DigitComplex.c"
 837  0010  1480     E  	inc ra
 837  0011  3D0A        	sz z
 837  0012  1480     E  	inc rb
 837  0013              _L7:
 834  0013              #line 834 "c:\users\tech\desktop\codetector\sevenSegment3DigitComplex\SevenSegment3DigitComplex.c"
 834  0013  0700     R  	mov a,_length_2[0]
 834  0014  0500     R  	or a,_length_2[1]
 834  0015  390A        	snz z
 834  0016  2800     R  	jmp _L8
 834  0017  0003        	ret
 834  0018              _length endp
 834  0018              #line 834 "c:\users\tech\desktop\codetector\sevenSegment3DigitComplex\SevenSegment3DigitComplex.c"
 834  0018              #pragma debug scope 1 1
 834  0018              public _clearSegment
 834  0018              #pragma debug scope 8 1
 972  0018              #line 972 "c:\users\tech\desktop\codetector\sevenSegment3DigitComplex\SevenSegment3DigitComplex.c"
 972  0000              _clearSegment .section 'code'
 972  0000              _clearSegment proc
 974  0000              #line 974 "c:\users\tech\desktop\codetector\sevenSegment3DigitComplex\SevenSegment3DigitComplex.c"
 974  0000  3119        	set [25].2
 975  0001              #line 975 "c:\users\tech\desktop\codetector\sevenSegment3DigitComplex\SevenSegment3DigitComplex.c"
 975  0001  3099        	set [25].1
 976  0002              #line 976 "c:\users\tech\desktop\codetector\sevenSegment3DigitComplex\SevenSegment3DigitComplex.c"
 976  0002  3215        	set [21].4
 977  0003              #line 977 "c:\users\tech\desktop\codetector\sevenSegment3DigitComplex\SevenSegment3DigitComplex.c"
 977  0003  3015        	set [21].0
 978  0004              #line 978 "c:\users\tech\desktop\codetector\sevenSegment3DigitComplex\SevenSegment3DigitComplex.c"
 978  0004  3115        	set [21].2
 979  0005              #line 979 "c:\users\tech\desktop\codetector\sevenSegment3DigitComplex\SevenSegment3DigitComplex.c"
 979  0005  3199        	set [25].3
 979  0006  0003        	ret
 979  0007              _clearSegment endp
 979  0007              #line 979 "c:\users\tech\desktop\codetector\sevenSegment3DigitComplex\SevenSegment3DigitComplex.c"
 979  0007              #pragma debug scope 1 1
 979  0007              public _ziroDigit1
 979  0007              #pragma debug scope 9 1
  94  0007              #line 94 "c:\users\tech\desktop\codetector\sevenSegment3DigitComplex\SevenSegment3DigitComplex.c"
  94  0000              _ziroDigit1 .section 'code'
  94  0000              _ziroDigit1 proc
 101  0000              #line 101 "c:\users\tech\desktop\codetector\sevenSegment3DigitComplex\SevenSegment3DigitComplex.c"
 101  0000  3519        	clr [25].2
 102  0001              #line 102 "c:\users\tech\desktop\codetector\sevenSegment3DigitComplex\SevenSegment3DigitComplex.c"
"File: SevenSegment3DigitComplex.c  Assembler  Version HGASM0202      Page 5

 102  0001  3499        	clr [25].1
 103  0002              #line 103 "c:\users\tech\desktop\codetector\sevenSegment3DigitComplex\SevenSegment3DigitComplex.c"
 103  0002  3615        	clr [21].4
 104  0003              #line 104 "c:\users\tech\desktop\codetector\sevenSegment3DigitComplex\SevenSegment3DigitComplex.c"
 104  0003  3415        	clr [21].0
 105  0004              #line 105 "c:\users\tech\desktop\codetector\sevenSegment3DigitComplex\SevenSegment3DigitComplex.c"
 105  0004  3515        	clr [21].2
 106  0005              #line 106 "c:\users\tech\desktop\codetector\sevenSegment3DigitComplex\SevenSegment3DigitComplex.c"
 106  0005  3599        	clr [25].3
 107  0006              #line 107 "c:\users\tech\desktop\codetector\sevenSegment3DigitComplex\SevenSegment3DigitComplex.c"
 107  0006  3518        	clr [24].2
 108  0007              #line 108 "c:\users\tech\desktop\codetector\sevenSegment3DigitComplex\SevenSegment3DigitComplex.c"
 108  0007  3098        	set [24].1
 109  0008              #line 109 "c:\users\tech\desktop\codetector\sevenSegment3DigitComplex\SevenSegment3DigitComplex.c"
 109  0008  3214        	set [20].4
 110  0009              #line 110 "c:\users\tech\desktop\codetector\sevenSegment3DigitComplex\SevenSegment3DigitComplex.c"
 110  0009  3014        	set [20].0
 111  000A              #line 111 "c:\users\tech\desktop\codetector\sevenSegment3DigitComplex\SevenSegment3DigitComplex.c"
 111  000A  3114        	set [20].2
 112  000B              #line 112 "c:\users\tech\desktop\codetector\sevenSegment3DigitComplex\SevenSegment3DigitComplex.c"
 112  000B  3198        	set [24].3
 114  000C              #line 114 "c:\users\tech\desktop\codetector\sevenSegment3DigitComplex\SevenSegment3DigitComplex.c"
 114  000C              ;# 114 "c:\users\tech\desktop\codetector\sevenSegment3DigitComplex\SevenSegment3DigitComplex.c" 1
 114  000C              	IF 1000>263690
 114  000C              ;# 114 "c:\users\tech\desktop\codetector\sevenSegment3DigitComplex\SevenSegment3DigitComplex.c" 1
 114  000C              	ERRMESSAGE 'the value 1000of the argument exceeds the maxinum 263690'
 114  000C              	ENDIF
 114  000C              ;# 114 "c:\users\tech\desktop\codetector\sevenSegment3DigitComplex\SevenSegment3DigitComplex.c" 1
 114  000C              	IF 1000<0
 114  000C              ;# 114 "c:\users\tech\desktop\codetector\sevenSegment3DigitComplex\SevenSegment3DigitComplex.c" 1
 114  000C              	ERRMESSAGE 'the value 1000 of the argument exceeds the mininum 0'
 114  000C              	ENDIF
 114  000C              ;# 114 "c:\users\tech\desktop\codetector\sevenSegment3DigitComplex\SevenSegment3DigitComplex.c" 1
 114  000C              	IF 1000==0
 114  000C              ;# 114 "c:\users\tech\desktop\codetector\sevenSegment3DigitComplex\SevenSegment3DigitComplex.c" 1
 114  000C              	JMP $
 114  000C              	ENDIF
 114  000C              ;# 114 "c:\users\tech\desktop\codetector\sevenSegment3DigitComplex\SevenSegment3DigitComplex.c" 1
 114  000C              	IF 1000==1
 114  000C              ;# 114 "c:\users\tech\desktop\codetector\sevenSegment3DigitComplex\SevenSegment3DigitComplex.c" 1
 114  000C              	NOP
 114  000C              	ENDIF
 114  000C              ;# 114 "c:\users\tech\desktop\codetector\sevenSegment3DigitComplex\SevenSegment3DigitComplex.c" 1
 114  000C              	IF 1000==2
 114  000C              ;# 114 "c:\users\tech\desktop\codetector\sevenSegment3DigitComplex\SevenSegment3DigitComplex.c" 1
 114  000C              	NOP
 114  000C              ;# 114 "c:\users\tech\desktop\codetector\sevenSegment3DigitComplex\SevenSegment3DigitComplex.c" 1
 114  000C              	NOP
 114  000C              	ENDIF
 114  000C              ;# 114 "c:\users\tech\desktop\codetector\sevenSegment3DigitComplex\SevenSegment3DigitComplex.c" 1
 114  000C              	IF 1000==3
 114  000C              ;# 114 "c:\users\tech\desktop\codetector\sevenSegment3DigitComplex\SevenSegment3DigitComplex.c" 1
 114  000C              	NOP
 114  000C              ;# 114 "c:\users\tech\desktop\codetector\sevenSegment3DigitComplex\SevenSegment3DigitComplex.c" 1
 114  000C              	NOP
 114  000C              ;# 114 "c:\users\tech\desktop\codetector\sevenSegment3DigitComplex\SevenSegment3DigitComplex.c" 1
 114  000C              	NOP
 114  000C              	ENDIF
 114  000C              ;# 114 "c:\users\tech\desktop\codetector\sevenSegment3DigitComplex\SevenSegment3DigitComplex.c" 1
 114  000C              	IF (1000<8) AND (1000>3)
"File: SevenSegment3DigitComplex.c  Assembler  Version HGASM0202      Page 6

 114  000C              ;# 114 "c:\users\tech\desktop\codetector\sevenSegment3DigitComplex\SevenSegment3DigitComplex.c" 1
 114  000C              	CALL __DELAY3 + 7 -1000
 114  000C              	ENDIF
 114  000C              ;# 114 "c:\users\tech\desktop\codetector\sevenSegment3DigitComplex\SevenSegment3DigitComplex.c" 1
 114  000C              	IF (1000< 0404h) AND (1000>7)
 114  000C              ;# 114 "c:\users\tech\desktop\codetector\sevenSegment3DigitComplex\SevenSegment3DigitComplex.c" 1
 114  000C  0FF9        	MOV A,1000/4-1
 114  000D              ;# 114 "c:\users\tech\desktop\codetector\sevenSegment3DigitComplex\SevenSegment3DigitComplex.c" 1
 114  000D  2000     E  	CALL __DELAYX3 + 3 -(1000 MOD 4)
 114  000E              	ENDIF
 114  000E              ;# 114 "c:\users\tech\desktop\codetector\sevenSegment3DigitComplex\SevenSegment3DigitComplex.c" 1
 114  000E              	IF (1000< 0x40B) AND (1000> 0403h)
 114  000E              ;# 114 "c:\users\tech\desktop\codetector\sevenSegment3DigitComplex\SevenSegment3DigitComplex.c" 1
 114  000E              	MOV A,0 
 114  000E              ;# 114 "c:\users\tech\desktop\codetector\sevenSegment3DigitComplex\SevenSegment3DigitComplex.c" 1
 114  000E              	CALL __DELAYX6 + 0x40a -1000
 114  000E              	ENDIF
 114  000E              ;# 114 "c:\users\tech\desktop\codetector\sevenSegment3DigitComplex\SevenSegment3DigitComplex.c" 1
 114  000E              	IF (1000 >= 0x40b) AND ((((1000-9)%0402h)/4+1)>256)
 114  000E              ;# 114 "c:\users\tech\desktop\codetector\sevenSegment3DigitComplex\SevenSegment3DigitComplex.c" 1
 114  000E              	MOV A,(1000-9)/0402h
 114  000E              ;# 114 "c:\users\tech\desktop\codetector\sevenSegment3DigitComplex\SevenSegment3DigitComplex.c" 1
 114  000E              	MOV _builtin_holtek_delay_2,A
 114  000E              ;# 114 "c:\users\tech\desktop\codetector\sevenSegment3DigitComplex\SevenSegment3DigitComplex.c" 1
 114  000E              	MOV A,0
 114  000E              ;# 114 "c:\users\tech\desktop\codetector\sevenSegment3DigitComplex\SevenSegment3DigitComplex.c" 1
 114  000E              	CALL __DELAYY5 +5- (((1000-9)%0402h)%6)
 114  000E              	ENDIF
 114  000E              ;# 114 "c:\users\tech\desktop\codetector\sevenSegment3DigitComplex\SevenSegment3DigitComplex.c" 1
 114  000E              	IF (1000 >= 0x40b) AND ((((1000-9)%0402h)/4+1)<=256)
 114  000E              ;# 114 "c:\users\tech\desktop\codetector\sevenSegment3DigitComplex\SevenSegment3DigitComplex.c" 1
 114  000E              	MOV A,(1000-9)/0402h
 114  000E              ;# 114 "c:\users\tech\desktop\codetector\sevenSegment3DigitComplex\SevenSegment3DigitComplex.c" 1
 114  000E              	MOV _builtin_holtek_delay_2,A
 114  000E              ;# 114 "c:\users\tech\desktop\codetector\sevenSegment3DigitComplex\SevenSegment3DigitComplex.c" 1
 114  000E              	MOV A,((1000-9)%0402h)/4+1
 114  000E              ;# 114 "c:\users\tech\desktop\codetector\sevenSegment3DigitComplex\SevenSegment3DigitComplex.c" 1
 114  000E              	CALL __DELAYY3 +3-(((1000-9)%0402h)%4)
 114  000E              	ENDIF
 115  000E              #line 115 "c:\users\tech\desktop\codetector\sevenSegment3DigitComplex\SevenSegment3DigitComplex.c"
 115  000E  2000     R  	call _clearSegment
 116  000F              #line 116 "c:\users\tech\desktop\codetector\sevenSegment3DigitComplex\SevenSegment3DigitComplex.c"
 116  000F  3415        	clr [21].0
 117  0010              #line 117 "c:\users\tech\desktop\codetector\sevenSegment3DigitComplex\SevenSegment3DigitComplex.c"
 117  0010  3499        	clr [25].1
 118  0011              #line 118 "c:\users\tech\desktop\codetector\sevenSegment3DigitComplex\SevenSegment3DigitComplex.c"
 118  0011  3414        	clr [20].0
 119  0012              #line 119 "c:\users\tech\desktop\codetector\sevenSegment3DigitComplex\SevenSegment3DigitComplex.c"
 119  0012  3498        	clr [24].1
 120  0013              #line 120 "c:\users\tech\desktop\codetector\sevenSegment3DigitComplex\SevenSegment3DigitComplex.c"
 120  0013              ;# 120 "c:\users\tech\desktop\codetector\sevenSegment3DigitComplex\SevenSegment3DigitComplex.c" 1
 120  0013              	IF 1000>263690
 120  0013              ;# 120 "c:\users\tech\desktop\codetector\sevenSegment3DigitComplex\SevenSegment3DigitComplex.c" 1
 120  0013              	ERRMESSAGE 'the value 1000of the argument exceeds the maxinum 263690'
 120  0013              	ENDIF
 120  0013              ;# 120 "c:\users\tech\desktop\codetector\sevenSegment3DigitComplex\SevenSegment3DigitComplex.c" 1
 120  0013              	IF 1000<0
 120  0013              ;# 120 "c:\users\tech\desktop\codetector\sevenSegment3DigitComplex\SevenSegment3DigitComplex.c" 1
 120  0013              	ERRMESSAGE 'the value 1000 of the argument exceeds the mininum 0'
 120  0013              	ENDIF
"File: SevenSegment3DigitComplex.c  Assembler  Version HGASM0202      Page 7

 120  0013              ;# 120 "c:\users\tech\desktop\codetector\sevenSegment3DigitComplex\SevenSegment3DigitComplex.c" 1
 120  0013              	IF 1000==0
 120  0013              ;# 120 "c:\users\tech\desktop\codetector\sevenSegment3DigitComplex\SevenSegment3DigitComplex.c" 1
 120  0013              	JMP $
 120  0013              	ENDIF
 120  0013              ;# 120 "c:\users\tech\desktop\codetector\sevenSegment3DigitComplex\SevenSegment3DigitComplex.c" 1
 120  0013              	IF 1000==1
 120  0013              ;# 120 "c:\users\tech\desktop\codetector\sevenSegment3DigitComplex\SevenSegment3DigitComplex.c" 1
 120  0013              	NOP
 120  0013              	ENDIF
 120  0013              ;# 120 "c:\users\tech\desktop\codetector\sevenSegment3DigitComplex\SevenSegment3DigitComplex.c" 1
 120  0013              	IF 1000==2
 120  0013              ;# 120 "c:\users\tech\desktop\codetector\sevenSegment3DigitComplex\SevenSegment3DigitComplex.c" 1
 120  0013              	NOP
 120  0013              ;# 120 "c:\users\tech\desktop\codetector\sevenSegment3DigitComplex\SevenSegment3DigitComplex.c" 1
 120  0013              	NOP
 120  0013              	ENDIF
 120  0013              ;# 120 "c:\users\tech\desktop\codetector\sevenSegment3DigitComplex\SevenSegment3DigitComplex.c" 1
 120  0013              	IF 1000==3
 120  0013              ;# 120 "c:\users\tech\desktop\codetector\sevenSegment3DigitComplex\SevenSegment3DigitComplex.c" 1
 120  0013              	NOP
 120  0013              ;# 120 "c:\users\tech\desktop\codetector\sevenSegment3DigitComplex\SevenSegment3DigitComplex.c" 1
 120  0013              	NOP
 120  0013              ;# 120 "c:\users\tech\desktop\codetector\sevenSegment3DigitComplex\SevenSegment3DigitComplex.c" 1
 120  0013              	NOP
 120  0013              	ENDIF
 120  0013              ;# 120 "c:\users\tech\desktop\codetector\sevenSegment3DigitComplex\SevenSegment3DigitComplex.c" 1
 120  0013              	IF (1000<8) AND (1000>3)
 120  0013              ;# 120 "c:\users\tech\desktop\codetector\sevenSegment3DigitComplex\SevenSegment3DigitComplex.c" 1
 120  0013              	CALL __DELAY3 + 7 -1000
 120  0013              	ENDIF
 120  0013              ;# 120 "c:\users\tech\desktop\codetector\sevenSegment3DigitComplex\SevenSegment3DigitComplex.c" 1
 120  0013              	IF (1000< 0404h) AND (1000>7)
 120  0013              ;# 120 "c:\users\tech\desktop\codetector\sevenSegment3DigitComplex\SevenSegment3DigitComplex.c" 1
 120  0013  0FF9        	MOV A,1000/4-1
 120  0014              ;# 120 "c:\users\tech\desktop\codetector\sevenSegment3DigitComplex\SevenSegment3DigitComplex.c" 1
 120  0014  2000     E  	CALL __DELAYX3 + 3 -(1000 MOD 4)
 120  0015              	ENDIF
 120  0015              ;# 120 "c:\users\tech\desktop\codetector\sevenSegment3DigitComplex\SevenSegment3DigitComplex.c" 1
 120  0015              	IF (1000< 0x40B) AND (1000> 0403h)
 120  0015              ;# 120 "c:\users\tech\desktop\codetector\sevenSegment3DigitComplex\SevenSegment3DigitComplex.c" 1
 120  0015              	MOV A,0 
 120  0015              ;# 120 "c:\users\tech\desktop\codetector\sevenSegment3DigitComplex\SevenSegment3DigitComplex.c" 1
 120  0015              	CALL __DELAYX6 + 0x40a -1000
 120  0015              	ENDIF
 120  0015              ;# 120 "c:\users\tech\desktop\codetector\sevenSegment3DigitComplex\SevenSegment3DigitComplex.c" 1
 120  0015              	IF (1000 >= 0x40b) AND ((((1000-9)%0402h)/4+1)>256)
 120  0015              ;# 120 "c:\users\tech\desktop\codetector\sevenSegment3DigitComplex\SevenSegment3DigitComplex.c" 1
 120  0015              	MOV A,(1000-9)/0402h
 120  0015              ;# 120 "c:\users\tech\desktop\codetector\sevenSegment3DigitComplex\SevenSegment3DigitComplex.c" 1
 120  0015              	MOV _builtin_holtek_delay_2,A
 120  0015              ;# 120 "c:\users\tech\desktop\codetector\sevenSegment3DigitComplex\SevenSegment3DigitComplex.c" 1
 120  0015              	MOV A,0
 120  0015              ;# 120 "c:\users\tech\desktop\codetector\sevenSegment3DigitComplex\SevenSegment3DigitComplex.c" 1
 120  0015              	CALL __DELAYY5 +5- (((1000-9)%0402h)%6)
 120  0015              	ENDIF
 120  0015              ;# 120 "c:\users\tech\desktop\codetector\sevenSegment3DigitComplex\SevenSegment3DigitComplex.c" 1
 120  0015              	IF (1000 >= 0x40b) AND ((((1000-9)%0402h)/4+1)<=256)
 120  0015              ;# 120 "c:\users\tech\desktop\codetector\sevenSegment3DigitComplex\SevenSegment3DigitComplex.c" 1
 120  0015              	MOV A,(1000-9)/0402h
"File: SevenSegment3DigitComplex.c  Assembler  Version HGASM0202      Page 8

 120  0015              ;# 120 "c:\users\tech\desktop\codetector\sevenSegment3DigitComplex\SevenSegment3DigitComplex.c" 1
 120  0015              	MOV _builtin_holtek_delay_2,A
 120  0015              ;# 120 "c:\users\tech\desktop\codetector\sevenSegment3DigitComplex\SevenSegment3DigitComplex.c" 1
 120  0015              	MOV A,((1000-9)%0402h)/4+1
 120  0015              ;# 120 "c:\users\tech\desktop\codetector\sevenSegment3DigitComplex\SevenSegment3DigitComplex.c" 1
 120  0015              	CALL __DELAYY3 +3-(((1000-9)%0402h)%4)
 120  0015              	ENDIF
 122  0015              #line 122 "c:\users\tech\desktop\codetector\sevenSegment3DigitComplex\SevenSegment3DigitComplex.c"
 122  0015  2000     R  	call _clearSegment
 123  0016              #line 123 "c:\users\tech\desktop\codetector\sevenSegment3DigitComplex\SevenSegment3DigitComplex.c"
 123  0016  3499        	clr [25].1
 124  0017              #line 124 "c:\users\tech\desktop\codetector\sevenSegment3DigitComplex\SevenSegment3DigitComplex.c"
 124  0017  3615        	clr [21].4
 125  0018              #line 125 "c:\users\tech\desktop\codetector\sevenSegment3DigitComplex\SevenSegment3DigitComplex.c"
 125  0018  3498        	clr [24].1
 126  0019              #line 126 "c:\users\tech\desktop\codetector\sevenSegment3DigitComplex\SevenSegment3DigitComplex.c"
 126  0019  3214        	set [20].4
 126  001A  0003        	ret
 126  001B              _ziroDigit1 endp
 126  001B              #line 126 "c:\users\tech\desktop\codetector\sevenSegment3DigitComplex\SevenSegment3DigitComplex.c"
 126  001B              #pragma debug scope 1 1
 126  001B              public _ziroDigit2
 126  001B              #pragma debug scope 10 1
 130  001B              #line 130 "c:\users\tech\desktop\codetector\sevenSegment3DigitComplex\SevenSegment3DigitComplex.c"
 130  0000              _ziroDigit2 .section 'code'
 130  0000              _ziroDigit2 proc
 135  0000              #line 135 "c:\users\tech\desktop\codetector\sevenSegment3DigitComplex\SevenSegment3DigitComplex.c"
 135  0000  3519        	clr [25].2
 136  0001              #line 136 "c:\users\tech\desktop\codetector\sevenSegment3DigitComplex\SevenSegment3DigitComplex.c"
 136  0001  3499        	clr [25].1
 137  0002              #line 137 "c:\users\tech\desktop\codetector\sevenSegment3DigitComplex\SevenSegment3DigitComplex.c"
 137  0002  3615        	clr [21].4
 138  0003              #line 138 "c:\users\tech\desktop\codetector\sevenSegment3DigitComplex\SevenSegment3DigitComplex.c"
 138  0003  3415        	clr [21].0
 139  0004              #line 139 "c:\users\tech\desktop\codetector\sevenSegment3DigitComplex\SevenSegment3DigitComplex.c"
 139  0004  3515        	clr [21].2
 140  0005              #line 140 "c:\users\tech\desktop\codetector\sevenSegment3DigitComplex\SevenSegment3DigitComplex.c"
 140  0005  3599        	clr [25].3
 141  0006              #line 141 "c:\users\tech\desktop\codetector\sevenSegment3DigitComplex\SevenSegment3DigitComplex.c"
 141  0006  3118        	set [24].2
 142  0007              #line 142 "c:\users\tech\desktop\codetector\sevenSegment3DigitComplex\SevenSegment3DigitComplex.c"
 142  0007  3498        	clr [24].1
 143  0008              #line 143 "c:\users\tech\desktop\codetector\sevenSegment3DigitComplex\SevenSegment3DigitComplex.c"
 143  0008  3614        	clr [20].4
 144  0009              #line 144 "c:\users\tech\desktop\codetector\sevenSegment3DigitComplex\SevenSegment3DigitComplex.c"
 144  0009  3414        	clr [20].0
 145  000A              #line 145 "c:\users\tech\desktop\codetector\sevenSegment3DigitComplex\SevenSegment3DigitComplex.c"
 145  000A  3514        	clr [20].2
 146  000B              #line 146 "c:\users\tech\desktop\codetector\sevenSegment3DigitComplex\SevenSegment3DigitComplex.c"
 146  000B  3598        	clr [24].3
 147  000C              #line 147 "c:\users\tech\desktop\codetector\sevenSegment3DigitComplex\SevenSegment3DigitComplex.c"
 147  000C              ;# 147 "c:\users\tech\desktop\codetector\sevenSegment3DigitComplex\SevenSegment3DigitComplex.c" 1
 147  000C              	IF 1000>263690
 147  000C              ;# 147 "c:\users\tech\desktop\codetector\sevenSegment3DigitComplex\SevenSegment3DigitComplex.c" 1
 147  000C              	ERRMESSAGE 'the value 1000of the argument exceeds the maxinum 263690'
 147  000C              	ENDIF
 147  000C              ;# 147 "c:\users\tech\desktop\codetector\sevenSegment3DigitComplex\SevenSegment3DigitComplex.c" 1
 147  000C              	IF 1000<0
 147  000C              ;# 147 "c:\users\tech\desktop\codetector\sevenSegment3DigitComplex\SevenSegment3DigitComplex.c" 1
 147  000C              	ERRMESSAGE 'the value 1000 of the argument exceeds the mininum 0'
"File: SevenSegment3DigitComplex.c  Assembler  Version HGASM0202      Page 9

 147  000C              	ENDIF
 147  000C              ;# 147 "c:\users\tech\desktop\codetector\sevenSegment3DigitComplex\SevenSegment3DigitComplex.c" 1
 147  000C              	IF 1000==0
 147  000C              ;# 147 "c:\users\tech\desktop\codetector\sevenSegment3DigitComplex\SevenSegment3DigitComplex.c" 1
 147  000C              	JMP $
 147  000C              	ENDIF
 147  000C              ;# 147 "c:\users\tech\desktop\codetector\sevenSegment3DigitComplex\SevenSegment3DigitComplex.c" 1
 147  000C              	IF 1000==1
 147  000C              ;# 147 "c:\users\tech\desktop\codetector\sevenSegment3DigitComplex\SevenSegment3DigitComplex.c" 1
 147  000C              	NOP
 147  000C              	ENDIF
 147  000C              ;# 147 "c:\users\tech\desktop\codetector\sevenSegment3DigitComplex\SevenSegment3DigitComplex.c" 1
 147  000C              	IF 1000==2
 147  000C              ;# 147 "c:\users\tech\desktop\codetector\sevenSegment3DigitComplex\SevenSegment3DigitComplex.c" 1
 147  000C              	NOP
 147  000C              ;# 147 "c:\users\tech\desktop\codetector\sevenSegment3DigitComplex\SevenSegment3DigitComplex.c" 1
 147  000C              	NOP
 147  000C              	ENDIF
 147  000C              ;# 147 "c:\users\tech\desktop\codetector\sevenSegment3DigitComplex\SevenSegment3DigitComplex.c" 1
 147  000C              	IF 1000==3
 147  000C              ;# 147 "c:\users\tech\desktop\codetector\sevenSegment3DigitComplex\SevenSegment3DigitComplex.c" 1
 147  000C              	NOP
 147  000C              ;# 147 "c:\users\tech\desktop\codetector\sevenSegment3DigitComplex\SevenSegment3DigitComplex.c" 1
 147  000C              	NOP
 147  000C              ;# 147 "c:\users\tech\desktop\codetector\sevenSegment3DigitComplex\SevenSegment3DigitComplex.c" 1
 147  000C              	NOP
 147  000C              	ENDIF
 147  000C              ;# 147 "c:\users\tech\desktop\codetector\sevenSegment3DigitComplex\SevenSegment3DigitComplex.c" 1
 147  000C              	IF (1000<8) AND (1000>3)
 147  000C              ;# 147 "c:\users\tech\desktop\codetector\sevenSegment3DigitComplex\SevenSegment3DigitComplex.c" 1
 147  000C              	CALL __DELAY3 + 7 -1000
 147  000C              	ENDIF
 147  000C              ;# 147 "c:\users\tech\desktop\codetector\sevenSegment3DigitComplex\SevenSegment3DigitComplex.c" 1
 147  000C              	IF (1000< 0404h) AND (1000>7)
 147  000C              ;# 147 "c:\users\tech\desktop\codetector\sevenSegment3DigitComplex\SevenSegment3DigitComplex.c" 1
 147  000C  0FF9        	MOV A,1000/4-1
 147  000D              ;# 147 "c:\users\tech\desktop\codetector\sevenSegment3DigitComplex\SevenSegment3DigitComplex.c" 1
 147  000D  2000     E  	CALL __DELAYX3 + 3 -(1000 MOD 4)
 147  000E              	ENDIF
 147  000E              ;# 147 "c:\users\tech\desktop\codetector\sevenSegment3DigitComplex\SevenSegment3DigitComplex.c" 1
 147  000E              	IF (1000< 0x40B) AND (1000> 0403h)
 147  000E              ;# 147 "c:\users\tech\desktop\codetector\sevenSegment3DigitComplex\SevenSegment3DigitComplex.c" 1
 147  000E              	MOV A,0 
 147  000E              ;# 147 "c:\users\tech\desktop\codetector\sevenSegment3DigitComplex\SevenSegment3DigitComplex.c" 1
 147  000E              	CALL __DELAYX6 + 0x40a -1000
 147  000E              	ENDIF
 147  000E              ;# 147 "c:\users\tech\desktop\codetector\sevenSegment3DigitComplex\SevenSegment3DigitComplex.c" 1
 147  000E              	IF (1000 >= 0x40b) AND ((((1000-9)%0402h)/4+1)>256)
 147  000E              ;# 147 "c:\users\tech\desktop\codetector\sevenSegment3DigitComplex\SevenSegment3DigitComplex.c" 1
 147  000E              	MOV A,(1000-9)/0402h
 147  000E              ;# 147 "c:\users\tech\desktop\codetector\sevenSegment3DigitComplex\SevenSegment3DigitComplex.c" 1
 147  000E              	MOV _builtin_holtek_delay_2,A
 147  000E              ;# 147 "c:\users\tech\desktop\codetector\sevenSegment3DigitComplex\SevenSegment3DigitComplex.c" 1
 147  000E              	MOV A,0
 147  000E              ;# 147 "c:\users\tech\desktop\codetector\sevenSegment3DigitComplex\SevenSegment3DigitComplex.c" 1
 147  000E              	CALL __DELAYY5 +5- (((1000-9)%0402h)%6)
 147  000E              	ENDIF
 147  000E              ;# 147 "c:\users\tech\desktop\codetector\sevenSegment3DigitComplex\SevenSegment3DigitComplex.c" 1
 147  000E              	IF (1000 >= 0x40b) AND ((((1000-9)%0402h)/4+1)<=256)
 147  000E              ;# 147 "c:\users\tech\desktop\codetector\sevenSegment3DigitComplex\SevenSegment3DigitComplex.c" 1
"File: SevenSegment3DigitComplex.c  Assembler  Version HGASM0202      Page 10

 147  000E              	MOV A,(1000-9)/0402h
 147  000E              ;# 147 "c:\users\tech\desktop\codetector\sevenSegment3DigitComplex\SevenSegment3DigitComplex.c" 1
 147  000E              	MOV _builtin_holtek_delay_2,A
 147  000E              ;# 147 "c:\users\tech\desktop\codetector\sevenSegment3DigitComplex\SevenSegment3DigitComplex.c" 1
 147  000E              	MOV A,((1000-9)%0402h)/4+1
 147  000E              ;# 147 "c:\users\tech\desktop\codetector\sevenSegment3DigitComplex\SevenSegment3DigitComplex.c" 1
 147  000E              	CALL __DELAYY3 +3-(((1000-9)%0402h)%4)
 147  000E              	ENDIF
 148  000E              #line 148 "c:\users\tech\desktop\codetector\sevenSegment3DigitComplex\SevenSegment3DigitComplex.c"
 148  000E  2000     R  	call _clearSegment
 149  000F              #line 149 "c:\users\tech\desktop\codetector\sevenSegment3DigitComplex\SevenSegment3DigitComplex.c"
 149  000F  3599        	clr [25].3
 150  0010              #line 150 "c:\users\tech\desktop\codetector\sevenSegment3DigitComplex\SevenSegment3DigitComplex.c"
 150  0010  3499        	clr [25].1
 151  0011              #line 151 "c:\users\tech\desktop\codetector\sevenSegment3DigitComplex\SevenSegment3DigitComplex.c"
 151  0011  3598        	clr [24].3
 152  0012              #line 152 "c:\users\tech\desktop\codetector\sevenSegment3DigitComplex\SevenSegment3DigitComplex.c"
 152  0012  3498        	clr [24].1
 153  0013              #line 153 "c:\users\tech\desktop\codetector\sevenSegment3DigitComplex\SevenSegment3DigitComplex.c"
 153  0013              ;# 153 "c:\users\tech\desktop\codetector\sevenSegment3DigitComplex\SevenSegment3DigitComplex.c" 1
 153  0013              	IF 1000>263690
 153  0013              ;# 153 "c:\users\tech\desktop\codetector\sevenSegment3DigitComplex\SevenSegment3DigitComplex.c" 1
 153  0013              	ERRMESSAGE 'the value 1000of the argument exceeds the maxinum 263690'
 153  0013              	ENDIF
 153  0013              ;# 153 "c:\users\tech\desktop\codetector\sevenSegment3DigitComplex\SevenSegment3DigitComplex.c" 1
 153  0013              	IF 1000<0
 153  0013              ;# 153 "c:\users\tech\desktop\codetector\sevenSegment3DigitComplex\SevenSegment3DigitComplex.c" 1
 153  0013              	ERRMESSAGE 'the value 1000 of the argument exceeds the mininum 0'
 153  0013              	ENDIF
 153  0013              ;# 153 "c:\users\tech\desktop\codetector\sevenSegment3DigitComplex\SevenSegment3DigitComplex.c" 1
 153  0013              	IF 1000==0
 153  0013              ;# 153 "c:\users\tech\desktop\codetector\sevenSegment3DigitComplex\SevenSegment3DigitComplex.c" 1
 153  0013              	JMP $
 153  0013              	ENDIF
 153  0013              ;# 153 "c:\users\tech\desktop\codetector\sevenSegment3DigitComplex\SevenSegment3DigitComplex.c" 1
 153  0013              	IF 1000==1
 153  0013              ;# 153 "c:\users\tech\desktop\codetector\sevenSegment3DigitComplex\SevenSegment3DigitComplex.c" 1
 153  0013              	NOP
 153  0013              	ENDIF
 153  0013              ;# 153 "c:\users\tech\desktop\codetector\sevenSegment3DigitComplex\SevenSegment3DigitComplex.c" 1
 153  0013              	IF 1000==2
 153  0013              ;# 153 "c:\users\tech\desktop\codetector\sevenSegment3DigitComplex\SevenSegment3DigitComplex.c" 1
 153  0013              	NOP
 153  0013              ;# 153 "c:\users\tech\desktop\codetector\sevenSegment3DigitComplex\SevenSegment3DigitComplex.c" 1
 153  0013              	NOP
 153  0013              	ENDIF
 153  0013              ;# 153 "c:\users\tech\desktop\codetector\sevenSegment3DigitComplex\SevenSegment3DigitComplex.c" 1
 153  0013              	IF 1000==3
 153  0013              ;# 153 "c:\users\tech\desktop\codetector\sevenSegment3DigitComplex\SevenSegment3DigitComplex.c" 1
 153  0013              	NOP
 153  0013              ;# 153 "c:\users\tech\desktop\codetector\sevenSegment3DigitComplex\SevenSegment3DigitComplex.c" 1
 153  0013              	NOP
 153  0013              ;# 153 "c:\users\tech\desktop\codetector\sevenSegment3DigitComplex\SevenSegment3DigitComplex.c" 1
 153  0013              	NOP
 153  0013              	ENDIF
 153  0013              ;# 153 "c:\users\tech\desktop\codetector\sevenSegment3DigitComplex\SevenSegment3DigitComplex.c" 1
 153  0013              	IF (1000<8) AND (1000>3)
 153  0013              ;# 153 "c:\users\tech\desktop\codetector\sevenSegment3DigitComplex\SevenSegment3DigitComplex.c" 1
 153  0013              	CALL __DELAY3 + 7 -1000
 153  0013              	ENDIF
"File: SevenSegment3DigitComplex.c  Assembler  Version HGASM0202      Page 11

 153  0013              ;# 153 "c:\users\tech\desktop\codetector\sevenSegment3DigitComplex\SevenSegment3DigitComplex.c" 1
 153  0013              	IF (1000< 0404h) AND (1000>7)
 153  0013              ;# 153 "c:\users\tech\desktop\codetector\sevenSegment3DigitComplex\SevenSegment3DigitComplex.c" 1
 153  0013  0FF9        	MOV A,1000/4-1
 153  0014              ;# 153 "c:\users\tech\desktop\codetector\sevenSegment3DigitComplex\SevenSegment3DigitComplex.c" 1
 153  0014  2000     E  	CALL __DELAYX3 + 3 -(1000 MOD 4)
 153  0015              	ENDIF
 153  0015              ;# 153 "c:\users\tech\desktop\codetector\sevenSegment3DigitComplex\SevenSegment3DigitComplex.c" 1
 153  0015              	IF (1000< 0x40B) AND (1000> 0403h)
 153  0015              ;# 153 "c:\users\tech\desktop\codetector\sevenSegment3DigitComplex\SevenSegment3DigitComplex.c" 1
 153  0015              	MOV A,0 
 153  0015              ;# 153 "c:\users\tech\desktop\codetector\sevenSegment3DigitComplex\SevenSegment3DigitComplex.c" 1
 153  0015              	CALL __DELAYX6 + 0x40a -1000
 153  0015              	ENDIF
 153  0015              ;# 153 "c:\users\tech\desktop\codetector\sevenSegment3DigitComplex\SevenSegment3DigitComplex.c" 1
 153  0015              	IF (1000 >= 0x40b) AND ((((1000-9)%0402h)/4+1)>256)
 153  0015              ;# 153 "c:\users\tech\desktop\codetector\sevenSegment3DigitComplex\SevenSegment3DigitComplex.c" 1
 153  0015              	MOV A,(1000-9)/0402h
 153  0015              ;# 153 "c:\users\tech\desktop\codetector\sevenSegment3DigitComplex\SevenSegment3DigitComplex.c" 1
 153  0015              	MOV _builtin_holtek_delay_2,A
 153  0015              ;# 153 "c:\users\tech\desktop\codetector\sevenSegment3DigitComplex\SevenSegment3DigitComplex.c" 1
 153  0015              	MOV A,0
 153  0015              ;# 153 "c:\users\tech\desktop\codetector\sevenSegment3DigitComplex\SevenSegment3DigitComplex.c" 1
 153  0015              	CALL __DELAYY5 +5- (((1000-9)%0402h)%6)
 153  0015              	ENDIF
 153  0015              ;# 153 "c:\users\tech\desktop\codetector\sevenSegment3DigitComplex\SevenSegment3DigitComplex.c" 1
 153  0015              	IF (1000 >= 0x40b) AND ((((1000-9)%0402h)/4+1)<=256)
 153  0015              ;# 153 "c:\users\tech\desktop\codetector\sevenSegment3DigitComplex\SevenSegment3DigitComplex.c" 1
 153  0015              	MOV A,(1000-9)/0402h
 153  0015              ;# 153 "c:\users\tech\desktop\codetector\sevenSegment3DigitComplex\SevenSegment3DigitComplex.c" 1
 153  0015              	MOV _builtin_holtek_delay_2,A
 153  0015              ;# 153 "c:\users\tech\desktop\codetector\sevenSegment3DigitComplex\SevenSegment3DigitComplex.c" 1
 153  0015              	MOV A,((1000-9)%0402h)/4+1
 153  0015              ;# 153 "c:\users\tech\desktop\codetector\sevenSegment3DigitComplex\SevenSegment3DigitComplex.c" 1
 153  0015              	CALL __DELAYY3 +3-(((1000-9)%0402h)%4)
 153  0015              	ENDIF
 155  0015              #line 155 "c:\users\tech\desktop\codetector\sevenSegment3DigitComplex\SevenSegment3DigitComplex.c"
 155  0015  2000     R  	call _clearSegment
 156  0016              #line 156 "c:\users\tech\desktop\codetector\sevenSegment3DigitComplex\SevenSegment3DigitComplex.c"
 156  0016  3515        	clr [21].2
 157  0017              #line 157 "c:\users\tech\desktop\codetector\sevenSegment3DigitComplex\SevenSegment3DigitComplex.c"
 157  0017  3499        	clr [25].1
 158  0018              #line 158 "c:\users\tech\desktop\codetector\sevenSegment3DigitComplex\SevenSegment3DigitComplex.c"
 158  0018  3498        	clr [24].1
 159  0019              #line 159 "c:\users\tech\desktop\codetector\sevenSegment3DigitComplex\SevenSegment3DigitComplex.c"
 159  0019  3114        	set [20].2
 159  001A  0003        	ret
 159  001B              _ziroDigit2 endp
 159  001B              #line 159 "c:\users\tech\desktop\codetector\sevenSegment3DigitComplex\SevenSegment3DigitComplex.c"
 159  001B              #pragma debug scope 1 1
 159  001B              public _ziroDigit3
 159  001B              #pragma debug scope 11 1
 167  001B              #line 167 "c:\users\tech\desktop\codetector\sevenSegment3DigitComplex\SevenSegment3DigitComplex.c"
 167  0000              _ziroDigit3 .section 'code'
 167  0000              _ziroDigit3 proc
 171  0000              #line 171 "c:\users\tech\desktop\codetector\sevenSegment3DigitComplex\SevenSegment3DigitComplex.c"
 171  0000  3499        	clr [25].1
 172  0001              #line 172 "c:\users\tech\desktop\codetector\sevenSegment3DigitComplex\SevenSegment3DigitComplex.c"
 172  0001  3615        	clr [21].4
 173  0002              #line 173 "c:\users\tech\desktop\codetector\sevenSegment3DigitComplex\SevenSegment3DigitComplex.c"
"File: SevenSegment3DigitComplex.c  Assembler  Version HGASM0202      Page 12

 173  0002  3415        	clr [21].0
 174  0003              #line 174 "c:\users\tech\desktop\codetector\sevenSegment3DigitComplex\SevenSegment3DigitComplex.c"
 174  0003  3515        	clr [21].2
 175  0004              #line 175 "c:\users\tech\desktop\codetector\sevenSegment3DigitComplex\SevenSegment3DigitComplex.c"
 175  0004  3599        	clr [25].3
 176  0005              #line 176 "c:\users\tech\desktop\codetector\sevenSegment3DigitComplex\SevenSegment3DigitComplex.c"
 176  0005  3098        	set [24].1
 177  0006              #line 177 "c:\users\tech\desktop\codetector\sevenSegment3DigitComplex\SevenSegment3DigitComplex.c"
 177  0006  3614        	clr [20].4
 178  0007              #line 178 "c:\users\tech\desktop\codetector\sevenSegment3DigitComplex\SevenSegment3DigitComplex.c"
 178  0007  3414        	clr [20].0
 179  0008              #line 179 "c:\users\tech\desktop\codetector\sevenSegment3DigitComplex\SevenSegment3DigitComplex.c"
 179  0008  3514        	clr [20].2
 180  0009              #line 180 "c:\users\tech\desktop\codetector\sevenSegment3DigitComplex\SevenSegment3DigitComplex.c"
 180  0009  3598        	clr [24].3
 181  000A              #line 181 "c:\users\tech\desktop\codetector\sevenSegment3DigitComplex\SevenSegment3DigitComplex.c"
 181  000A              ;# 181 "c:\users\tech\desktop\codetector\sevenSegment3DigitComplex\SevenSegment3DigitComplex.c" 1
 181  000A              	IF 1000>263690
 181  000A              ;# 181 "c:\users\tech\desktop\codetector\sevenSegment3DigitComplex\SevenSegment3DigitComplex.c" 1
 181  000A              	ERRMESSAGE 'the value 1000of the argument exceeds the maxinum 263690'
 181  000A              	ENDIF
 181  000A              ;# 181 "c:\users\tech\desktop\codetector\sevenSegment3DigitComplex\SevenSegment3DigitComplex.c" 1
 181  000A              	IF 1000<0
 181  000A              ;# 181 "c:\users\tech\desktop\codetector\sevenSegment3DigitComplex\SevenSegment3DigitComplex.c" 1
 181  000A              	ERRMESSAGE 'the value 1000 of the argument exceeds the mininum 0'
 181  000A              	ENDIF
 181  000A              ;# 181 "c:\users\tech\desktop\codetector\sevenSegment3DigitComplex\SevenSegment3DigitComplex.c" 1
 181  000A              	IF 1000==0
 181  000A              ;# 181 "c:\users\tech\desktop\codetector\sevenSegment3DigitComplex\SevenSegment3DigitComplex.c" 1
 181  000A              	JMP $
 181  000A              	ENDIF
 181  000A              ;# 181 "c:\users\tech\desktop\codetector\sevenSegment3DigitComplex\SevenSegment3DigitComplex.c" 1
 181  000A              	IF 1000==1
 181  000A              ;# 181 "c:\users\tech\desktop\codetector\sevenSegment3DigitComplex\SevenSegment3DigitComplex.c" 1
 181  000A              	NOP
 181  000A              	ENDIF
 181  000A              ;# 181 "c:\users\tech\desktop\codetector\sevenSegment3DigitComplex\SevenSegment3DigitComplex.c" 1
 181  000A              	IF 1000==2
 181  000A              ;# 181 "c:\users\tech\desktop\codetector\sevenSegment3DigitComplex\SevenSegment3DigitComplex.c" 1
 181  000A              	NOP
 181  000A              ;# 181 "c:\users\tech\desktop\codetector\sevenSegment3DigitComplex\SevenSegment3DigitComplex.c" 1
 181  000A              	NOP
 181  000A              	ENDIF
 181  000A              ;# 181 "c:\users\tech\desktop\codetector\sevenSegment3DigitComplex\SevenSegment3DigitComplex.c" 1
 181  000A              	IF 1000==3
 181  000A              ;# 181 "c:\users\tech\desktop\codetector\sevenSegment3DigitComplex\SevenSegment3DigitComplex.c" 1
 181  000A              	NOP
 181  000A              ;# 181 "c:\users\tech\desktop\codetector\sevenSegment3DigitComplex\SevenSegment3DigitComplex.c" 1
 181  000A              	NOP
 181  000A              ;# 181 "c:\users\tech\desktop\codetector\sevenSegment3DigitComplex\SevenSegment3DigitComplex.c" 1
 181  000A              	NOP
 181  000A              	ENDIF
 181  000A              ;# 181 "c:\users\tech\desktop\codetector\sevenSegment3DigitComplex\SevenSegment3DigitComplex.c" 1
 181  000A              	IF (1000<8) AND (1000>3)
 181  000A              ;# 181 "c:\users\tech\desktop\codetector\sevenSegment3DigitComplex\SevenSegment3DigitComplex.c" 1
 181  000A              	CALL __DELAY3 + 7 -1000
 181  000A              	ENDIF
 181  000A              ;# 181 "c:\users\tech\desktop\codetector\sevenSegment3DigitComplex\SevenSegment3DigitComplex.c" 1
 181  000A              	IF (1000< 0404h) AND (1000>7)
 181  000A              ;# 181 "c:\users\tech\desktop\codetector\sevenSegment3DigitComplex\SevenSegment3DigitComplex.c" 1
"File: SevenSegment3DigitComplex.c  Assembler  Version HGASM0202      Page 13

 181  000A  0FF9        	MOV A,1000/4-1
 181  000B              ;# 181 "c:\users\tech\desktop\codetector\sevenSegment3DigitComplex\SevenSegment3DigitComplex.c" 1
 181  000B  2000     E  	CALL __DELAYX3 + 3 -(1000 MOD 4)
 181  000C              	ENDIF
 181  000C              ;# 181 "c:\users\tech\desktop\codetector\sevenSegment3DigitComplex\SevenSegment3DigitComplex.c" 1
 181  000C              	IF (1000< 0x40B) AND (1000> 0403h)
 181  000C              ;# 181 "c:\users\tech\desktop\codetector\sevenSegment3DigitComplex\SevenSegment3DigitComplex.c" 1
 181  000C              	MOV A,0 
 181  000C              ;# 181 "c:\users\tech\desktop\codetector\sevenSegment3DigitComplex\SevenSegment3DigitComplex.c" 1
 181  000C              	CALL __DELAYX6 + 0x40a -1000
 181  000C              	ENDIF
 181  000C              ;# 181 "c:\users\tech\desktop\codetector\sevenSegment3DigitComplex\SevenSegment3DigitComplex.c" 1
 181  000C              	IF (1000 >= 0x40b) AND ((((1000-9)%0402h)/4+1)>256)
 181  000C              ;# 181 "c:\users\tech\desktop\codetector\sevenSegment3DigitComplex\SevenSegment3DigitComplex.c" 1
 181  000C              	MOV A,(1000-9)/0402h
 181  000C              ;# 181 "c:\users\tech\desktop\codetector\sevenSegment3DigitComplex\SevenSegment3DigitComplex.c" 1
 181  000C              	MOV _builtin_holtek_delay_2,A
 181  000C              ;# 181 "c:\users\tech\desktop\codetector\sevenSegment3DigitComplex\SevenSegment3DigitComplex.c" 1
 181  000C              	MOV A,0
 181  000C              ;# 181 "c:\users\tech\desktop\codetector\sevenSegment3DigitComplex\SevenSegment3DigitComplex.c" 1
 181  000C              	CALL __DELAYY5 +5- (((1000-9)%0402h)%6)
 181  000C              	ENDIF
 181  000C              ;# 181 "c:\users\tech\desktop\codetector\sevenSegment3DigitComplex\SevenSegment3DigitComplex.c" 1
 181  000C              	IF (1000 >= 0x40b) AND ((((1000-9)%0402h)/4+1)<=256)
 181  000C              ;# 181 "c:\users\tech\desktop\codetector\sevenSegment3DigitComplex\SevenSegment3DigitComplex.c" 1
 181  000C              	MOV A,(1000-9)/0402h
 181  000C              ;# 181 "c:\users\tech\desktop\codetector\sevenSegment3DigitComplex\SevenSegment3DigitComplex.c" 1
 181  000C              	MOV _builtin_holtek_delay_2,A
 181  000C              ;# 181 "c:\users\tech\desktop\codetector\sevenSegment3DigitComplex\SevenSegment3DigitComplex.c" 1
 181  000C              	MOV A,((1000-9)%0402h)/4+1
 181  000C              ;# 181 "c:\users\tech\desktop\codetector\sevenSegment3DigitComplex\SevenSegment3DigitComplex.c" 1
 181  000C              	CALL __DELAYY3 +3-(((1000-9)%0402h)%4)
 181  000C              	ENDIF
 182  000C              #line 182 "c:\users\tech\desktop\codetector\sevenSegment3DigitComplex\SevenSegment3DigitComplex.c"
 182  000C  2000     R  	call _clearSegment
 183  000D              #line 183 "c:\users\tech\desktop\codetector\sevenSegment3DigitComplex\SevenSegment3DigitComplex.c"
 183  000D  3615        	clr [21].4
 184  000E              #line 184 "c:\users\tech\desktop\codetector\sevenSegment3DigitComplex\SevenSegment3DigitComplex.c"
 184  000E  3415        	clr [21].0
 185  000F              #line 185 "c:\users\tech\desktop\codetector\sevenSegment3DigitComplex\SevenSegment3DigitComplex.c"
 185  000F  3515        	clr [21].2
 186  0010              #line 186 "c:\users\tech\desktop\codetector\sevenSegment3DigitComplex\SevenSegment3DigitComplex.c"
 186  0010  3214        	set [20].4
 187  0011              #line 187 "c:\users\tech\desktop\codetector\sevenSegment3DigitComplex\SevenSegment3DigitComplex.c"
 187  0011  3414        	clr [20].0
 188  0012              #line 188 "c:\users\tech\desktop\codetector\sevenSegment3DigitComplex\SevenSegment3DigitComplex.c"
 188  0012  3514        	clr [20].2
 189  0013              #line 189 "c:\users\tech\desktop\codetector\sevenSegment3DigitComplex\SevenSegment3DigitComplex.c"
 189  0013              ;# 189 "c:\users\tech\desktop\codetector\sevenSegment3DigitComplex\SevenSegment3DigitComplex.c" 1
 189  0013              	IF 1000>263690
 189  0013              ;# 189 "c:\users\tech\desktop\codetector\sevenSegment3DigitComplex\SevenSegment3DigitComplex.c" 1
 189  0013              	ERRMESSAGE 'the value 1000of the argument exceeds the maxinum 263690'
 189  0013              	ENDIF
 189  0013              ;# 189 "c:\users\tech\desktop\codetector\sevenSegment3DigitComplex\SevenSegment3DigitComplex.c" 1
 189  0013              	IF 1000<0
 189  0013              ;# 189 "c:\users\tech\desktop\codetector\sevenSegment3DigitComplex\SevenSegment3DigitComplex.c" 1
 189  0013              	ERRMESSAGE 'the value 1000 of the argument exceeds the mininum 0'
 189  0013              	ENDIF
 189  0013              ;# 189 "c:\users\tech\desktop\codetector\sevenSegment3DigitComplex\SevenSegment3DigitComplex.c" 1
 189  0013              	IF 1000==0
"File: SevenSegment3DigitComplex.c  Assembler  Version HGASM0202      Page 14

 189  0013              ;# 189 "c:\users\tech\desktop\codetector\sevenSegment3DigitComplex\SevenSegment3DigitComplex.c" 1
 189  0013              	JMP $
 189  0013              	ENDIF
 189  0013              ;# 189 "c:\users\tech\desktop\codetector\sevenSegment3DigitComplex\SevenSegment3DigitComplex.c" 1
 189  0013              	IF 1000==1
 189  0013              ;# 189 "c:\users\tech\desktop\codetector\sevenSegment3DigitComplex\SevenSegment3DigitComplex.c" 1
 189  0013              	NOP
 189  0013              	ENDIF
 189  0013              ;# 189 "c:\users\tech\desktop\codetector\sevenSegment3DigitComplex\SevenSegment3DigitComplex.c" 1
 189  0013              	IF 1000==2
 189  0013              ;# 189 "c:\users\tech\desktop\codetector\sevenSegment3DigitComplex\SevenSegment3DigitComplex.c" 1
 189  0013              	NOP
 189  0013              ;# 189 "c:\users\tech\desktop\codetector\sevenSegment3DigitComplex\SevenSegment3DigitComplex.c" 1
 189  0013              	NOP
 189  0013              	ENDIF
 189  0013              ;# 189 "c:\users\tech\desktop\codetector\sevenSegment3DigitComplex\SevenSegment3DigitComplex.c" 1
 189  0013              	IF 1000==3
 189  0013              ;# 189 "c:\users\tech\desktop\codetector\sevenSegment3DigitComplex\SevenSegment3DigitComplex.c" 1
 189  0013              	NOP
 189  0013              ;# 189 "c:\users\tech\desktop\codetector\sevenSegment3DigitComplex\SevenSegment3DigitComplex.c" 1
 189  0013              	NOP
 189  0013              ;# 189 "c:\users\tech\desktop\codetector\sevenSegment3DigitComplex\SevenSegment3DigitComplex.c" 1
 189  0013              	NOP
 189  0013              	ENDIF
 189  0013              ;# 189 "c:\users\tech\desktop\codetector\sevenSegment3DigitComplex\SevenSegment3DigitComplex.c" 1
 189  0013              	IF (1000<8) AND (1000>3)
 189  0013              ;# 189 "c:\users\tech\desktop\codetector\sevenSegment3DigitComplex\SevenSegment3DigitComplex.c" 1
 189  0013              	CALL __DELAY3 + 7 -1000
 189  0013              	ENDIF
 189  0013              ;# 189 "c:\users\tech\desktop\codetector\sevenSegment3DigitComplex\SevenSegment3DigitComplex.c" 1
 189  0013              	IF (1000< 0404h) AND (1000>7)
 189  0013              ;# 189 "c:\users\tech\desktop\codetector\sevenSegment3DigitComplex\SevenSegment3DigitComplex.c" 1
 189  0013  0FF9        	MOV A,1000/4-1
 189  0014              ;# 189 "c:\users\tech\desktop\codetector\sevenSegment3DigitComplex\SevenSegment3DigitComplex.c" 1
 189  0014  2000     E  	CALL __DELAYX3 + 3 -(1000 MOD 4)
 189  0015              	ENDIF
 189  0015              ;# 189 "c:\users\tech\desktop\codetector\sevenSegment3DigitComplex\SevenSegment3DigitComplex.c" 1
 189  0015              	IF (1000< 0x40B) AND (1000> 0403h)
 189  0015              ;# 189 "c:\users\tech\desktop\codetector\sevenSegment3DigitComplex\SevenSegment3DigitComplex.c" 1
 189  0015              	MOV A,0 
 189  0015              ;# 189 "c:\users\tech\desktop\codetector\sevenSegment3DigitComplex\SevenSegment3DigitComplex.c" 1
 189  0015              	CALL __DELAYX6 + 0x40a -1000
 189  0015              	ENDIF
 189  0015              ;# 189 "c:\users\tech\desktop\codetector\sevenSegment3DigitComplex\SevenSegment3DigitComplex.c" 1
 189  0015              	IF (1000 >= 0x40b) AND ((((1000-9)%0402h)/4+1)>256)
 189  0015              ;# 189 "c:\users\tech\desktop\codetector\sevenSegment3DigitComplex\SevenSegment3DigitComplex.c" 1
 189  0015              	MOV A,(1000-9)/0402h
 189  0015              ;# 189 "c:\users\tech\desktop\codetector\sevenSegment3DigitComplex\SevenSegment3DigitComplex.c" 1
 189  0015              	MOV _builtin_holtek_delay_2,A
 189  0015              ;# 189 "c:\users\tech\desktop\codetector\sevenSegment3DigitComplex\SevenSegment3DigitComplex.c" 1
 189  0015              	MOV A,0
 189  0015              ;# 189 "c:\users\tech\desktop\codetector\sevenSegment3DigitComplex\SevenSegment3DigitComplex.c" 1
 189  0015              	CALL __DELAYY5 +5- (((1000-9)%0402h)%6)
 189  0015              	ENDIF
 189  0015              ;# 189 "c:\users\tech\desktop\codetector\sevenSegment3DigitComplex\SevenSegment3DigitComplex.c" 1
 189  0015              	IF (1000 >= 0x40b) AND ((((1000-9)%0402h)/4+1)<=256)
 189  0015              ;# 189 "c:\users\tech\desktop\codetector\sevenSegment3DigitComplex\SevenSegment3DigitComplex.c" 1
 189  0015              	MOV A,(1000-9)/0402h
 189  0015              ;# 189 "c:\users\tech\desktop\codetector\sevenSegment3DigitComplex\SevenSegment3DigitComplex.c" 1
 189  0015              	MOV _builtin_holtek_delay_2,A
"File: SevenSegment3DigitComplex.c  Assembler  Version HGASM0202      Page 15

 189  0015              ;# 189 "c:\users\tech\desktop\codetector\sevenSegment3DigitComplex\SevenSegment3DigitComplex.c" 1
 189  0015              	MOV A,((1000-9)%0402h)/4+1
 189  0015              ;# 189 "c:\users\tech\desktop\codetector\sevenSegment3DigitComplex\SevenSegment3DigitComplex.c" 1
 189  0015              	CALL __DELAYY3 +3-(((1000-9)%0402h)%4)
 189  0015              	ENDIF
 190  0015              #line 190 "c:\users\tech\desktop\codetector\sevenSegment3DigitComplex\SevenSegment3DigitComplex.c"
 190  0015  2000     R  	call _clearSegment
 191  0016              #line 191 "c:\users\tech\desktop\codetector\sevenSegment3DigitComplex\SevenSegment3DigitComplex.c"
 191  0016  3615        	clr [21].4
 192  0017              #line 192 "c:\users\tech\desktop\codetector\sevenSegment3DigitComplex\SevenSegment3DigitComplex.c"
 192  0017  3599        	clr [25].3
 193  0018              #line 193 "c:\users\tech\desktop\codetector\sevenSegment3DigitComplex\SevenSegment3DigitComplex.c"
 193  0018  3614        	clr [20].4
 194  0019              #line 194 "c:\users\tech\desktop\codetector\sevenSegment3DigitComplex\SevenSegment3DigitComplex.c"
 194  0019  3598        	clr [24].3
 194  001A  0003        	ret
 194  001B              _ziroDigit3 endp
 194  001B              #line 194 "c:\users\tech\desktop\codetector\sevenSegment3DigitComplex\SevenSegment3DigitComplex.c"
 194  001B              #pragma debug scope 1 1
 194  001B              public _oneDigit1
 194  001B              #pragma debug scope 12 1
 200  001B              #line 200 "c:\users\tech\desktop\codetector\sevenSegment3DigitComplex\SevenSegment3DigitComplex.c"
 200  0000              _oneDigit1 .section 'code'
 200  0000              _oneDigit1 proc
 202  0000              #line 202 "c:\users\tech\desktop\codetector\sevenSegment3DigitComplex\SevenSegment3DigitComplex.c"
 202  0000  2000     R  	call _clearSegment
 203  0001              #line 203 "c:\users\tech\desktop\codetector\sevenSegment3DigitComplex\SevenSegment3DigitComplex.c"
 203  0001  3519        	clr [25].2
 204  0002              #line 204 "c:\users\tech\desktop\codetector\sevenSegment3DigitComplex\SevenSegment3DigitComplex.c"
 204  0002  3615        	clr [21].4
 205  0003              #line 205 "c:\users\tech\desktop\codetector\sevenSegment3DigitComplex\SevenSegment3DigitComplex.c"
 205  0003  3415        	clr [21].0
 206  0004              #line 206 "c:\users\tech\desktop\codetector\sevenSegment3DigitComplex\SevenSegment3DigitComplex.c"
 206  0004  3518        	clr [24].2
 207  0005              #line 207 "c:\users\tech\desktop\codetector\sevenSegment3DigitComplex\SevenSegment3DigitComplex.c"
 207  0005  3214        	set [20].4
 208  0006              #line 208 "c:\users\tech\desktop\codetector\sevenSegment3DigitComplex\SevenSegment3DigitComplex.c"
 208  0006  3014        	set [20].0
 208  0007  0003        	ret
 208  0008              _oneDigit1 endp
 208  0008              #line 208 "c:\users\tech\desktop\codetector\sevenSegment3DigitComplex\SevenSegment3DigitComplex.c"
 208  0008              #pragma debug scope 1 1
 208  0008              public _oneDigit2
 208  0008              #pragma debug scope 13 1
 211  0008              #line 211 "c:\users\tech\desktop\codetector\sevenSegment3DigitComplex\SevenSegment3DigitComplex.c"
 211  0000              _oneDigit2 .section 'code'
 211  0000              _oneDigit2 proc
 213  0000              #line 213 "c:\users\tech\desktop\codetector\sevenSegment3DigitComplex\SevenSegment3DigitComplex.c"
 213  0000  2000     R  	call _clearSegment
 214  0001              #line 214 "c:\users\tech\desktop\codetector\sevenSegment3DigitComplex\SevenSegment3DigitComplex.c"
 214  0001  3519        	clr [25].2
 215  0002              #line 215 "c:\users\tech\desktop\codetector\sevenSegment3DigitComplex\SevenSegment3DigitComplex.c"
 215  0002  3615        	clr [21].4
 216  0003              #line 216 "c:\users\tech\desktop\codetector\sevenSegment3DigitComplex\SevenSegment3DigitComplex.c"
 216  0003  3415        	clr [21].0
 217  0004              #line 217 "c:\users\tech\desktop\codetector\sevenSegment3DigitComplex\SevenSegment3DigitComplex.c"
 217  0004  3118        	set [24].2
 218  0005              #line 218 "c:\users\tech\desktop\codetector\sevenSegment3DigitComplex\SevenSegment3DigitComplex.c"
 218  0005  3614        	clr [20].4
 219  0006              #line 219 "c:\users\tech\desktop\codetector\sevenSegment3DigitComplex\SevenSegment3DigitComplex.c"
"File: SevenSegment3DigitComplex.c  Assembler  Version HGASM0202      Page 16

 219  0006  3414        	clr [20].0
 219  0007  0003        	ret
 219  0008              _oneDigit2 endp
 219  0008              #line 219 "c:\users\tech\desktop\codetector\sevenSegment3DigitComplex\SevenSegment3DigitComplex.c"
 219  0008              #pragma debug scope 1 1
 219  0008              public _oneDigit3
 219  0008              #pragma debug scope 14 1
 223  0008              #line 223 "c:\users\tech\desktop\codetector\sevenSegment3DigitComplex\SevenSegment3DigitComplex.c"
 223  0000              _oneDigit3 .section 'code'
 223  0000              _oneDigit3 proc
 226  0000              #line 226 "c:\users\tech\desktop\codetector\sevenSegment3DigitComplex\SevenSegment3DigitComplex.c"
 226  0000  2000     R  	call _clearSegment
 227  0001              #line 227 "c:\users\tech\desktop\codetector\sevenSegment3DigitComplex\SevenSegment3DigitComplex.c"
 227  0001  3499        	clr [25].1
 228  0002              #line 228 "c:\users\tech\desktop\codetector\sevenSegment3DigitComplex\SevenSegment3DigitComplex.c"
 228  0002  3415        	clr [21].0
 229  0003              #line 229 "c:\users\tech\desktop\codetector\sevenSegment3DigitComplex\SevenSegment3DigitComplex.c"
 229  0003  3515        	clr [21].2
 230  0004              #line 230 "c:\users\tech\desktop\codetector\sevenSegment3DigitComplex\SevenSegment3DigitComplex.c"
 230  0004  3098        	set [24].1
 231  0005              #line 231 "c:\users\tech\desktop\codetector\sevenSegment3DigitComplex\SevenSegment3DigitComplex.c"
 231  0005  3414        	clr [20].0
 232  0006              #line 232 "c:\users\tech\desktop\codetector\sevenSegment3DigitComplex\SevenSegment3DigitComplex.c"
 232  0006  3514        	clr [20].2
 232  0007  0003        	ret
 232  0008              _oneDigit3 endp
 232  0008              #line 232 "c:\users\tech\desktop\codetector\sevenSegment3DigitComplex\SevenSegment3DigitComplex.c"
 232  0008              #pragma debug scope 1 1
 232  0008              public _towDigit1
 232  0008              #pragma debug scope 15 1
 236  0008              #line 236 "c:\users\tech\desktop\codetector\sevenSegment3DigitComplex\SevenSegment3DigitComplex.c"
 236  0000              _towDigit1 .section 'code'
 236  0000              _towDigit1 proc
 239  0000              #line 239 "c:\users\tech\desktop\codetector\sevenSegment3DigitComplex\SevenSegment3DigitComplex.c"
 239  0000  3519        	clr [25].2
 240  0001              #line 240 "c:\users\tech\desktop\codetector\sevenSegment3DigitComplex\SevenSegment3DigitComplex.c"
 240  0001  3499        	clr [25].1
 241  0002              #line 241 "c:\users\tech\desktop\codetector\sevenSegment3DigitComplex\SevenSegment3DigitComplex.c"
 241  0002  3615        	clr [21].4
 242  0003              #line 242 "c:\users\tech\desktop\codetector\sevenSegment3DigitComplex\SevenSegment3DigitComplex.c"
 242  0003  3515        	clr [21].2
 243  0004              #line 243 "c:\users\tech\desktop\codetector\sevenSegment3DigitComplex\SevenSegment3DigitComplex.c"
 243  0004  3599        	clr [25].3
 244  0005              #line 244 "c:\users\tech\desktop\codetector\sevenSegment3DigitComplex\SevenSegment3DigitComplex.c"
 244  0005  3518        	clr [24].2
 245  0006              #line 245 "c:\users\tech\desktop\codetector\sevenSegment3DigitComplex\SevenSegment3DigitComplex.c"
 245  0006  3098        	set [24].1
 246  0007              #line 246 "c:\users\tech\desktop\codetector\sevenSegment3DigitComplex\SevenSegment3DigitComplex.c"
 246  0007  3214        	set [20].4
 247  0008              #line 247 "c:\users\tech\desktop\codetector\sevenSegment3DigitComplex\SevenSegment3DigitComplex.c"
 247  0008  3114        	set [20].2
 248  0009              #line 248 "c:\users\tech\desktop\codetector\sevenSegment3DigitComplex\SevenSegment3DigitComplex.c"
 248  0009  3198        	set [24].3
 250  000A              #line 250 "c:\users\tech\desktop\codetector\sevenSegment3DigitComplex\SevenSegment3DigitComplex.c"
 250  000A              ;# 250 "c:\users\tech\desktop\codetector\sevenSegment3DigitComplex\SevenSegment3DigitComplex.c" 1
 250  000A              	IF 1000>263690
 250  000A              ;# 250 "c:\users\tech\desktop\codetector\sevenSegment3DigitComplex\SevenSegment3DigitComplex.c" 1
 250  000A              	ERRMESSAGE 'the value 1000of the argument exceeds the maxinum 263690'
 250  000A              	ENDIF
 250  000A              ;# 250 "c:\users\tech\desktop\codetector\sevenSegment3DigitComplex\SevenSegment3DigitComplex.c" 1
"File: SevenSegment3DigitComplex.c  Assembler  Version HGASM0202      Page 17

 250  000A              	IF 1000<0
 250  000A              ;# 250 "c:\users\tech\desktop\codetector\sevenSegment3DigitComplex\SevenSegment3DigitComplex.c" 1
 250  000A              	ERRMESSAGE 'the value 1000 of the argument exceeds the mininum 0'
 250  000A              	ENDIF
 250  000A              ;# 250 "c:\users\tech\desktop\codetector\sevenSegment3DigitComplex\SevenSegment3DigitComplex.c" 1
 250  000A              	IF 1000==0
 250  000A              ;# 250 "c:\users\tech\desktop\codetector\sevenSegment3DigitComplex\SevenSegment3DigitComplex.c" 1
 250  000A              	JMP $
 250  000A              	ENDIF
 250  000A              ;# 250 "c:\users\tech\desktop\codetector\sevenSegment3DigitComplex\SevenSegment3DigitComplex.c" 1
 250  000A              	IF 1000==1
 250  000A              ;# 250 "c:\users\tech\desktop\codetector\sevenSegment3DigitComplex\SevenSegment3DigitComplex.c" 1
 250  000A              	NOP
 250  000A              	ENDIF
 250  000A              ;# 250 "c:\users\tech\desktop\codetector\sevenSegment3DigitComplex\SevenSegment3DigitComplex.c" 1
 250  000A              	IF 1000==2
 250  000A              ;# 250 "c:\users\tech\desktop\codetector\sevenSegment3DigitComplex\SevenSegment3DigitComplex.c" 1
 250  000A              	NOP
 250  000A              ;# 250 "c:\users\tech\desktop\codetector\sevenSegment3DigitComplex\SevenSegment3DigitComplex.c" 1
 250  000A              	NOP
 250  000A              	ENDIF
 250  000A              ;# 250 "c:\users\tech\desktop\codetector\sevenSegment3DigitComplex\SevenSegment3DigitComplex.c" 1
 250  000A              	IF 1000==3
 250  000A              ;# 250 "c:\users\tech\desktop\codetector\sevenSegment3DigitComplex\SevenSegment3DigitComplex.c" 1
 250  000A              	NOP
 250  000A              ;# 250 "c:\users\tech\desktop\codetector\sevenSegment3DigitComplex\SevenSegment3DigitComplex.c" 1
 250  000A              	NOP
 250  000A              ;# 250 "c:\users\tech\desktop\codetector\sevenSegment3DigitComplex\SevenSegment3DigitComplex.c" 1
 250  000A              	NOP
 250  000A              	ENDIF
 250  000A              ;# 250 "c:\users\tech\desktop\codetector\sevenSegment3DigitComplex\SevenSegment3DigitComplex.c" 1
 250  000A              	IF (1000<8) AND (1000>3)
 250  000A              ;# 250 "c:\users\tech\desktop\codetector\sevenSegment3DigitComplex\SevenSegment3DigitComplex.c" 1
 250  000A              	CALL __DELAY3 + 7 -1000
 250  000A              	ENDIF
 250  000A              ;# 250 "c:\users\tech\desktop\codetector\sevenSegment3DigitComplex\SevenSegment3DigitComplex.c" 1
 250  000A              	IF (1000< 0404h) AND (1000>7)
 250  000A              ;# 250 "c:\users\tech\desktop\codetector\sevenSegment3DigitComplex\SevenSegment3DigitComplex.c" 1
 250  000A  0FF9        	MOV A,1000/4-1
 250  000B              ;# 250 "c:\users\tech\desktop\codetector\sevenSegment3DigitComplex\SevenSegment3DigitComplex.c" 1
 250  000B  2000     E  	CALL __DELAYX3 + 3 -(1000 MOD 4)
 250  000C              	ENDIF
 250  000C              ;# 250 "c:\users\tech\desktop\codetector\sevenSegment3DigitComplex\SevenSegment3DigitComplex.c" 1
 250  000C              	IF (1000< 0x40B) AND (1000> 0403h)
 250  000C              ;# 250 "c:\users\tech\desktop\codetector\sevenSegment3DigitComplex\SevenSegment3DigitComplex.c" 1
 250  000C              	MOV A,0 
 250  000C              ;# 250 "c:\users\tech\desktop\codetector\sevenSegment3DigitComplex\SevenSegment3DigitComplex.c" 1
 250  000C              	CALL __DELAYX6 + 0x40a -1000
 250  000C              	ENDIF
 250  000C              ;# 250 "c:\users\tech\desktop\codetector\sevenSegment3DigitComplex\SevenSegment3DigitComplex.c" 1
 250  000C              	IF (1000 >= 0x40b) AND ((((1000-9)%0402h)/4+1)>256)
 250  000C              ;# 250 "c:\users\tech\desktop\codetector\sevenSegment3DigitComplex\SevenSegment3DigitComplex.c" 1
 250  000C              	MOV A,(1000-9)/0402h
 250  000C              ;# 250 "c:\users\tech\desktop\codetector\sevenSegment3DigitComplex\SevenSegment3DigitComplex.c" 1
 250  000C              	MOV _builtin_holtek_delay_2,A
 250  000C              ;# 250 "c:\users\tech\desktop\codetector\sevenSegment3DigitComplex\SevenSegment3DigitComplex.c" 1
 250  000C              	MOV A,0
 250  000C              ;# 250 "c:\users\tech\desktop\codetector\sevenSegment3DigitComplex\SevenSegment3DigitComplex.c" 1
 250  000C              	CALL __DELAYY5 +5- (((1000-9)%0402h)%6)
 250  000C              	ENDIF
"File: SevenSegment3DigitComplex.c  Assembler  Version HGASM0202      Page 18

 250  000C              ;# 250 "c:\users\tech\desktop\codetector\sevenSegment3DigitComplex\SevenSegment3DigitComplex.c" 1
 250  000C              	IF (1000 >= 0x40b) AND ((((1000-9)%0402h)/4+1)<=256)
 250  000C              ;# 250 "c:\users\tech\desktop\codetector\sevenSegment3DigitComplex\SevenSegment3DigitComplex.c" 1
 250  000C              	MOV A,(1000-9)/0402h
 250  000C              ;# 250 "c:\users\tech\desktop\codetector\sevenSegment3DigitComplex\SevenSegment3DigitComplex.c" 1
 250  000C              	MOV _builtin_holtek_delay_2,A
 250  000C              ;# 250 "c:\users\tech\desktop\codetector\sevenSegment3DigitComplex\SevenSegment3DigitComplex.c" 1
 250  000C              	MOV A,((1000-9)%0402h)/4+1
 250  000C              ;# 250 "c:\users\tech\desktop\codetector\sevenSegment3DigitComplex\SevenSegment3DigitComplex.c" 1
 250  000C              	CALL __DELAYY3 +3-(((1000-9)%0402h)%4)
 250  000C              	ENDIF
 252  000C              #line 252 "c:\users\tech\desktop\codetector\sevenSegment3DigitComplex\SevenSegment3DigitComplex.c"
 252  000C  2000     R  	call _clearSegment
 254  000D              #line 254 "c:\users\tech\desktop\codetector\sevenSegment3DigitComplex\SevenSegment3DigitComplex.c"
 254  000D  3499        	clr [25].1
 255  000E              #line 255 "c:\users\tech\desktop\codetector\sevenSegment3DigitComplex\SevenSegment3DigitComplex.c"
 255  000E  3415        	clr [21].0
 256  000F              #line 256 "c:\users\tech\desktop\codetector\sevenSegment3DigitComplex\SevenSegment3DigitComplex.c"
 256  000F  3498        	clr [24].1
 257  0010              #line 257 "c:\users\tech\desktop\codetector\sevenSegment3DigitComplex\SevenSegment3DigitComplex.c"
 257  0010  3014        	set [20].0
 257  0011  0003        	ret
 257  0012              _towDigit1 endp
 257  0012              #line 257 "c:\users\tech\desktop\codetector\sevenSegment3DigitComplex\SevenSegment3DigitComplex.c"
 257  0012              #pragma debug scope 1 1
 257  0012              public _towDigit2
 257  0012              #pragma debug scope 16 1
 261  0012              #line 261 "c:\users\tech\desktop\codetector\sevenSegment3DigitComplex\SevenSegment3DigitComplex.c"
 261  0000              _towDigit2 .section 'code'
 261  0000              _towDigit2 proc
 264  0000              #line 264 "c:\users\tech\desktop\codetector\sevenSegment3DigitComplex\SevenSegment3DigitComplex.c"
 264  0000  3519        	clr [25].2
 265  0001              #line 265 "c:\users\tech\desktop\codetector\sevenSegment3DigitComplex\SevenSegment3DigitComplex.c"
 265  0001  3499        	clr [25].1
 266  0002              #line 266 "c:\users\tech\desktop\codetector\sevenSegment3DigitComplex\SevenSegment3DigitComplex.c"
 266  0002  3615        	clr [21].4
 267  0003              #line 267 "c:\users\tech\desktop\codetector\sevenSegment3DigitComplex\SevenSegment3DigitComplex.c"
 267  0003  3515        	clr [21].2
 268  0004              #line 268 "c:\users\tech\desktop\codetector\sevenSegment3DigitComplex\SevenSegment3DigitComplex.c"
 268  0004  3599        	clr [25].3
 270  0005              #line 270 "c:\users\tech\desktop\codetector\sevenSegment3DigitComplex\SevenSegment3DigitComplex.c"
 270  0005  3118        	set [24].2
 271  0006              #line 271 "c:\users\tech\desktop\codetector\sevenSegment3DigitComplex\SevenSegment3DigitComplex.c"
 271  0006  3498        	clr [24].1
 272  0007              #line 272 "c:\users\tech\desktop\codetector\sevenSegment3DigitComplex\SevenSegment3DigitComplex.c"
 272  0007  3614        	clr [20].4
 273  0008              #line 273 "c:\users\tech\desktop\codetector\sevenSegment3DigitComplex\SevenSegment3DigitComplex.c"
 273  0008  3514        	clr [20].2
 274  0009              #line 274 "c:\users\tech\desktop\codetector\sevenSegment3DigitComplex\SevenSegment3DigitComplex.c"
 274  0009  3598        	clr [24].3
 276  000A              #line 276 "c:\users\tech\desktop\codetector\sevenSegment3DigitComplex\SevenSegment3DigitComplex.c"
 276  000A              ;# 276 "c:\users\tech\desktop\codetector\sevenSegment3DigitComplex\SevenSegment3DigitComplex.c" 1
 276  000A              	IF 1000>263690
 276  000A              ;# 276 "c:\users\tech\desktop\codetector\sevenSegment3DigitComplex\SevenSegment3DigitComplex.c" 1
 276  000A              	ERRMESSAGE 'the value 1000of the argument exceeds the maxinum 263690'
 276  000A              	ENDIF
 276  000A              ;# 276 "c:\users\tech\desktop\codetector\sevenSegment3DigitComplex\SevenSegment3DigitComplex.c" 1
 276  000A              	IF 1000<0
 276  000A              ;# 276 "c:\users\tech\desktop\codetector\sevenSegment3DigitComplex\SevenSegment3DigitComplex.c" 1
 276  000A              	ERRMESSAGE 'the value 1000 of the argument exceeds the mininum 0'
"File: SevenSegment3DigitComplex.c  Assembler  Version HGASM0202      Page 19

 276  000A              	ENDIF
 276  000A              ;# 276 "c:\users\tech\desktop\codetector\sevenSegment3DigitComplex\SevenSegment3DigitComplex.c" 1
 276  000A              	IF 1000==0
 276  000A              ;# 276 "c:\users\tech\desktop\codetector\sevenSegment3DigitComplex\SevenSegment3DigitComplex.c" 1
 276  000A              	JMP $
 276  000A              	ENDIF
 276  000A              ;# 276 "c:\users\tech\desktop\codetector\sevenSegment3DigitComplex\SevenSegment3DigitComplex.c" 1
 276  000A              	IF 1000==1
 276  000A              ;# 276 "c:\users\tech\desktop\codetector\sevenSegment3DigitComplex\SevenSegment3DigitComplex.c" 1
 276  000A              	NOP
 276  000A              	ENDIF
 276  000A              ;# 276 "c:\users\tech\desktop\codetector\sevenSegment3DigitComplex\SevenSegment3DigitComplex.c" 1
 276  000A              	IF 1000==2
 276  000A              ;# 276 "c:\users\tech\desktop\codetector\sevenSegment3DigitComplex\SevenSegment3DigitComplex.c" 1
 276  000A              	NOP
 276  000A              ;# 276 "c:\users\tech\desktop\codetector\sevenSegment3DigitComplex\SevenSegment3DigitComplex.c" 1
 276  000A              	NOP
 276  000A              	ENDIF
 276  000A              ;# 276 "c:\users\tech\desktop\codetector\sevenSegment3DigitComplex\SevenSegment3DigitComplex.c" 1
 276  000A              	IF 1000==3
 276  000A              ;# 276 "c:\users\tech\desktop\codetector\sevenSegment3DigitComplex\SevenSegment3DigitComplex.c" 1
 276  000A              	NOP
 276  000A              ;# 276 "c:\users\tech\desktop\codetector\sevenSegment3DigitComplex\SevenSegment3DigitComplex.c" 1
 276  000A              	NOP
 276  000A              ;# 276 "c:\users\tech\desktop\codetector\sevenSegment3DigitComplex\SevenSegment3DigitComplex.c" 1
 276  000A              	NOP
 276  000A              	ENDIF
 276  000A              ;# 276 "c:\users\tech\desktop\codetector\sevenSegment3DigitComplex\SevenSegment3DigitComplex.c" 1
 276  000A              	IF (1000<8) AND (1000>3)
 276  000A              ;# 276 "c:\users\tech\desktop\codetector\sevenSegment3DigitComplex\SevenSegment3DigitComplex.c" 1
 276  000A              	CALL __DELAY3 + 7 -1000
 276  000A              	ENDIF
 276  000A              ;# 276 "c:\users\tech\desktop\codetector\sevenSegment3DigitComplex\SevenSegment3DigitComplex.c" 1
 276  000A              	IF (1000< 0404h) AND (1000>7)
 276  000A              ;# 276 "c:\users\tech\desktop\codetector\sevenSegment3DigitComplex\SevenSegment3DigitComplex.c" 1
 276  000A  0FF9        	MOV A,1000/4-1
 276  000B              ;# 276 "c:\users\tech\desktop\codetector\sevenSegment3DigitComplex\SevenSegment3DigitComplex.c" 1
 276  000B  2000     E  	CALL __DELAYX3 + 3 -(1000 MOD 4)
 276  000C              	ENDIF
 276  000C              ;# 276 "c:\users\tech\desktop\codetector\sevenSegment3DigitComplex\SevenSegment3DigitComplex.c" 1
 276  000C              	IF (1000< 0x40B) AND (1000> 0403h)
 276  000C              ;# 276 "c:\users\tech\desktop\codetector\sevenSegment3DigitComplex\SevenSegment3DigitComplex.c" 1
 276  000C              	MOV A,0 
 276  000C              ;# 276 "c:\users\tech\desktop\codetector\sevenSegment3DigitComplex\SevenSegment3DigitComplex.c" 1
 276  000C              	CALL __DELAYX6 + 0x40a -1000
 276  000C              	ENDIF
 276  000C              ;# 276 "c:\users\tech\desktop\codetector\sevenSegment3DigitComplex\SevenSegment3DigitComplex.c" 1
 276  000C              	IF (1000 >= 0x40b) AND ((((1000-9)%0402h)/4+1)>256)
 276  000C              ;# 276 "c:\users\tech\desktop\codetector\sevenSegment3DigitComplex\SevenSegment3DigitComplex.c" 1
 276  000C              	MOV A,(1000-9)/0402h
 276  000C              ;# 276 "c:\users\tech\desktop\codetector\sevenSegment3DigitComplex\SevenSegment3DigitComplex.c" 1
 276  000C              	MOV _builtin_holtek_delay_2,A
 276  000C              ;# 276 "c:\users\tech\desktop\codetector\sevenSegment3DigitComplex\SevenSegment3DigitComplex.c" 1
 276  000C              	MOV A,0
 276  000C              ;# 276 "c:\users\tech\desktop\codetector\sevenSegment3DigitComplex\SevenSegment3DigitComplex.c" 1
 276  000C              	CALL __DELAYY5 +5- (((1000-9)%0402h)%6)
 276  000C              	ENDIF
 276  000C              ;# 276 "c:\users\tech\desktop\codetector\sevenSegment3DigitComplex\SevenSegment3DigitComplex.c" 1
 276  000C              	IF (1000 >= 0x40b) AND ((((1000-9)%0402h)/4+1)<=256)
 276  000C              ;# 276 "c:\users\tech\desktop\codetector\sevenSegment3DigitComplex\SevenSegment3DigitComplex.c" 1
"File: SevenSegment3DigitComplex.c  Assembler  Version HGASM0202      Page 20

 276  000C              	MOV A,(1000-9)/0402h
 276  000C              ;# 276 "c:\users\tech\desktop\codetector\sevenSegment3DigitComplex\SevenSegment3DigitComplex.c" 1
 276  000C              	MOV _builtin_holtek_delay_2,A
 276  000C              ;# 276 "c:\users\tech\desktop\codetector\sevenSegment3DigitComplex\SevenSegment3DigitComplex.c" 1
 276  000C              	MOV A,((1000-9)%0402h)/4+1
 276  000C              ;# 276 "c:\users\tech\desktop\codetector\sevenSegment3DigitComplex\SevenSegment3DigitComplex.c" 1
 276  000C              	CALL __DELAYY3 +3-(((1000-9)%0402h)%4)
 276  000C              	ENDIF
 278  000C              #line 278 "c:\users\tech\desktop\codetector\sevenSegment3DigitComplex\SevenSegment3DigitComplex.c"
 278  000C  2000     R  	call _clearSegment
 280  000D              #line 280 "c:\users\tech\desktop\codetector\sevenSegment3DigitComplex\SevenSegment3DigitComplex.c"
 280  000D  3499        	clr [25].1
 281  000E              #line 281 "c:\users\tech\desktop\codetector\sevenSegment3DigitComplex\SevenSegment3DigitComplex.c"
 281  000E  3599        	clr [25].3
 282  000F              #line 282 "c:\users\tech\desktop\codetector\sevenSegment3DigitComplex\SevenSegment3DigitComplex.c"
 282  000F  3498        	clr [24].1
 283  0010              #line 283 "c:\users\tech\desktop\codetector\sevenSegment3DigitComplex\SevenSegment3DigitComplex.c"
 283  0010  3198        	set [24].3
 283  0011  0003        	ret
 283  0012              _towDigit2 endp
 283  0012              #line 283 "c:\users\tech\desktop\codetector\sevenSegment3DigitComplex\SevenSegment3DigitComplex.c"
 283  0012              #pragma debug scope 1 1
 283  0012              public _towDigit3
 283  0012              #pragma debug scope 17 1
 287  0012              #line 287 "c:\users\tech\desktop\codetector\sevenSegment3DigitComplex\SevenSegment3DigitComplex.c"
 287  0000              _towDigit3 .section 'code'
 287  0000              _towDigit3 proc
 289  0000              #line 289 "c:\users\tech\desktop\codetector\sevenSegment3DigitComplex\SevenSegment3DigitComplex.c"
 289  0000  3499        	clr [25].1
 290  0001              #line 290 "c:\users\tech\desktop\codetector\sevenSegment3DigitComplex\SevenSegment3DigitComplex.c"
 290  0001  3615        	clr [21].4
 291  0002              #line 291 "c:\users\tech\desktop\codetector\sevenSegment3DigitComplex\SevenSegment3DigitComplex.c"
 291  0002  3415        	clr [21].0
 292  0003              #line 292 "c:\users\tech\desktop\codetector\sevenSegment3DigitComplex\SevenSegment3DigitComplex.c"
 292  0003  3599        	clr [25].3
 293  0004              #line 293 "c:\users\tech\desktop\codetector\sevenSegment3DigitComplex\SevenSegment3DigitComplex.c"
 293  0004  3098        	set [24].1
 294  0005              #line 294 "c:\users\tech\desktop\codetector\sevenSegment3DigitComplex\SevenSegment3DigitComplex.c"
 294  0005  3614        	clr [20].4
 295  0006              #line 295 "c:\users\tech\desktop\codetector\sevenSegment3DigitComplex\SevenSegment3DigitComplex.c"
 295  0006  3414        	clr [20].0
 296  0007              #line 296 "c:\users\tech\desktop\codetector\sevenSegment3DigitComplex\SevenSegment3DigitComplex.c"
 296  0007  3514        	clr [20].2
 297  0008              #line 297 "c:\users\tech\desktop\codetector\sevenSegment3DigitComplex\SevenSegment3DigitComplex.c"
 297  0008  3598        	clr [24].3
 299  0009              #line 299 "c:\users\tech\desktop\codetector\sevenSegment3DigitComplex\SevenSegment3DigitComplex.c"
 299  0009              ;# 299 "c:\users\tech\desktop\codetector\sevenSegment3DigitComplex\SevenSegment3DigitComplex.c" 1
 299  0009              	IF 1000>263690
 299  0009              ;# 299 "c:\users\tech\desktop\codetector\sevenSegment3DigitComplex\SevenSegment3DigitComplex.c" 1
 299  0009              	ERRMESSAGE 'the value 1000of the argument exceeds the maxinum 263690'
 299  0009              	ENDIF
 299  0009              ;# 299 "c:\users\tech\desktop\codetector\sevenSegment3DigitComplex\SevenSegment3DigitComplex.c" 1
 299  0009              	IF 1000<0
 299  0009              ;# 299 "c:\users\tech\desktop\codetector\sevenSegment3DigitComplex\SevenSegment3DigitComplex.c" 1
 299  0009              	ERRMESSAGE 'the value 1000 of the argument exceeds the mininum 0'
 299  0009              	ENDIF
 299  0009              ;# 299 "c:\users\tech\desktop\codetector\sevenSegment3DigitComplex\SevenSegment3DigitComplex.c" 1
 299  0009              	IF 1000==0
 299  0009              ;# 299 "c:\users\tech\desktop\codetector\sevenSegment3DigitComplex\SevenSegment3DigitComplex.c" 1
 299  0009              	JMP $
"File: SevenSegment3DigitComplex.c  Assembler  Version HGASM0202      Page 21

 299  0009              	ENDIF
 299  0009              ;# 299 "c:\users\tech\desktop\codetector\sevenSegment3DigitComplex\SevenSegment3DigitComplex.c" 1
 299  0009              	IF 1000==1
 299  0009              ;# 299 "c:\users\tech\desktop\codetector\sevenSegment3DigitComplex\SevenSegment3DigitComplex.c" 1
 299  0009              	NOP
 299  0009              	ENDIF
 299  0009              ;# 299 "c:\users\tech\desktop\codetector\sevenSegment3DigitComplex\SevenSegment3DigitComplex.c" 1
 299  0009              	IF 1000==2
 299  0009              ;# 299 "c:\users\tech\desktop\codetector\sevenSegment3DigitComplex\SevenSegment3DigitComplex.c" 1
 299  0009              	NOP
 299  0009              ;# 299 "c:\users\tech\desktop\codetector\sevenSegment3DigitComplex\SevenSegment3DigitComplex.c" 1
 299  0009              	NOP
 299  0009              	ENDIF
 299  0009              ;# 299 "c:\users\tech\desktop\codetector\sevenSegment3DigitComplex\SevenSegment3DigitComplex.c" 1
 299  0009              	IF 1000==3
 299  0009              ;# 299 "c:\users\tech\desktop\codetector\sevenSegment3DigitComplex\SevenSegment3DigitComplex.c" 1
 299  0009              	NOP
 299  0009              ;# 299 "c:\users\tech\desktop\codetector\sevenSegment3DigitComplex\SevenSegment3DigitComplex.c" 1
 299  0009              	NOP
 299  0009              ;# 299 "c:\users\tech\desktop\codetector\sevenSegment3DigitComplex\SevenSegment3DigitComplex.c" 1
 299  0009              	NOP
 299  0009              	ENDIF
 299  0009              ;# 299 "c:\users\tech\desktop\codetector\sevenSegment3DigitComplex\SevenSegment3DigitComplex.c" 1
 299  0009              	IF (1000<8) AND (1000>3)
 299  0009              ;# 299 "c:\users\tech\desktop\codetector\sevenSegment3DigitComplex\SevenSegment3DigitComplex.c" 1
 299  0009              	CALL __DELAY3 + 7 -1000
 299  0009              	ENDIF
 299  0009              ;# 299 "c:\users\tech\desktop\codetector\sevenSegment3DigitComplex\SevenSegment3DigitComplex.c" 1
 299  0009              	IF (1000< 0404h) AND (1000>7)
 299  0009              ;# 299 "c:\users\tech\desktop\codetector\sevenSegment3DigitComplex\SevenSegment3DigitComplex.c" 1
 299  0009  0FF9        	MOV A,1000/4-1
 299  000A              ;# 299 "c:\users\tech\desktop\codetector\sevenSegment3DigitComplex\SevenSegment3DigitComplex.c" 1
 299  000A  2000     E  	CALL __DELAYX3 + 3 -(1000 MOD 4)
 299  000B              	ENDIF
 299  000B              ;# 299 "c:\users\tech\desktop\codetector\sevenSegment3DigitComplex\SevenSegment3DigitComplex.c" 1
 299  000B              	IF (1000< 0x40B) AND (1000> 0403h)
 299  000B              ;# 299 "c:\users\tech\desktop\codetector\sevenSegment3DigitComplex\SevenSegment3DigitComplex.c" 1
 299  000B              	MOV A,0 
 299  000B              ;# 299 "c:\users\tech\desktop\codetector\sevenSegment3DigitComplex\SevenSegment3DigitComplex.c" 1
 299  000B              	CALL __DELAYX6 + 0x40a -1000
 299  000B              	ENDIF
 299  000B              ;# 299 "c:\users\tech\desktop\codetector\sevenSegment3DigitComplex\SevenSegment3DigitComplex.c" 1
 299  000B              	IF (1000 >= 0x40b) AND ((((1000-9)%0402h)/4+1)>256)
 299  000B              ;# 299 "c:\users\tech\desktop\codetector\sevenSegment3DigitComplex\SevenSegment3DigitComplex.c" 1
 299  000B              	MOV A,(1000-9)/0402h
 299  000B              ;# 299 "c:\users\tech\desktop\codetector\sevenSegment3DigitComplex\SevenSegment3DigitComplex.c" 1
 299  000B              	MOV _builtin_holtek_delay_2,A
 299  000B              ;# 299 "c:\users\tech\desktop\codetector\sevenSegment3DigitComplex\SevenSegment3DigitComplex.c" 1
 299  000B              	MOV A,0
 299  000B              ;# 299 "c:\users\tech\desktop\codetector\sevenSegment3DigitComplex\SevenSegment3DigitComplex.c" 1
 299  000B              	CALL __DELAYY5 +5- (((1000-9)%0402h)%6)
 299  000B              	ENDIF
 299  000B              ;# 299 "c:\users\tech\desktop\codetector\sevenSegment3DigitComplex\SevenSegment3DigitComplex.c" 1
 299  000B              	IF (1000 >= 0x40b) AND ((((1000-9)%0402h)/4+1)<=256)
 299  000B              ;# 299 "c:\users\tech\desktop\codetector\sevenSegment3DigitComplex\SevenSegment3DigitComplex.c" 1
 299  000B              	MOV A,(1000-9)/0402h
 299  000B              ;# 299 "c:\users\tech\desktop\codetector\sevenSegment3DigitComplex\SevenSegment3DigitComplex.c" 1
 299  000B              	MOV _builtin_holtek_delay_2,A
 299  000B              ;# 299 "c:\users\tech\desktop\codetector\sevenSegment3DigitComplex\SevenSegment3DigitComplex.c" 1
 299  000B              	MOV A,((1000-9)%0402h)/4+1
"File: SevenSegment3DigitComplex.c  Assembler  Version HGASM0202      Page 22

 299  000B              ;# 299 "c:\users\tech\desktop\codetector\sevenSegment3DigitComplex\SevenSegment3DigitComplex.c" 1
 299  000B              	CALL __DELAYY3 +3-(((1000-9)%0402h)%4)
 299  000B              	ENDIF
 301  000B              #line 301 "c:\users\tech\desktop\codetector\sevenSegment3DigitComplex\SevenSegment3DigitComplex.c"
 301  000B  2000     R  	call _clearSegment
 303  000C              #line 303 "c:\users\tech\desktop\codetector\sevenSegment3DigitComplex\SevenSegment3DigitComplex.c"
 303  000C  3615        	clr [21].4
 304  000D              #line 304 "c:\users\tech\desktop\codetector\sevenSegment3DigitComplex\SevenSegment3DigitComplex.c"
 304  000D  3415        	clr [21].0
 305  000E              #line 305 "c:\users\tech\desktop\codetector\sevenSegment3DigitComplex\SevenSegment3DigitComplex.c"
 305  000E  3599        	clr [25].3
 307  000F              #line 307 "c:\users\tech\desktop\codetector\sevenSegment3DigitComplex\SevenSegment3DigitComplex.c"
 307  000F  3214        	set [20].4
 308  0010              #line 308 "c:\users\tech\desktop\codetector\sevenSegment3DigitComplex\SevenSegment3DigitComplex.c"
 308  0010  3414        	clr [20].0
 309  0011              #line 309 "c:\users\tech\desktop\codetector\sevenSegment3DigitComplex\SevenSegment3DigitComplex.c"
 309  0011  3598        	clr [24].3
 309  0012  0003        	ret
 309  0013              _towDigit3 endp
 309  0013              #line 309 "c:\users\tech\desktop\codetector\sevenSegment3DigitComplex\SevenSegment3DigitComplex.c"
 309  0013              #pragma debug scope 1 1
 309  0013              public _threeDigit1
 309  0013              #pragma debug scope 18 1
 315  0013              #line 315 "c:\users\tech\desktop\codetector\sevenSegment3DigitComplex\SevenSegment3DigitComplex.c"
 315  0000              _threeDigit1 .section 'code'
 315  0000              _threeDigit1 proc
 317  0000              #line 317 "c:\users\tech\desktop\codetector\sevenSegment3DigitComplex\SevenSegment3DigitComplex.c"
 317  0000  3499        	clr [25].1
 318  0001              #line 318 "c:\users\tech\desktop\codetector\sevenSegment3DigitComplex\SevenSegment3DigitComplex.c"
 318  0001  3519        	clr [25].2
 319  0002              #line 319 "c:\users\tech\desktop\codetector\sevenSegment3DigitComplex\SevenSegment3DigitComplex.c"
 319  0002  3615        	clr [21].4
 320  0003              #line 320 "c:\users\tech\desktop\codetector\sevenSegment3DigitComplex\SevenSegment3DigitComplex.c"
 320  0003  3415        	clr [21].0
 321  0004              #line 321 "c:\users\tech\desktop\codetector\sevenSegment3DigitComplex\SevenSegment3DigitComplex.c"
 321  0004  3515        	clr [21].2
 322  0005              #line 322 "c:\users\tech\desktop\codetector\sevenSegment3DigitComplex\SevenSegment3DigitComplex.c"
 322  0005  3518        	clr [24].2
 323  0006              #line 323 "c:\users\tech\desktop\codetector\sevenSegment3DigitComplex\SevenSegment3DigitComplex.c"
 323  0006  3098        	set [24].1
 324  0007              #line 324 "c:\users\tech\desktop\codetector\sevenSegment3DigitComplex\SevenSegment3DigitComplex.c"
 324  0007  3214        	set [20].4
 325  0008              #line 325 "c:\users\tech\desktop\codetector\sevenSegment3DigitComplex\SevenSegment3DigitComplex.c"
 325  0008  3014        	set [20].0
 326  0009              #line 326 "c:\users\tech\desktop\codetector\sevenSegment3DigitComplex\SevenSegment3DigitComplex.c"
 326  0009  3114        	set [20].2
 328  000A              #line 328 "c:\users\tech\desktop\codetector\sevenSegment3DigitComplex\SevenSegment3DigitComplex.c"
 328  000A              ;# 328 "c:\users\tech\desktop\codetector\sevenSegment3DigitComplex\SevenSegment3DigitComplex.c" 1
 328  000A              	IF 1000>263690
 328  000A              ;# 328 "c:\users\tech\desktop\codetector\sevenSegment3DigitComplex\SevenSegment3DigitComplex.c" 1
 328  000A              	ERRMESSAGE 'the value 1000of the argument exceeds the maxinum 263690'
 328  000A              	ENDIF
 328  000A              ;# 328 "c:\users\tech\desktop\codetector\sevenSegment3DigitComplex\SevenSegment3DigitComplex.c" 1
 328  000A              	IF 1000<0
 328  000A              ;# 328 "c:\users\tech\desktop\codetector\sevenSegment3DigitComplex\SevenSegment3DigitComplex.c" 1
 328  000A              	ERRMESSAGE 'the value 1000 of the argument exceeds the mininum 0'
 328  000A              	ENDIF
 328  000A              ;# 328 "c:\users\tech\desktop\codetector\sevenSegment3DigitComplex\SevenSegment3DigitComplex.c" 1
 328  000A              	IF 1000==0
 328  000A              ;# 328 "c:\users\tech\desktop\codetector\sevenSegment3DigitComplex\SevenSegment3DigitComplex.c" 1
"File: SevenSegment3DigitComplex.c  Assembler  Version HGASM0202      Page 23

 328  000A              	JMP $
 328  000A              	ENDIF
 328  000A              ;# 328 "c:\users\tech\desktop\codetector\sevenSegment3DigitComplex\SevenSegment3DigitComplex.c" 1
 328  000A              	IF 1000==1
 328  000A              ;# 328 "c:\users\tech\desktop\codetector\sevenSegment3DigitComplex\SevenSegment3DigitComplex.c" 1
 328  000A              	NOP
 328  000A              	ENDIF
 328  000A              ;# 328 "c:\users\tech\desktop\codetector\sevenSegment3DigitComplex\SevenSegment3DigitComplex.c" 1
 328  000A              	IF 1000==2
 328  000A              ;# 328 "c:\users\tech\desktop\codetector\sevenSegment3DigitComplex\SevenSegment3DigitComplex.c" 1
 328  000A              	NOP
 328  000A              ;# 328 "c:\users\tech\desktop\codetector\sevenSegment3DigitComplex\SevenSegment3DigitComplex.c" 1
 328  000A              	NOP
 328  000A              	ENDIF
 328  000A              ;# 328 "c:\users\tech\desktop\codetector\sevenSegment3DigitComplex\SevenSegment3DigitComplex.c" 1
 328  000A              	IF 1000==3
 328  000A              ;# 328 "c:\users\tech\desktop\codetector\sevenSegment3DigitComplex\SevenSegment3DigitComplex.c" 1
 328  000A              	NOP
 328  000A              ;# 328 "c:\users\tech\desktop\codetector\sevenSegment3DigitComplex\SevenSegment3DigitComplex.c" 1
 328  000A              	NOP
 328  000A              ;# 328 "c:\users\tech\desktop\codetector\sevenSegment3DigitComplex\SevenSegment3DigitComplex.c" 1
 328  000A              	NOP
 328  000A              	ENDIF
 328  000A              ;# 328 "c:\users\tech\desktop\codetector\sevenSegment3DigitComplex\SevenSegment3DigitComplex.c" 1
 328  000A              	IF (1000<8) AND (1000>3)
 328  000A              ;# 328 "c:\users\tech\desktop\codetector\sevenSegment3DigitComplex\SevenSegment3DigitComplex.c" 1
 328  000A              	CALL __DELAY3 + 7 -1000
 328  000A              	ENDIF
 328  000A              ;# 328 "c:\users\tech\desktop\codetector\sevenSegment3DigitComplex\SevenSegment3DigitComplex.c" 1
 328  000A              	IF (1000< 0404h) AND (1000>7)
 328  000A              ;# 328 "c:\users\tech\desktop\codetector\sevenSegment3DigitComplex\SevenSegment3DigitComplex.c" 1
 328  000A  0FF9        	MOV A,1000/4-1
 328  000B              ;# 328 "c:\users\tech\desktop\codetector\sevenSegment3DigitComplex\SevenSegment3DigitComplex.c" 1
 328  000B  2000     E  	CALL __DELAYX3 + 3 -(1000 MOD 4)
 328  000C              	ENDIF
 328  000C              ;# 328 "c:\users\tech\desktop\codetector\sevenSegment3DigitComplex\SevenSegment3DigitComplex.c" 1
 328  000C              	IF (1000< 0x40B) AND (1000> 0403h)
 328  000C              ;# 328 "c:\users\tech\desktop\codetector\sevenSegment3DigitComplex\SevenSegment3DigitComplex.c" 1
 328  000C              	MOV A,0 
 328  000C              ;# 328 "c:\users\tech\desktop\codetector\sevenSegment3DigitComplex\SevenSegment3DigitComplex.c" 1
 328  000C              	CALL __DELAYX6 + 0x40a -1000
 328  000C              	ENDIF
 328  000C              ;# 328 "c:\users\tech\desktop\codetector\sevenSegment3DigitComplex\SevenSegment3DigitComplex.c" 1
 328  000C              	IF (1000 >= 0x40b) AND ((((1000-9)%0402h)/4+1)>256)
 328  000C              ;# 328 "c:\users\tech\desktop\codetector\sevenSegment3DigitComplex\SevenSegment3DigitComplex.c" 1
 328  000C              	MOV A,(1000-9)/0402h
 328  000C              ;# 328 "c:\users\tech\desktop\codetector\sevenSegment3DigitComplex\SevenSegment3DigitComplex.c" 1
 328  000C              	MOV _builtin_holtek_delay_2,A
 328  000C              ;# 328 "c:\users\tech\desktop\codetector\sevenSegment3DigitComplex\SevenSegment3DigitComplex.c" 1
 328  000C              	MOV A,0
 328  000C              ;# 328 "c:\users\tech\desktop\codetector\sevenSegment3DigitComplex\SevenSegment3DigitComplex.c" 1
 328  000C              	CALL __DELAYY5 +5- (((1000-9)%0402h)%6)
 328  000C              	ENDIF
 328  000C              ;# 328 "c:\users\tech\desktop\codetector\sevenSegment3DigitComplex\SevenSegment3DigitComplex.c" 1
 328  000C              	IF (1000 >= 0x40b) AND ((((1000-9)%0402h)/4+1)<=256)
 328  000C              ;# 328 "c:\users\tech\desktop\codetector\sevenSegment3DigitComplex\SevenSegment3DigitComplex.c" 1
 328  000C              	MOV A,(1000-9)/0402h
 328  000C              ;# 328 "c:\users\tech\desktop\codetector\sevenSegment3DigitComplex\SevenSegment3DigitComplex.c" 1
 328  000C              	MOV _builtin_holtek_delay_2,A
 328  000C              ;# 328 "c:\users\tech\desktop\codetector\sevenSegment3DigitComplex\SevenSegment3DigitComplex.c" 1
"File: SevenSegment3DigitComplex.c  Assembler  Version HGASM0202      Page 24

 328  000C              	MOV A,((1000-9)%0402h)/4+1
 328  000C              ;# 328 "c:\users\tech\desktop\codetector\sevenSegment3DigitComplex\SevenSegment3DigitComplex.c" 1
 328  000C              	CALL __DELAYY3 +3-(((1000-9)%0402h)%4)
 328  000C              	ENDIF
 329  000C              #line 329 "c:\users\tech\desktop\codetector\sevenSegment3DigitComplex\SevenSegment3DigitComplex.c"
 329  000C  2000     R  	call _clearSegment
 331  000D              #line 331 "c:\users\tech\desktop\codetector\sevenSegment3DigitComplex\SevenSegment3DigitComplex.c"
 331  000D  3119        	set [25].2
 332  000E              #line 332 "c:\users\tech\desktop\codetector\sevenSegment3DigitComplex\SevenSegment3DigitComplex.c"
 332  000E  3499        	clr [25].1
 333  000F              #line 333 "c:\users\tech\desktop\codetector\sevenSegment3DigitComplex\SevenSegment3DigitComplex.c"
 333  000F  3215        	set [21].4
 334  0010              #line 334 "c:\users\tech\desktop\codetector\sevenSegment3DigitComplex\SevenSegment3DigitComplex.c"
 334  0010  3415        	clr [21].0
 335  0011              #line 335 "c:\users\tech\desktop\codetector\sevenSegment3DigitComplex\SevenSegment3DigitComplex.c"
 335  0011  3115        	set [21].2
 336  0012              #line 336 "c:\users\tech\desktop\codetector\sevenSegment3DigitComplex\SevenSegment3DigitComplex.c"
 336  0012  3199        	set [25].3
 337  0013              #line 337 "c:\users\tech\desktop\codetector\sevenSegment3DigitComplex\SevenSegment3DigitComplex.c"
 337  0013  3014        	set [20].0
 338  0014              #line 338 "c:\users\tech\desktop\codetector\sevenSegment3DigitComplex\SevenSegment3DigitComplex.c"
 338  0014  3498        	clr [24].1
 338  0015  0003        	ret
 338  0016              _threeDigit1 endp
 338  0016              #line 338 "c:\users\tech\desktop\codetector\sevenSegment3DigitComplex\SevenSegment3DigitComplex.c"
 338  0016              #pragma debug scope 1 1
 338  0016              public _threeDigit2
 338  0016              #pragma debug scope 19 1
 341  0016              #line 341 "c:\users\tech\desktop\codetector\sevenSegment3DigitComplex\SevenSegment3DigitComplex.c"
 341  0000              _threeDigit2 .section 'code'
 341  0000              _threeDigit2 proc
 343  0000              #line 343 "c:\users\tech\desktop\codetector\sevenSegment3DigitComplex\SevenSegment3DigitComplex.c"
 343  0000  3519        	clr [25].2
 344  0001              #line 344 "c:\users\tech\desktop\codetector\sevenSegment3DigitComplex\SevenSegment3DigitComplex.c"
 344  0001  3499        	clr [25].1
 345  0002              #line 345 "c:\users\tech\desktop\codetector\sevenSegment3DigitComplex\SevenSegment3DigitComplex.c"
 345  0002  3615        	clr [21].4
 346  0003              #line 346 "c:\users\tech\desktop\codetector\sevenSegment3DigitComplex\SevenSegment3DigitComplex.c"
 346  0003  3415        	clr [21].0
 347  0004              #line 347 "c:\users\tech\desktop\codetector\sevenSegment3DigitComplex\SevenSegment3DigitComplex.c"
 347  0004  3515        	clr [21].2
 348  0005              #line 348 "c:\users\tech\desktop\codetector\sevenSegment3DigitComplex\SevenSegment3DigitComplex.c"
 348  0005  3118        	set [24].2
 349  0006              #line 349 "c:\users\tech\desktop\codetector\sevenSegment3DigitComplex\SevenSegment3DigitComplex.c"
 349  0006  3498        	clr [24].1
 350  0007              #line 350 "c:\users\tech\desktop\codetector\sevenSegment3DigitComplex\SevenSegment3DigitComplex.c"
 350  0007  3614        	clr [20].4
 351  0008              #line 351 "c:\users\tech\desktop\codetector\sevenSegment3DigitComplex\SevenSegment3DigitComplex.c"
 351  0008  3414        	clr [20].0
 352  0009              #line 352 "c:\users\tech\desktop\codetector\sevenSegment3DigitComplex\SevenSegment3DigitComplex.c"
 352  0009  3514        	clr [20].2
 353  000A              #line 353 "c:\users\tech\desktop\codetector\sevenSegment3DigitComplex\SevenSegment3DigitComplex.c"
 353  000A              ;# 353 "c:\users\tech\desktop\codetector\sevenSegment3DigitComplex\SevenSegment3DigitComplex.c" 1
 353  000A              	IF 1000>263690
 353  000A              ;# 353 "c:\users\tech\desktop\codetector\sevenSegment3DigitComplex\SevenSegment3DigitComplex.c" 1
 353  000A              	ERRMESSAGE 'the value 1000of the argument exceeds the maxinum 263690'
 353  000A              	ENDIF
 353  000A              ;# 353 "c:\users\tech\desktop\codetector\sevenSegment3DigitComplex\SevenSegment3DigitComplex.c" 1
 353  000A              	IF 1000<0
 353  000A              ;# 353 "c:\users\tech\desktop\codetector\sevenSegment3DigitComplex\SevenSegment3DigitComplex.c" 1
"File: SevenSegment3DigitComplex.c  Assembler  Version HGASM0202      Page 25

 353  000A              	ERRMESSAGE 'the value 1000 of the argument exceeds the mininum 0'
 353  000A              	ENDIF
 353  000A              ;# 353 "c:\users\tech\desktop\codetector\sevenSegment3DigitComplex\SevenSegment3DigitComplex.c" 1
 353  000A              	IF 1000==0
 353  000A              ;# 353 "c:\users\tech\desktop\codetector\sevenSegment3DigitComplex\SevenSegment3DigitComplex.c" 1
 353  000A              	JMP $
 353  000A              	ENDIF
 353  000A              ;# 353 "c:\users\tech\desktop\codetector\sevenSegment3DigitComplex\SevenSegment3DigitComplex.c" 1
 353  000A              	IF 1000==1
 353  000A              ;# 353 "c:\users\tech\desktop\codetector\sevenSegment3DigitComplex\SevenSegment3DigitComplex.c" 1
 353  000A              	NOP
 353  000A              	ENDIF
 353  000A              ;# 353 "c:\users\tech\desktop\codetector\sevenSegment3DigitComplex\SevenSegment3DigitComplex.c" 1
 353  000A              	IF 1000==2
 353  000A              ;# 353 "c:\users\tech\desktop\codetector\sevenSegment3DigitComplex\SevenSegment3DigitComplex.c" 1
 353  000A              	NOP
 353  000A              ;# 353 "c:\users\tech\desktop\codetector\sevenSegment3DigitComplex\SevenSegment3DigitComplex.c" 1
 353  000A              	NOP
 353  000A              	ENDIF
 353  000A              ;# 353 "c:\users\tech\desktop\codetector\sevenSegment3DigitComplex\SevenSegment3DigitComplex.c" 1
 353  000A              	IF 1000==3
 353  000A              ;# 353 "c:\users\tech\desktop\codetector\sevenSegment3DigitComplex\SevenSegment3DigitComplex.c" 1
 353  000A              	NOP
 353  000A              ;# 353 "c:\users\tech\desktop\codetector\sevenSegment3DigitComplex\SevenSegment3DigitComplex.c" 1
 353  000A              	NOP
 353  000A              ;# 353 "c:\users\tech\desktop\codetector\sevenSegment3DigitComplex\SevenSegment3DigitComplex.c" 1
 353  000A              	NOP
 353  000A              	ENDIF
 353  000A              ;# 353 "c:\users\tech\desktop\codetector\sevenSegment3DigitComplex\SevenSegment3DigitComplex.c" 1
 353  000A              	IF (1000<8) AND (1000>3)
 353  000A              ;# 353 "c:\users\tech\desktop\codetector\sevenSegment3DigitComplex\SevenSegment3DigitComplex.c" 1
 353  000A              	CALL __DELAY3 + 7 -1000
 353  000A              	ENDIF
 353  000A              ;# 353 "c:\users\tech\desktop\codetector\sevenSegment3DigitComplex\SevenSegment3DigitComplex.c" 1
 353  000A              	IF (1000< 0404h) AND (1000>7)
 353  000A              ;# 353 "c:\users\tech\desktop\codetector\sevenSegment3DigitComplex\SevenSegment3DigitComplex.c" 1
 353  000A  0FF9        	MOV A,1000/4-1
 353  000B              ;# 353 "c:\users\tech\desktop\codetector\sevenSegment3DigitComplex\SevenSegment3DigitComplex.c" 1
 353  000B  2000     E  	CALL __DELAYX3 + 3 -(1000 MOD 4)
 353  000C              	ENDIF
 353  000C              ;# 353 "c:\users\tech\desktop\codetector\sevenSegment3DigitComplex\SevenSegment3DigitComplex.c" 1
 353  000C              	IF (1000< 0x40B) AND (1000> 0403h)
 353  000C              ;# 353 "c:\users\tech\desktop\codetector\sevenSegment3DigitComplex\SevenSegment3DigitComplex.c" 1
 353  000C              	MOV A,0 
 353  000C              ;# 353 "c:\users\tech\desktop\codetector\sevenSegment3DigitComplex\SevenSegment3DigitComplex.c" 1
 353  000C              	CALL __DELAYX6 + 0x40a -1000
 353  000C              	ENDIF
 353  000C              ;# 353 "c:\users\tech\desktop\codetector\sevenSegment3DigitComplex\SevenSegment3DigitComplex.c" 1
 353  000C              	IF (1000 >= 0x40b) AND ((((1000-9)%0402h)/4+1)>256)
 353  000C              ;# 353 "c:\users\tech\desktop\codetector\sevenSegment3DigitComplex\SevenSegment3DigitComplex.c" 1
 353  000C              	MOV A,(1000-9)/0402h
 353  000C              ;# 353 "c:\users\tech\desktop\codetector\sevenSegment3DigitComplex\SevenSegment3DigitComplex.c" 1
 353  000C              	MOV _builtin_holtek_delay_2,A
 353  000C              ;# 353 "c:\users\tech\desktop\codetector\sevenSegment3DigitComplex\SevenSegment3DigitComplex.c" 1
 353  000C              	MOV A,0
 353  000C              ;# 353 "c:\users\tech\desktop\codetector\sevenSegment3DigitComplex\SevenSegment3DigitComplex.c" 1
 353  000C              	CALL __DELAYY5 +5- (((1000-9)%0402h)%6)
 353  000C              	ENDIF
 353  000C              ;# 353 "c:\users\tech\desktop\codetector\sevenSegment3DigitComplex\SevenSegment3DigitComplex.c" 1
 353  000C              	IF (1000 >= 0x40b) AND ((((1000-9)%0402h)/4+1)<=256)
"File: SevenSegment3DigitComplex.c  Assembler  Version HGASM0202      Page 26

 353  000C              ;# 353 "c:\users\tech\desktop\codetector\sevenSegment3DigitComplex\SevenSegment3DigitComplex.c" 1
 353  000C              	MOV A,(1000-9)/0402h
 353  000C              ;# 353 "c:\users\tech\desktop\codetector\sevenSegment3DigitComplex\SevenSegment3DigitComplex.c" 1
 353  000C              	MOV _builtin_holtek_delay_2,A
 353  000C              ;# 353 "c:\users\tech\desktop\codetector\sevenSegment3DigitComplex\SevenSegment3DigitComplex.c" 1
 353  000C              	MOV A,((1000-9)%0402h)/4+1
 353  000C              ;# 353 "c:\users\tech\desktop\codetector\sevenSegment3DigitComplex\SevenSegment3DigitComplex.c" 1
 353  000C              	CALL __DELAYY3 +3-(((1000-9)%0402h)%4)
 353  000C              	ENDIF
 354  000C              #line 354 "c:\users\tech\desktop\codetector\sevenSegment3DigitComplex\SevenSegment3DigitComplex.c"
 354  000C  2000     R  	call _clearSegment
 357  000D              #line 357 "c:\users\tech\desktop\codetector\sevenSegment3DigitComplex\SevenSegment3DigitComplex.c"
 357  000D  3499        	clr [25].1
 358  000E              #line 358 "c:\users\tech\desktop\codetector\sevenSegment3DigitComplex\SevenSegment3DigitComplex.c"
 358  000E  3599        	clr [25].3
 359  000F              #line 359 "c:\users\tech\desktop\codetector\sevenSegment3DigitComplex\SevenSegment3DigitComplex.c"
 359  000F  3498        	clr [24].1
 360  0010              #line 360 "c:\users\tech\desktop\codetector\sevenSegment3DigitComplex\SevenSegment3DigitComplex.c"
 360  0010  3198        	set [24].3
 360  0011  0003        	ret
 360  0012              _threeDigit2 endp
 360  0012              #line 360 "c:\users\tech\desktop\codetector\sevenSegment3DigitComplex\SevenSegment3DigitComplex.c"
 360  0012              #pragma debug scope 1 1
 360  0012              public _threeDigit3
 360  0012              #pragma debug scope 20 1
 364  0012              #line 364 "c:\users\tech\desktop\codetector\sevenSegment3DigitComplex\SevenSegment3DigitComplex.c"
 364  0000              _threeDigit3 .section 'code'
 364  0000              _threeDigit3 proc
 366  0000              #line 366 "c:\users\tech\desktop\codetector\sevenSegment3DigitComplex\SevenSegment3DigitComplex.c"
 366  0000  3499        	clr [25].1
 367  0001              #line 367 "c:\users\tech\desktop\codetector\sevenSegment3DigitComplex\SevenSegment3DigitComplex.c"
 367  0001  3615        	clr [21].4
 368  0002              #line 368 "c:\users\tech\desktop\codetector\sevenSegment3DigitComplex\SevenSegment3DigitComplex.c"
 368  0002  3415        	clr [21].0
 369  0003              #line 369 "c:\users\tech\desktop\codetector\sevenSegment3DigitComplex\SevenSegment3DigitComplex.c"
 369  0003  3515        	clr [21].2
 370  0004              #line 370 "c:\users\tech\desktop\codetector\sevenSegment3DigitComplex\SevenSegment3DigitComplex.c"
 370  0004  3599        	clr [25].3
 371  0005              #line 371 "c:\users\tech\desktop\codetector\sevenSegment3DigitComplex\SevenSegment3DigitComplex.c"
 371  0005  3098        	set [24].1
 372  0006              #line 372 "c:\users\tech\desktop\codetector\sevenSegment3DigitComplex\SevenSegment3DigitComplex.c"
 372  0006  3614        	clr [20].4
 373  0007              #line 373 "c:\users\tech\desktop\codetector\sevenSegment3DigitComplex\SevenSegment3DigitComplex.c"
 373  0007  3414        	clr [20].0
 374  0008              #line 374 "c:\users\tech\desktop\codetector\sevenSegment3DigitComplex\SevenSegment3DigitComplex.c"
 374  0008  3514        	clr [20].2
 375  0009              #line 375 "c:\users\tech\desktop\codetector\sevenSegment3DigitComplex\SevenSegment3DigitComplex.c"
 375  0009  3598        	clr [24].3
 376  000A              #line 376 "c:\users\tech\desktop\codetector\sevenSegment3DigitComplex\SevenSegment3DigitComplex.c"
 376  000A              ;# 376 "c:\users\tech\desktop\codetector\sevenSegment3DigitComplex\SevenSegment3DigitComplex.c" 1
 376  000A              	IF 1000>263690
 376  000A              ;# 376 "c:\users\tech\desktop\codetector\sevenSegment3DigitComplex\SevenSegment3DigitComplex.c" 1
 376  000A              	ERRMESSAGE 'the value 1000of the argument exceeds the maxinum 263690'
 376  000A              	ENDIF
 376  000A              ;# 376 "c:\users\tech\desktop\codetector\sevenSegment3DigitComplex\SevenSegment3DigitComplex.c" 1
 376  000A              	IF 1000<0
 376  000A              ;# 376 "c:\users\tech\desktop\codetector\sevenSegment3DigitComplex\SevenSegment3DigitComplex.c" 1
 376  000A              	ERRMESSAGE 'the value 1000 of the argument exceeds the mininum 0'
 376  000A              	ENDIF
 376  000A              ;# 376 "c:\users\tech\desktop\codetector\sevenSegment3DigitComplex\SevenSegment3DigitComplex.c" 1
"File: SevenSegment3DigitComplex.c  Assembler  Version HGASM0202      Page 27

 376  000A              	IF 1000==0
 376  000A              ;# 376 "c:\users\tech\desktop\codetector\sevenSegment3DigitComplex\SevenSegment3DigitComplex.c" 1
 376  000A              	JMP $
 376  000A              	ENDIF
 376  000A              ;# 376 "c:\users\tech\desktop\codetector\sevenSegment3DigitComplex\SevenSegment3DigitComplex.c" 1
 376  000A              	IF 1000==1
 376  000A              ;# 376 "c:\users\tech\desktop\codetector\sevenSegment3DigitComplex\SevenSegment3DigitComplex.c" 1
 376  000A              	NOP
 376  000A              	ENDIF
 376  000A              ;# 376 "c:\users\tech\desktop\codetector\sevenSegment3DigitComplex\SevenSegment3DigitComplex.c" 1
 376  000A              	IF 1000==2
 376  000A              ;# 376 "c:\users\tech\desktop\codetector\sevenSegment3DigitComplex\SevenSegment3DigitComplex.c" 1
 376  000A              	NOP
 376  000A              ;# 376 "c:\users\tech\desktop\codetector\sevenSegment3DigitComplex\SevenSegment3DigitComplex.c" 1
 376  000A              	NOP
 376  000A              	ENDIF
 376  000A              ;# 376 "c:\users\tech\desktop\codetector\sevenSegment3DigitComplex\SevenSegment3DigitComplex.c" 1
 376  000A              	IF 1000==3
 376  000A              ;# 376 "c:\users\tech\desktop\codetector\sevenSegment3DigitComplex\SevenSegment3DigitComplex.c" 1
 376  000A              	NOP
 376  000A              ;# 376 "c:\users\tech\desktop\codetector\sevenSegment3DigitComplex\SevenSegment3DigitComplex.c" 1
 376  000A              	NOP
 376  000A              ;# 376 "c:\users\tech\desktop\codetector\sevenSegment3DigitComplex\SevenSegment3DigitComplex.c" 1
 376  000A              	NOP
 376  000A              	ENDIF
 376  000A              ;# 376 "c:\users\tech\desktop\codetector\sevenSegment3DigitComplex\SevenSegment3DigitComplex.c" 1
 376  000A              	IF (1000<8) AND (1000>3)
 376  000A              ;# 376 "c:\users\tech\desktop\codetector\sevenSegment3DigitComplex\SevenSegment3DigitComplex.c" 1
 376  000A              	CALL __DELAY3 + 7 -1000
 376  000A              	ENDIF
 376  000A              ;# 376 "c:\users\tech\desktop\codetector\sevenSegment3DigitComplex\SevenSegment3DigitComplex.c" 1
 376  000A              	IF (1000< 0404h) AND (1000>7)
 376  000A              ;# 376 "c:\users\tech\desktop\codetector\sevenSegment3DigitComplex\SevenSegment3DigitComplex.c" 1
 376  000A  0FF9        	MOV A,1000/4-1
 376  000B              ;# 376 "c:\users\tech\desktop\codetector\sevenSegment3DigitComplex\SevenSegment3DigitComplex.c" 1
 376  000B  2000     E  	CALL __DELAYX3 + 3 -(1000 MOD 4)
 376  000C              	ENDIF
 376  000C              ;# 376 "c:\users\tech\desktop\codetector\sevenSegment3DigitComplex\SevenSegment3DigitComplex.c" 1
 376  000C              	IF (1000< 0x40B) AND (1000> 0403h)
 376  000C              ;# 376 "c:\users\tech\desktop\codetector\sevenSegment3DigitComplex\SevenSegment3DigitComplex.c" 1
 376  000C              	MOV A,0 
 376  000C              ;# 376 "c:\users\tech\desktop\codetector\sevenSegment3DigitComplex\SevenSegment3DigitComplex.c" 1
 376  000C              	CALL __DELAYX6 + 0x40a -1000
 376  000C              	ENDIF
 376  000C              ;# 376 "c:\users\tech\desktop\codetector\sevenSegment3DigitComplex\SevenSegment3DigitComplex.c" 1
 376  000C              	IF (1000 >= 0x40b) AND ((((1000-9)%0402h)/4+1)>256)
 376  000C              ;# 376 "c:\users\tech\desktop\codetector\sevenSegment3DigitComplex\SevenSegment3DigitComplex.c" 1
 376  000C              	MOV A,(1000-9)/0402h
 376  000C              ;# 376 "c:\users\tech\desktop\codetector\sevenSegment3DigitComplex\SevenSegment3DigitComplex.c" 1
 376  000C              	MOV _builtin_holtek_delay_2,A
 376  000C              ;# 376 "c:\users\tech\desktop\codetector\sevenSegment3DigitComplex\SevenSegment3DigitComplex.c" 1
 376  000C              	MOV A,0
 376  000C              ;# 376 "c:\users\tech\desktop\codetector\sevenSegment3DigitComplex\SevenSegment3DigitComplex.c" 1
 376  000C              	CALL __DELAYY5 +5- (((1000-9)%0402h)%6)
 376  000C              	ENDIF
 376  000C              ;# 376 "c:\users\tech\desktop\codetector\sevenSegment3DigitComplex\SevenSegment3DigitComplex.c" 1
 376  000C              	IF (1000 >= 0x40b) AND ((((1000-9)%0402h)/4+1)<=256)
 376  000C              ;# 376 "c:\users\tech\desktop\codetector\sevenSegment3DigitComplex\SevenSegment3DigitComplex.c" 1
 376  000C              	MOV A,(1000-9)/0402h
 376  000C              ;# 376 "c:\users\tech\desktop\codetector\sevenSegment3DigitComplex\SevenSegment3DigitComplex.c" 1
"File: SevenSegment3DigitComplex.c  Assembler  Version HGASM0202      Page 28

 376  000C              	MOV _builtin_holtek_delay_2,A
 376  000C              ;# 376 "c:\users\tech\desktop\codetector\sevenSegment3DigitComplex\SevenSegment3DigitComplex.c" 1
 376  000C              	MOV A,((1000-9)%0402h)/4+1
 376  000C              ;# 376 "c:\users\tech\desktop\codetector\sevenSegment3DigitComplex\SevenSegment3DigitComplex.c" 1
 376  000C              	CALL __DELAYY3 +3-(((1000-9)%0402h)%4)
 376  000C              	ENDIF
 377  000C              #line 377 "c:\users\tech\desktop\codetector\sevenSegment3DigitComplex\SevenSegment3DigitComplex.c"
 377  000C  2000     R  	call _clearSegment
 378  000D              #line 378 "c:\users\tech\desktop\codetector\sevenSegment3DigitComplex\SevenSegment3DigitComplex.c"
 378  000D  3615        	clr [21].4
 379  000E              #line 379 "c:\users\tech\desktop\codetector\sevenSegment3DigitComplex\SevenSegment3DigitComplex.c"
 379  000E  3599        	clr [25].3
 380  000F              #line 380 "c:\users\tech\desktop\codetector\sevenSegment3DigitComplex\SevenSegment3DigitComplex.c"
 380  000F  3214        	set [20].4
 381  0010              #line 381 "c:\users\tech\desktop\codetector\sevenSegment3DigitComplex\SevenSegment3DigitComplex.c"
 381  0010  3598        	clr [24].3
 381  0011  0003        	ret
 381  0012              _threeDigit3 endp
 381  0012              #line 381 "c:\users\tech\desktop\codetector\sevenSegment3DigitComplex\SevenSegment3DigitComplex.c"
 381  0012              #pragma debug scope 1 1
 381  0012              public _fourDigit1
 381  0012              #pragma debug scope 21 1
 386  0012              #line 386 "c:\users\tech\desktop\codetector\sevenSegment3DigitComplex\SevenSegment3DigitComplex.c"
 386  0000              _fourDigit1 .section 'code'
 386  0000              _fourDigit1 proc
 388  0000              #line 388 "c:\users\tech\desktop\codetector\sevenSegment3DigitComplex\SevenSegment3DigitComplex.c"
 388  0000  3519        	clr [25].2
 389  0001              #line 389 "c:\users\tech\desktop\codetector\sevenSegment3DigitComplex\SevenSegment3DigitComplex.c"
 389  0001  3615        	clr [21].4
 390  0002              #line 390 "c:\users\tech\desktop\codetector\sevenSegment3DigitComplex\SevenSegment3DigitComplex.c"
 390  0002  3415        	clr [21].0
 391  0003              #line 391 "c:\users\tech\desktop\codetector\sevenSegment3DigitComplex\SevenSegment3DigitComplex.c"
 391  0003  3518        	clr [24].2
 392  0004              #line 392 "c:\users\tech\desktop\codetector\sevenSegment3DigitComplex\SevenSegment3DigitComplex.c"
 392  0004  3214        	set [20].4
 393  0005              #line 393 "c:\users\tech\desktop\codetector\sevenSegment3DigitComplex\SevenSegment3DigitComplex.c"
 393  0005  3014        	set [20].0
 395  0006              #line 395 "c:\users\tech\desktop\codetector\sevenSegment3DigitComplex\SevenSegment3DigitComplex.c"
 395  0006              ;# 395 "c:\users\tech\desktop\codetector\sevenSegment3DigitComplex\SevenSegment3DigitComplex.c" 1
 395  0006              	IF 1000>263690
 395  0006              ;# 395 "c:\users\tech\desktop\codetector\sevenSegment3DigitComplex\SevenSegment3DigitComplex.c" 1
 395  0006              	ERRMESSAGE 'the value 1000of the argument exceeds the maxinum 263690'
 395  0006              	ENDIF
 395  0006              ;# 395 "c:\users\tech\desktop\codetector\sevenSegment3DigitComplex\SevenSegment3DigitComplex.c" 1
 395  0006              	IF 1000<0
 395  0006              ;# 395 "c:\users\tech\desktop\codetector\sevenSegment3DigitComplex\SevenSegment3DigitComplex.c" 1
 395  0006              	ERRMESSAGE 'the value 1000 of the argument exceeds the mininum 0'
 395  0006              	ENDIF
 395  0006              ;# 395 "c:\users\tech\desktop\codetector\sevenSegment3DigitComplex\SevenSegment3DigitComplex.c" 1
 395  0006              	IF 1000==0
 395  0006              ;# 395 "c:\users\tech\desktop\codetector\sevenSegment3DigitComplex\SevenSegment3DigitComplex.c" 1
 395  0006              	JMP $
 395  0006              	ENDIF
 395  0006              ;# 395 "c:\users\tech\desktop\codetector\sevenSegment3DigitComplex\SevenSegment3DigitComplex.c" 1
 395  0006              	IF 1000==1
 395  0006              ;# 395 "c:\users\tech\desktop\codetector\sevenSegment3DigitComplex\SevenSegment3DigitComplex.c" 1
 395  0006              	NOP
 395  0006              	ENDIF
 395  0006              ;# 395 "c:\users\tech\desktop\codetector\sevenSegment3DigitComplex\SevenSegment3DigitComplex.c" 1
 395  0006              	IF 1000==2
"File: SevenSegment3DigitComplex.c  Assembler  Version HGASM0202      Page 29

 395  0006              ;# 395 "c:\users\tech\desktop\codetector\sevenSegment3DigitComplex\SevenSegment3DigitComplex.c" 1
 395  0006              	NOP
 395  0006              ;# 395 "c:\users\tech\desktop\codetector\sevenSegment3DigitComplex\SevenSegment3DigitComplex.c" 1
 395  0006              	NOP
 395  0006              	ENDIF
 395  0006              ;# 395 "c:\users\tech\desktop\codetector\sevenSegment3DigitComplex\SevenSegment3DigitComplex.c" 1
 395  0006              	IF 1000==3
 395  0006              ;# 395 "c:\users\tech\desktop\codetector\sevenSegment3DigitComplex\SevenSegment3DigitComplex.c" 1
 395  0006              	NOP
 395  0006              ;# 395 "c:\users\tech\desktop\codetector\sevenSegment3DigitComplex\SevenSegment3DigitComplex.c" 1
 395  0006              	NOP
 395  0006              ;# 395 "c:\users\tech\desktop\codetector\sevenSegment3DigitComplex\SevenSegment3DigitComplex.c" 1
 395  0006              	NOP
 395  0006              	ENDIF
 395  0006              ;# 395 "c:\users\tech\desktop\codetector\sevenSegment3DigitComplex\SevenSegment3DigitComplex.c" 1
 395  0006              	IF (1000<8) AND (1000>3)
 395  0006              ;# 395 "c:\users\tech\desktop\codetector\sevenSegment3DigitComplex\SevenSegment3DigitComplex.c" 1
 395  0006              	CALL __DELAY3 + 7 -1000
 395  0006              	ENDIF
 395  0006              ;# 395 "c:\users\tech\desktop\codetector\sevenSegment3DigitComplex\SevenSegment3DigitComplex.c" 1
 395  0006              	IF (1000< 0404h) AND (1000>7)
 395  0006              ;# 395 "c:\users\tech\desktop\codetector\sevenSegment3DigitComplex\SevenSegment3DigitComplex.c" 1
 395  0006  0FF9        	MOV A,1000/4-1
 395  0007              ;# 395 "c:\users\tech\desktop\codetector\sevenSegment3DigitComplex\SevenSegment3DigitComplex.c" 1
 395  0007  2000     E  	CALL __DELAYX3 + 3 -(1000 MOD 4)
 395  0008              	ENDIF
 395  0008              ;# 395 "c:\users\tech\desktop\codetector\sevenSegment3DigitComplex\SevenSegment3DigitComplex.c" 1
 395  0008              	IF (1000< 0x40B) AND (1000> 0403h)
 395  0008              ;# 395 "c:\users\tech\desktop\codetector\sevenSegment3DigitComplex\SevenSegment3DigitComplex.c" 1
 395  0008              	MOV A,0 
 395  0008              ;# 395 "c:\users\tech\desktop\codetector\sevenSegment3DigitComplex\SevenSegment3DigitComplex.c" 1
 395  0008              	CALL __DELAYX6 + 0x40a -1000
 395  0008              	ENDIF
 395  0008              ;# 395 "c:\users\tech\desktop\codetector\sevenSegment3DigitComplex\SevenSegment3DigitComplex.c" 1
 395  0008              	IF (1000 >= 0x40b) AND ((((1000-9)%0402h)/4+1)>256)
 395  0008              ;# 395 "c:\users\tech\desktop\codetector\sevenSegment3DigitComplex\SevenSegment3DigitComplex.c" 1
 395  0008              	MOV A,(1000-9)/0402h
 395  0008              ;# 395 "c:\users\tech\desktop\codetector\sevenSegment3DigitComplex\SevenSegment3DigitComplex.c" 1
 395  0008              	MOV _builtin_holtek_delay_2,A
 395  0008              ;# 395 "c:\users\tech\desktop\codetector\sevenSegment3DigitComplex\SevenSegment3DigitComplex.c" 1
 395  0008              	MOV A,0
 395  0008              ;# 395 "c:\users\tech\desktop\codetector\sevenSegment3DigitComplex\SevenSegment3DigitComplex.c" 1
 395  0008              	CALL __DELAYY5 +5- (((1000-9)%0402h)%6)
 395  0008              	ENDIF
 395  0008              ;# 395 "c:\users\tech\desktop\codetector\sevenSegment3DigitComplex\SevenSegment3DigitComplex.c" 1
 395  0008              	IF (1000 >= 0x40b) AND ((((1000-9)%0402h)/4+1)<=256)
 395  0008              ;# 395 "c:\users\tech\desktop\codetector\sevenSegment3DigitComplex\SevenSegment3DigitComplex.c" 1
 395  0008              	MOV A,(1000-9)/0402h
 395  0008              ;# 395 "c:\users\tech\desktop\codetector\sevenSegment3DigitComplex\SevenSegment3DigitComplex.c" 1
 395  0008              	MOV _builtin_holtek_delay_2,A
 395  0008              ;# 395 "c:\users\tech\desktop\codetector\sevenSegment3DigitComplex\SevenSegment3DigitComplex.c" 1
 395  0008              	MOV A,((1000-9)%0402h)/4+1
 395  0008              ;# 395 "c:\users\tech\desktop\codetector\sevenSegment3DigitComplex\SevenSegment3DigitComplex.c" 1
 395  0008              	CALL __DELAYY3 +3-(((1000-9)%0402h)%4)
 395  0008              	ENDIF
 396  0008              #line 396 "c:\users\tech\desktop\codetector\sevenSegment3DigitComplex\SevenSegment3DigitComplex.c"
 396  0008  2000     R  	call _clearSegment
 398  0009              #line 398 "c:\users\tech\desktop\codetector\sevenSegment3DigitComplex\SevenSegment3DigitComplex.c"
 398  0009  3499        	clr [25].1
 399  000A              #line 399 "c:\users\tech\desktop\codetector\sevenSegment3DigitComplex\SevenSegment3DigitComplex.c"
"File: SevenSegment3DigitComplex.c  Assembler  Version HGASM0202      Page 30

 399  000A  3615        	clr [21].4
 400  000B              #line 400 "c:\users\tech\desktop\codetector\sevenSegment3DigitComplex\SevenSegment3DigitComplex.c"
 400  000B  3415        	clr [21].0
 401  000C              #line 401 "c:\users\tech\desktop\codetector\sevenSegment3DigitComplex\SevenSegment3DigitComplex.c"
 401  000C  3498        	clr [24].1
 402  000D              #line 402 "c:\users\tech\desktop\codetector\sevenSegment3DigitComplex\SevenSegment3DigitComplex.c"
 402  000D  3214        	set [20].4
 403  000E              #line 403 "c:\users\tech\desktop\codetector\sevenSegment3DigitComplex\SevenSegment3DigitComplex.c"
 403  000E  3014        	set [20].0
 403  000F  0003        	ret
 403  0010              _fourDigit1 endp
 403  0010              #line 403 "c:\users\tech\desktop\codetector\sevenSegment3DigitComplex\SevenSegment3DigitComplex.c"
 403  0010              #pragma debug scope 1 1
 403  0010              public _fourDigit2
 403  0010              #pragma debug scope 22 1
 407  0010              #line 407 "c:\users\tech\desktop\codetector\sevenSegment3DigitComplex\SevenSegment3DigitComplex.c"
 407  0000              _fourDigit2 .section 'code'
 407  0000              _fourDigit2 proc
 411  0000              #line 411 "c:\users\tech\desktop\codetector\sevenSegment3DigitComplex\SevenSegment3DigitComplex.c"
 411  0000  3519        	clr [25].2
 412  0001              #line 412 "c:\users\tech\desktop\codetector\sevenSegment3DigitComplex\SevenSegment3DigitComplex.c"
 412  0001  3615        	clr [21].4
 413  0002              #line 413 "c:\users\tech\desktop\codetector\sevenSegment3DigitComplex\SevenSegment3DigitComplex.c"
 413  0002  3415        	clr [21].0
 414  0003              #line 414 "c:\users\tech\desktop\codetector\sevenSegment3DigitComplex\SevenSegment3DigitComplex.c"
 414  0003  3118        	set [24].2
 415  0004              #line 415 "c:\users\tech\desktop\codetector\sevenSegment3DigitComplex\SevenSegment3DigitComplex.c"
 415  0004  3614        	clr [20].4
 416  0005              #line 416 "c:\users\tech\desktop\codetector\sevenSegment3DigitComplex\SevenSegment3DigitComplex.c"
 416  0005  3414        	clr [20].0
 418  0006              #line 418 "c:\users\tech\desktop\codetector\sevenSegment3DigitComplex\SevenSegment3DigitComplex.c"
 418  0006              ;# 418 "c:\users\tech\desktop\codetector\sevenSegment3DigitComplex\SevenSegment3DigitComplex.c" 1
 418  0006              	IF 1000>263690
 418  0006              ;# 418 "c:\users\tech\desktop\codetector\sevenSegment3DigitComplex\SevenSegment3DigitComplex.c" 1
 418  0006              	ERRMESSAGE 'the value 1000of the argument exceeds the maxinum 263690'
 418  0006              	ENDIF
 418  0006              ;# 418 "c:\users\tech\desktop\codetector\sevenSegment3DigitComplex\SevenSegment3DigitComplex.c" 1
 418  0006              	IF 1000<0
 418  0006              ;# 418 "c:\users\tech\desktop\codetector\sevenSegment3DigitComplex\SevenSegment3DigitComplex.c" 1
 418  0006              	ERRMESSAGE 'the value 1000 of the argument exceeds the mininum 0'
 418  0006              	ENDIF
 418  0006              ;# 418 "c:\users\tech\desktop\codetector\sevenSegment3DigitComplex\SevenSegment3DigitComplex.c" 1
 418  0006              	IF 1000==0
 418  0006              ;# 418 "c:\users\tech\desktop\codetector\sevenSegment3DigitComplex\SevenSegment3DigitComplex.c" 1
 418  0006              	JMP $
 418  0006              	ENDIF
 418  0006              ;# 418 "c:\users\tech\desktop\codetector\sevenSegment3DigitComplex\SevenSegment3DigitComplex.c" 1
 418  0006              	IF 1000==1
 418  0006              ;# 418 "c:\users\tech\desktop\codetector\sevenSegment3DigitComplex\SevenSegment3DigitComplex.c" 1
 418  0006              	NOP
 418  0006              	ENDIF
 418  0006              ;# 418 "c:\users\tech\desktop\codetector\sevenSegment3DigitComplex\SevenSegment3DigitComplex.c" 1
 418  0006              	IF 1000==2
 418  0006              ;# 418 "c:\users\tech\desktop\codetector\sevenSegment3DigitComplex\SevenSegment3DigitComplex.c" 1
 418  0006              	NOP
 418  0006              ;# 418 "c:\users\tech\desktop\codetector\sevenSegment3DigitComplex\SevenSegment3DigitComplex.c" 1
 418  0006              	NOP
 418  0006              	ENDIF
 418  0006              ;# 418 "c:\users\tech\desktop\codetector\sevenSegment3DigitComplex\SevenSegment3DigitComplex.c" 1
 418  0006              	IF 1000==3
"File: SevenSegment3DigitComplex.c  Assembler  Version HGASM0202      Page 31

 418  0006              ;# 418 "c:\users\tech\desktop\codetector\sevenSegment3DigitComplex\SevenSegment3DigitComplex.c" 1
 418  0006              	NOP
 418  0006              ;# 418 "c:\users\tech\desktop\codetector\sevenSegment3DigitComplex\SevenSegment3DigitComplex.c" 1
 418  0006              	NOP
 418  0006              ;# 418 "c:\users\tech\desktop\codetector\sevenSegment3DigitComplex\SevenSegment3DigitComplex.c" 1
 418  0006              	NOP
 418  0006              	ENDIF
 418  0006              ;# 418 "c:\users\tech\desktop\codetector\sevenSegment3DigitComplex\SevenSegment3DigitComplex.c" 1
 418  0006              	IF (1000<8) AND (1000>3)
 418  0006              ;# 418 "c:\users\tech\desktop\codetector\sevenSegment3DigitComplex\SevenSegment3DigitComplex.c" 1
 418  0006              	CALL __DELAY3 + 7 -1000
 418  0006              	ENDIF
 418  0006              ;# 418 "c:\users\tech\desktop\codetector\sevenSegment3DigitComplex\SevenSegment3DigitComplex.c" 1
 418  0006              	IF (1000< 0404h) AND (1000>7)
 418  0006              ;# 418 "c:\users\tech\desktop\codetector\sevenSegment3DigitComplex\SevenSegment3DigitComplex.c" 1
 418  0006  0FF9        	MOV A,1000/4-1
 418  0007              ;# 418 "c:\users\tech\desktop\codetector\sevenSegment3DigitComplex\SevenSegment3DigitComplex.c" 1
 418  0007  2000     E  	CALL __DELAYX3 + 3 -(1000 MOD 4)
 418  0008              	ENDIF
 418  0008              ;# 418 "c:\users\tech\desktop\codetector\sevenSegment3DigitComplex\SevenSegment3DigitComplex.c" 1
 418  0008              	IF (1000< 0x40B) AND (1000> 0403h)
 418  0008              ;# 418 "c:\users\tech\desktop\codetector\sevenSegment3DigitComplex\SevenSegment3DigitComplex.c" 1
 418  0008              	MOV A,0 
 418  0008              ;# 418 "c:\users\tech\desktop\codetector\sevenSegment3DigitComplex\SevenSegment3DigitComplex.c" 1
 418  0008              	CALL __DELAYX6 + 0x40a -1000
 418  0008              	ENDIF
 418  0008              ;# 418 "c:\users\tech\desktop\codetector\sevenSegment3DigitComplex\SevenSegment3DigitComplex.c" 1
 418  0008              	IF (1000 >= 0x40b) AND ((((1000-9)%0402h)/4+1)>256)
 418  0008              ;# 418 "c:\users\tech\desktop\codetector\sevenSegment3DigitComplex\SevenSegment3DigitComplex.c" 1
 418  0008              	MOV A,(1000-9)/0402h
 418  0008              ;# 418 "c:\users\tech\desktop\codetector\sevenSegment3DigitComplex\SevenSegment3DigitComplex.c" 1
 418  0008              	MOV _builtin_holtek_delay_2,A
 418  0008              ;# 418 "c:\users\tech\desktop\codetector\sevenSegment3DigitComplex\SevenSegment3DigitComplex.c" 1
 418  0008              	MOV A,0
 418  0008              ;# 418 "c:\users\tech\desktop\codetector\sevenSegment3DigitComplex\SevenSegment3DigitComplex.c" 1
 418  0008              	CALL __DELAYY5 +5- (((1000-9)%0402h)%6)
 418  0008              	ENDIF
 418  0008              ;# 418 "c:\users\tech\desktop\codetector\sevenSegment3DigitComplex\SevenSegment3DigitComplex.c" 1
 418  0008              	IF (1000 >= 0x40b) AND ((((1000-9)%0402h)/4+1)<=256)
 418  0008              ;# 418 "c:\users\tech\desktop\codetector\sevenSegment3DigitComplex\SevenSegment3DigitComplex.c" 1
 418  0008              	MOV A,(1000-9)/0402h
 418  0008              ;# 418 "c:\users\tech\desktop\codetector\sevenSegment3DigitComplex\SevenSegment3DigitComplex.c" 1
 418  0008              	MOV _builtin_holtek_delay_2,A
 418  0008              ;# 418 "c:\users\tech\desktop\codetector\sevenSegment3DigitComplex\SevenSegment3DigitComplex.c" 1
 418  0008              	MOV A,((1000-9)%0402h)/4+1
 418  0008              ;# 418 "c:\users\tech\desktop\codetector\sevenSegment3DigitComplex\SevenSegment3DigitComplex.c" 1
 418  0008              	CALL __DELAYY3 +3-(((1000-9)%0402h)%4)
 418  0008              	ENDIF
 419  0008              #line 419 "c:\users\tech\desktop\codetector\sevenSegment3DigitComplex\SevenSegment3DigitComplex.c"
 419  0008  2000     R  	call _clearSegment
 421  0009              #line 421 "c:\users\tech\desktop\codetector\sevenSegment3DigitComplex\SevenSegment3DigitComplex.c"
 421  0009  3499        	clr [25].1
 422  000A              #line 422 "c:\users\tech\desktop\codetector\sevenSegment3DigitComplex\SevenSegment3DigitComplex.c"
 422  000A  3515        	clr [21].2
 423  000B              #line 423 "c:\users\tech\desktop\codetector\sevenSegment3DigitComplex\SevenSegment3DigitComplex.c"
 423  000B  3599        	clr [25].3
 424  000C              #line 424 "c:\users\tech\desktop\codetector\sevenSegment3DigitComplex\SevenSegment3DigitComplex.c"
 424  000C  3498        	clr [24].1
 425  000D              #line 425 "c:\users\tech\desktop\codetector\sevenSegment3DigitComplex\SevenSegment3DigitComplex.c"
 425  000D  3114        	set [20].2
"File: SevenSegment3DigitComplex.c  Assembler  Version HGASM0202      Page 32

 426  000E              #line 426 "c:\users\tech\desktop\codetector\sevenSegment3DigitComplex\SevenSegment3DigitComplex.c"
 426  000E  3198        	set [24].3
 426  000F  0003        	ret
 426  0010              _fourDigit2 endp
 426  0010              #line 426 "c:\users\tech\desktop\codetector\sevenSegment3DigitComplex\SevenSegment3DigitComplex.c"
 426  0010              #pragma debug scope 1 1
 426  0010              public _fourDigit3
 426  0010              #pragma debug scope 23 1
 430  0010              #line 430 "c:\users\tech\desktop\codetector\sevenSegment3DigitComplex\SevenSegment3DigitComplex.c"
 430  0000              _fourDigit3 .section 'code'
 430  0000              _fourDigit3 proc
 434  0000              #line 434 "c:\users\tech\desktop\codetector\sevenSegment3DigitComplex\SevenSegment3DigitComplex.c"
 434  0000  3499        	clr [25].1
 435  0001              #line 435 "c:\users\tech\desktop\codetector\sevenSegment3DigitComplex\SevenSegment3DigitComplex.c"
 435  0001  3415        	clr [21].0
 436  0002              #line 436 "c:\users\tech\desktop\codetector\sevenSegment3DigitComplex\SevenSegment3DigitComplex.c"
 436  0002  3515        	clr [21].2
 437  0003              #line 437 "c:\users\tech\desktop\codetector\sevenSegment3DigitComplex\SevenSegment3DigitComplex.c"
 437  0003  3098        	set [24].1
 438  0004              #line 438 "c:\users\tech\desktop\codetector\sevenSegment3DigitComplex\SevenSegment3DigitComplex.c"
 438  0004  3414        	clr [20].0
 439  0005              #line 439 "c:\users\tech\desktop\codetector\sevenSegment3DigitComplex\SevenSegment3DigitComplex.c"
 439  0005  3514        	clr [20].2
 440  0006              #line 440 "c:\users\tech\desktop\codetector\sevenSegment3DigitComplex\SevenSegment3DigitComplex.c"
 440  0006              ;# 440 "c:\users\tech\desktop\codetector\sevenSegment3DigitComplex\SevenSegment3DigitComplex.c" 1
 440  0006              	IF 1000>263690
 440  0006              ;# 440 "c:\users\tech\desktop\codetector\sevenSegment3DigitComplex\SevenSegment3DigitComplex.c" 1
 440  0006              	ERRMESSAGE 'the value 1000of the argument exceeds the maxinum 263690'
 440  0006              	ENDIF
 440  0006              ;# 440 "c:\users\tech\desktop\codetector\sevenSegment3DigitComplex\SevenSegment3DigitComplex.c" 1
 440  0006              	IF 1000<0
 440  0006              ;# 440 "c:\users\tech\desktop\codetector\sevenSegment3DigitComplex\SevenSegment3DigitComplex.c" 1
 440  0006              	ERRMESSAGE 'the value 1000 of the argument exceeds the mininum 0'
 440  0006              	ENDIF
 440  0006              ;# 440 "c:\users\tech\desktop\codetector\sevenSegment3DigitComplex\SevenSegment3DigitComplex.c" 1
 440  0006              	IF 1000==0
 440  0006              ;# 440 "c:\users\tech\desktop\codetector\sevenSegment3DigitComplex\SevenSegment3DigitComplex.c" 1
 440  0006              	JMP $
 440  0006              	ENDIF
 440  0006              ;# 440 "c:\users\tech\desktop\codetector\sevenSegment3DigitComplex\SevenSegment3DigitComplex.c" 1
 440  0006              	IF 1000==1
 440  0006              ;# 440 "c:\users\tech\desktop\codetector\sevenSegment3DigitComplex\SevenSegment3DigitComplex.c" 1
 440  0006              	NOP
 440  0006              	ENDIF
 440  0006              ;# 440 "c:\users\tech\desktop\codetector\sevenSegment3DigitComplex\SevenSegment3DigitComplex.c" 1
 440  0006              	IF 1000==2
 440  0006              ;# 440 "c:\users\tech\desktop\codetector\sevenSegment3DigitComplex\SevenSegment3DigitComplex.c" 1
 440  0006              	NOP
 440  0006              ;# 440 "c:\users\tech\desktop\codetector\sevenSegment3DigitComplex\SevenSegment3DigitComplex.c" 1
 440  0006              	NOP
 440  0006              	ENDIF
 440  0006              ;# 440 "c:\users\tech\desktop\codetector\sevenSegment3DigitComplex\SevenSegment3DigitComplex.c" 1
 440  0006              	IF 1000==3
 440  0006              ;# 440 "c:\users\tech\desktop\codetector\sevenSegment3DigitComplex\SevenSegment3DigitComplex.c" 1
 440  0006              	NOP
 440  0006              ;# 440 "c:\users\tech\desktop\codetector\sevenSegment3DigitComplex\SevenSegment3DigitComplex.c" 1
 440  0006              	NOP
 440  0006              ;# 440 "c:\users\tech\desktop\codetector\sevenSegment3DigitComplex\SevenSegment3DigitComplex.c" 1
 440  0006              	NOP
 440  0006              	ENDIF
"File: SevenSegment3DigitComplex.c  Assembler  Version HGASM0202      Page 33

 440  0006              ;# 440 "c:\users\tech\desktop\codetector\sevenSegment3DigitComplex\SevenSegment3DigitComplex.c" 1
 440  0006              	IF (1000<8) AND (1000>3)
 440  0006              ;# 440 "c:\users\tech\desktop\codetector\sevenSegment3DigitComplex\SevenSegment3DigitComplex.c" 1
 440  0006              	CALL __DELAY3 + 7 -1000
 440  0006              	ENDIF
 440  0006              ;# 440 "c:\users\tech\desktop\codetector\sevenSegment3DigitComplex\SevenSegment3DigitComplex.c" 1
 440  0006              	IF (1000< 0404h) AND (1000>7)
 440  0006              ;# 440 "c:\users\tech\desktop\codetector\sevenSegment3DigitComplex\SevenSegment3DigitComplex.c" 1
 440  0006  0FF9        	MOV A,1000/4-1
 440  0007              ;# 440 "c:\users\tech\desktop\codetector\sevenSegment3DigitComplex\SevenSegment3DigitComplex.c" 1
 440  0007  2000     E  	CALL __DELAYX3 + 3 -(1000 MOD 4)
 440  0008              	ENDIF
 440  0008              ;# 440 "c:\users\tech\desktop\codetector\sevenSegment3DigitComplex\SevenSegment3DigitComplex.c" 1
 440  0008              	IF (1000< 0x40B) AND (1000> 0403h)
 440  0008              ;# 440 "c:\users\tech\desktop\codetector\sevenSegment3DigitComplex\SevenSegment3DigitComplex.c" 1
 440  0008              	MOV A,0 
 440  0008              ;# 440 "c:\users\tech\desktop\codetector\sevenSegment3DigitComplex\SevenSegment3DigitComplex.c" 1
 440  0008              	CALL __DELAYX6 + 0x40a -1000
 440  0008              	ENDIF
 440  0008              ;# 440 "c:\users\tech\desktop\codetector\sevenSegment3DigitComplex\SevenSegment3DigitComplex.c" 1
 440  0008              	IF (1000 >= 0x40b) AND ((((1000-9)%0402h)/4+1)>256)
 440  0008              ;# 440 "c:\users\tech\desktop\codetector\sevenSegment3DigitComplex\SevenSegment3DigitComplex.c" 1
 440  0008              	MOV A,(1000-9)/0402h
 440  0008              ;# 440 "c:\users\tech\desktop\codetector\sevenSegment3DigitComplex\SevenSegment3DigitComplex.c" 1
 440  0008              	MOV _builtin_holtek_delay_2,A
 440  0008              ;# 440 "c:\users\tech\desktop\codetector\sevenSegment3DigitComplex\SevenSegment3DigitComplex.c" 1
 440  0008              	MOV A,0
 440  0008              ;# 440 "c:\users\tech\desktop\codetector\sevenSegment3DigitComplex\SevenSegment3DigitComplex.c" 1
 440  0008              	CALL __DELAYY5 +5- (((1000-9)%0402h)%6)
 440  0008              	ENDIF
 440  0008              ;# 440 "c:\users\tech\desktop\codetector\sevenSegment3DigitComplex\SevenSegment3DigitComplex.c" 1
 440  0008              	IF (1000 >= 0x40b) AND ((((1000-9)%0402h)/4+1)<=256)
 440  0008              ;# 440 "c:\users\tech\desktop\codetector\sevenSegment3DigitComplex\SevenSegment3DigitComplex.c" 1
 440  0008              	MOV A,(1000-9)/0402h
 440  0008              ;# 440 "c:\users\tech\desktop\codetector\sevenSegment3DigitComplex\SevenSegment3DigitComplex.c" 1
 440  0008              	MOV _builtin_holtek_delay_2,A
 440  0008              ;# 440 "c:\users\tech\desktop\codetector\sevenSegment3DigitComplex\SevenSegment3DigitComplex.c" 1
 440  0008              	MOV A,((1000-9)%0402h)/4+1
 440  0008              ;# 440 "c:\users\tech\desktop\codetector\sevenSegment3DigitComplex\SevenSegment3DigitComplex.c" 1
 440  0008              	CALL __DELAYY3 +3-(((1000-9)%0402h)%4)
 440  0008              	ENDIF
 441  0008              #line 441 "c:\users\tech\desktop\codetector\sevenSegment3DigitComplex\SevenSegment3DigitComplex.c"
 441  0008  2000     R  	call _clearSegment
 443  0009              #line 443 "c:\users\tech\desktop\codetector\sevenSegment3DigitComplex\SevenSegment3DigitComplex.c"
 443  0009  3615        	clr [21].4
 444  000A              #line 444 "c:\users\tech\desktop\codetector\sevenSegment3DigitComplex\SevenSegment3DigitComplex.c"
 444  000A  3515        	clr [21].2
 445  000B              #line 445 "c:\users\tech\desktop\codetector\sevenSegment3DigitComplex\SevenSegment3DigitComplex.c"
 445  000B  3599        	clr [25].3
 446  000C              #line 446 "c:\users\tech\desktop\codetector\sevenSegment3DigitComplex\SevenSegment3DigitComplex.c"
 446  000C  3214        	set [20].4
 447  000D              #line 447 "c:\users\tech\desktop\codetector\sevenSegment3DigitComplex\SevenSegment3DigitComplex.c"
 447  000D  3514        	clr [20].2
 448  000E              #line 448 "c:\users\tech\desktop\codetector\sevenSegment3DigitComplex\SevenSegment3DigitComplex.c"
 448  000E  3598        	clr [24].3
 448  000F  0003        	ret
 448  0010              _fourDigit3 endp
 448  0010              #line 448 "c:\users\tech\desktop\codetector\sevenSegment3DigitComplex\SevenSegment3DigitComplex.c"
 448  0010              #pragma debug scope 1 1
 448  0010              public _fiveDigit1
"File: SevenSegment3DigitComplex.c  Assembler  Version HGASM0202      Page 34

 448  0010              #pragma debug scope 24 1
 452  0010              #line 452 "c:\users\tech\desktop\codetector\sevenSegment3DigitComplex\SevenSegment3DigitComplex.c"
 452  0000              _fiveDigit1 .section 'code'
 452  0000              _fiveDigit1 proc
 456  0000              #line 456 "c:\users\tech\desktop\codetector\sevenSegment3DigitComplex\SevenSegment3DigitComplex.c"
 456  0000  3519        	clr [25].2
 457  0001              #line 457 "c:\users\tech\desktop\codetector\sevenSegment3DigitComplex\SevenSegment3DigitComplex.c"
 457  0001  3499        	clr [25].1
 458  0002              #line 458 "c:\users\tech\desktop\codetector\sevenSegment3DigitComplex\SevenSegment3DigitComplex.c"
 458  0002  3415        	clr [21].0
 459  0003              #line 459 "c:\users\tech\desktop\codetector\sevenSegment3DigitComplex\SevenSegment3DigitComplex.c"
 459  0003  3515        	clr [21].2
 460  0004              #line 460 "c:\users\tech\desktop\codetector\sevenSegment3DigitComplex\SevenSegment3DigitComplex.c"
 460  0004  3518        	clr [24].2
 461  0005              #line 461 "c:\users\tech\desktop\codetector\sevenSegment3DigitComplex\SevenSegment3DigitComplex.c"
 461  0005  3098        	set [24].1
 462  0006              #line 462 "c:\users\tech\desktop\codetector\sevenSegment3DigitComplex\SevenSegment3DigitComplex.c"
 462  0006  3014        	set [20].0
 463  0007              #line 463 "c:\users\tech\desktop\codetector\sevenSegment3DigitComplex\SevenSegment3DigitComplex.c"
 463  0007  3114        	set [20].2
 464  0008              #line 464 "c:\users\tech\desktop\codetector\sevenSegment3DigitComplex\SevenSegment3DigitComplex.c"
 464  0008              ;# 464 "c:\users\tech\desktop\codetector\sevenSegment3DigitComplex\SevenSegment3DigitComplex.c" 1
 464  0008              	IF 1000>263690
 464  0008              ;# 464 "c:\users\tech\desktop\codetector\sevenSegment3DigitComplex\SevenSegment3DigitComplex.c" 1
 464  0008              	ERRMESSAGE 'the value 1000of the argument exceeds the maxinum 263690'
 464  0008              	ENDIF
 464  0008              ;# 464 "c:\users\tech\desktop\codetector\sevenSegment3DigitComplex\SevenSegment3DigitComplex.c" 1
 464  0008              	IF 1000<0
 464  0008              ;# 464 "c:\users\tech\desktop\codetector\sevenSegment3DigitComplex\SevenSegment3DigitComplex.c" 1
 464  0008              	ERRMESSAGE 'the value 1000 of the argument exceeds the mininum 0'
 464  0008              	ENDIF
 464  0008              ;# 464 "c:\users\tech\desktop\codetector\sevenSegment3DigitComplex\SevenSegment3DigitComplex.c" 1
 464  0008              	IF 1000==0
 464  0008              ;# 464 "c:\users\tech\desktop\codetector\sevenSegment3DigitComplex\SevenSegment3DigitComplex.c" 1
 464  0008              	JMP $
 464  0008              	ENDIF
 464  0008              ;# 464 "c:\users\tech\desktop\codetector\sevenSegment3DigitComplex\SevenSegment3DigitComplex.c" 1
 464  0008              	IF 1000==1
 464  0008              ;# 464 "c:\users\tech\desktop\codetector\sevenSegment3DigitComplex\SevenSegment3DigitComplex.c" 1
 464  0008              	NOP
 464  0008              	ENDIF
 464  0008              ;# 464 "c:\users\tech\desktop\codetector\sevenSegment3DigitComplex\SevenSegment3DigitComplex.c" 1
 464  0008              	IF 1000==2
 464  0008              ;# 464 "c:\users\tech\desktop\codetector\sevenSegment3DigitComplex\SevenSegment3DigitComplex.c" 1
 464  0008              	NOP
 464  0008              ;# 464 "c:\users\tech\desktop\codetector\sevenSegment3DigitComplex\SevenSegment3DigitComplex.c" 1
 464  0008              	NOP
 464  0008              	ENDIF
 464  0008              ;# 464 "c:\users\tech\desktop\codetector\sevenSegment3DigitComplex\SevenSegment3DigitComplex.c" 1
 464  0008              	IF 1000==3
 464  0008              ;# 464 "c:\users\tech\desktop\codetector\sevenSegment3DigitComplex\SevenSegment3DigitComplex.c" 1
 464  0008              	NOP
 464  0008              ;# 464 "c:\users\tech\desktop\codetector\sevenSegment3DigitComplex\SevenSegment3DigitComplex.c" 1
 464  0008              	NOP
 464  0008              ;# 464 "c:\users\tech\desktop\codetector\sevenSegment3DigitComplex\SevenSegment3DigitComplex.c" 1
 464  0008              	NOP
 464  0008              	ENDIF
 464  0008              ;# 464 "c:\users\tech\desktop\codetector\sevenSegment3DigitComplex\SevenSegment3DigitComplex.c" 1
 464  0008              	IF (1000<8) AND (1000>3)
 464  0008              ;# 464 "c:\users\tech\desktop\codetector\sevenSegment3DigitComplex\SevenSegment3DigitComplex.c" 1
"File: SevenSegment3DigitComplex.c  Assembler  Version HGASM0202      Page 35

 464  0008              	CALL __DELAY3 + 7 -1000
 464  0008              	ENDIF
 464  0008              ;# 464 "c:\users\tech\desktop\codetector\sevenSegment3DigitComplex\SevenSegment3DigitComplex.c" 1
 464  0008              	IF (1000< 0404h) AND (1000>7)
 464  0008              ;# 464 "c:\users\tech\desktop\codetector\sevenSegment3DigitComplex\SevenSegment3DigitComplex.c" 1
 464  0008  0FF9        	MOV A,1000/4-1
 464  0009              ;# 464 "c:\users\tech\desktop\codetector\sevenSegment3DigitComplex\SevenSegment3DigitComplex.c" 1
 464  0009  2000     E  	CALL __DELAYX3 + 3 -(1000 MOD 4)
 464  000A              	ENDIF
 464  000A              ;# 464 "c:\users\tech\desktop\codetector\sevenSegment3DigitComplex\SevenSegment3DigitComplex.c" 1
 464  000A              	IF (1000< 0x40B) AND (1000> 0403h)
 464  000A              ;# 464 "c:\users\tech\desktop\codetector\sevenSegment3DigitComplex\SevenSegment3DigitComplex.c" 1
 464  000A              	MOV A,0 
 464  000A              ;# 464 "c:\users\tech\desktop\codetector\sevenSegment3DigitComplex\SevenSegment3DigitComplex.c" 1
 464  000A              	CALL __DELAYX6 + 0x40a -1000
 464  000A              	ENDIF
 464  000A              ;# 464 "c:\users\tech\desktop\codetector\sevenSegment3DigitComplex\SevenSegment3DigitComplex.c" 1
 464  000A              	IF (1000 >= 0x40b) AND ((((1000-9)%0402h)/4+1)>256)
 464  000A              ;# 464 "c:\users\tech\desktop\codetector\sevenSegment3DigitComplex\SevenSegment3DigitComplex.c" 1
 464  000A              	MOV A,(1000-9)/0402h
 464  000A              ;# 464 "c:\users\tech\desktop\codetector\sevenSegment3DigitComplex\SevenSegment3DigitComplex.c" 1
 464  000A              	MOV _builtin_holtek_delay_2,A
 464  000A              ;# 464 "c:\users\tech\desktop\codetector\sevenSegment3DigitComplex\SevenSegment3DigitComplex.c" 1
 464  000A              	MOV A,0
 464  000A              ;# 464 "c:\users\tech\desktop\codetector\sevenSegment3DigitComplex\SevenSegment3DigitComplex.c" 1
 464  000A              	CALL __DELAYY5 +5- (((1000-9)%0402h)%6)
 464  000A              	ENDIF
 464  000A              ;# 464 "c:\users\tech\desktop\codetector\sevenSegment3DigitComplex\SevenSegment3DigitComplex.c" 1
 464  000A              	IF (1000 >= 0x40b) AND ((((1000-9)%0402h)/4+1)<=256)
 464  000A              ;# 464 "c:\users\tech\desktop\codetector\sevenSegment3DigitComplex\SevenSegment3DigitComplex.c" 1
 464  000A              	MOV A,(1000-9)/0402h
 464  000A              ;# 464 "c:\users\tech\desktop\codetector\sevenSegment3DigitComplex\SevenSegment3DigitComplex.c" 1
 464  000A              	MOV _builtin_holtek_delay_2,A
 464  000A              ;# 464 "c:\users\tech\desktop\codetector\sevenSegment3DigitComplex\SevenSegment3DigitComplex.c" 1
 464  000A              	MOV A,((1000-9)%0402h)/4+1
 464  000A              ;# 464 "c:\users\tech\desktop\codetector\sevenSegment3DigitComplex\SevenSegment3DigitComplex.c" 1
 464  000A              	CALL __DELAYY3 +3-(((1000-9)%0402h)%4)
 464  000A              	ENDIF
 465  000A              #line 465 "c:\users\tech\desktop\codetector\sevenSegment3DigitComplex\SevenSegment3DigitComplex.c"
 465  000A  2000     R  	call _clearSegment
 466  000B              #line 466 "c:\users\tech\desktop\codetector\sevenSegment3DigitComplex\SevenSegment3DigitComplex.c"
 466  000B  3499        	clr [25].1
 467  000C              #line 467 "c:\users\tech\desktop\codetector\sevenSegment3DigitComplex\SevenSegment3DigitComplex.c"
 467  000C  3615        	clr [21].4
 468  000D              #line 468 "c:\users\tech\desktop\codetector\sevenSegment3DigitComplex\SevenSegment3DigitComplex.c"
 468  000D  3415        	clr [21].0
 469  000E              #line 469 "c:\users\tech\desktop\codetector\sevenSegment3DigitComplex\SevenSegment3DigitComplex.c"
 469  000E  3498        	clr [24].1
 470  000F              #line 470 "c:\users\tech\desktop\codetector\sevenSegment3DigitComplex\SevenSegment3DigitComplex.c"
 470  000F  3214        	set [20].4
 471  0010              #line 471 "c:\users\tech\desktop\codetector\sevenSegment3DigitComplex\SevenSegment3DigitComplex.c"
 471  0010  3014        	set [20].0
 471  0011  0003        	ret
 471  0012              _fiveDigit1 endp
 471  0012              #line 471 "c:\users\tech\desktop\codetector\sevenSegment3DigitComplex\SevenSegment3DigitComplex.c"
 471  0012              #pragma debug scope 1 1
 471  0012              public _fiveDigit2
 471  0012              #pragma debug scope 25 1
 476  0012              #line 476 "c:\users\tech\desktop\codetector\sevenSegment3DigitComplex\SevenSegment3DigitComplex.c"
 476  0000              _fiveDigit2 .section 'code'
"File: SevenSegment3DigitComplex.c  Assembler  Version HGASM0202      Page 36

 476  0000              _fiveDigit2 proc
 480  0000              #line 480 "c:\users\tech\desktop\codetector\sevenSegment3DigitComplex\SevenSegment3DigitComplex.c"
 480  0000  3519        	clr [25].2
 481  0001              #line 481 "c:\users\tech\desktop\codetector\sevenSegment3DigitComplex\SevenSegment3DigitComplex.c"
 481  0001  3499        	clr [25].1
 482  0002              #line 482 "c:\users\tech\desktop\codetector\sevenSegment3DigitComplex\SevenSegment3DigitComplex.c"
 482  0002  3415        	clr [21].0
 483  0003              #line 483 "c:\users\tech\desktop\codetector\sevenSegment3DigitComplex\SevenSegment3DigitComplex.c"
 483  0003  3515        	clr [21].2
 484  0004              #line 484 "c:\users\tech\desktop\codetector\sevenSegment3DigitComplex\SevenSegment3DigitComplex.c"
 484  0004  3118        	set [24].2
 485  0005              #line 485 "c:\users\tech\desktop\codetector\sevenSegment3DigitComplex\SevenSegment3DigitComplex.c"
 485  0005  3498        	clr [24].1
 486  0006              #line 486 "c:\users\tech\desktop\codetector\sevenSegment3DigitComplex\SevenSegment3DigitComplex.c"
 486  0006  3414        	clr [20].0
 487  0007              #line 487 "c:\users\tech\desktop\codetector\sevenSegment3DigitComplex\SevenSegment3DigitComplex.c"
 487  0007  3514        	clr [20].2
 488  0008              #line 488 "c:\users\tech\desktop\codetector\sevenSegment3DigitComplex\SevenSegment3DigitComplex.c"
 488  0008              ;# 488 "c:\users\tech\desktop\codetector\sevenSegment3DigitComplex\SevenSegment3DigitComplex.c" 1
 488  0008              	IF 1000>263690
 488  0008              ;# 488 "c:\users\tech\desktop\codetector\sevenSegment3DigitComplex\SevenSegment3DigitComplex.c" 1
 488  0008              	ERRMESSAGE 'the value 1000of the argument exceeds the maxinum 263690'
 488  0008              	ENDIF
 488  0008              ;# 488 "c:\users\tech\desktop\codetector\sevenSegment3DigitComplex\SevenSegment3DigitComplex.c" 1
 488  0008              	IF 1000<0
 488  0008              ;# 488 "c:\users\tech\desktop\codetector\sevenSegment3DigitComplex\SevenSegment3DigitComplex.c" 1
 488  0008              	ERRMESSAGE 'the value 1000 of the argument exceeds the mininum 0'
 488  0008              	ENDIF
 488  0008              ;# 488 "c:\users\tech\desktop\codetector\sevenSegment3DigitComplex\SevenSegment3DigitComplex.c" 1
 488  0008              	IF 1000==0
 488  0008              ;# 488 "c:\users\tech\desktop\codetector\sevenSegment3DigitComplex\SevenSegment3DigitComplex.c" 1
 488  0008              	JMP $
 488  0008              	ENDIF
 488  0008              ;# 488 "c:\users\tech\desktop\codetector\sevenSegment3DigitComplex\SevenSegment3DigitComplex.c" 1
 488  0008              	IF 1000==1
 488  0008              ;# 488 "c:\users\tech\desktop\codetector\sevenSegment3DigitComplex\SevenSegment3DigitComplex.c" 1
 488  0008              	NOP
 488  0008              	ENDIF
 488  0008              ;# 488 "c:\users\tech\desktop\codetector\sevenSegment3DigitComplex\SevenSegment3DigitComplex.c" 1
 488  0008              	IF 1000==2
 488  0008              ;# 488 "c:\users\tech\desktop\codetector\sevenSegment3DigitComplex\SevenSegment3DigitComplex.c" 1
 488  0008              	NOP
 488  0008              ;# 488 "c:\users\tech\desktop\codetector\sevenSegment3DigitComplex\SevenSegment3DigitComplex.c" 1
 488  0008              	NOP
 488  0008              	ENDIF
 488  0008              ;# 488 "c:\users\tech\desktop\codetector\sevenSegment3DigitComplex\SevenSegment3DigitComplex.c" 1
 488  0008              	IF 1000==3
 488  0008              ;# 488 "c:\users\tech\desktop\codetector\sevenSegment3DigitComplex\SevenSegment3DigitComplex.c" 1
 488  0008              	NOP
 488  0008              ;# 488 "c:\users\tech\desktop\codetector\sevenSegment3DigitComplex\SevenSegment3DigitComplex.c" 1
 488  0008              	NOP
 488  0008              ;# 488 "c:\users\tech\desktop\codetector\sevenSegment3DigitComplex\SevenSegment3DigitComplex.c" 1
 488  0008              	NOP
 488  0008              	ENDIF
 488  0008              ;# 488 "c:\users\tech\desktop\codetector\sevenSegment3DigitComplex\SevenSegment3DigitComplex.c" 1
 488  0008              	IF (1000<8) AND (1000>3)
 488  0008              ;# 488 "c:\users\tech\desktop\codetector\sevenSegment3DigitComplex\SevenSegment3DigitComplex.c" 1
 488  0008              	CALL __DELAY3 + 7 -1000
 488  0008              	ENDIF
 488  0008              ;# 488 "c:\users\tech\desktop\codetector\sevenSegment3DigitComplex\SevenSegment3DigitComplex.c" 1
"File: SevenSegment3DigitComplex.c  Assembler  Version HGASM0202      Page 37

 488  0008              	IF (1000< 0404h) AND (1000>7)
 488  0008              ;# 488 "c:\users\tech\desktop\codetector\sevenSegment3DigitComplex\SevenSegment3DigitComplex.c" 1
 488  0008  0FF9        	MOV A,1000/4-1
 488  0009              ;# 488 "c:\users\tech\desktop\codetector\sevenSegment3DigitComplex\SevenSegment3DigitComplex.c" 1
 488  0009  2000     E  	CALL __DELAYX3 + 3 -(1000 MOD 4)
 488  000A              	ENDIF
 488  000A              ;# 488 "c:\users\tech\desktop\codetector\sevenSegment3DigitComplex\SevenSegment3DigitComplex.c" 1
 488  000A              	IF (1000< 0x40B) AND (1000> 0403h)
 488  000A              ;# 488 "c:\users\tech\desktop\codetector\sevenSegment3DigitComplex\SevenSegment3DigitComplex.c" 1
 488  000A              	MOV A,0 
 488  000A              ;# 488 "c:\users\tech\desktop\codetector\sevenSegment3DigitComplex\SevenSegment3DigitComplex.c" 1
 488  000A              	CALL __DELAYX6 + 0x40a -1000
 488  000A              	ENDIF
 488  000A              ;# 488 "c:\users\tech\desktop\codetector\sevenSegment3DigitComplex\SevenSegment3DigitComplex.c" 1
 488  000A              	IF (1000 >= 0x40b) AND ((((1000-9)%0402h)/4+1)>256)
 488  000A              ;# 488 "c:\users\tech\desktop\codetector\sevenSegment3DigitComplex\SevenSegment3DigitComplex.c" 1
 488  000A              	MOV A,(1000-9)/0402h
 488  000A              ;# 488 "c:\users\tech\desktop\codetector\sevenSegment3DigitComplex\SevenSegment3DigitComplex.c" 1
 488  000A              	MOV _builtin_holtek_delay_2,A
 488  000A              ;# 488 "c:\users\tech\desktop\codetector\sevenSegment3DigitComplex\SevenSegment3DigitComplex.c" 1
 488  000A              	MOV A,0
 488  000A              ;# 488 "c:\users\tech\desktop\codetector\sevenSegment3DigitComplex\SevenSegment3DigitComplex.c" 1
 488  000A              	CALL __DELAYY5 +5- (((1000-9)%0402h)%6)
 488  000A              	ENDIF
 488  000A              ;# 488 "c:\users\tech\desktop\codetector\sevenSegment3DigitComplex\SevenSegment3DigitComplex.c" 1
 488  000A              	IF (1000 >= 0x40b) AND ((((1000-9)%0402h)/4+1)<=256)
 488  000A              ;# 488 "c:\users\tech\desktop\codetector\sevenSegment3DigitComplex\SevenSegment3DigitComplex.c" 1
 488  000A              	MOV A,(1000-9)/0402h
 488  000A              ;# 488 "c:\users\tech\desktop\codetector\sevenSegment3DigitComplex\SevenSegment3DigitComplex.c" 1
 488  000A              	MOV _builtin_holtek_delay_2,A
 488  000A              ;# 488 "c:\users\tech\desktop\codetector\sevenSegment3DigitComplex\SevenSegment3DigitComplex.c" 1
 488  000A              	MOV A,((1000-9)%0402h)/4+1
 488  000A              ;# 488 "c:\users\tech\desktop\codetector\sevenSegment3DigitComplex\SevenSegment3DigitComplex.c" 1
 488  000A              	CALL __DELAYY3 +3-(((1000-9)%0402h)%4)
 488  000A              	ENDIF
 489  000A              #line 489 "c:\users\tech\desktop\codetector\sevenSegment3DigitComplex\SevenSegment3DigitComplex.c"
 489  000A  2000     R  	call _clearSegment
 491  000B              #line 491 "c:\users\tech\desktop\codetector\sevenSegment3DigitComplex\SevenSegment3DigitComplex.c"
 491  000B  3499        	clr [25].1
 492  000C              #line 492 "c:\users\tech\desktop\codetector\sevenSegment3DigitComplex\SevenSegment3DigitComplex.c"
 492  000C  3515        	clr [21].2
 493  000D              #line 493 "c:\users\tech\desktop\codetector\sevenSegment3DigitComplex\SevenSegment3DigitComplex.c"
 493  000D  3599        	clr [25].3
 494  000E              #line 494 "c:\users\tech\desktop\codetector\sevenSegment3DigitComplex\SevenSegment3DigitComplex.c"
 494  000E  3498        	clr [24].1
 495  000F              #line 495 "c:\users\tech\desktop\codetector\sevenSegment3DigitComplex\SevenSegment3DigitComplex.c"
 495  000F  3114        	set [20].2
 496  0010              #line 496 "c:\users\tech\desktop\codetector\sevenSegment3DigitComplex\SevenSegment3DigitComplex.c"
 496  0010  3198        	set [24].3
 496  0011  0003        	ret
 496  0012              _fiveDigit2 endp
 496  0012              #line 496 "c:\users\tech\desktop\codetector\sevenSegment3DigitComplex\SevenSegment3DigitComplex.c"
 496  0012              #pragma debug scope 1 1
 496  0012              public _fiveDigit3
 496  0012              #pragma debug scope 26 1
 501  0012              #line 501 "c:\users\tech\desktop\codetector\sevenSegment3DigitComplex\SevenSegment3DigitComplex.c"
 501  0000              _fiveDigit3 .section 'code'
 501  0000              _fiveDigit3 proc
 504  0000              #line 504 "c:\users\tech\desktop\codetector\sevenSegment3DigitComplex\SevenSegment3DigitComplex.c"
 504  0000  3499        	clr [25].1
"File: SevenSegment3DigitComplex.c  Assembler  Version HGASM0202      Page 38

 505  0001              #line 505 "c:\users\tech\desktop\codetector\sevenSegment3DigitComplex\SevenSegment3DigitComplex.c"
 505  0001  3615        	clr [21].4
 506  0002              #line 506 "c:\users\tech\desktop\codetector\sevenSegment3DigitComplex\SevenSegment3DigitComplex.c"
 506  0002  3515        	clr [21].2
 507  0003              #line 507 "c:\users\tech\desktop\codetector\sevenSegment3DigitComplex\SevenSegment3DigitComplex.c"
 507  0003  3599        	clr [25].3
 508  0004              #line 508 "c:\users\tech\desktop\codetector\sevenSegment3DigitComplex\SevenSegment3DigitComplex.c"
 508  0004  3098        	set [24].1
 509  0005              #line 509 "c:\users\tech\desktop\codetector\sevenSegment3DigitComplex\SevenSegment3DigitComplex.c"
 509  0005  3614        	clr [20].4
 510  0006              #line 510 "c:\users\tech\desktop\codetector\sevenSegment3DigitComplex\SevenSegment3DigitComplex.c"
 510  0006  3514        	clr [20].2
 511  0007              #line 511 "c:\users\tech\desktop\codetector\sevenSegment3DigitComplex\SevenSegment3DigitComplex.c"
 511  0007  3598        	clr [24].3
 512  0008              #line 512 "c:\users\tech\desktop\codetector\sevenSegment3DigitComplex\SevenSegment3DigitComplex.c"
 512  0008              ;# 512 "c:\users\tech\desktop\codetector\sevenSegment3DigitComplex\SevenSegment3DigitComplex.c" 1
 512  0008              	IF 1000>263690
 512  0008              ;# 512 "c:\users\tech\desktop\codetector\sevenSegment3DigitComplex\SevenSegment3DigitComplex.c" 1
 512  0008              	ERRMESSAGE 'the value 1000of the argument exceeds the maxinum 263690'
 512  0008              	ENDIF
 512  0008              ;# 512 "c:\users\tech\desktop\codetector\sevenSegment3DigitComplex\SevenSegment3DigitComplex.c" 1
 512  0008              	IF 1000<0
 512  0008              ;# 512 "c:\users\tech\desktop\codetector\sevenSegment3DigitComplex\SevenSegment3DigitComplex.c" 1
 512  0008              	ERRMESSAGE 'the value 1000 of the argument exceeds the mininum 0'
 512  0008              	ENDIF
 512  0008              ;# 512 "c:\users\tech\desktop\codetector\sevenSegment3DigitComplex\SevenSegment3DigitComplex.c" 1
 512  0008              	IF 1000==0
 512  0008              ;# 512 "c:\users\tech\desktop\codetector\sevenSegment3DigitComplex\SevenSegment3DigitComplex.c" 1
 512  0008              	JMP $
 512  0008              	ENDIF
 512  0008              ;# 512 "c:\users\tech\desktop\codetector\sevenSegment3DigitComplex\SevenSegment3DigitComplex.c" 1
 512  0008              	IF 1000==1
 512  0008              ;# 512 "c:\users\tech\desktop\codetector\sevenSegment3DigitComplex\SevenSegment3DigitComplex.c" 1
 512  0008              	NOP
 512  0008              	ENDIF
 512  0008              ;# 512 "c:\users\tech\desktop\codetector\sevenSegment3DigitComplex\SevenSegment3DigitComplex.c" 1
 512  0008              	IF 1000==2
 512  0008              ;# 512 "c:\users\tech\desktop\codetector\sevenSegment3DigitComplex\SevenSegment3DigitComplex.c" 1
 512  0008              	NOP
 512  0008              ;# 512 "c:\users\tech\desktop\codetector\sevenSegment3DigitComplex\SevenSegment3DigitComplex.c" 1
 512  0008              	NOP
 512  0008              	ENDIF
 512  0008              ;# 512 "c:\users\tech\desktop\codetector\sevenSegment3DigitComplex\SevenSegment3DigitComplex.c" 1
 512  0008              	IF 1000==3
 512  0008              ;# 512 "c:\users\tech\desktop\codetector\sevenSegment3DigitComplex\SevenSegment3DigitComplex.c" 1
 512  0008              	NOP
 512  0008              ;# 512 "c:\users\tech\desktop\codetector\sevenSegment3DigitComplex\SevenSegment3DigitComplex.c" 1
 512  0008              	NOP
 512  0008              ;# 512 "c:\users\tech\desktop\codetector\sevenSegment3DigitComplex\SevenSegment3DigitComplex.c" 1
 512  0008              	NOP
 512  0008              	ENDIF
 512  0008              ;# 512 "c:\users\tech\desktop\codetector\sevenSegment3DigitComplex\SevenSegment3DigitComplex.c" 1
 512  0008              	IF (1000<8) AND (1000>3)
 512  0008              ;# 512 "c:\users\tech\desktop\codetector\sevenSegment3DigitComplex\SevenSegment3DigitComplex.c" 1
 512  0008              	CALL __DELAY3 + 7 -1000
 512  0008              	ENDIF
 512  0008              ;# 512 "c:\users\tech\desktop\codetector\sevenSegment3DigitComplex\SevenSegment3DigitComplex.c" 1
 512  0008              	IF (1000< 0404h) AND (1000>7)
 512  0008              ;# 512 "c:\users\tech\desktop\codetector\sevenSegment3DigitComplex\SevenSegment3DigitComplex.c" 1
 512  0008  0FF9        	MOV A,1000/4-1
"File: SevenSegment3DigitComplex.c  Assembler  Version HGASM0202      Page 39

 512  0009              ;# 512 "c:\users\tech\desktop\codetector\sevenSegment3DigitComplex\SevenSegment3DigitComplex.c" 1
 512  0009  2000     E  	CALL __DELAYX3 + 3 -(1000 MOD 4)
 512  000A              	ENDIF
 512  000A              ;# 512 "c:\users\tech\desktop\codetector\sevenSegment3DigitComplex\SevenSegment3DigitComplex.c" 1
 512  000A              	IF (1000< 0x40B) AND (1000> 0403h)
 512  000A              ;# 512 "c:\users\tech\desktop\codetector\sevenSegment3DigitComplex\SevenSegment3DigitComplex.c" 1
 512  000A              	MOV A,0 
 512  000A              ;# 512 "c:\users\tech\desktop\codetector\sevenSegment3DigitComplex\SevenSegment3DigitComplex.c" 1
 512  000A              	CALL __DELAYX6 + 0x40a -1000
 512  000A              	ENDIF
 512  000A              ;# 512 "c:\users\tech\desktop\codetector\sevenSegment3DigitComplex\SevenSegment3DigitComplex.c" 1
 512  000A              	IF (1000 >= 0x40b) AND ((((1000-9)%0402h)/4+1)>256)
 512  000A              ;# 512 "c:\users\tech\desktop\codetector\sevenSegment3DigitComplex\SevenSegment3DigitComplex.c" 1
 512  000A              	MOV A,(1000-9)/0402h
 512  000A              ;# 512 "c:\users\tech\desktop\codetector\sevenSegment3DigitComplex\SevenSegment3DigitComplex.c" 1
 512  000A              	MOV _builtin_holtek_delay_2,A
 512  000A              ;# 512 "c:\users\tech\desktop\codetector\sevenSegment3DigitComplex\SevenSegment3DigitComplex.c" 1
 512  000A              	MOV A,0
 512  000A              ;# 512 "c:\users\tech\desktop\codetector\sevenSegment3DigitComplex\SevenSegment3DigitComplex.c" 1
 512  000A              	CALL __DELAYY5 +5- (((1000-9)%0402h)%6)
 512  000A              	ENDIF
 512  000A              ;# 512 "c:\users\tech\desktop\codetector\sevenSegment3DigitComplex\SevenSegment3DigitComplex.c" 1
 512  000A              	IF (1000 >= 0x40b) AND ((((1000-9)%0402h)/4+1)<=256)
 512  000A              ;# 512 "c:\users\tech\desktop\codetector\sevenSegment3DigitComplex\SevenSegment3DigitComplex.c" 1
 512  000A              	MOV A,(1000-9)/0402h
 512  000A              ;# 512 "c:\users\tech\desktop\codetector\sevenSegment3DigitComplex\SevenSegment3DigitComplex.c" 1
 512  000A              	MOV _builtin_holtek_delay_2,A
 512  000A              ;# 512 "c:\users\tech\desktop\codetector\sevenSegment3DigitComplex\SevenSegment3DigitComplex.c" 1
 512  000A              	MOV A,((1000-9)%0402h)/4+1
 512  000A              ;# 512 "c:\users\tech\desktop\codetector\sevenSegment3DigitComplex\SevenSegment3DigitComplex.c" 1
 512  000A              	CALL __DELAYY3 +3-(((1000-9)%0402h)%4)
 512  000A              	ENDIF
 513  000A              #line 513 "c:\users\tech\desktop\codetector\sevenSegment3DigitComplex\SevenSegment3DigitComplex.c"
 513  000A  2000     R  	call _clearSegment
 515  000B              #line 515 "c:\users\tech\desktop\codetector\sevenSegment3DigitComplex\SevenSegment3DigitComplex.c"
 515  000B  3615        	clr [21].4
 516  000C              #line 516 "c:\users\tech\desktop\codetector\sevenSegment3DigitComplex\SevenSegment3DigitComplex.c"
 516  000C  3515        	clr [21].2
 517  000D              #line 517 "c:\users\tech\desktop\codetector\sevenSegment3DigitComplex\SevenSegment3DigitComplex.c"
 517  000D  3599        	clr [25].3
 518  000E              #line 518 "c:\users\tech\desktop\codetector\sevenSegment3DigitComplex\SevenSegment3DigitComplex.c"
 518  000E  3214        	set [20].4
 519  000F              #line 519 "c:\users\tech\desktop\codetector\sevenSegment3DigitComplex\SevenSegment3DigitComplex.c"
 519  000F  3514        	clr [20].2
 520  0010              #line 520 "c:\users\tech\desktop\codetector\sevenSegment3DigitComplex\SevenSegment3DigitComplex.c"
 520  0010  3598        	clr [24].3
 520  0011  0003        	ret
 520  0012              _fiveDigit3 endp
 520  0012              #line 520 "c:\users\tech\desktop\codetector\sevenSegment3DigitComplex\SevenSegment3DigitComplex.c"
 520  0012              #pragma debug scope 1 1
 520  0012              public _sixDigit1
 520  0012              #pragma debug scope 27 1
 526  0012              #line 526 "c:\users\tech\desktop\codetector\sevenSegment3DigitComplex\SevenSegment3DigitComplex.c"
 526  0000              _sixDigit1 .section 'code'
 526  0000              _sixDigit1 proc
 529  0000              #line 529 "c:\users\tech\desktop\codetector\sevenSegment3DigitComplex\SevenSegment3DigitComplex.c"
 529  0000  3519        	clr [25].2
 530  0001              #line 530 "c:\users\tech\desktop\codetector\sevenSegment3DigitComplex\SevenSegment3DigitComplex.c"
 530  0001  3499        	clr [25].1
 531  0002              #line 531 "c:\users\tech\desktop\codetector\sevenSegment3DigitComplex\SevenSegment3DigitComplex.c"
"File: SevenSegment3DigitComplex.c  Assembler  Version HGASM0202      Page 40

 531  0002  3415        	clr [21].0
 532  0003              #line 532 "c:\users\tech\desktop\codetector\sevenSegment3DigitComplex\SevenSegment3DigitComplex.c"
 532  0003  3515        	clr [21].2
 533  0004              #line 533 "c:\users\tech\desktop\codetector\sevenSegment3DigitComplex\SevenSegment3DigitComplex.c"
 533  0004  3599        	clr [25].3
 534  0005              #line 534 "c:\users\tech\desktop\codetector\sevenSegment3DigitComplex\SevenSegment3DigitComplex.c"
 534  0005  3518        	clr [24].2
 535  0006              #line 535 "c:\users\tech\desktop\codetector\sevenSegment3DigitComplex\SevenSegment3DigitComplex.c"
 535  0006  3098        	set [24].1
 536  0007              #line 536 "c:\users\tech\desktop\codetector\sevenSegment3DigitComplex\SevenSegment3DigitComplex.c"
 536  0007  3014        	set [20].0
 537  0008              #line 537 "c:\users\tech\desktop\codetector\sevenSegment3DigitComplex\SevenSegment3DigitComplex.c"
 537  0008  3114        	set [20].2
 538  0009              #line 538 "c:\users\tech\desktop\codetector\sevenSegment3DigitComplex\SevenSegment3DigitComplex.c"
 538  0009  3198        	set [24].3
 539  000A              #line 539 "c:\users\tech\desktop\codetector\sevenSegment3DigitComplex\SevenSegment3DigitComplex.c"
 539  000A              ;# 539 "c:\users\tech\desktop\codetector\sevenSegment3DigitComplex\SevenSegment3DigitComplex.c" 1
 539  000A              	IF 1000>263690
 539  000A              ;# 539 "c:\users\tech\desktop\codetector\sevenSegment3DigitComplex\SevenSegment3DigitComplex.c" 1
 539  000A              	ERRMESSAGE 'the value 1000of the argument exceeds the maxinum 263690'
 539  000A              	ENDIF
 539  000A              ;# 539 "c:\users\tech\desktop\codetector\sevenSegment3DigitComplex\SevenSegment3DigitComplex.c" 1
 539  000A              	IF 1000<0
 539  000A              ;# 539 "c:\users\tech\desktop\codetector\sevenSegment3DigitComplex\SevenSegment3DigitComplex.c" 1
 539  000A              	ERRMESSAGE 'the value 1000 of the argument exceeds the mininum 0'
 539  000A              	ENDIF
 539  000A              ;# 539 "c:\users\tech\desktop\codetector\sevenSegment3DigitComplex\SevenSegment3DigitComplex.c" 1
 539  000A              	IF 1000==0
 539  000A              ;# 539 "c:\users\tech\desktop\codetector\sevenSegment3DigitComplex\SevenSegment3DigitComplex.c" 1
 539  000A              	JMP $
 539  000A              	ENDIF
 539  000A              ;# 539 "c:\users\tech\desktop\codetector\sevenSegment3DigitComplex\SevenSegment3DigitComplex.c" 1
 539  000A              	IF 1000==1
 539  000A              ;# 539 "c:\users\tech\desktop\codetector\sevenSegment3DigitComplex\SevenSegment3DigitComplex.c" 1
 539  000A              	NOP
 539  000A              	ENDIF
 539  000A              ;# 539 "c:\users\tech\desktop\codetector\sevenSegment3DigitComplex\SevenSegment3DigitComplex.c" 1
 539  000A              	IF 1000==2
 539  000A              ;# 539 "c:\users\tech\desktop\codetector\sevenSegment3DigitComplex\SevenSegment3DigitComplex.c" 1
 539  000A              	NOP
 539  000A              ;# 539 "c:\users\tech\desktop\codetector\sevenSegment3DigitComplex\SevenSegment3DigitComplex.c" 1
 539  000A              	NOP
 539  000A              	ENDIF
 539  000A              ;# 539 "c:\users\tech\desktop\codetector\sevenSegment3DigitComplex\SevenSegment3DigitComplex.c" 1
 539  000A              	IF 1000==3
 539  000A              ;# 539 "c:\users\tech\desktop\codetector\sevenSegment3DigitComplex\SevenSegment3DigitComplex.c" 1
 539  000A              	NOP
 539  000A              ;# 539 "c:\users\tech\desktop\codetector\sevenSegment3DigitComplex\SevenSegment3DigitComplex.c" 1
 539  000A              	NOP
 539  000A              ;# 539 "c:\users\tech\desktop\codetector\sevenSegment3DigitComplex\SevenSegment3DigitComplex.c" 1
 539  000A              	NOP
 539  000A              	ENDIF
 539  000A              ;# 539 "c:\users\tech\desktop\codetector\sevenSegment3DigitComplex\SevenSegment3DigitComplex.c" 1
 539  000A              	IF (1000<8) AND (1000>3)
 539  000A              ;# 539 "c:\users\tech\desktop\codetector\sevenSegment3DigitComplex\SevenSegment3DigitComplex.c" 1
 539  000A              	CALL __DELAY3 + 7 -1000
 539  000A              	ENDIF
 539  000A              ;# 539 "c:\users\tech\desktop\codetector\sevenSegment3DigitComplex\SevenSegment3DigitComplex.c" 1
 539  000A              	IF (1000< 0404h) AND (1000>7)
 539  000A              ;# 539 "c:\users\tech\desktop\codetector\sevenSegment3DigitComplex\SevenSegment3DigitComplex.c" 1
"File: SevenSegment3DigitComplex.c  Assembler  Version HGASM0202      Page 41

 539  000A  0FF9        	MOV A,1000/4-1
 539  000B              ;# 539 "c:\users\tech\desktop\codetector\sevenSegment3DigitComplex\SevenSegment3DigitComplex.c" 1
 539  000B  2000     E  	CALL __DELAYX3 + 3 -(1000 MOD 4)
 539  000C              	ENDIF
 539  000C              ;# 539 "c:\users\tech\desktop\codetector\sevenSegment3DigitComplex\SevenSegment3DigitComplex.c" 1
 539  000C              	IF (1000< 0x40B) AND (1000> 0403h)
 539  000C              ;# 539 "c:\users\tech\desktop\codetector\sevenSegment3DigitComplex\SevenSegment3DigitComplex.c" 1
 539  000C              	MOV A,0 
 539  000C              ;# 539 "c:\users\tech\desktop\codetector\sevenSegment3DigitComplex\SevenSegment3DigitComplex.c" 1
 539  000C              	CALL __DELAYX6 + 0x40a -1000
 539  000C              	ENDIF
 539  000C              ;# 539 "c:\users\tech\desktop\codetector\sevenSegment3DigitComplex\SevenSegment3DigitComplex.c" 1
 539  000C              	IF (1000 >= 0x40b) AND ((((1000-9)%0402h)/4+1)>256)
 539  000C              ;# 539 "c:\users\tech\desktop\codetector\sevenSegment3DigitComplex\SevenSegment3DigitComplex.c" 1
 539  000C              	MOV A,(1000-9)/0402h
 539  000C              ;# 539 "c:\users\tech\desktop\codetector\sevenSegment3DigitComplex\SevenSegment3DigitComplex.c" 1
 539  000C              	MOV _builtin_holtek_delay_2,A
 539  000C              ;# 539 "c:\users\tech\desktop\codetector\sevenSegment3DigitComplex\SevenSegment3DigitComplex.c" 1
 539  000C              	MOV A,0
 539  000C              ;# 539 "c:\users\tech\desktop\codetector\sevenSegment3DigitComplex\SevenSegment3DigitComplex.c" 1
 539  000C              	CALL __DELAYY5 +5- (((1000-9)%0402h)%6)
 539  000C              	ENDIF
 539  000C              ;# 539 "c:\users\tech\desktop\codetector\sevenSegment3DigitComplex\SevenSegment3DigitComplex.c" 1
 539  000C              	IF (1000 >= 0x40b) AND ((((1000-9)%0402h)/4+1)<=256)
 539  000C              ;# 539 "c:\users\tech\desktop\codetector\sevenSegment3DigitComplex\SevenSegment3DigitComplex.c" 1
 539  000C              	MOV A,(1000-9)/0402h
 539  000C              ;# 539 "c:\users\tech\desktop\codetector\sevenSegment3DigitComplex\SevenSegment3DigitComplex.c" 1
 539  000C              	MOV _builtin_holtek_delay_2,A
 539  000C              ;# 539 "c:\users\tech\desktop\codetector\sevenSegment3DigitComplex\SevenSegment3DigitComplex.c" 1
 539  000C              	MOV A,((1000-9)%0402h)/4+1
 539  000C              ;# 539 "c:\users\tech\desktop\codetector\sevenSegment3DigitComplex\SevenSegment3DigitComplex.c" 1
 539  000C              	CALL __DELAYY3 +3-(((1000-9)%0402h)%4)
 539  000C              	ENDIF
 540  000C              #line 540 "c:\users\tech\desktop\codetector\sevenSegment3DigitComplex\SevenSegment3DigitComplex.c"
 540  000C  2000     R  	call _clearSegment
 541  000D              #line 541 "c:\users\tech\desktop\codetector\sevenSegment3DigitComplex\SevenSegment3DigitComplex.c"
 541  000D  3499        	clr [25].1
 542  000E              #line 542 "c:\users\tech\desktop\codetector\sevenSegment3DigitComplex\SevenSegment3DigitComplex.c"
 542  000E  3615        	clr [21].4
 543  000F              #line 543 "c:\users\tech\desktop\codetector\sevenSegment3DigitComplex\SevenSegment3DigitComplex.c"
 543  000F  3415        	clr [21].0
 544  0010              #line 544 "c:\users\tech\desktop\codetector\sevenSegment3DigitComplex\SevenSegment3DigitComplex.c"
 544  0010  3498        	clr [24].1
 545  0011              #line 545 "c:\users\tech\desktop\codetector\sevenSegment3DigitComplex\SevenSegment3DigitComplex.c"
 545  0011  3214        	set [20].4
 546  0012              #line 546 "c:\users\tech\desktop\codetector\sevenSegment3DigitComplex\SevenSegment3DigitComplex.c"
 546  0012  3014        	set [20].0
 546  0013  0003        	ret
 546  0014              _sixDigit1 endp
 546  0014              #line 546 "c:\users\tech\desktop\codetector\sevenSegment3DigitComplex\SevenSegment3DigitComplex.c"
 546  0014              #pragma debug scope 1 1
 546  0014              public _sixDigit2
 546  0014              #pragma debug scope 28 1
 551  0014              #line 551 "c:\users\tech\desktop\codetector\sevenSegment3DigitComplex\SevenSegment3DigitComplex.c"
 551  0000              _sixDigit2 .section 'code'
 551  0000              _sixDigit2 proc
 555  0000              #line 555 "c:\users\tech\desktop\codetector\sevenSegment3DigitComplex\SevenSegment3DigitComplex.c"
 555  0000  3519        	clr [25].2
 556  0001              #line 556 "c:\users\tech\desktop\codetector\sevenSegment3DigitComplex\SevenSegment3DigitComplex.c"
 556  0001  3499        	clr [25].1
"File: SevenSegment3DigitComplex.c  Assembler  Version HGASM0202      Page 42

 557  0002              #line 557 "c:\users\tech\desktop\codetector\sevenSegment3DigitComplex\SevenSegment3DigitComplex.c"
 557  0002  3415        	clr [21].0
 558  0003              #line 558 "c:\users\tech\desktop\codetector\sevenSegment3DigitComplex\SevenSegment3DigitComplex.c"
 558  0003  3515        	clr [21].2
 559  0004              #line 559 "c:\users\tech\desktop\codetector\sevenSegment3DigitComplex\SevenSegment3DigitComplex.c"
 559  0004  3599        	clr [25].3
 560  0005              #line 560 "c:\users\tech\desktop\codetector\sevenSegment3DigitComplex\SevenSegment3DigitComplex.c"
 560  0005  3118        	set [24].2
 561  0006              #line 561 "c:\users\tech\desktop\codetector\sevenSegment3DigitComplex\SevenSegment3DigitComplex.c"
 561  0006  3498        	clr [24].1
 562  0007              #line 562 "c:\users\tech\desktop\codetector\sevenSegment3DigitComplex\SevenSegment3DigitComplex.c"
 562  0007  3414        	clr [20].0
 563  0008              #line 563 "c:\users\tech\desktop\codetector\sevenSegment3DigitComplex\SevenSegment3DigitComplex.c"
 563  0008  3514        	clr [20].2
 564  0009              #line 564 "c:\users\tech\desktop\codetector\sevenSegment3DigitComplex\SevenSegment3DigitComplex.c"
 564  0009  3598        	clr [24].3
 565  000A              #line 565 "c:\users\tech\desktop\codetector\sevenSegment3DigitComplex\SevenSegment3DigitComplex.c"
 565  000A              ;# 565 "c:\users\tech\desktop\codetector\sevenSegment3DigitComplex\SevenSegment3DigitComplex.c" 1
 565  000A              	IF 1000>263690
 565  000A              ;# 565 "c:\users\tech\desktop\codetector\sevenSegment3DigitComplex\SevenSegment3DigitComplex.c" 1
 565  000A              	ERRMESSAGE 'the value 1000of the argument exceeds the maxinum 263690'
 565  000A              	ENDIF
 565  000A              ;# 565 "c:\users\tech\desktop\codetector\sevenSegment3DigitComplex\SevenSegment3DigitComplex.c" 1
 565  000A              	IF 1000<0
 565  000A              ;# 565 "c:\users\tech\desktop\codetector\sevenSegment3DigitComplex\SevenSegment3DigitComplex.c" 1
 565  000A              	ERRMESSAGE 'the value 1000 of the argument exceeds the mininum 0'
 565  000A              	ENDIF
 565  000A              ;# 565 "c:\users\tech\desktop\codetector\sevenSegment3DigitComplex\SevenSegment3DigitComplex.c" 1
 565  000A              	IF 1000==0
 565  000A              ;# 565 "c:\users\tech\desktop\codetector\sevenSegment3DigitComplex\SevenSegment3DigitComplex.c" 1
 565  000A              	JMP $
 565  000A              	ENDIF
 565  000A              ;# 565 "c:\users\tech\desktop\codetector\sevenSegment3DigitComplex\SevenSegment3DigitComplex.c" 1
 565  000A              	IF 1000==1
 565  000A              ;# 565 "c:\users\tech\desktop\codetector\sevenSegment3DigitComplex\SevenSegment3DigitComplex.c" 1
 565  000A              	NOP
 565  000A              	ENDIF
 565  000A              ;# 565 "c:\users\tech\desktop\codetector\sevenSegment3DigitComplex\SevenSegment3DigitComplex.c" 1
 565  000A              	IF 1000==2
 565  000A              ;# 565 "c:\users\tech\desktop\codetector\sevenSegment3DigitComplex\SevenSegment3DigitComplex.c" 1
 565  000A              	NOP
 565  000A              ;# 565 "c:\users\tech\desktop\codetector\sevenSegment3DigitComplex\SevenSegment3DigitComplex.c" 1
 565  000A              	NOP
 565  000A              	ENDIF
 565  000A              ;# 565 "c:\users\tech\desktop\codetector\sevenSegment3DigitComplex\SevenSegment3DigitComplex.c" 1
 565  000A              	IF 1000==3
 565  000A              ;# 565 "c:\users\tech\desktop\codetector\sevenSegment3DigitComplex\SevenSegment3DigitComplex.c" 1
 565  000A              	NOP
 565  000A              ;# 565 "c:\users\tech\desktop\codetector\sevenSegment3DigitComplex\SevenSegment3DigitComplex.c" 1
 565  000A              	NOP
 565  000A              ;# 565 "c:\users\tech\desktop\codetector\sevenSegment3DigitComplex\SevenSegment3DigitComplex.c" 1
 565  000A              	NOP
 565  000A              	ENDIF
 565  000A              ;# 565 "c:\users\tech\desktop\codetector\sevenSegment3DigitComplex\SevenSegment3DigitComplex.c" 1
 565  000A              	IF (1000<8) AND (1000>3)
 565  000A              ;# 565 "c:\users\tech\desktop\codetector\sevenSegment3DigitComplex\SevenSegment3DigitComplex.c" 1
 565  000A              	CALL __DELAY3 + 7 -1000
 565  000A              	ENDIF
 565  000A              ;# 565 "c:\users\tech\desktop\codetector\sevenSegment3DigitComplex\SevenSegment3DigitComplex.c" 1
 565  000A              	IF (1000< 0404h) AND (1000>7)
"File: SevenSegment3DigitComplex.c  Assembler  Version HGASM0202      Page 43

 565  000A              ;# 565 "c:\users\tech\desktop\codetector\sevenSegment3DigitComplex\SevenSegment3DigitComplex.c" 1
 565  000A  0FF9        	MOV A,1000/4-1
 565  000B              ;# 565 "c:\users\tech\desktop\codetector\sevenSegment3DigitComplex\SevenSegment3DigitComplex.c" 1
 565  000B  2000     E  	CALL __DELAYX3 + 3 -(1000 MOD 4)
 565  000C              	ENDIF
 565  000C              ;# 565 "c:\users\tech\desktop\codetector\sevenSegment3DigitComplex\SevenSegment3DigitComplex.c" 1
 565  000C              	IF (1000< 0x40B) AND (1000> 0403h)
 565  000C              ;# 565 "c:\users\tech\desktop\codetector\sevenSegment3DigitComplex\SevenSegment3DigitComplex.c" 1
 565  000C              	MOV A,0 
 565  000C              ;# 565 "c:\users\tech\desktop\codetector\sevenSegment3DigitComplex\SevenSegment3DigitComplex.c" 1
 565  000C              	CALL __DELAYX6 + 0x40a -1000
 565  000C              	ENDIF
 565  000C              ;# 565 "c:\users\tech\desktop\codetector\sevenSegment3DigitComplex\SevenSegment3DigitComplex.c" 1
 565  000C              	IF (1000 >= 0x40b) AND ((((1000-9)%0402h)/4+1)>256)
 565  000C              ;# 565 "c:\users\tech\desktop\codetector\sevenSegment3DigitComplex\SevenSegment3DigitComplex.c" 1
 565  000C              	MOV A,(1000-9)/0402h
 565  000C              ;# 565 "c:\users\tech\desktop\codetector\sevenSegment3DigitComplex\SevenSegment3DigitComplex.c" 1
 565  000C              	MOV _builtin_holtek_delay_2,A
 565  000C              ;# 565 "c:\users\tech\desktop\codetector\sevenSegment3DigitComplex\SevenSegment3DigitComplex.c" 1
 565  000C              	MOV A,0
 565  000C              ;# 565 "c:\users\tech\desktop\codetector\sevenSegment3DigitComplex\SevenSegment3DigitComplex.c" 1
 565  000C              	CALL __DELAYY5 +5- (((1000-9)%0402h)%6)
 565  000C              	ENDIF
 565  000C              ;# 565 "c:\users\tech\desktop\codetector\sevenSegment3DigitComplex\SevenSegment3DigitComplex.c" 1
 565  000C              	IF (1000 >= 0x40b) AND ((((1000-9)%0402h)/4+1)<=256)
 565  000C              ;# 565 "c:\users\tech\desktop\codetector\sevenSegment3DigitComplex\SevenSegment3DigitComplex.c" 1
 565  000C              	MOV A,(1000-9)/0402h
 565  000C              ;# 565 "c:\users\tech\desktop\codetector\sevenSegment3DigitComplex\SevenSegment3DigitComplex.c" 1
 565  000C              	MOV _builtin_holtek_delay_2,A
 565  000C              ;# 565 "c:\users\tech\desktop\codetector\sevenSegment3DigitComplex\SevenSegment3DigitComplex.c" 1
 565  000C              	MOV A,((1000-9)%0402h)/4+1
 565  000C              ;# 565 "c:\users\tech\desktop\codetector\sevenSegment3DigitComplex\SevenSegment3DigitComplex.c" 1
 565  000C              	CALL __DELAYY3 +3-(((1000-9)%0402h)%4)
 565  000C              	ENDIF
 566  000C              #line 566 "c:\users\tech\desktop\codetector\sevenSegment3DigitComplex\SevenSegment3DigitComplex.c"
 566  000C  2000     R  	call _clearSegment
 568  000D              #line 568 "c:\users\tech\desktop\codetector\sevenSegment3DigitComplex\SevenSegment3DigitComplex.c"
 568  000D  3499        	clr [25].1
 569  000E              #line 569 "c:\users\tech\desktop\codetector\sevenSegment3DigitComplex\SevenSegment3DigitComplex.c"
 569  000E  3515        	clr [21].2
 570  000F              #line 570 "c:\users\tech\desktop\codetector\sevenSegment3DigitComplex\SevenSegment3DigitComplex.c"
 570  000F  3599        	clr [25].3
 571  0010              #line 571 "c:\users\tech\desktop\codetector\sevenSegment3DigitComplex\SevenSegment3DigitComplex.c"
 571  0010  3498        	clr [24].1
 572  0011              #line 572 "c:\users\tech\desktop\codetector\sevenSegment3DigitComplex\SevenSegment3DigitComplex.c"
 572  0011  3114        	set [20].2
 573  0012              #line 573 "c:\users\tech\desktop\codetector\sevenSegment3DigitComplex\SevenSegment3DigitComplex.c"
 573  0012  3198        	set [24].3
 573  0013  0003        	ret
 573  0014              _sixDigit2 endp
 573  0014              #line 573 "c:\users\tech\desktop\codetector\sevenSegment3DigitComplex\SevenSegment3DigitComplex.c"
 573  0014              #pragma debug scope 1 1
 573  0014              public _sixDigit3
 573  0014              #pragma debug scope 29 1
 577  0014              #line 577 "c:\users\tech\desktop\codetector\sevenSegment3DigitComplex\SevenSegment3DigitComplex.c"
 577  0000              _sixDigit3 .section 'code'
 577  0000              _sixDigit3 proc
 581  0000              #line 581 "c:\users\tech\desktop\codetector\sevenSegment3DigitComplex\SevenSegment3DigitComplex.c"
 581  0000  3499        	clr [25].1
 582  0001              #line 582 "c:\users\tech\desktop\codetector\sevenSegment3DigitComplex\SevenSegment3DigitComplex.c"
"File: SevenSegment3DigitComplex.c  Assembler  Version HGASM0202      Page 44

 582  0001  3615        	clr [21].4
 583  0002              #line 583 "c:\users\tech\desktop\codetector\sevenSegment3DigitComplex\SevenSegment3DigitComplex.c"
 583  0002  3515        	clr [21].2
 584  0003              #line 584 "c:\users\tech\desktop\codetector\sevenSegment3DigitComplex\SevenSegment3DigitComplex.c"
 584  0003  3599        	clr [25].3
 585  0004              #line 585 "c:\users\tech\desktop\codetector\sevenSegment3DigitComplex\SevenSegment3DigitComplex.c"
 585  0004  3098        	set [24].1
 586  0005              #line 586 "c:\users\tech\desktop\codetector\sevenSegment3DigitComplex\SevenSegment3DigitComplex.c"
 586  0005  3614        	clr [20].4
 587  0006              #line 587 "c:\users\tech\desktop\codetector\sevenSegment3DigitComplex\SevenSegment3DigitComplex.c"
 587  0006  3514        	clr [20].2
 588  0007              #line 588 "c:\users\tech\desktop\codetector\sevenSegment3DigitComplex\SevenSegment3DigitComplex.c"
 588  0007  3598        	clr [24].3
 589  0008              #line 589 "c:\users\tech\desktop\codetector\sevenSegment3DigitComplex\SevenSegment3DigitComplex.c"
 589  0008              ;# 589 "c:\users\tech\desktop\codetector\sevenSegment3DigitComplex\SevenSegment3DigitComplex.c" 1
 589  0008              	IF 1000>263690
 589  0008              ;# 589 "c:\users\tech\desktop\codetector\sevenSegment3DigitComplex\SevenSegment3DigitComplex.c" 1
 589  0008              	ERRMESSAGE 'the value 1000of the argument exceeds the maxinum 263690'
 589  0008              	ENDIF
 589  0008              ;# 589 "c:\users\tech\desktop\codetector\sevenSegment3DigitComplex\SevenSegment3DigitComplex.c" 1
 589  0008              	IF 1000<0
 589  0008              ;# 589 "c:\users\tech\desktop\codetector\sevenSegment3DigitComplex\SevenSegment3DigitComplex.c" 1
 589  0008              	ERRMESSAGE 'the value 1000 of the argument exceeds the mininum 0'
 589  0008              	ENDIF
 589  0008              ;# 589 "c:\users\tech\desktop\codetector\sevenSegment3DigitComplex\SevenSegment3DigitComplex.c" 1
 589  0008              	IF 1000==0
 589  0008              ;# 589 "c:\users\tech\desktop\codetector\sevenSegment3DigitComplex\SevenSegment3DigitComplex.c" 1
 589  0008              	JMP $
 589  0008              	ENDIF
 589  0008              ;# 589 "c:\users\tech\desktop\codetector\sevenSegment3DigitComplex\SevenSegment3DigitComplex.c" 1
 589  0008              	IF 1000==1
 589  0008              ;# 589 "c:\users\tech\desktop\codetector\sevenSegment3DigitComplex\SevenSegment3DigitComplex.c" 1
 589  0008              	NOP
 589  0008              	ENDIF
 589  0008              ;# 589 "c:\users\tech\desktop\codetector\sevenSegment3DigitComplex\SevenSegment3DigitComplex.c" 1
 589  0008              	IF 1000==2
 589  0008              ;# 589 "c:\users\tech\desktop\codetector\sevenSegment3DigitComplex\SevenSegment3DigitComplex.c" 1
 589  0008              	NOP
 589  0008              ;# 589 "c:\users\tech\desktop\codetector\sevenSegment3DigitComplex\SevenSegment3DigitComplex.c" 1
 589  0008              	NOP
 589  0008              	ENDIF
 589  0008              ;# 589 "c:\users\tech\desktop\codetector\sevenSegment3DigitComplex\SevenSegment3DigitComplex.c" 1
 589  0008              	IF 1000==3
 589  0008              ;# 589 "c:\users\tech\desktop\codetector\sevenSegment3DigitComplex\SevenSegment3DigitComplex.c" 1
 589  0008              	NOP
 589  0008              ;# 589 "c:\users\tech\desktop\codetector\sevenSegment3DigitComplex\SevenSegment3DigitComplex.c" 1
 589  0008              	NOP
 589  0008              ;# 589 "c:\users\tech\desktop\codetector\sevenSegment3DigitComplex\SevenSegment3DigitComplex.c" 1
 589  0008              	NOP
 589  0008              	ENDIF
 589  0008              ;# 589 "c:\users\tech\desktop\codetector\sevenSegment3DigitComplex\SevenSegment3DigitComplex.c" 1
 589  0008              	IF (1000<8) AND (1000>3)
 589  0008              ;# 589 "c:\users\tech\desktop\codetector\sevenSegment3DigitComplex\SevenSegment3DigitComplex.c" 1
 589  0008              	CALL __DELAY3 + 7 -1000
 589  0008              	ENDIF
 589  0008              ;# 589 "c:\users\tech\desktop\codetector\sevenSegment3DigitComplex\SevenSegment3DigitComplex.c" 1
 589  0008              	IF (1000< 0404h) AND (1000>7)
 589  0008              ;# 589 "c:\users\tech\desktop\codetector\sevenSegment3DigitComplex\SevenSegment3DigitComplex.c" 1
 589  0008  0FF9        	MOV A,1000/4-1
 589  0009              ;# 589 "c:\users\tech\desktop\codetector\sevenSegment3DigitComplex\SevenSegment3DigitComplex.c" 1
"File: SevenSegment3DigitComplex.c  Assembler  Version HGASM0202      Page 45

 589  0009  2000     E  	CALL __DELAYX3 + 3 -(1000 MOD 4)
 589  000A              	ENDIF
 589  000A              ;# 589 "c:\users\tech\desktop\codetector\sevenSegment3DigitComplex\SevenSegment3DigitComplex.c" 1
 589  000A              	IF (1000< 0x40B) AND (1000> 0403h)
 589  000A              ;# 589 "c:\users\tech\desktop\codetector\sevenSegment3DigitComplex\SevenSegment3DigitComplex.c" 1
 589  000A              	MOV A,0 
 589  000A              ;# 589 "c:\users\tech\desktop\codetector\sevenSegment3DigitComplex\SevenSegment3DigitComplex.c" 1
 589  000A              	CALL __DELAYX6 + 0x40a -1000
 589  000A              	ENDIF
 589  000A              ;# 589 "c:\users\tech\desktop\codetector\sevenSegment3DigitComplex\SevenSegment3DigitComplex.c" 1
 589  000A              	IF (1000 >= 0x40b) AND ((((1000-9)%0402h)/4+1)>256)
 589  000A              ;# 589 "c:\users\tech\desktop\codetector\sevenSegment3DigitComplex\SevenSegment3DigitComplex.c" 1
 589  000A              	MOV A,(1000-9)/0402h
 589  000A              ;# 589 "c:\users\tech\desktop\codetector\sevenSegment3DigitComplex\SevenSegment3DigitComplex.c" 1
 589  000A              	MOV _builtin_holtek_delay_2,A
 589  000A              ;# 589 "c:\users\tech\desktop\codetector\sevenSegment3DigitComplex\SevenSegment3DigitComplex.c" 1
 589  000A              	MOV A,0
 589  000A              ;# 589 "c:\users\tech\desktop\codetector\sevenSegment3DigitComplex\SevenSegment3DigitComplex.c" 1
 589  000A              	CALL __DELAYY5 +5- (((1000-9)%0402h)%6)
 589  000A              	ENDIF
 589  000A              ;# 589 "c:\users\tech\desktop\codetector\sevenSegment3DigitComplex\SevenSegment3DigitComplex.c" 1
 589  000A              	IF (1000 >= 0x40b) AND ((((1000-9)%0402h)/4+1)<=256)
 589  000A              ;# 589 "c:\users\tech\desktop\codetector\sevenSegment3DigitComplex\SevenSegment3DigitComplex.c" 1
 589  000A              	MOV A,(1000-9)/0402h
 589  000A              ;# 589 "c:\users\tech\desktop\codetector\sevenSegment3DigitComplex\SevenSegment3DigitComplex.c" 1
 589  000A              	MOV _builtin_holtek_delay_2,A
 589  000A              ;# 589 "c:\users\tech\desktop\codetector\sevenSegment3DigitComplex\SevenSegment3DigitComplex.c" 1
 589  000A              	MOV A,((1000-9)%0402h)/4+1
 589  000A              ;# 589 "c:\users\tech\desktop\codetector\sevenSegment3DigitComplex\SevenSegment3DigitComplex.c" 1
 589  000A              	CALL __DELAYY3 +3-(((1000-9)%0402h)%4)
 589  000A              	ENDIF
 590  000A              #line 590 "c:\users\tech\desktop\codetector\sevenSegment3DigitComplex\SevenSegment3DigitComplex.c"
 590  000A  2000     R  	call _clearSegment
 592  000B              #line 592 "c:\users\tech\desktop\codetector\sevenSegment3DigitComplex\SevenSegment3DigitComplex.c"
 592  000B  3615        	clr [21].4
 593  000C              #line 593 "c:\users\tech\desktop\codetector\sevenSegment3DigitComplex\SevenSegment3DigitComplex.c"
 593  000C  3415        	clr [21].0
 594  000D              #line 594 "c:\users\tech\desktop\codetector\sevenSegment3DigitComplex\SevenSegment3DigitComplex.c"
 594  000D  3515        	clr [21].2
 595  000E              #line 595 "c:\users\tech\desktop\codetector\sevenSegment3DigitComplex\SevenSegment3DigitComplex.c"
 595  000E  3599        	clr [25].3
 596  000F              #line 596 "c:\users\tech\desktop\codetector\sevenSegment3DigitComplex\SevenSegment3DigitComplex.c"
 596  000F  3214        	set [20].4
 597  0010              #line 597 "c:\users\tech\desktop\codetector\sevenSegment3DigitComplex\SevenSegment3DigitComplex.c"
 597  0010  3414        	clr [20].0
 598  0011              #line 598 "c:\users\tech\desktop\codetector\sevenSegment3DigitComplex\SevenSegment3DigitComplex.c"
 598  0011  3514        	clr [20].2
 599  0012              #line 599 "c:\users\tech\desktop\codetector\sevenSegment3DigitComplex\SevenSegment3DigitComplex.c"
 599  0012  3598        	clr [24].3
 599  0013  0003        	ret
 599  0014              _sixDigit3 endp
 599  0014              #line 599 "c:\users\tech\desktop\codetector\sevenSegment3DigitComplex\SevenSegment3DigitComplex.c"
 599  0014              #pragma debug scope 1 1
 599  0014              public _eightDigit1
 599  0014              #pragma debug scope 30 1
 649  0014              #line 649 "c:\users\tech\desktop\codetector\sevenSegment3DigitComplex\SevenSegment3DigitComplex.c"
 649  0000              _eightDigit1 .section 'code'
 649  0000              _eightDigit1 proc
 653  0000              #line 653 "c:\users\tech\desktop\codetector\sevenSegment3DigitComplex\SevenSegment3DigitComplex.c"
 653  0000  3519        	clr [25].2
"File: SevenSegment3DigitComplex.c  Assembler  Version HGASM0202      Page 46

 654  0001              #line 654 "c:\users\tech\desktop\codetector\sevenSegment3DigitComplex\SevenSegment3DigitComplex.c"
 654  0001  3499        	clr [25].1
 655  0002              #line 655 "c:\users\tech\desktop\codetector\sevenSegment3DigitComplex\SevenSegment3DigitComplex.c"
 655  0002  3615        	clr [21].4
 656  0003              #line 656 "c:\users\tech\desktop\codetector\sevenSegment3DigitComplex\SevenSegment3DigitComplex.c"
 656  0003  3415        	clr [21].0
 657  0004              #line 657 "c:\users\tech\desktop\codetector\sevenSegment3DigitComplex\SevenSegment3DigitComplex.c"
 657  0004  3515        	clr [21].2
 658  0005              #line 658 "c:\users\tech\desktop\codetector\sevenSegment3DigitComplex\SevenSegment3DigitComplex.c"
 658  0005  3599        	clr [25].3
 661  0006              #line 661 "c:\users\tech\desktop\codetector\sevenSegment3DigitComplex\SevenSegment3DigitComplex.c"
 661  0006  3518        	clr [24].2
 662  0007              #line 662 "c:\users\tech\desktop\codetector\sevenSegment3DigitComplex\SevenSegment3DigitComplex.c"
 662  0007  3098        	set [24].1
 663  0008              #line 663 "c:\users\tech\desktop\codetector\sevenSegment3DigitComplex\SevenSegment3DigitComplex.c"
 663  0008  3214        	set [20].4
 664  0009              #line 664 "c:\users\tech\desktop\codetector\sevenSegment3DigitComplex\SevenSegment3DigitComplex.c"
 664  0009  3014        	set [20].0
 665  000A              #line 665 "c:\users\tech\desktop\codetector\sevenSegment3DigitComplex\SevenSegment3DigitComplex.c"
 665  000A  3114        	set [20].2
 666  000B              #line 666 "c:\users\tech\desktop\codetector\sevenSegment3DigitComplex\SevenSegment3DigitComplex.c"
 666  000B  3198        	set [24].3
 668  000C              #line 668 "c:\users\tech\desktop\codetector\sevenSegment3DigitComplex\SevenSegment3DigitComplex.c"
 668  000C              ;# 668 "c:\users\tech\desktop\codetector\sevenSegment3DigitComplex\SevenSegment3DigitComplex.c" 1
 668  000C              	IF 1000>263690
 668  000C              ;# 668 "c:\users\tech\desktop\codetector\sevenSegment3DigitComplex\SevenSegment3DigitComplex.c" 1
 668  000C              	ERRMESSAGE 'the value 1000of the argument exceeds the maxinum 263690'
 668  000C              	ENDIF
 668  000C              ;# 668 "c:\users\tech\desktop\codetector\sevenSegment3DigitComplex\SevenSegment3DigitComplex.c" 1
 668  000C              	IF 1000<0
 668  000C              ;# 668 "c:\users\tech\desktop\codetector\sevenSegment3DigitComplex\SevenSegment3DigitComplex.c" 1
 668  000C              	ERRMESSAGE 'the value 1000 of the argument exceeds the mininum 0'
 668  000C              	ENDIF
 668  000C              ;# 668 "c:\users\tech\desktop\codetector\sevenSegment3DigitComplex\SevenSegment3DigitComplex.c" 1
 668  000C              	IF 1000==0
 668  000C              ;# 668 "c:\users\tech\desktop\codetector\sevenSegment3DigitComplex\SevenSegment3DigitComplex.c" 1
 668  000C              	JMP $
 668  000C              	ENDIF
 668  000C              ;# 668 "c:\users\tech\desktop\codetector\sevenSegment3DigitComplex\SevenSegment3DigitComplex.c" 1
 668  000C              	IF 1000==1
 668  000C              ;# 668 "c:\users\tech\desktop\codetector\sevenSegment3DigitComplex\SevenSegment3DigitComplex.c" 1
 668  000C              	NOP
 668  000C              	ENDIF
 668  000C              ;# 668 "c:\users\tech\desktop\codetector\sevenSegment3DigitComplex\SevenSegment3DigitComplex.c" 1
 668  000C              	IF 1000==2
 668  000C              ;# 668 "c:\users\tech\desktop\codetector\sevenSegment3DigitComplex\SevenSegment3DigitComplex.c" 1
 668  000C              	NOP
 668  000C              ;# 668 "c:\users\tech\desktop\codetector\sevenSegment3DigitComplex\SevenSegment3DigitComplex.c" 1
 668  000C              	NOP
 668  000C              	ENDIF
 668  000C              ;# 668 "c:\users\tech\desktop\codetector\sevenSegment3DigitComplex\SevenSegment3DigitComplex.c" 1
 668  000C              	IF 1000==3
 668  000C              ;# 668 "c:\users\tech\desktop\codetector\sevenSegment3DigitComplex\SevenSegment3DigitComplex.c" 1
 668  000C              	NOP
 668  000C              ;# 668 "c:\users\tech\desktop\codetector\sevenSegment3DigitComplex\SevenSegment3DigitComplex.c" 1
 668  000C              	NOP
 668  000C              ;# 668 "c:\users\tech\desktop\codetector\sevenSegment3DigitComplex\SevenSegment3DigitComplex.c" 1
 668  000C              	NOP
 668  000C              	ENDIF
 668  000C              ;# 668 "c:\users\tech\desktop\codetector\sevenSegment3DigitComplex\SevenSegment3DigitComplex.c" 1
"File: SevenSegment3DigitComplex.c  Assembler  Version HGASM0202      Page 47

 668  000C              	IF (1000<8) AND (1000>3)
 668  000C              ;# 668 "c:\users\tech\desktop\codetector\sevenSegment3DigitComplex\SevenSegment3DigitComplex.c" 1
 668  000C              	CALL __DELAY3 + 7 -1000
 668  000C              	ENDIF
 668  000C              ;# 668 "c:\users\tech\desktop\codetector\sevenSegment3DigitComplex\SevenSegment3DigitComplex.c" 1
 668  000C              	IF (1000< 0404h) AND (1000>7)
 668  000C              ;# 668 "c:\users\tech\desktop\codetector\sevenSegment3DigitComplex\SevenSegment3DigitComplex.c" 1
 668  000C  0FF9        	MOV A,1000/4-1
 668  000D              ;# 668 "c:\users\tech\desktop\codetector\sevenSegment3DigitComplex\SevenSegment3DigitComplex.c" 1
 668  000D  2000     E  	CALL __DELAYX3 + 3 -(1000 MOD 4)
 668  000E              	ENDIF
 668  000E              ;# 668 "c:\users\tech\desktop\codetector\sevenSegment3DigitComplex\SevenSegment3DigitComplex.c" 1
 668  000E              	IF (1000< 0x40B) AND (1000> 0403h)
 668  000E              ;# 668 "c:\users\tech\desktop\codetector\sevenSegment3DigitComplex\SevenSegment3DigitComplex.c" 1
 668  000E              	MOV A,0 
 668  000E              ;# 668 "c:\users\tech\desktop\codetector\sevenSegment3DigitComplex\SevenSegment3DigitComplex.c" 1
 668  000E              	CALL __DELAYX6 + 0x40a -1000
 668  000E              	ENDIF
 668  000E              ;# 668 "c:\users\tech\desktop\codetector\sevenSegment3DigitComplex\SevenSegment3DigitComplex.c" 1
 668  000E              	IF (1000 >= 0x40b) AND ((((1000-9)%0402h)/4+1)>256)
 668  000E              ;# 668 "c:\users\tech\desktop\codetector\sevenSegment3DigitComplex\SevenSegment3DigitComplex.c" 1
 668  000E              	MOV A,(1000-9)/0402h
 668  000E              ;# 668 "c:\users\tech\desktop\codetector\sevenSegment3DigitComplex\SevenSegment3DigitComplex.c" 1
 668  000E              	MOV _builtin_holtek_delay_2,A
 668  000E              ;# 668 "c:\users\tech\desktop\codetector\sevenSegment3DigitComplex\SevenSegment3DigitComplex.c" 1
 668  000E              	MOV A,0
 668  000E              ;# 668 "c:\users\tech\desktop\codetector\sevenSegment3DigitComplex\SevenSegment3DigitComplex.c" 1
 668  000E              	CALL __DELAYY5 +5- (((1000-9)%0402h)%6)
 668  000E              	ENDIF
 668  000E              ;# 668 "c:\users\tech\desktop\codetector\sevenSegment3DigitComplex\SevenSegment3DigitComplex.c" 1
 668  000E              	IF (1000 >= 0x40b) AND ((((1000-9)%0402h)/4+1)<=256)
 668  000E              ;# 668 "c:\users\tech\desktop\codetector\sevenSegment3DigitComplex\SevenSegment3DigitComplex.c" 1
 668  000E              	MOV A,(1000-9)/0402h
 668  000E              ;# 668 "c:\users\tech\desktop\codetector\sevenSegment3DigitComplex\SevenSegment3DigitComplex.c" 1
 668  000E              	MOV _builtin_holtek_delay_2,A
 668  000E              ;# 668 "c:\users\tech\desktop\codetector\sevenSegment3DigitComplex\SevenSegment3DigitComplex.c" 1
 668  000E              	MOV A,((1000-9)%0402h)/4+1
 668  000E              ;# 668 "c:\users\tech\desktop\codetector\sevenSegment3DigitComplex\SevenSegment3DigitComplex.c" 1
 668  000E              	CALL __DELAYY3 +3-(((1000-9)%0402h)%4)
 668  000E              	ENDIF
 670  000E              #line 670 "c:\users\tech\desktop\codetector\sevenSegment3DigitComplex\SevenSegment3DigitComplex.c"
 670  000E  2000     R  	call _clearSegment
 671  000F              #line 671 "c:\users\tech\desktop\codetector\sevenSegment3DigitComplex\SevenSegment3DigitComplex.c"
 671  000F  3499        	clr [25].1
 672  0010              #line 672 "c:\users\tech\desktop\codetector\sevenSegment3DigitComplex\SevenSegment3DigitComplex.c"
 672  0010  3615        	clr [21].4
 673  0011              #line 673 "c:\users\tech\desktop\codetector\sevenSegment3DigitComplex\SevenSegment3DigitComplex.c"
 673  0011  3498        	clr [24].1
 674  0012              #line 674 "c:\users\tech\desktop\codetector\sevenSegment3DigitComplex\SevenSegment3DigitComplex.c"
 674  0012  3214        	set [20].4
 676  0013              #line 676 "c:\users\tech\desktop\codetector\sevenSegment3DigitComplex\SevenSegment3DigitComplex.c"
 676  0013              ;# 676 "c:\users\tech\desktop\codetector\sevenSegment3DigitComplex\SevenSegment3DigitComplex.c" 1
 676  0013              	IF 1000>263690
 676  0013              ;# 676 "c:\users\tech\desktop\codetector\sevenSegment3DigitComplex\SevenSegment3DigitComplex.c" 1
 676  0013              	ERRMESSAGE 'the value 1000of the argument exceeds the maxinum 263690'
 676  0013              	ENDIF
 676  0013              ;# 676 "c:\users\tech\desktop\codetector\sevenSegment3DigitComplex\SevenSegment3DigitComplex.c" 1
 676  0013              	IF 1000<0
 676  0013              ;# 676 "c:\users\tech\desktop\codetector\sevenSegment3DigitComplex\SevenSegment3DigitComplex.c" 1
 676  0013              	ERRMESSAGE 'the value 1000 of the argument exceeds the mininum 0'
"File: SevenSegment3DigitComplex.c  Assembler  Version HGASM0202      Page 48

 676  0013              	ENDIF
 676  0013              ;# 676 "c:\users\tech\desktop\codetector\sevenSegment3DigitComplex\SevenSegment3DigitComplex.c" 1
 676  0013              	IF 1000==0
 676  0013              ;# 676 "c:\users\tech\desktop\codetector\sevenSegment3DigitComplex\SevenSegment3DigitComplex.c" 1
 676  0013              	JMP $
 676  0013              	ENDIF
 676  0013              ;# 676 "c:\users\tech\desktop\codetector\sevenSegment3DigitComplex\SevenSegment3DigitComplex.c" 1
 676  0013              	IF 1000==1
 676  0013              ;# 676 "c:\users\tech\desktop\codetector\sevenSegment3DigitComplex\SevenSegment3DigitComplex.c" 1
 676  0013              	NOP
 676  0013              	ENDIF
 676  0013              ;# 676 "c:\users\tech\desktop\codetector\sevenSegment3DigitComplex\SevenSegment3DigitComplex.c" 1
 676  0013              	IF 1000==2
 676  0013              ;# 676 "c:\users\tech\desktop\codetector\sevenSegment3DigitComplex\SevenSegment3DigitComplex.c" 1
 676  0013              	NOP
 676  0013              ;# 676 "c:\users\tech\desktop\codetector\sevenSegment3DigitComplex\SevenSegment3DigitComplex.c" 1
 676  0013              	NOP
 676  0013              	ENDIF
 676  0013              ;# 676 "c:\users\tech\desktop\codetector\sevenSegment3DigitComplex\SevenSegment3DigitComplex.c" 1
 676  0013              	IF 1000==3
 676  0013              ;# 676 "c:\users\tech\desktop\codetector\sevenSegment3DigitComplex\SevenSegment3DigitComplex.c" 1
 676  0013              	NOP
 676  0013              ;# 676 "c:\users\tech\desktop\codetector\sevenSegment3DigitComplex\SevenSegment3DigitComplex.c" 1
 676  0013              	NOP
 676  0013              ;# 676 "c:\users\tech\desktop\codetector\sevenSegment3DigitComplex\SevenSegment3DigitComplex.c" 1
 676  0013              	NOP
 676  0013              	ENDIF
 676  0013              ;# 676 "c:\users\tech\desktop\codetector\sevenSegment3DigitComplex\SevenSegment3DigitComplex.c" 1
 676  0013              	IF (1000<8) AND (1000>3)
 676  0013              ;# 676 "c:\users\tech\desktop\codetector\sevenSegment3DigitComplex\SevenSegment3DigitComplex.c" 1
 676  0013              	CALL __DELAY3 + 7 -1000
 676  0013              	ENDIF
 676  0013              ;# 676 "c:\users\tech\desktop\codetector\sevenSegment3DigitComplex\SevenSegment3DigitComplex.c" 1
 676  0013              	IF (1000< 0404h) AND (1000>7)
 676  0013              ;# 676 "c:\users\tech\desktop\codetector\sevenSegment3DigitComplex\SevenSegment3DigitComplex.c" 1
 676  0013  0FF9        	MOV A,1000/4-1
 676  0014              ;# 676 "c:\users\tech\desktop\codetector\sevenSegment3DigitComplex\SevenSegment3DigitComplex.c" 1
 676  0014  2000     E  	CALL __DELAYX3 + 3 -(1000 MOD 4)
 676  0015              	ENDIF
 676  0015              ;# 676 "c:\users\tech\desktop\codetector\sevenSegment3DigitComplex\SevenSegment3DigitComplex.c" 1
 676  0015              	IF (1000< 0x40B) AND (1000> 0403h)
 676  0015              ;# 676 "c:\users\tech\desktop\codetector\sevenSegment3DigitComplex\SevenSegment3DigitComplex.c" 1
 676  0015              	MOV A,0 
 676  0015              ;# 676 "c:\users\tech\desktop\codetector\sevenSegment3DigitComplex\SevenSegment3DigitComplex.c" 1
 676  0015              	CALL __DELAYX6 + 0x40a -1000
 676  0015              	ENDIF
 676  0015              ;# 676 "c:\users\tech\desktop\codetector\sevenSegment3DigitComplex\SevenSegment3DigitComplex.c" 1
 676  0015              	IF (1000 >= 0x40b) AND ((((1000-9)%0402h)/4+1)>256)
 676  0015              ;# 676 "c:\users\tech\desktop\codetector\sevenSegment3DigitComplex\SevenSegment3DigitComplex.c" 1
 676  0015              	MOV A,(1000-9)/0402h
 676  0015              ;# 676 "c:\users\tech\desktop\codetector\sevenSegment3DigitComplex\SevenSegment3DigitComplex.c" 1
 676  0015              	MOV _builtin_holtek_delay_2,A
 676  0015              ;# 676 "c:\users\tech\desktop\codetector\sevenSegment3DigitComplex\SevenSegment3DigitComplex.c" 1
 676  0015              	MOV A,0
 676  0015              ;# 676 "c:\users\tech\desktop\codetector\sevenSegment3DigitComplex\SevenSegment3DigitComplex.c" 1
 676  0015              	CALL __DELAYY5 +5- (((1000-9)%0402h)%6)
 676  0015              	ENDIF
 676  0015              ;# 676 "c:\users\tech\desktop\codetector\sevenSegment3DigitComplex\SevenSegment3DigitComplex.c" 1
 676  0015              	IF (1000 >= 0x40b) AND ((((1000-9)%0402h)/4+1)<=256)
 676  0015              ;# 676 "c:\users\tech\desktop\codetector\sevenSegment3DigitComplex\SevenSegment3DigitComplex.c" 1
"File: SevenSegment3DigitComplex.c  Assembler  Version HGASM0202      Page 49

 676  0015              	MOV A,(1000-9)/0402h
 676  0015              ;# 676 "c:\users\tech\desktop\codetector\sevenSegment3DigitComplex\SevenSegment3DigitComplex.c" 1
 676  0015              	MOV _builtin_holtek_delay_2,A
 676  0015              ;# 676 "c:\users\tech\desktop\codetector\sevenSegment3DigitComplex\SevenSegment3DigitComplex.c" 1
 676  0015              	MOV A,((1000-9)%0402h)/4+1
 676  0015              ;# 676 "c:\users\tech\desktop\codetector\sevenSegment3DigitComplex\SevenSegment3DigitComplex.c" 1
 676  0015              	CALL __DELAYY3 +3-(((1000-9)%0402h)%4)
 676  0015              	ENDIF
 677  0015              #line 677 "c:\users\tech\desktop\codetector\sevenSegment3DigitComplex\SevenSegment3DigitComplex.c"
 677  0015  2000     R  	call _clearSegment
 678  0016              #line 678 "c:\users\tech\desktop\codetector\sevenSegment3DigitComplex\SevenSegment3DigitComplex.c"
 678  0016  3499        	clr [25].1
 679  0017              #line 679 "c:\users\tech\desktop\codetector\sevenSegment3DigitComplex\SevenSegment3DigitComplex.c"
 679  0017  3415        	clr [21].0
 680  0018              #line 680 "c:\users\tech\desktop\codetector\sevenSegment3DigitComplex\SevenSegment3DigitComplex.c"
 680  0018  3014        	set [20].0
 681  0019              #line 681 "c:\users\tech\desktop\codetector\sevenSegment3DigitComplex\SevenSegment3DigitComplex.c"
 681  0019  3498        	clr [24].1
 681  001A  0003        	ret
 681  001B              _eightDigit1 endp
 681  001B              #line 681 "c:\users\tech\desktop\codetector\sevenSegment3DigitComplex\SevenSegment3DigitComplex.c"
 681  001B              #pragma debug scope 1 1
 681  001B              public _eightDigit2
 681  001B              #pragma debug scope 31 1
 685  001B              #line 685 "c:\users\tech\desktop\codetector\sevenSegment3DigitComplex\SevenSegment3DigitComplex.c"
 685  0000              _eightDigit2 .section 'code'
 685  0000              _eightDigit2 proc
 688  0000              #line 688 "c:\users\tech\desktop\codetector\sevenSegment3DigitComplex\SevenSegment3DigitComplex.c"
 688  0000  3519        	clr [25].2
 689  0001              #line 689 "c:\users\tech\desktop\codetector\sevenSegment3DigitComplex\SevenSegment3DigitComplex.c"
 689  0001  3499        	clr [25].1
 690  0002              #line 690 "c:\users\tech\desktop\codetector\sevenSegment3DigitComplex\SevenSegment3DigitComplex.c"
 690  0002  3615        	clr [21].4
 691  0003              #line 691 "c:\users\tech\desktop\codetector\sevenSegment3DigitComplex\SevenSegment3DigitComplex.c"
 691  0003  3415        	clr [21].0
 692  0004              #line 692 "c:\users\tech\desktop\codetector\sevenSegment3DigitComplex\SevenSegment3DigitComplex.c"
 692  0004  3515        	clr [21].2
 693  0005              #line 693 "c:\users\tech\desktop\codetector\sevenSegment3DigitComplex\SevenSegment3DigitComplex.c"
 693  0005  3599        	clr [25].3
 694  0006              #line 694 "c:\users\tech\desktop\codetector\sevenSegment3DigitComplex\SevenSegment3DigitComplex.c"
 694  0006  3118        	set [24].2
 695  0007              #line 695 "c:\users\tech\desktop\codetector\sevenSegment3DigitComplex\SevenSegment3DigitComplex.c"
 695  0007  3498        	clr [24].1
 696  0008              #line 696 "c:\users\tech\desktop\codetector\sevenSegment3DigitComplex\SevenSegment3DigitComplex.c"
 696  0008  3614        	clr [20].4
 697  0009              #line 697 "c:\users\tech\desktop\codetector\sevenSegment3DigitComplex\SevenSegment3DigitComplex.c"
 697  0009  3414        	clr [20].0
 698  000A              #line 698 "c:\users\tech\desktop\codetector\sevenSegment3DigitComplex\SevenSegment3DigitComplex.c"
 698  000A  3514        	clr [20].2
 699  000B              #line 699 "c:\users\tech\desktop\codetector\sevenSegment3DigitComplex\SevenSegment3DigitComplex.c"
 699  000B  3598        	clr [24].3
 700  000C              #line 700 "c:\users\tech\desktop\codetector\sevenSegment3DigitComplex\SevenSegment3DigitComplex.c"
 700  000C              ;# 700 "c:\users\tech\desktop\codetector\sevenSegment3DigitComplex\SevenSegment3DigitComplex.c" 1
 700  000C              	IF 1000>263690
 700  000C              ;# 700 "c:\users\tech\desktop\codetector\sevenSegment3DigitComplex\SevenSegment3DigitComplex.c" 1
 700  000C              	ERRMESSAGE 'the value 1000of the argument exceeds the maxinum 263690'
 700  000C              	ENDIF
 700  000C              ;# 700 "c:\users\tech\desktop\codetector\sevenSegment3DigitComplex\SevenSegment3DigitComplex.c" 1
 700  000C              	IF 1000<0
 700  000C              ;# 700 "c:\users\tech\desktop\codetector\sevenSegment3DigitComplex\SevenSegment3DigitComplex.c" 1
"File: SevenSegment3DigitComplex.c  Assembler  Version HGASM0202      Page 50

 700  000C              	ERRMESSAGE 'the value 1000 of the argument exceeds the mininum 0'
 700  000C              	ENDIF
 700  000C              ;# 700 "c:\users\tech\desktop\codetector\sevenSegment3DigitComplex\SevenSegment3DigitComplex.c" 1
 700  000C              	IF 1000==0
 700  000C              ;# 700 "c:\users\tech\desktop\codetector\sevenSegment3DigitComplex\SevenSegment3DigitComplex.c" 1
 700  000C              	JMP $
 700  000C              	ENDIF
 700  000C              ;# 700 "c:\users\tech\desktop\codetector\sevenSegment3DigitComplex\SevenSegment3DigitComplex.c" 1
 700  000C              	IF 1000==1
 700  000C              ;# 700 "c:\users\tech\desktop\codetector\sevenSegment3DigitComplex\SevenSegment3DigitComplex.c" 1
 700  000C              	NOP
 700  000C              	ENDIF
 700  000C              ;# 700 "c:\users\tech\desktop\codetector\sevenSegment3DigitComplex\SevenSegment3DigitComplex.c" 1
 700  000C              	IF 1000==2
 700  000C              ;# 700 "c:\users\tech\desktop\codetector\sevenSegment3DigitComplex\SevenSegment3DigitComplex.c" 1
 700  000C              	NOP
 700  000C              ;# 700 "c:\users\tech\desktop\codetector\sevenSegment3DigitComplex\SevenSegment3DigitComplex.c" 1
 700  000C              	NOP
 700  000C              	ENDIF
 700  000C              ;# 700 "c:\users\tech\desktop\codetector\sevenSegment3DigitComplex\SevenSegment3DigitComplex.c" 1
 700  000C              	IF 1000==3
 700  000C              ;# 700 "c:\users\tech\desktop\codetector\sevenSegment3DigitComplex\SevenSegment3DigitComplex.c" 1
 700  000C              	NOP
 700  000C              ;# 700 "c:\users\tech\desktop\codetector\sevenSegment3DigitComplex\SevenSegment3DigitComplex.c" 1
 700  000C              	NOP
 700  000C              ;# 700 "c:\users\tech\desktop\codetector\sevenSegment3DigitComplex\SevenSegment3DigitComplex.c" 1
 700  000C              	NOP
 700  000C              	ENDIF
 700  000C              ;# 700 "c:\users\tech\desktop\codetector\sevenSegment3DigitComplex\SevenSegment3DigitComplex.c" 1
 700  000C              	IF (1000<8) AND (1000>3)
 700  000C              ;# 700 "c:\users\tech\desktop\codetector\sevenSegment3DigitComplex\SevenSegment3DigitComplex.c" 1
 700  000C              	CALL __DELAY3 + 7 -1000
 700  000C              	ENDIF
 700  000C              ;# 700 "c:\users\tech\desktop\codetector\sevenSegment3DigitComplex\SevenSegment3DigitComplex.c" 1
 700  000C              	IF (1000< 0404h) AND (1000>7)
 700  000C              ;# 700 "c:\users\tech\desktop\codetector\sevenSegment3DigitComplex\SevenSegment3DigitComplex.c" 1
 700  000C  0FF9        	MOV A,1000/4-1
 700  000D              ;# 700 "c:\users\tech\desktop\codetector\sevenSegment3DigitComplex\SevenSegment3DigitComplex.c" 1
 700  000D  2000     E  	CALL __DELAYX3 + 3 -(1000 MOD 4)
 700  000E              	ENDIF
 700  000E              ;# 700 "c:\users\tech\desktop\codetector\sevenSegment3DigitComplex\SevenSegment3DigitComplex.c" 1
 700  000E              	IF (1000< 0x40B) AND (1000> 0403h)
 700  000E              ;# 700 "c:\users\tech\desktop\codetector\sevenSegment3DigitComplex\SevenSegment3DigitComplex.c" 1
 700  000E              	MOV A,0 
 700  000E              ;# 700 "c:\users\tech\desktop\codetector\sevenSegment3DigitComplex\SevenSegment3DigitComplex.c" 1
 700  000E              	CALL __DELAYX6 + 0x40a -1000
 700  000E              	ENDIF
 700  000E              ;# 700 "c:\users\tech\desktop\codetector\sevenSegment3DigitComplex\SevenSegment3DigitComplex.c" 1
 700  000E              	IF (1000 >= 0x40b) AND ((((1000-9)%0402h)/4+1)>256)
 700  000E              ;# 700 "c:\users\tech\desktop\codetector\sevenSegment3DigitComplex\SevenSegment3DigitComplex.c" 1
 700  000E              	MOV A,(1000-9)/0402h
 700  000E              ;# 700 "c:\users\tech\desktop\codetector\sevenSegment3DigitComplex\SevenSegment3DigitComplex.c" 1
 700  000E              	MOV _builtin_holtek_delay_2,A
 700  000E              ;# 700 "c:\users\tech\desktop\codetector\sevenSegment3DigitComplex\SevenSegment3DigitComplex.c" 1
 700  000E              	MOV A,0
 700  000E              ;# 700 "c:\users\tech\desktop\codetector\sevenSegment3DigitComplex\SevenSegment3DigitComplex.c" 1
 700  000E              	CALL __DELAYY5 +5- (((1000-9)%0402h)%6)
 700  000E              	ENDIF
 700  000E              ;# 700 "c:\users\tech\desktop\codetector\sevenSegment3DigitComplex\SevenSegment3DigitComplex.c" 1
 700  000E              	IF (1000 >= 0x40b) AND ((((1000-9)%0402h)/4+1)<=256)
"File: SevenSegment3DigitComplex.c  Assembler  Version HGASM0202      Page 51

 700  000E              ;# 700 "c:\users\tech\desktop\codetector\sevenSegment3DigitComplex\SevenSegment3DigitComplex.c" 1
 700  000E              	MOV A,(1000-9)/0402h
 700  000E              ;# 700 "c:\users\tech\desktop\codetector\sevenSegment3DigitComplex\SevenSegment3DigitComplex.c" 1
 700  000E              	MOV _builtin_holtek_delay_2,A
 700  000E              ;# 700 "c:\users\tech\desktop\codetector\sevenSegment3DigitComplex\SevenSegment3DigitComplex.c" 1
 700  000E              	MOV A,((1000-9)%0402h)/4+1
 700  000E              ;# 700 "c:\users\tech\desktop\codetector\sevenSegment3DigitComplex\SevenSegment3DigitComplex.c" 1
 700  000E              	CALL __DELAYY3 +3-(((1000-9)%0402h)%4)
 700  000E              	ENDIF
 701  000E              #line 701 "c:\users\tech\desktop\codetector\sevenSegment3DigitComplex\SevenSegment3DigitComplex.c"
 701  000E  2000     R  	call _clearSegment
 702  000F              #line 702 "c:\users\tech\desktop\codetector\sevenSegment3DigitComplex\SevenSegment3DigitComplex.c"
 702  000F  3599        	clr [25].3
 703  0010              #line 703 "c:\users\tech\desktop\codetector\sevenSegment3DigitComplex\SevenSegment3DigitComplex.c"
 703  0010  3499        	clr [25].1
 704  0011              #line 704 "c:\users\tech\desktop\codetector\sevenSegment3DigitComplex\SevenSegment3DigitComplex.c"
 704  0011  3198        	set [24].3
 705  0012              #line 705 "c:\users\tech\desktop\codetector\sevenSegment3DigitComplex\SevenSegment3DigitComplex.c"
 705  0012  3498        	clr [24].1
 706  0013              #line 706 "c:\users\tech\desktop\codetector\sevenSegment3DigitComplex\SevenSegment3DigitComplex.c"
 706  0013              ;# 706 "c:\users\tech\desktop\codetector\sevenSegment3DigitComplex\SevenSegment3DigitComplex.c" 1
 706  0013              	IF 1000>263690
 706  0013              ;# 706 "c:\users\tech\desktop\codetector\sevenSegment3DigitComplex\SevenSegment3DigitComplex.c" 1
 706  0013              	ERRMESSAGE 'the value 1000of the argument exceeds the maxinum 263690'
 706  0013              	ENDIF
 706  0013              ;# 706 "c:\users\tech\desktop\codetector\sevenSegment3DigitComplex\SevenSegment3DigitComplex.c" 1
 706  0013              	IF 1000<0
 706  0013              ;# 706 "c:\users\tech\desktop\codetector\sevenSegment3DigitComplex\SevenSegment3DigitComplex.c" 1
 706  0013              	ERRMESSAGE 'the value 1000 of the argument exceeds the mininum 0'
 706  0013              	ENDIF
 706  0013              ;# 706 "c:\users\tech\desktop\codetector\sevenSegment3DigitComplex\SevenSegment3DigitComplex.c" 1
 706  0013              	IF 1000==0
 706  0013              ;# 706 "c:\users\tech\desktop\codetector\sevenSegment3DigitComplex\SevenSegment3DigitComplex.c" 1
 706  0013              	JMP $
 706  0013              	ENDIF
 706  0013              ;# 706 "c:\users\tech\desktop\codetector\sevenSegment3DigitComplex\SevenSegment3DigitComplex.c" 1
 706  0013              	IF 1000==1
 706  0013              ;# 706 "c:\users\tech\desktop\codetector\sevenSegment3DigitComplex\SevenSegment3DigitComplex.c" 1
 706  0013              	NOP
 706  0013              	ENDIF
 706  0013              ;# 706 "c:\users\tech\desktop\codetector\sevenSegment3DigitComplex\SevenSegment3DigitComplex.c" 1
 706  0013              	IF 1000==2
 706  0013              ;# 706 "c:\users\tech\desktop\codetector\sevenSegment3DigitComplex\SevenSegment3DigitComplex.c" 1
 706  0013              	NOP
 706  0013              ;# 706 "c:\users\tech\desktop\codetector\sevenSegment3DigitComplex\SevenSegment3DigitComplex.c" 1
 706  0013              	NOP
 706  0013              	ENDIF
 706  0013              ;# 706 "c:\users\tech\desktop\codetector\sevenSegment3DigitComplex\SevenSegment3DigitComplex.c" 1
 706  0013              	IF 1000==3
 706  0013              ;# 706 "c:\users\tech\desktop\codetector\sevenSegment3DigitComplex\SevenSegment3DigitComplex.c" 1
 706  0013              	NOP
 706  0013              ;# 706 "c:\users\tech\desktop\codetector\sevenSegment3DigitComplex\SevenSegment3DigitComplex.c" 1
 706  0013              	NOP
 706  0013              ;# 706 "c:\users\tech\desktop\codetector\sevenSegment3DigitComplex\SevenSegment3DigitComplex.c" 1
 706  0013              	NOP
 706  0013              	ENDIF
 706  0013              ;# 706 "c:\users\tech\desktop\codetector\sevenSegment3DigitComplex\SevenSegment3DigitComplex.c" 1
 706  0013              	IF (1000<8) AND (1000>3)
 706  0013              ;# 706 "c:\users\tech\desktop\codetector\sevenSegment3DigitComplex\SevenSegment3DigitComplex.c" 1
 706  0013              	CALL __DELAY3 + 7 -1000
"File: SevenSegment3DigitComplex.c  Assembler  Version HGASM0202      Page 52

 706  0013              	ENDIF
 706  0013              ;# 706 "c:\users\tech\desktop\codetector\sevenSegment3DigitComplex\SevenSegment3DigitComplex.c" 1
 706  0013              	IF (1000< 0404h) AND (1000>7)
 706  0013              ;# 706 "c:\users\tech\desktop\codetector\sevenSegment3DigitComplex\SevenSegment3DigitComplex.c" 1
 706  0013  0FF9        	MOV A,1000/4-1
 706  0014              ;# 706 "c:\users\tech\desktop\codetector\sevenSegment3DigitComplex\SevenSegment3DigitComplex.c" 1
 706  0014  2000     E  	CALL __DELAYX3 + 3 -(1000 MOD 4)
 706  0015              	ENDIF
 706  0015              ;# 706 "c:\users\tech\desktop\codetector\sevenSegment3DigitComplex\SevenSegment3DigitComplex.c" 1
 706  0015              	IF (1000< 0x40B) AND (1000> 0403h)
 706  0015              ;# 706 "c:\users\tech\desktop\codetector\sevenSegment3DigitComplex\SevenSegment3DigitComplex.c" 1
 706  0015              	MOV A,0 
 706  0015              ;# 706 "c:\users\tech\desktop\codetector\sevenSegment3DigitComplex\SevenSegment3DigitComplex.c" 1
 706  0015              	CALL __DELAYX6 + 0x40a -1000
 706  0015              	ENDIF
 706  0015              ;# 706 "c:\users\tech\desktop\codetector\sevenSegment3DigitComplex\SevenSegment3DigitComplex.c" 1
 706  0015              	IF (1000 >= 0x40b) AND ((((1000-9)%0402h)/4+1)>256)
 706  0015              ;# 706 "c:\users\tech\desktop\codetector\sevenSegment3DigitComplex\SevenSegment3DigitComplex.c" 1
 706  0015              	MOV A,(1000-9)/0402h
 706  0015              ;# 706 "c:\users\tech\desktop\codetector\sevenSegment3DigitComplex\SevenSegment3DigitComplex.c" 1
 706  0015              	MOV _builtin_holtek_delay_2,A
 706  0015              ;# 706 "c:\users\tech\desktop\codetector\sevenSegment3DigitComplex\SevenSegment3DigitComplex.c" 1
 706  0015              	MOV A,0
 706  0015              ;# 706 "c:\users\tech\desktop\codetector\sevenSegment3DigitComplex\SevenSegment3DigitComplex.c" 1
 706  0015              	CALL __DELAYY5 +5- (((1000-9)%0402h)%6)
 706  0015              	ENDIF
 706  0015              ;# 706 "c:\users\tech\desktop\codetector\sevenSegment3DigitComplex\SevenSegment3DigitComplex.c" 1
 706  0015              	IF (1000 >= 0x40b) AND ((((1000-9)%0402h)/4+1)<=256)
 706  0015              ;# 706 "c:\users\tech\desktop\codetector\sevenSegment3DigitComplex\SevenSegment3DigitComplex.c" 1
 706  0015              	MOV A,(1000-9)/0402h
 706  0015              ;# 706 "c:\users\tech\desktop\codetector\sevenSegment3DigitComplex\SevenSegment3DigitComplex.c" 1
 706  0015              	MOV _builtin_holtek_delay_2,A
 706  0015              ;# 706 "c:\users\tech\desktop\codetector\sevenSegment3DigitComplex\SevenSegment3DigitComplex.c" 1
 706  0015              	MOV A,((1000-9)%0402h)/4+1
 706  0015              ;# 706 "c:\users\tech\desktop\codetector\sevenSegment3DigitComplex\SevenSegment3DigitComplex.c" 1
 706  0015              	CALL __DELAYY3 +3-(((1000-9)%0402h)%4)
 706  0015              	ENDIF
 708  0015              #line 708 "c:\users\tech\desktop\codetector\sevenSegment3DigitComplex\SevenSegment3DigitComplex.c"
 708  0015  2000     R  	call _clearSegment
 709  0016              #line 709 "c:\users\tech\desktop\codetector\sevenSegment3DigitComplex\SevenSegment3DigitComplex.c"
 709  0016  3515        	clr [21].2
 710  0017              #line 710 "c:\users\tech\desktop\codetector\sevenSegment3DigitComplex\SevenSegment3DigitComplex.c"
 710  0017  3499        	clr [25].1
 711  0018              #line 711 "c:\users\tech\desktop\codetector\sevenSegment3DigitComplex\SevenSegment3DigitComplex.c"
 711  0018  3498        	clr [24].1
 712  0019              #line 712 "c:\users\tech\desktop\codetector\sevenSegment3DigitComplex\SevenSegment3DigitComplex.c"
 712  0019  3114        	set [20].2
 712  001A  0003        	ret
 712  001B              _eightDigit2 endp
 712  001B              #line 712 "c:\users\tech\desktop\codetector\sevenSegment3DigitComplex\SevenSegment3DigitComplex.c"
 712  001B              #pragma debug scope 1 1
 712  001B              public _eightDigit3
 712  001B              #pragma debug scope 32 1
 715  001B              #line 715 "c:\users\tech\desktop\codetector\sevenSegment3DigitComplex\SevenSegment3DigitComplex.c"
 715  0000              _eightDigit3 .section 'code'
 715  0000              _eightDigit3 proc
 719  0000              #line 719 "c:\users\tech\desktop\codetector\sevenSegment3DigitComplex\SevenSegment3DigitComplex.c"
 719  0000  3499        	clr [25].1
 720  0001              #line 720 "c:\users\tech\desktop\codetector\sevenSegment3DigitComplex\SevenSegment3DigitComplex.c"
 720  0001  3615        	clr [21].4
"File: SevenSegment3DigitComplex.c  Assembler  Version HGASM0202      Page 53

 721  0002              #line 721 "c:\users\tech\desktop\codetector\sevenSegment3DigitComplex\SevenSegment3DigitComplex.c"
 721  0002  3415        	clr [21].0
 722  0003              #line 722 "c:\users\tech\desktop\codetector\sevenSegment3DigitComplex\SevenSegment3DigitComplex.c"
 722  0003  3515        	clr [21].2
 723  0004              #line 723 "c:\users\tech\desktop\codetector\sevenSegment3DigitComplex\SevenSegment3DigitComplex.c"
 723  0004  3599        	clr [25].3
 724  0005              #line 724 "c:\users\tech\desktop\codetector\sevenSegment3DigitComplex\SevenSegment3DigitComplex.c"
 724  0005  3098        	set [24].1
 725  0006              #line 725 "c:\users\tech\desktop\codetector\sevenSegment3DigitComplex\SevenSegment3DigitComplex.c"
 725  0006  3614        	clr [20].4
 726  0007              #line 726 "c:\users\tech\desktop\codetector\sevenSegment3DigitComplex\SevenSegment3DigitComplex.c"
 726  0007  3414        	clr [20].0
 727  0008              #line 727 "c:\users\tech\desktop\codetector\sevenSegment3DigitComplex\SevenSegment3DigitComplex.c"
 727  0008  3514        	clr [20].2
 728  0009              #line 728 "c:\users\tech\desktop\codetector\sevenSegment3DigitComplex\SevenSegment3DigitComplex.c"
 728  0009  3598        	clr [24].3
 729  000A              #line 729 "c:\users\tech\desktop\codetector\sevenSegment3DigitComplex\SevenSegment3DigitComplex.c"
 729  000A              ;# 729 "c:\users\tech\desktop\codetector\sevenSegment3DigitComplex\SevenSegment3DigitComplex.c" 1
 729  000A              	IF 1000>263690
 729  000A              ;# 729 "c:\users\tech\desktop\codetector\sevenSegment3DigitComplex\SevenSegment3DigitComplex.c" 1
 729  000A              	ERRMESSAGE 'the value 1000of the argument exceeds the maxinum 263690'
 729  000A              	ENDIF
 729  000A              ;# 729 "c:\users\tech\desktop\codetector\sevenSegment3DigitComplex\SevenSegment3DigitComplex.c" 1
 729  000A              	IF 1000<0
 729  000A              ;# 729 "c:\users\tech\desktop\codetector\sevenSegment3DigitComplex\SevenSegment3DigitComplex.c" 1
 729  000A              	ERRMESSAGE 'the value 1000 of the argument exceeds the mininum 0'
 729  000A              	ENDIF
 729  000A              ;# 729 "c:\users\tech\desktop\codetector\sevenSegment3DigitComplex\SevenSegment3DigitComplex.c" 1
 729  000A              	IF 1000==0
 729  000A              ;# 729 "c:\users\tech\desktop\codetector\sevenSegment3DigitComplex\SevenSegment3DigitComplex.c" 1
 729  000A              	JMP $
 729  000A              	ENDIF
 729  000A              ;# 729 "c:\users\tech\desktop\codetector\sevenSegment3DigitComplex\SevenSegment3DigitComplex.c" 1
 729  000A              	IF 1000==1
 729  000A              ;# 729 "c:\users\tech\desktop\codetector\sevenSegment3DigitComplex\SevenSegment3DigitComplex.c" 1
 729  000A              	NOP
 729  000A              	ENDIF
 729  000A              ;# 729 "c:\users\tech\desktop\codetector\sevenSegment3DigitComplex\SevenSegment3DigitComplex.c" 1
 729  000A              	IF 1000==2
 729  000A              ;# 729 "c:\users\tech\desktop\codetector\sevenSegment3DigitComplex\SevenSegment3DigitComplex.c" 1
 729  000A              	NOP
 729  000A              ;# 729 "c:\users\tech\desktop\codetector\sevenSegment3DigitComplex\SevenSegment3DigitComplex.c" 1
 729  000A              	NOP
 729  000A              	ENDIF
 729  000A              ;# 729 "c:\users\tech\desktop\codetector\sevenSegment3DigitComplex\SevenSegment3DigitComplex.c" 1
 729  000A              	IF 1000==3
 729  000A              ;# 729 "c:\users\tech\desktop\codetector\sevenSegment3DigitComplex\SevenSegment3DigitComplex.c" 1
 729  000A              	NOP
 729  000A              ;# 729 "c:\users\tech\desktop\codetector\sevenSegment3DigitComplex\SevenSegment3DigitComplex.c" 1
 729  000A              	NOP
 729  000A              ;# 729 "c:\users\tech\desktop\codetector\sevenSegment3DigitComplex\SevenSegment3DigitComplex.c" 1
 729  000A              	NOP
 729  000A              	ENDIF
 729  000A              ;# 729 "c:\users\tech\desktop\codetector\sevenSegment3DigitComplex\SevenSegment3DigitComplex.c" 1
 729  000A              	IF (1000<8) AND (1000>3)
 729  000A              ;# 729 "c:\users\tech\desktop\codetector\sevenSegment3DigitComplex\SevenSegment3DigitComplex.c" 1
 729  000A              	CALL __DELAY3 + 7 -1000
 729  000A              	ENDIF
 729  000A              ;# 729 "c:\users\tech\desktop\codetector\sevenSegment3DigitComplex\SevenSegment3DigitComplex.c" 1
 729  000A              	IF (1000< 0404h) AND (1000>7)
"File: SevenSegment3DigitComplex.c  Assembler  Version HGASM0202      Page 54

 729  000A              ;# 729 "c:\users\tech\desktop\codetector\sevenSegment3DigitComplex\SevenSegment3DigitComplex.c" 1
 729  000A  0FF9        	MOV A,1000/4-1
 729  000B              ;# 729 "c:\users\tech\desktop\codetector\sevenSegment3DigitComplex\SevenSegment3DigitComplex.c" 1
 729  000B  2000     E  	CALL __DELAYX3 + 3 -(1000 MOD 4)
 729  000C              	ENDIF
 729  000C              ;# 729 "c:\users\tech\desktop\codetector\sevenSegment3DigitComplex\SevenSegment3DigitComplex.c" 1
 729  000C              	IF (1000< 0x40B) AND (1000> 0403h)
 729  000C              ;# 729 "c:\users\tech\desktop\codetector\sevenSegment3DigitComplex\SevenSegment3DigitComplex.c" 1
 729  000C              	MOV A,0 
 729  000C              ;# 729 "c:\users\tech\desktop\codetector\sevenSegment3DigitComplex\SevenSegment3DigitComplex.c" 1
 729  000C              	CALL __DELAYX6 + 0x40a -1000
 729  000C              	ENDIF
 729  000C              ;# 729 "c:\users\tech\desktop\codetector\sevenSegment3DigitComplex\SevenSegment3DigitComplex.c" 1
 729  000C              	IF (1000 >= 0x40b) AND ((((1000-9)%0402h)/4+1)>256)
 729  000C              ;# 729 "c:\users\tech\desktop\codetector\sevenSegment3DigitComplex\SevenSegment3DigitComplex.c" 1
 729  000C              	MOV A,(1000-9)/0402h
 729  000C              ;# 729 "c:\users\tech\desktop\codetector\sevenSegment3DigitComplex\SevenSegment3DigitComplex.c" 1
 729  000C              	MOV _builtin_holtek_delay_2,A
 729  000C              ;# 729 "c:\users\tech\desktop\codetector\sevenSegment3DigitComplex\SevenSegment3DigitComplex.c" 1
 729  000C              	MOV A,0
 729  000C              ;# 729 "c:\users\tech\desktop\codetector\sevenSegment3DigitComplex\SevenSegment3DigitComplex.c" 1
 729  000C              	CALL __DELAYY5 +5- (((1000-9)%0402h)%6)
 729  000C              	ENDIF
 729  000C              ;# 729 "c:\users\tech\desktop\codetector\sevenSegment3DigitComplex\SevenSegment3DigitComplex.c" 1
 729  000C              	IF (1000 >= 0x40b) AND ((((1000-9)%0402h)/4+1)<=256)
 729  000C              ;# 729 "c:\users\tech\desktop\codetector\sevenSegment3DigitComplex\SevenSegment3DigitComplex.c" 1
 729  000C              	MOV A,(1000-9)/0402h
 729  000C              ;# 729 "c:\users\tech\desktop\codetector\sevenSegment3DigitComplex\SevenSegment3DigitComplex.c" 1
 729  000C              	MOV _builtin_holtek_delay_2,A
 729  000C              ;# 729 "c:\users\tech\desktop\codetector\sevenSegment3DigitComplex\SevenSegment3DigitComplex.c" 1
 729  000C              	MOV A,((1000-9)%0402h)/4+1
 729  000C              ;# 729 "c:\users\tech\desktop\codetector\sevenSegment3DigitComplex\SevenSegment3DigitComplex.c" 1
 729  000C              	CALL __DELAYY3 +3-(((1000-9)%0402h)%4)
 729  000C              	ENDIF
 730  000C              #line 730 "c:\users\tech\desktop\codetector\sevenSegment3DigitComplex\SevenSegment3DigitComplex.c"
 730  000C  2000     R  	call _clearSegment
 731  000D              #line 731 "c:\users\tech\desktop\codetector\sevenSegment3DigitComplex\SevenSegment3DigitComplex.c"
 731  000D  3615        	clr [21].4
 732  000E              #line 732 "c:\users\tech\desktop\codetector\sevenSegment3DigitComplex\SevenSegment3DigitComplex.c"
 732  000E  3415        	clr [21].0
 733  000F              #line 733 "c:\users\tech\desktop\codetector\sevenSegment3DigitComplex\SevenSegment3DigitComplex.c"
 733  000F  3515        	clr [21].2
 734  0010              #line 734 "c:\users\tech\desktop\codetector\sevenSegment3DigitComplex\SevenSegment3DigitComplex.c"
 734  0010  3599        	clr [25].3
 735  0011              #line 735 "c:\users\tech\desktop\codetector\sevenSegment3DigitComplex\SevenSegment3DigitComplex.c"
 735  0011  3214        	set [20].4
 736  0012              #line 736 "c:\users\tech\desktop\codetector\sevenSegment3DigitComplex\SevenSegment3DigitComplex.c"
 736  0012  3414        	clr [20].0
 737  0013              #line 737 "c:\users\tech\desktop\codetector\sevenSegment3DigitComplex\SevenSegment3DigitComplex.c"
 737  0013  3514        	clr [20].2
 738  0014              #line 738 "c:\users\tech\desktop\codetector\sevenSegment3DigitComplex\SevenSegment3DigitComplex.c"
 738  0014  3598        	clr [24].3
 738  0015  0003        	ret
 738  0016              _eightDigit3 endp
 738  0016              #line 738 "c:\users\tech\desktop\codetector\sevenSegment3DigitComplex\SevenSegment3DigitComplex.c"
 738  0016              #pragma debug scope 1 1
 738  0016              public _nineDigit1
 738  0016              #pragma debug scope 33 1
 743  0016              #line 743 "c:\users\tech\desktop\codetector\sevenSegment3DigitComplex\SevenSegment3DigitComplex.c"
 743  0000              _nineDigit1 .section 'code'
"File: SevenSegment3DigitComplex.c  Assembler  Version HGASM0202      Page 55

 743  0000              _nineDigit1 proc
 747  0000              #line 747 "c:\users\tech\desktop\codetector\sevenSegment3DigitComplex\SevenSegment3DigitComplex.c"
 747  0000  3519        	clr [25].2
 748  0001              #line 748 "c:\users\tech\desktop\codetector\sevenSegment3DigitComplex\SevenSegment3DigitComplex.c"
 748  0001  3499        	clr [25].1
 749  0002              #line 749 "c:\users\tech\desktop\codetector\sevenSegment3DigitComplex\SevenSegment3DigitComplex.c"
 749  0002  3615        	clr [21].4
 750  0003              #line 750 "c:\users\tech\desktop\codetector\sevenSegment3DigitComplex\SevenSegment3DigitComplex.c"
 750  0003  3415        	clr [21].0
 751  0004              #line 751 "c:\users\tech\desktop\codetector\sevenSegment3DigitComplex\SevenSegment3DigitComplex.c"
 751  0004  3515        	clr [21].2
 752  0005              #line 752 "c:\users\tech\desktop\codetector\sevenSegment3DigitComplex\SevenSegment3DigitComplex.c"
 752  0005  3518        	clr [24].2
 753  0006              #line 753 "c:\users\tech\desktop\codetector\sevenSegment3DigitComplex\SevenSegment3DigitComplex.c"
 753  0006  3098        	set [24].1
 754  0007              #line 754 "c:\users\tech\desktop\codetector\sevenSegment3DigitComplex\SevenSegment3DigitComplex.c"
 754  0007  3214        	set [20].4
 755  0008              #line 755 "c:\users\tech\desktop\codetector\sevenSegment3DigitComplex\SevenSegment3DigitComplex.c"
 755  0008  3014        	set [20].0
 756  0009              #line 756 "c:\users\tech\desktop\codetector\sevenSegment3DigitComplex\SevenSegment3DigitComplex.c"
 756  0009  3114        	set [20].2
 759  000A              #line 759 "c:\users\tech\desktop\codetector\sevenSegment3DigitComplex\SevenSegment3DigitComplex.c"
 759  000A              ;# 759 "c:\users\tech\desktop\codetector\sevenSegment3DigitComplex\SevenSegment3DigitComplex.c" 1
 759  000A              	IF 1000>263690
 759  000A              ;# 759 "c:\users\tech\desktop\codetector\sevenSegment3DigitComplex\SevenSegment3DigitComplex.c" 1
 759  000A              	ERRMESSAGE 'the value 1000of the argument exceeds the maxinum 263690'
 759  000A              	ENDIF
 759  000A              ;# 759 "c:\users\tech\desktop\codetector\sevenSegment3DigitComplex\SevenSegment3DigitComplex.c" 1
 759  000A              	IF 1000<0
 759  000A              ;# 759 "c:\users\tech\desktop\codetector\sevenSegment3DigitComplex\SevenSegment3DigitComplex.c" 1
 759  000A              	ERRMESSAGE 'the value 1000 of the argument exceeds the mininum 0'
 759  000A              	ENDIF
 759  000A              ;# 759 "c:\users\tech\desktop\codetector\sevenSegment3DigitComplex\SevenSegment3DigitComplex.c" 1
 759  000A              	IF 1000==0
 759  000A              ;# 759 "c:\users\tech\desktop\codetector\sevenSegment3DigitComplex\SevenSegment3DigitComplex.c" 1
 759  000A              	JMP $
 759  000A              	ENDIF
 759  000A              ;# 759 "c:\users\tech\desktop\codetector\sevenSegment3DigitComplex\SevenSegment3DigitComplex.c" 1
 759  000A              	IF 1000==1
 759  000A              ;# 759 "c:\users\tech\desktop\codetector\sevenSegment3DigitComplex\SevenSegment3DigitComplex.c" 1
 759  000A              	NOP
 759  000A              	ENDIF
 759  000A              ;# 759 "c:\users\tech\desktop\codetector\sevenSegment3DigitComplex\SevenSegment3DigitComplex.c" 1
 759  000A              	IF 1000==2
 759  000A              ;# 759 "c:\users\tech\desktop\codetector\sevenSegment3DigitComplex\SevenSegment3DigitComplex.c" 1
 759  000A              	NOP
 759  000A              ;# 759 "c:\users\tech\desktop\codetector\sevenSegment3DigitComplex\SevenSegment3DigitComplex.c" 1
 759  000A              	NOP
 759  000A              	ENDIF
 759  000A              ;# 759 "c:\users\tech\desktop\codetector\sevenSegment3DigitComplex\SevenSegment3DigitComplex.c" 1
 759  000A              	IF 1000==3
 759  000A              ;# 759 "c:\users\tech\desktop\codetector\sevenSegment3DigitComplex\SevenSegment3DigitComplex.c" 1
 759  000A              	NOP
 759  000A              ;# 759 "c:\users\tech\desktop\codetector\sevenSegment3DigitComplex\SevenSegment3DigitComplex.c" 1
 759  000A              	NOP
 759  000A              ;# 759 "c:\users\tech\desktop\codetector\sevenSegment3DigitComplex\SevenSegment3DigitComplex.c" 1
 759  000A              	NOP
 759  000A              	ENDIF
 759  000A              ;# 759 "c:\users\tech\desktop\codetector\sevenSegment3DigitComplex\SevenSegment3DigitComplex.c" 1
 759  000A              	IF (1000<8) AND (1000>3)
"File: SevenSegment3DigitComplex.c  Assembler  Version HGASM0202      Page 56

 759  000A              ;# 759 "c:\users\tech\desktop\codetector\sevenSegment3DigitComplex\SevenSegment3DigitComplex.c" 1
 759  000A              	CALL __DELAY3 + 7 -1000
 759  000A              	ENDIF
 759  000A              ;# 759 "c:\users\tech\desktop\codetector\sevenSegment3DigitComplex\SevenSegment3DigitComplex.c" 1
 759  000A              	IF (1000< 0404h) AND (1000>7)
 759  000A              ;# 759 "c:\users\tech\desktop\codetector\sevenSegment3DigitComplex\SevenSegment3DigitComplex.c" 1
 759  000A  0FF9        	MOV A,1000/4-1
 759  000B              ;# 759 "c:\users\tech\desktop\codetector\sevenSegment3DigitComplex\SevenSegment3DigitComplex.c" 1
 759  000B  2000     E  	CALL __DELAYX3 + 3 -(1000 MOD 4)
 759  000C              	ENDIF
 759  000C              ;# 759 "c:\users\tech\desktop\codetector\sevenSegment3DigitComplex\SevenSegment3DigitComplex.c" 1
 759  000C              	IF (1000< 0x40B) AND (1000> 0403h)
 759  000C              ;# 759 "c:\users\tech\desktop\codetector\sevenSegment3DigitComplex\SevenSegment3DigitComplex.c" 1
 759  000C              	MOV A,0 
 759  000C              ;# 759 "c:\users\tech\desktop\codetector\sevenSegment3DigitComplex\SevenSegment3DigitComplex.c" 1
 759  000C              	CALL __DELAYX6 + 0x40a -1000
 759  000C              	ENDIF
 759  000C              ;# 759 "c:\users\tech\desktop\codetector\sevenSegment3DigitComplex\SevenSegment3DigitComplex.c" 1
 759  000C              	IF (1000 >= 0x40b) AND ((((1000-9)%0402h)/4+1)>256)
 759  000C              ;# 759 "c:\users\tech\desktop\codetector\sevenSegment3DigitComplex\SevenSegment3DigitComplex.c" 1
 759  000C              	MOV A,(1000-9)/0402h
 759  000C              ;# 759 "c:\users\tech\desktop\codetector\sevenSegment3DigitComplex\SevenSegment3DigitComplex.c" 1
 759  000C              	MOV _builtin_holtek_delay_2,A
 759  000C              ;# 759 "c:\users\tech\desktop\codetector\sevenSegment3DigitComplex\SevenSegment3DigitComplex.c" 1
 759  000C              	MOV A,0
 759  000C              ;# 759 "c:\users\tech\desktop\codetector\sevenSegment3DigitComplex\SevenSegment3DigitComplex.c" 1
 759  000C              	CALL __DELAYY5 +5- (((1000-9)%0402h)%6)
 759  000C              	ENDIF
 759  000C              ;# 759 "c:\users\tech\desktop\codetector\sevenSegment3DigitComplex\SevenSegment3DigitComplex.c" 1
 759  000C              	IF (1000 >= 0x40b) AND ((((1000-9)%0402h)/4+1)<=256)
 759  000C              ;# 759 "c:\users\tech\desktop\codetector\sevenSegment3DigitComplex\SevenSegment3DigitComplex.c" 1
 759  000C              	MOV A,(1000-9)/0402h
 759  000C              ;# 759 "c:\users\tech\desktop\codetector\sevenSegment3DigitComplex\SevenSegment3DigitComplex.c" 1
 759  000C              	MOV _builtin_holtek_delay_2,A
 759  000C              ;# 759 "c:\users\tech\desktop\codetector\sevenSegment3DigitComplex\SevenSegment3DigitComplex.c" 1
 759  000C              	MOV A,((1000-9)%0402h)/4+1
 759  000C              ;# 759 "c:\users\tech\desktop\codetector\sevenSegment3DigitComplex\SevenSegment3DigitComplex.c" 1
 759  000C              	CALL __DELAYY3 +3-(((1000-9)%0402h)%4)
 759  000C              	ENDIF
 761  000C              #line 761 "c:\users\tech\desktop\codetector\sevenSegment3DigitComplex\SevenSegment3DigitComplex.c"
 761  000C  2000     R  	call _clearSegment
 762  000D              #line 762 "c:\users\tech\desktop\codetector\sevenSegment3DigitComplex\SevenSegment3DigitComplex.c"
 762  000D  3499        	clr [25].1
 763  000E              #line 763 "c:\users\tech\desktop\codetector\sevenSegment3DigitComplex\SevenSegment3DigitComplex.c"
 763  000E  3615        	clr [21].4
 764  000F              #line 764 "c:\users\tech\desktop\codetector\sevenSegment3DigitComplex\SevenSegment3DigitComplex.c"
 764  000F  3498        	clr [24].1
 765  0010              #line 765 "c:\users\tech\desktop\codetector\sevenSegment3DigitComplex\SevenSegment3DigitComplex.c"
 765  0010  3214        	set [20].4
 767  0011              #line 767 "c:\users\tech\desktop\codetector\sevenSegment3DigitComplex\SevenSegment3DigitComplex.c"
 767  0011              ;# 767 "c:\users\tech\desktop\codetector\sevenSegment3DigitComplex\SevenSegment3DigitComplex.c" 1
 767  0011              	IF 1000>263690
 767  0011              ;# 767 "c:\users\tech\desktop\codetector\sevenSegment3DigitComplex\SevenSegment3DigitComplex.c" 1
 767  0011              	ERRMESSAGE 'the value 1000of the argument exceeds the maxinum 263690'
 767  0011              	ENDIF
 767  0011              ;# 767 "c:\users\tech\desktop\codetector\sevenSegment3DigitComplex\SevenSegment3DigitComplex.c" 1
 767  0011              	IF 1000<0
 767  0011              ;# 767 "c:\users\tech\desktop\codetector\sevenSegment3DigitComplex\SevenSegment3DigitComplex.c" 1
 767  0011              	ERRMESSAGE 'the value 1000 of the argument exceeds the mininum 0'
 767  0011              	ENDIF
"File: SevenSegment3DigitComplex.c  Assembler  Version HGASM0202      Page 57

 767  0011              ;# 767 "c:\users\tech\desktop\codetector\sevenSegment3DigitComplex\SevenSegment3DigitComplex.c" 1
 767  0011              	IF 1000==0
 767  0011              ;# 767 "c:\users\tech\desktop\codetector\sevenSegment3DigitComplex\SevenSegment3DigitComplex.c" 1
 767  0011              	JMP $
 767  0011              	ENDIF
 767  0011              ;# 767 "c:\users\tech\desktop\codetector\sevenSegment3DigitComplex\SevenSegment3DigitComplex.c" 1
 767  0011              	IF 1000==1
 767  0011              ;# 767 "c:\users\tech\desktop\codetector\sevenSegment3DigitComplex\SevenSegment3DigitComplex.c" 1
 767  0011              	NOP
 767  0011              	ENDIF
 767  0011              ;# 767 "c:\users\tech\desktop\codetector\sevenSegment3DigitComplex\SevenSegment3DigitComplex.c" 1
 767  0011              	IF 1000==2
 767  0011              ;# 767 "c:\users\tech\desktop\codetector\sevenSegment3DigitComplex\SevenSegment3DigitComplex.c" 1
 767  0011              	NOP
 767  0011              ;# 767 "c:\users\tech\desktop\codetector\sevenSegment3DigitComplex\SevenSegment3DigitComplex.c" 1
 767  0011              	NOP
 767  0011              	ENDIF
 767  0011              ;# 767 "c:\users\tech\desktop\codetector\sevenSegment3DigitComplex\SevenSegment3DigitComplex.c" 1
 767  0011              	IF 1000==3
 767  0011              ;# 767 "c:\users\tech\desktop\codetector\sevenSegment3DigitComplex\SevenSegment3DigitComplex.c" 1
 767  0011              	NOP
 767  0011              ;# 767 "c:\users\tech\desktop\codetector\sevenSegment3DigitComplex\SevenSegment3DigitComplex.c" 1
 767  0011              	NOP
 767  0011              ;# 767 "c:\users\tech\desktop\codetector\sevenSegment3DigitComplex\SevenSegment3DigitComplex.c" 1
 767  0011              	NOP
 767  0011              	ENDIF
 767  0011              ;# 767 "c:\users\tech\desktop\codetector\sevenSegment3DigitComplex\SevenSegment3DigitComplex.c" 1
 767  0011              	IF (1000<8) AND (1000>3)
 767  0011              ;# 767 "c:\users\tech\desktop\codetector\sevenSegment3DigitComplex\SevenSegment3DigitComplex.c" 1
 767  0011              	CALL __DELAY3 + 7 -1000
 767  0011              	ENDIF
 767  0011              ;# 767 "c:\users\tech\desktop\codetector\sevenSegment3DigitComplex\SevenSegment3DigitComplex.c" 1
 767  0011              	IF (1000< 0404h) AND (1000>7)
 767  0011              ;# 767 "c:\users\tech\desktop\codetector\sevenSegment3DigitComplex\SevenSegment3DigitComplex.c" 1
 767  0011  0FF9        	MOV A,1000/4-1
 767  0012              ;# 767 "c:\users\tech\desktop\codetector\sevenSegment3DigitComplex\SevenSegment3DigitComplex.c" 1
 767  0012  2000     E  	CALL __DELAYX3 + 3 -(1000 MOD 4)
 767  0013              	ENDIF
 767  0013              ;# 767 "c:\users\tech\desktop\codetector\sevenSegment3DigitComplex\SevenSegment3DigitComplex.c" 1
 767  0013              	IF (1000< 0x40B) AND (1000> 0403h)
 767  0013              ;# 767 "c:\users\tech\desktop\codetector\sevenSegment3DigitComplex\SevenSegment3DigitComplex.c" 1
 767  0013              	MOV A,0 
 767  0013              ;# 767 "c:\users\tech\desktop\codetector\sevenSegment3DigitComplex\SevenSegment3DigitComplex.c" 1
 767  0013              	CALL __DELAYX6 + 0x40a -1000
 767  0013              	ENDIF
 767  0013              ;# 767 "c:\users\tech\desktop\codetector\sevenSegment3DigitComplex\SevenSegment3DigitComplex.c" 1
 767  0013              	IF (1000 >= 0x40b) AND ((((1000-9)%0402h)/4+1)>256)
 767  0013              ;# 767 "c:\users\tech\desktop\codetector\sevenSegment3DigitComplex\SevenSegment3DigitComplex.c" 1
 767  0013              	MOV A,(1000-9)/0402h
 767  0013              ;# 767 "c:\users\tech\desktop\codetector\sevenSegment3DigitComplex\SevenSegment3DigitComplex.c" 1
 767  0013              	MOV _builtin_holtek_delay_2,A
 767  0013              ;# 767 "c:\users\tech\desktop\codetector\sevenSegment3DigitComplex\SevenSegment3DigitComplex.c" 1
 767  0013              	MOV A,0
 767  0013              ;# 767 "c:\users\tech\desktop\codetector\sevenSegment3DigitComplex\SevenSegment3DigitComplex.c" 1
 767  0013              	CALL __DELAYY5 +5- (((1000-9)%0402h)%6)
 767  0013              	ENDIF
 767  0013              ;# 767 "c:\users\tech\desktop\codetector\sevenSegment3DigitComplex\SevenSegment3DigitComplex.c" 1
 767  0013              	IF (1000 >= 0x40b) AND ((((1000-9)%0402h)/4+1)<=256)
 767  0013              ;# 767 "c:\users\tech\desktop\codetector\sevenSegment3DigitComplex\SevenSegment3DigitComplex.c" 1
 767  0013              	MOV A,(1000-9)/0402h
"File: SevenSegment3DigitComplex.c  Assembler  Version HGASM0202      Page 58

 767  0013              ;# 767 "c:\users\tech\desktop\codetector\sevenSegment3DigitComplex\SevenSegment3DigitComplex.c" 1
 767  0013              	MOV _builtin_holtek_delay_2,A
 767  0013              ;# 767 "c:\users\tech\desktop\codetector\sevenSegment3DigitComplex\SevenSegment3DigitComplex.c" 1
 767  0013              	MOV A,((1000-9)%0402h)/4+1
 767  0013              ;# 767 "c:\users\tech\desktop\codetector\sevenSegment3DigitComplex\SevenSegment3DigitComplex.c" 1
 767  0013              	CALL __DELAYY3 +3-(((1000-9)%0402h)%4)
 767  0013              	ENDIF
 768  0013              #line 768 "c:\users\tech\desktop\codetector\sevenSegment3DigitComplex\SevenSegment3DigitComplex.c"
 768  0013  2000     R  	call _clearSegment
 769  0014              #line 769 "c:\users\tech\desktop\codetector\sevenSegment3DigitComplex\SevenSegment3DigitComplex.c"
 769  0014  3499        	clr [25].1
 770  0015              #line 770 "c:\users\tech\desktop\codetector\sevenSegment3DigitComplex\SevenSegment3DigitComplex.c"
 770  0015  3415        	clr [21].0
 771  0016              #line 771 "c:\users\tech\desktop\codetector\sevenSegment3DigitComplex\SevenSegment3DigitComplex.c"
 771  0016  3014        	set [20].0
 772  0017              #line 772 "c:\users\tech\desktop\codetector\sevenSegment3DigitComplex\SevenSegment3DigitComplex.c"
 772  0017  3498        	clr [24].1
 772  0018  0003        	ret
 772  0019              _nineDigit1 endp
 772  0019              #line 772 "c:\users\tech\desktop\codetector\sevenSegment3DigitComplex\SevenSegment3DigitComplex.c"
 772  0019              #pragma debug scope 1 1
 772  0019              public _nineDigit2
 772  0019              #pragma debug scope 34 1
 775  0019              #line 775 "c:\users\tech\desktop\codetector\sevenSegment3DigitComplex\SevenSegment3DigitComplex.c"
 775  0000              _nineDigit2 .section 'code'
 775  0000              _nineDigit2 proc
 778  0000              #line 778 "c:\users\tech\desktop\codetector\sevenSegment3DigitComplex\SevenSegment3DigitComplex.c"
 778  0000  3519        	clr [25].2
 779  0001              #line 779 "c:\users\tech\desktop\codetector\sevenSegment3DigitComplex\SevenSegment3DigitComplex.c"
 779  0001  3499        	clr [25].1
 780  0002              #line 780 "c:\users\tech\desktop\codetector\sevenSegment3DigitComplex\SevenSegment3DigitComplex.c"
 780  0002  3615        	clr [21].4
 781  0003              #line 781 "c:\users\tech\desktop\codetector\sevenSegment3DigitComplex\SevenSegment3DigitComplex.c"
 781  0003  3415        	clr [21].0
 782  0004              #line 782 "c:\users\tech\desktop\codetector\sevenSegment3DigitComplex\SevenSegment3DigitComplex.c"
 782  0004  3515        	clr [21].2
 784  0005              #line 784 "c:\users\tech\desktop\codetector\sevenSegment3DigitComplex\SevenSegment3DigitComplex.c"
 784  0005  3118        	set [24].2
 785  0006              #line 785 "c:\users\tech\desktop\codetector\sevenSegment3DigitComplex\SevenSegment3DigitComplex.c"
 785  0006  3498        	clr [24].1
 786  0007              #line 786 "c:\users\tech\desktop\codetector\sevenSegment3DigitComplex\SevenSegment3DigitComplex.c"
 786  0007  3614        	clr [20].4
 787  0008              #line 787 "c:\users\tech\desktop\codetector\sevenSegment3DigitComplex\SevenSegment3DigitComplex.c"
 787  0008  3414        	clr [20].0
 788  0009              #line 788 "c:\users\tech\desktop\codetector\sevenSegment3DigitComplex\SevenSegment3DigitComplex.c"
 788  0009  3514        	clr [20].2
 790  000A              #line 790 "c:\users\tech\desktop\codetector\sevenSegment3DigitComplex\SevenSegment3DigitComplex.c"
 790  000A              ;# 790 "c:\users\tech\desktop\codetector\sevenSegment3DigitComplex\SevenSegment3DigitComplex.c" 1
 790  000A              	IF 1000>263690
 790  000A              ;# 790 "c:\users\tech\desktop\codetector\sevenSegment3DigitComplex\SevenSegment3DigitComplex.c" 1
 790  000A              	ERRMESSAGE 'the value 1000of the argument exceeds the maxinum 263690'
 790  000A              	ENDIF
 790  000A              ;# 790 "c:\users\tech\desktop\codetector\sevenSegment3DigitComplex\SevenSegment3DigitComplex.c" 1
 790  000A              	IF 1000<0
 790  000A              ;# 790 "c:\users\tech\desktop\codetector\sevenSegment3DigitComplex\SevenSegment3DigitComplex.c" 1
 790  000A              	ERRMESSAGE 'the value 1000 of the argument exceeds the mininum 0'
 790  000A              	ENDIF
 790  000A              ;# 790 "c:\users\tech\desktop\codetector\sevenSegment3DigitComplex\SevenSegment3DigitComplex.c" 1
 790  000A              	IF 1000==0
 790  000A              ;# 790 "c:\users\tech\desktop\codetector\sevenSegment3DigitComplex\SevenSegment3DigitComplex.c" 1
"File: SevenSegment3DigitComplex.c  Assembler  Version HGASM0202      Page 59

 790  000A              	JMP $
 790  000A              	ENDIF
 790  000A              ;# 790 "c:\users\tech\desktop\codetector\sevenSegment3DigitComplex\SevenSegment3DigitComplex.c" 1
 790  000A              	IF 1000==1
 790  000A              ;# 790 "c:\users\tech\desktop\codetector\sevenSegment3DigitComplex\SevenSegment3DigitComplex.c" 1
 790  000A              	NOP
 790  000A              	ENDIF
 790  000A              ;# 790 "c:\users\tech\desktop\codetector\sevenSegment3DigitComplex\SevenSegment3DigitComplex.c" 1
 790  000A              	IF 1000==2
 790  000A              ;# 790 "c:\users\tech\desktop\codetector\sevenSegment3DigitComplex\SevenSegment3DigitComplex.c" 1
 790  000A              	NOP
 790  000A              ;# 790 "c:\users\tech\desktop\codetector\sevenSegment3DigitComplex\SevenSegment3DigitComplex.c" 1
 790  000A              	NOP
 790  000A              	ENDIF
 790  000A              ;# 790 "c:\users\tech\desktop\codetector\sevenSegment3DigitComplex\SevenSegment3DigitComplex.c" 1
 790  000A              	IF 1000==3
 790  000A              ;# 790 "c:\users\tech\desktop\codetector\sevenSegment3DigitComplex\SevenSegment3DigitComplex.c" 1
 790  000A              	NOP
 790  000A              ;# 790 "c:\users\tech\desktop\codetector\sevenSegment3DigitComplex\SevenSegment3DigitComplex.c" 1
 790  000A              	NOP
 790  000A              ;# 790 "c:\users\tech\desktop\codetector\sevenSegment3DigitComplex\SevenSegment3DigitComplex.c" 1
 790  000A              	NOP
 790  000A              	ENDIF
 790  000A              ;# 790 "c:\users\tech\desktop\codetector\sevenSegment3DigitComplex\SevenSegment3DigitComplex.c" 1
 790  000A              	IF (1000<8) AND (1000>3)
 790  000A              ;# 790 "c:\users\tech\desktop\codetector\sevenSegment3DigitComplex\SevenSegment3DigitComplex.c" 1
 790  000A              	CALL __DELAY3 + 7 -1000
 790  000A              	ENDIF
 790  000A              ;# 790 "c:\users\tech\desktop\codetector\sevenSegment3DigitComplex\SevenSegment3DigitComplex.c" 1
 790  000A              	IF (1000< 0404h) AND (1000>7)
 790  000A              ;# 790 "c:\users\tech\desktop\codetector\sevenSegment3DigitComplex\SevenSegment3DigitComplex.c" 1
 790  000A  0FF9        	MOV A,1000/4-1
 790  000B              ;# 790 "c:\users\tech\desktop\codetector\sevenSegment3DigitComplex\SevenSegment3DigitComplex.c" 1
 790  000B  2000     E  	CALL __DELAYX3 + 3 -(1000 MOD 4)
 790  000C              	ENDIF
 790  000C              ;# 790 "c:\users\tech\desktop\codetector\sevenSegment3DigitComplex\SevenSegment3DigitComplex.c" 1
 790  000C              	IF (1000< 0x40B) AND (1000> 0403h)
 790  000C              ;# 790 "c:\users\tech\desktop\codetector\sevenSegment3DigitComplex\SevenSegment3DigitComplex.c" 1
 790  000C              	MOV A,0 
 790  000C              ;# 790 "c:\users\tech\desktop\codetector\sevenSegment3DigitComplex\SevenSegment3DigitComplex.c" 1
 790  000C              	CALL __DELAYX6 + 0x40a -1000
 790  000C              	ENDIF
 790  000C              ;# 790 "c:\users\tech\desktop\codetector\sevenSegment3DigitComplex\SevenSegment3DigitComplex.c" 1
 790  000C              	IF (1000 >= 0x40b) AND ((((1000-9)%0402h)/4+1)>256)
 790  000C              ;# 790 "c:\users\tech\desktop\codetector\sevenSegment3DigitComplex\SevenSegment3DigitComplex.c" 1
 790  000C              	MOV A,(1000-9)/0402h
 790  000C              ;# 790 "c:\users\tech\desktop\codetector\sevenSegment3DigitComplex\SevenSegment3DigitComplex.c" 1
 790  000C              	MOV _builtin_holtek_delay_2,A
 790  000C              ;# 790 "c:\users\tech\desktop\codetector\sevenSegment3DigitComplex\SevenSegment3DigitComplex.c" 1
 790  000C              	MOV A,0
 790  000C              ;# 790 "c:\users\tech\desktop\codetector\sevenSegment3DigitComplex\SevenSegment3DigitComplex.c" 1
 790  000C              	CALL __DELAYY5 +5- (((1000-9)%0402h)%6)
 790  000C              	ENDIF
 790  000C              ;# 790 "c:\users\tech\desktop\codetector\sevenSegment3DigitComplex\SevenSegment3DigitComplex.c" 1
 790  000C              	IF (1000 >= 0x40b) AND ((((1000-9)%0402h)/4+1)<=256)
 790  000C              ;# 790 "c:\users\tech\desktop\codetector\sevenSegment3DigitComplex\SevenSegment3DigitComplex.c" 1
 790  000C              	MOV A,(1000-9)/0402h
 790  000C              ;# 790 "c:\users\tech\desktop\codetector\sevenSegment3DigitComplex\SevenSegment3DigitComplex.c" 1
 790  000C              	MOV _builtin_holtek_delay_2,A
 790  000C              ;# 790 "c:\users\tech\desktop\codetector\sevenSegment3DigitComplex\SevenSegment3DigitComplex.c" 1
"File: SevenSegment3DigitComplex.c  Assembler  Version HGASM0202      Page 60

 790  000C              	MOV A,((1000-9)%0402h)/4+1
 790  000C              ;# 790 "c:\users\tech\desktop\codetector\sevenSegment3DigitComplex\SevenSegment3DigitComplex.c" 1
 790  000C              	CALL __DELAYY3 +3-(((1000-9)%0402h)%4)
 790  000C              	ENDIF
 791  000C              #line 791 "c:\users\tech\desktop\codetector\sevenSegment3DigitComplex\SevenSegment3DigitComplex.c"
 791  000C  2000     R  	call _clearSegment
 793  000D              #line 793 "c:\users\tech\desktop\codetector\sevenSegment3DigitComplex\SevenSegment3DigitComplex.c"
 793  000D  3599        	clr [25].3
 794  000E              #line 794 "c:\users\tech\desktop\codetector\sevenSegment3DigitComplex\SevenSegment3DigitComplex.c"
 794  000E  3499        	clr [25].1
 795  000F              #line 795 "c:\users\tech\desktop\codetector\sevenSegment3DigitComplex\SevenSegment3DigitComplex.c"
 795  000F  3198        	set [24].3
 796  0010              #line 796 "c:\users\tech\desktop\codetector\sevenSegment3DigitComplex\SevenSegment3DigitComplex.c"
 796  0010  3498        	clr [24].1
 797  0011              #line 797 "c:\users\tech\desktop\codetector\sevenSegment3DigitComplex\SevenSegment3DigitComplex.c"
 797  0011              ;# 797 "c:\users\tech\desktop\codetector\sevenSegment3DigitComplex\SevenSegment3DigitComplex.c" 1
 797  0011              	IF 1000>263690
 797  0011              ;# 797 "c:\users\tech\desktop\codetector\sevenSegment3DigitComplex\SevenSegment3DigitComplex.c" 1
 797  0011              	ERRMESSAGE 'the value 1000of the argument exceeds the maxinum 263690'
 797  0011              	ENDIF
 797  0011              ;# 797 "c:\users\tech\desktop\codetector\sevenSegment3DigitComplex\SevenSegment3DigitComplex.c" 1
 797  0011              	IF 1000<0
 797  0011              ;# 797 "c:\users\tech\desktop\codetector\sevenSegment3DigitComplex\SevenSegment3DigitComplex.c" 1
 797  0011              	ERRMESSAGE 'the value 1000 of the argument exceeds the mininum 0'
 797  0011              	ENDIF
 797  0011              ;# 797 "c:\users\tech\desktop\codetector\sevenSegment3DigitComplex\SevenSegment3DigitComplex.c" 1
 797  0011              	IF 1000==0
 797  0011              ;# 797 "c:\users\tech\desktop\codetector\sevenSegment3DigitComplex\SevenSegment3DigitComplex.c" 1
 797  0011              	JMP $
 797  0011              	ENDIF
 797  0011              ;# 797 "c:\users\tech\desktop\codetector\sevenSegment3DigitComplex\SevenSegment3DigitComplex.c" 1
 797  0011              	IF 1000==1
 797  0011              ;# 797 "c:\users\tech\desktop\codetector\sevenSegment3DigitComplex\SevenSegment3DigitComplex.c" 1
 797  0011              	NOP
 797  0011              	ENDIF
 797  0011              ;# 797 "c:\users\tech\desktop\codetector\sevenSegment3DigitComplex\SevenSegment3DigitComplex.c" 1
 797  0011              	IF 1000==2
 797  0011              ;# 797 "c:\users\tech\desktop\codetector\sevenSegment3DigitComplex\SevenSegment3DigitComplex.c" 1
 797  0011              	NOP
 797  0011              ;# 797 "c:\users\tech\desktop\codetector\sevenSegment3DigitComplex\SevenSegment3DigitComplex.c" 1
 797  0011              	NOP
 797  0011              	ENDIF
 797  0011              ;# 797 "c:\users\tech\desktop\codetector\sevenSegment3DigitComplex\SevenSegment3DigitComplex.c" 1
 797  0011              	IF 1000==3
 797  0011              ;# 797 "c:\users\tech\desktop\codetector\sevenSegment3DigitComplex\SevenSegment3DigitComplex.c" 1
 797  0011              	NOP
 797  0011              ;# 797 "c:\users\tech\desktop\codetector\sevenSegment3DigitComplex\SevenSegment3DigitComplex.c" 1
 797  0011              	NOP
 797  0011              ;# 797 "c:\users\tech\desktop\codetector\sevenSegment3DigitComplex\SevenSegment3DigitComplex.c" 1
 797  0011              	NOP
 797  0011              	ENDIF
 797  0011              ;# 797 "c:\users\tech\desktop\codetector\sevenSegment3DigitComplex\SevenSegment3DigitComplex.c" 1
 797  0011              	IF (1000<8) AND (1000>3)
 797  0011              ;# 797 "c:\users\tech\desktop\codetector\sevenSegment3DigitComplex\SevenSegment3DigitComplex.c" 1
 797  0011              	CALL __DELAY3 + 7 -1000
 797  0011              	ENDIF
 797  0011              ;# 797 "c:\users\tech\desktop\codetector\sevenSegment3DigitComplex\SevenSegment3DigitComplex.c" 1
 797  0011              	IF (1000< 0404h) AND (1000>7)
 797  0011              ;# 797 "c:\users\tech\desktop\codetector\sevenSegment3DigitComplex\SevenSegment3DigitComplex.c" 1
 797  0011  0FF9        	MOV A,1000/4-1
"File: SevenSegment3DigitComplex.c  Assembler  Version HGASM0202      Page 61

 797  0012              ;# 797 "c:\users\tech\desktop\codetector\sevenSegment3DigitComplex\SevenSegment3DigitComplex.c" 1
 797  0012  2000     E  	CALL __DELAYX3 + 3 -(1000 MOD 4)
 797  0013              	ENDIF
 797  0013              ;# 797 "c:\users\tech\desktop\codetector\sevenSegment3DigitComplex\SevenSegment3DigitComplex.c" 1
 797  0013              	IF (1000< 0x40B) AND (1000> 0403h)
 797  0013              ;# 797 "c:\users\tech\desktop\codetector\sevenSegment3DigitComplex\SevenSegment3DigitComplex.c" 1
 797  0013              	MOV A,0 
 797  0013              ;# 797 "c:\users\tech\desktop\codetector\sevenSegment3DigitComplex\SevenSegment3DigitComplex.c" 1
 797  0013              	CALL __DELAYX6 + 0x40a -1000
 797  0013              	ENDIF
 797  0013              ;# 797 "c:\users\tech\desktop\codetector\sevenSegment3DigitComplex\SevenSegment3DigitComplex.c" 1
 797  0013              	IF (1000 >= 0x40b) AND ((((1000-9)%0402h)/4+1)>256)
 797  0013              ;# 797 "c:\users\tech\desktop\codetector\sevenSegment3DigitComplex\SevenSegment3DigitComplex.c" 1
 797  0013              	MOV A,(1000-9)/0402h
 797  0013              ;# 797 "c:\users\tech\desktop\codetector\sevenSegment3DigitComplex\SevenSegment3DigitComplex.c" 1
 797  0013              	MOV _builtin_holtek_delay_2,A
 797  0013              ;# 797 "c:\users\tech\desktop\codetector\sevenSegment3DigitComplex\SevenSegment3DigitComplex.c" 1
 797  0013              	MOV A,0
 797  0013              ;# 797 "c:\users\tech\desktop\codetector\sevenSegment3DigitComplex\SevenSegment3DigitComplex.c" 1
 797  0013              	CALL __DELAYY5 +5- (((1000-9)%0402h)%6)
 797  0013              	ENDIF
 797  0013              ;# 797 "c:\users\tech\desktop\codetector\sevenSegment3DigitComplex\SevenSegment3DigitComplex.c" 1
 797  0013              	IF (1000 >= 0x40b) AND ((((1000-9)%0402h)/4+1)<=256)
 797  0013              ;# 797 "c:\users\tech\desktop\codetector\sevenSegment3DigitComplex\SevenSegment3DigitComplex.c" 1
 797  0013              	MOV A,(1000-9)/0402h
 797  0013              ;# 797 "c:\users\tech\desktop\codetector\sevenSegment3DigitComplex\SevenSegment3DigitComplex.c" 1
 797  0013              	MOV _builtin_holtek_delay_2,A
 797  0013              ;# 797 "c:\users\tech\desktop\codetector\sevenSegment3DigitComplex\SevenSegment3DigitComplex.c" 1
 797  0013              	MOV A,((1000-9)%0402h)/4+1
 797  0013              ;# 797 "c:\users\tech\desktop\codetector\sevenSegment3DigitComplex\SevenSegment3DigitComplex.c" 1
 797  0013              	CALL __DELAYY3 +3-(((1000-9)%0402h)%4)
 797  0013              	ENDIF
 799  0013              #line 799 "c:\users\tech\desktop\codetector\sevenSegment3DigitComplex\SevenSegment3DigitComplex.c"
 799  0013  2000     R  	call _clearSegment
 800  0014              #line 800 "c:\users\tech\desktop\codetector\sevenSegment3DigitComplex\SevenSegment3DigitComplex.c"
 800  0014  3515        	clr [21].2
 801  0015              #line 801 "c:\users\tech\desktop\codetector\sevenSegment3DigitComplex\SevenSegment3DigitComplex.c"
 801  0015  3499        	clr [25].1
 802  0016              #line 802 "c:\users\tech\desktop\codetector\sevenSegment3DigitComplex\SevenSegment3DigitComplex.c"
 802  0016  3498        	clr [24].1
 803  0017              #line 803 "c:\users\tech\desktop\codetector\sevenSegment3DigitComplex\SevenSegment3DigitComplex.c"
 803  0017  3114        	set [20].2
 803  0018  0003        	ret
 803  0019              _nineDigit2 endp
 803  0019              #line 803 "c:\users\tech\desktop\codetector\sevenSegment3DigitComplex\SevenSegment3DigitComplex.c"
 803  0019              #pragma debug scope 1 1
 803  0019              public _nineDigit3
 803  0019              #pragma debug scope 35 1
 806  0019              #line 806 "c:\users\tech\desktop\codetector\sevenSegment3DigitComplex\SevenSegment3DigitComplex.c"
 806  0000              _nineDigit3 .section 'code'
 806  0000              _nineDigit3 proc
 809  0000              #line 809 "c:\users\tech\desktop\codetector\sevenSegment3DigitComplex\SevenSegment3DigitComplex.c"
 809  0000  3499        	clr [25].1
 810  0001              #line 810 "c:\users\tech\desktop\codetector\sevenSegment3DigitComplex\SevenSegment3DigitComplex.c"
 810  0001  3615        	clr [21].4
 811  0002              #line 811 "c:\users\tech\desktop\codetector\sevenSegment3DigitComplex\SevenSegment3DigitComplex.c"
 811  0002  3415        	clr [21].0
 812  0003              #line 812 "c:\users\tech\desktop\codetector\sevenSegment3DigitComplex\SevenSegment3DigitComplex.c"
 812  0003  3515        	clr [21].2
 813  0004              #line 813 "c:\users\tech\desktop\codetector\sevenSegment3DigitComplex\SevenSegment3DigitComplex.c"
"File: SevenSegment3DigitComplex.c  Assembler  Version HGASM0202      Page 62

 813  0004  3599        	clr [25].3
 814  0005              #line 814 "c:\users\tech\desktop\codetector\sevenSegment3DigitComplex\SevenSegment3DigitComplex.c"
 814  0005  3098        	set [24].1
 815  0006              #line 815 "c:\users\tech\desktop\codetector\sevenSegment3DigitComplex\SevenSegment3DigitComplex.c"
 815  0006  3614        	clr [20].4
 816  0007              #line 816 "c:\users\tech\desktop\codetector\sevenSegment3DigitComplex\SevenSegment3DigitComplex.c"
 816  0007  3414        	clr [20].0
 817  0008              #line 817 "c:\users\tech\desktop\codetector\sevenSegment3DigitComplex\SevenSegment3DigitComplex.c"
 817  0008  3514        	clr [20].2
 818  0009              #line 818 "c:\users\tech\desktop\codetector\sevenSegment3DigitComplex\SevenSegment3DigitComplex.c"
 818  0009  3598        	clr [24].3
 820  000A              #line 820 "c:\users\tech\desktop\codetector\sevenSegment3DigitComplex\SevenSegment3DigitComplex.c"
 820  000A              ;# 820 "c:\users\tech\desktop\codetector\sevenSegment3DigitComplex\SevenSegment3DigitComplex.c" 1
 820  000A              	IF 1000>263690
 820  000A              ;# 820 "c:\users\tech\desktop\codetector\sevenSegment3DigitComplex\SevenSegment3DigitComplex.c" 1
 820  000A              	ERRMESSAGE 'the value 1000of the argument exceeds the maxinum 263690'
 820  000A              	ENDIF
 820  000A              ;# 820 "c:\users\tech\desktop\codetector\sevenSegment3DigitComplex\SevenSegment3DigitComplex.c" 1
 820  000A              	IF 1000<0
 820  000A              ;# 820 "c:\users\tech\desktop\codetector\sevenSegment3DigitComplex\SevenSegment3DigitComplex.c" 1
 820  000A              	ERRMESSAGE 'the value 1000 of the argument exceeds the mininum 0'
 820  000A              	ENDIF
 820  000A              ;# 820 "c:\users\tech\desktop\codetector\sevenSegment3DigitComplex\SevenSegment3DigitComplex.c" 1
 820  000A              	IF 1000==0
 820  000A              ;# 820 "c:\users\tech\desktop\codetector\sevenSegment3DigitComplex\SevenSegment3DigitComplex.c" 1
 820  000A              	JMP $
 820  000A              	ENDIF
 820  000A              ;# 820 "c:\users\tech\desktop\codetector\sevenSegment3DigitComplex\SevenSegment3DigitComplex.c" 1
 820  000A              	IF 1000==1
 820  000A              ;# 820 "c:\users\tech\desktop\codetector\sevenSegment3DigitComplex\SevenSegment3DigitComplex.c" 1
 820  000A              	NOP
 820  000A              	ENDIF
 820  000A              ;# 820 "c:\users\tech\desktop\codetector\sevenSegment3DigitComplex\SevenSegment3DigitComplex.c" 1
 820  000A              	IF 1000==2
 820  000A              ;# 820 "c:\users\tech\desktop\codetector\sevenSegment3DigitComplex\SevenSegment3DigitComplex.c" 1
 820  000A              	NOP
 820  000A              ;# 820 "c:\users\tech\desktop\codetector\sevenSegment3DigitComplex\SevenSegment3DigitComplex.c" 1
 820  000A              	NOP
 820  000A              	ENDIF
 820  000A              ;# 820 "c:\users\tech\desktop\codetector\sevenSegment3DigitComplex\SevenSegment3DigitComplex.c" 1
 820  000A              	IF 1000==3
 820  000A              ;# 820 "c:\users\tech\desktop\codetector\sevenSegment3DigitComplex\SevenSegment3DigitComplex.c" 1
 820  000A              	NOP
 820  000A              ;# 820 "c:\users\tech\desktop\codetector\sevenSegment3DigitComplex\SevenSegment3DigitComplex.c" 1
 820  000A              	NOP
 820  000A              ;# 820 "c:\users\tech\desktop\codetector\sevenSegment3DigitComplex\SevenSegment3DigitComplex.c" 1
 820  000A              	NOP
 820  000A              	ENDIF
 820  000A              ;# 820 "c:\users\tech\desktop\codetector\sevenSegment3DigitComplex\SevenSegment3DigitComplex.c" 1
 820  000A              	IF (1000<8) AND (1000>3)
 820  000A              ;# 820 "c:\users\tech\desktop\codetector\sevenSegment3DigitComplex\SevenSegment3DigitComplex.c" 1
 820  000A              	CALL __DELAY3 + 7 -1000
 820  000A              	ENDIF
 820  000A              ;# 820 "c:\users\tech\desktop\codetector\sevenSegment3DigitComplex\SevenSegment3DigitComplex.c" 1
 820  000A              	IF (1000< 0404h) AND (1000>7)
 820  000A              ;# 820 "c:\users\tech\desktop\codetector\sevenSegment3DigitComplex\SevenSegment3DigitComplex.c" 1
 820  000A  0FF9        	MOV A,1000/4-1
 820  000B              ;# 820 "c:\users\tech\desktop\codetector\sevenSegment3DigitComplex\SevenSegment3DigitComplex.c" 1
 820  000B  2000     E  	CALL __DELAYX3 + 3 -(1000 MOD 4)
 820  000C              	ENDIF
"File: SevenSegment3DigitComplex.c  Assembler  Version HGASM0202      Page 63

 820  000C              ;# 820 "c:\users\tech\desktop\codetector\sevenSegment3DigitComplex\SevenSegment3DigitComplex.c" 1
 820  000C              	IF (1000< 0x40B) AND (1000> 0403h)
 820  000C              ;# 820 "c:\users\tech\desktop\codetector\sevenSegment3DigitComplex\SevenSegment3DigitComplex.c" 1
 820  000C              	MOV A,0 
 820  000C              ;# 820 "c:\users\tech\desktop\codetector\sevenSegment3DigitComplex\SevenSegment3DigitComplex.c" 1
 820  000C              	CALL __DELAYX6 + 0x40a -1000
 820  000C              	ENDIF
 820  000C              ;# 820 "c:\users\tech\desktop\codetector\sevenSegment3DigitComplex\SevenSegment3DigitComplex.c" 1
 820  000C              	IF (1000 >= 0x40b) AND ((((1000-9)%0402h)/4+1)>256)
 820  000C              ;# 820 "c:\users\tech\desktop\codetector\sevenSegment3DigitComplex\SevenSegment3DigitComplex.c" 1
 820  000C              	MOV A,(1000-9)/0402h
 820  000C              ;# 820 "c:\users\tech\desktop\codetector\sevenSegment3DigitComplex\SevenSegment3DigitComplex.c" 1
 820  000C              	MOV _builtin_holtek_delay_2,A
 820  000C              ;# 820 "c:\users\tech\desktop\codetector\sevenSegment3DigitComplex\SevenSegment3DigitComplex.c" 1
 820  000C              	MOV A,0
 820  000C              ;# 820 "c:\users\tech\desktop\codetector\sevenSegment3DigitComplex\SevenSegment3DigitComplex.c" 1
 820  000C              	CALL __DELAYY5 +5- (((1000-9)%0402h)%6)
 820  000C              	ENDIF
 820  000C              ;# 820 "c:\users\tech\desktop\codetector\sevenSegment3DigitComplex\SevenSegment3DigitComplex.c" 1
 820  000C              	IF (1000 >= 0x40b) AND ((((1000-9)%0402h)/4+1)<=256)
 820  000C              ;# 820 "c:\users\tech\desktop\codetector\sevenSegment3DigitComplex\SevenSegment3DigitComplex.c" 1
 820  000C              	MOV A,(1000-9)/0402h
 820  000C              ;# 820 "c:\users\tech\desktop\codetector\sevenSegment3DigitComplex\SevenSegment3DigitComplex.c" 1
 820  000C              	MOV _builtin_holtek_delay_2,A
 820  000C              ;# 820 "c:\users\tech\desktop\codetector\sevenSegment3DigitComplex\SevenSegment3DigitComplex.c" 1
 820  000C              	MOV A,((1000-9)%0402h)/4+1
 820  000C              ;# 820 "c:\users\tech\desktop\codetector\sevenSegment3DigitComplex\SevenSegment3DigitComplex.c" 1
 820  000C              	CALL __DELAYY3 +3-(((1000-9)%0402h)%4)
 820  000C              	ENDIF
 821  000C              #line 821 "c:\users\tech\desktop\codetector\sevenSegment3DigitComplex\SevenSegment3DigitComplex.c"
 821  000C  2000     R  	call _clearSegment
 823  000D              #line 823 "c:\users\tech\desktop\codetector\sevenSegment3DigitComplex\SevenSegment3DigitComplex.c"
 823  000D  3615        	clr [21].4
 824  000E              #line 824 "c:\users\tech\desktop\codetector\sevenSegment3DigitComplex\SevenSegment3DigitComplex.c"
 824  000E  3515        	clr [21].2
 825  000F              #line 825 "c:\users\tech\desktop\codetector\sevenSegment3DigitComplex\SevenSegment3DigitComplex.c"
 825  000F  3599        	clr [25].3
 826  0010              #line 826 "c:\users\tech\desktop\codetector\sevenSegment3DigitComplex\SevenSegment3DigitComplex.c"
 826  0010  3214        	set [20].4
 827  0011              #line 827 "c:\users\tech\desktop\codetector\sevenSegment3DigitComplex\SevenSegment3DigitComplex.c"
 827  0011  3514        	clr [20].2
 828  0012              #line 828 "c:\users\tech\desktop\codetector\sevenSegment3DigitComplex\SevenSegment3DigitComplex.c"
 828  0012  3598        	clr [24].3
 828  0013  0003        	ret
 828  0014              _nineDigit3 endp
 828  0014              #line 828 "c:\users\tech\desktop\codetector\sevenSegment3DigitComplex\SevenSegment3DigitComplex.c"
 828  0014              #pragma debug scope 1 1
 828  0014              public _shwoSegment
 828  0014              #pragma debug scope 36 1
 843  0014              #line 843 "c:\users\tech\desktop\codetector\sevenSegment3DigitComplex\SevenSegment3DigitComplex.c"
 843  0000              _shwoSegment .section 'code'
 843  0000              _shwoSegment proc
 843  0000              public _shwoSegment_2
 843  0000  0007[           local _shwoSegment_2 db 7 dup(?)	; 2,5
            00
            ]
 843  0007              #pragma debug variable 11 36 _shwoSegment_2+0 "number"
 843  0007              #pragma debug variable 7 36 _shwoSegment_2+6 "powNumber"
 843  0007              #pragma debug variable 11 36 _shwoSegment_2+4 "indexDigit"
 843  0007              #pragma debug variable 11 36 _shwoSegment_2+2 "digNumber"
"File: SevenSegment3DigitComplex.c  Assembler  Version HGASM0202      Page 64

 853  0007              #line 853 "c:\users\tech\desktop\codetector\sevenSegment3DigitComplex\SevenSegment3DigitComplex.c"
 853  0000  0700     R  	mov a,_shwoSegment_2[0]
 853  0001  0500     R  	or a,_shwoSegment_2[1]
 853  0002  390A        	snz z
 853  0003  2800     R  	jmp _L39
 855  0004              #line 855 "c:\users\tech\desktop\codetector\sevenSegment3DigitComplex\SevenSegment3DigitComplex.c"
 855  0004  2000     R  	call _clearSegment
 856  0005              #line 856 "c:\users\tech\desktop\codetector\sevenSegment3DigitComplex\SevenSegment3DigitComplex.c"
 856  0005  2000     R  	call _ziroDigit1
 857  0006              #line 857 "c:\users\tech\desktop\codetector\sevenSegment3DigitComplex\SevenSegment3DigitComplex.c"
 857  0006              ;# 857 "c:\users\tech\desktop\codetector\sevenSegment3DigitComplex\SevenSegment3DigitComplex.c" 1
 857  0006              	IF 1000>263690
 857  0006              ;# 857 "c:\users\tech\desktop\codetector\sevenSegment3DigitComplex\SevenSegment3DigitComplex.c" 1
 857  0006              	ERRMESSAGE 'the value 1000of the argument exceeds the maxinum 263690'
 857  0006              	ENDIF
 857  0006              ;# 857 "c:\users\tech\desktop\codetector\sevenSegment3DigitComplex\SevenSegment3DigitComplex.c" 1
 857  0006              	IF 1000<0
 857  0006              ;# 857 "c:\users\tech\desktop\codetector\sevenSegment3DigitComplex\SevenSegment3DigitComplex.c" 1
 857  0006              	ERRMESSAGE 'the value 1000 of the argument exceeds the mininum 0'
 857  0006              	ENDIF
 857  0006              ;# 857 "c:\users\tech\desktop\codetector\sevenSegment3DigitComplex\SevenSegment3DigitComplex.c" 1
 857  0006              	IF 1000==0
 857  0006              ;# 857 "c:\users\tech\desktop\codetector\sevenSegment3DigitComplex\SevenSegment3DigitComplex.c" 1
 857  0006              	JMP $
 857  0006              	ENDIF
 857  0006              ;# 857 "c:\users\tech\desktop\codetector\sevenSegment3DigitComplex\SevenSegment3DigitComplex.c" 1
 857  0006              	IF 1000==1
 857  0006              ;# 857 "c:\users\tech\desktop\codetector\sevenSegment3DigitComplex\SevenSegment3DigitComplex.c" 1
 857  0006              	NOP
 857  0006              	ENDIF
 857  0006              ;# 857 "c:\users\tech\desktop\codetector\sevenSegment3DigitComplex\SevenSegment3DigitComplex.c" 1
 857  0006              	IF 1000==2
 857  0006              ;# 857 "c:\users\tech\desktop\codetector\sevenSegment3DigitComplex\SevenSegment3DigitComplex.c" 1
 857  0006              	NOP
 857  0006              ;# 857 "c:\users\tech\desktop\codetector\sevenSegment3DigitComplex\SevenSegment3DigitComplex.c" 1
 857  0006              	NOP
 857  0006              	ENDIF
 857  0006              ;# 857 "c:\users\tech\desktop\codetector\sevenSegment3DigitComplex\SevenSegment3DigitComplex.c" 1
 857  0006              	IF 1000==3
 857  0006              ;# 857 "c:\users\tech\desktop\codetector\sevenSegment3DigitComplex\SevenSegment3DigitComplex.c" 1
 857  0006              	NOP
 857  0006              ;# 857 "c:\users\tech\desktop\codetector\sevenSegment3DigitComplex\SevenSegment3DigitComplex.c" 1
 857  0006              	NOP
 857  0006              ;# 857 "c:\users\tech\desktop\codetector\sevenSegment3DigitComplex\SevenSegment3DigitComplex.c" 1
 857  0006              	NOP
 857  0006              	ENDIF
 857  0006              ;# 857 "c:\users\tech\desktop\codetector\sevenSegment3DigitComplex\SevenSegment3DigitComplex.c" 1
 857  0006              	IF (1000<8) AND (1000>3)
 857  0006              ;# 857 "c:\users\tech\desktop\codetector\sevenSegment3DigitComplex\SevenSegment3DigitComplex.c" 1
 857  0006              	CALL __DELAY3 + 7 -1000
 857  0006              	ENDIF
 857  0006              ;# 857 "c:\users\tech\desktop\codetector\sevenSegment3DigitComplex\SevenSegment3DigitComplex.c" 1
 857  0006              	IF (1000< 0404h) AND (1000>7)
 857  0006              ;# 857 "c:\users\tech\desktop\codetector\sevenSegment3DigitComplex\SevenSegment3DigitComplex.c" 1
 857  0006  0FF9        	MOV A,1000/4-1
 857  0007              ;# 857 "c:\users\tech\desktop\codetector\sevenSegment3DigitComplex\SevenSegment3DigitComplex.c" 1
 857  0007  2000     E  	CALL __DELAYX3 + 3 -(1000 MOD 4)
 857  0008              	ENDIF
 857  0008              ;# 857 "c:\users\tech\desktop\codetector\sevenSegment3DigitComplex\SevenSegment3DigitComplex.c" 1
 857  0008              	IF (1000< 0x40B) AND (1000> 0403h)
"File: SevenSegment3DigitComplex.c  Assembler  Version HGASM0202      Page 65

 857  0008              ;# 857 "c:\users\tech\desktop\codetector\sevenSegment3DigitComplex\SevenSegment3DigitComplex.c" 1
 857  0008              	MOV A,0 
 857  0008              ;# 857 "c:\users\tech\desktop\codetector\sevenSegment3DigitComplex\SevenSegment3DigitComplex.c" 1
 857  0008              	CALL __DELAYX6 + 0x40a -1000
 857  0008              	ENDIF
 857  0008              ;# 857 "c:\users\tech\desktop\codetector\sevenSegment3DigitComplex\SevenSegment3DigitComplex.c" 1
 857  0008              	IF (1000 >= 0x40b) AND ((((1000-9)%0402h)/4+1)>256)
 857  0008              ;# 857 "c:\users\tech\desktop\codetector\sevenSegment3DigitComplex\SevenSegment3DigitComplex.c" 1
 857  0008              	MOV A,(1000-9)/0402h
 857  0008              ;# 857 "c:\users\tech\desktop\codetector\sevenSegment3DigitComplex\SevenSegment3DigitComplex.c" 1
 857  0008              	MOV _builtin_holtek_delay_2,A
 857  0008              ;# 857 "c:\users\tech\desktop\codetector\sevenSegment3DigitComplex\SevenSegment3DigitComplex.c" 1
 857  0008              	MOV A,0
 857  0008              ;# 857 "c:\users\tech\desktop\codetector\sevenSegment3DigitComplex\SevenSegment3DigitComplex.c" 1
 857  0008              	CALL __DELAYY5 +5- (((1000-9)%0402h)%6)
 857  0008              	ENDIF
 857  0008              ;# 857 "c:\users\tech\desktop\codetector\sevenSegment3DigitComplex\SevenSegment3DigitComplex.c" 1
 857  0008              	IF (1000 >= 0x40b) AND ((((1000-9)%0402h)/4+1)<=256)
 857  0008              ;# 857 "c:\users\tech\desktop\codetector\sevenSegment3DigitComplex\SevenSegment3DigitComplex.c" 1
 857  0008              	MOV A,(1000-9)/0402h
 857  0008              ;# 857 "c:\users\tech\desktop\codetector\sevenSegment3DigitComplex\SevenSegment3DigitComplex.c" 1
 857  0008              	MOV _builtin_holtek_delay_2,A
 857  0008              ;# 857 "c:\users\tech\desktop\codetector\sevenSegment3DigitComplex\SevenSegment3DigitComplex.c" 1
 857  0008              	MOV A,((1000-9)%0402h)/4+1
 857  0008              ;# 857 "c:\users\tech\desktop\codetector\sevenSegment3DigitComplex\SevenSegment3DigitComplex.c" 1
 857  0008              	CALL __DELAYY3 +3-(((1000-9)%0402h)%4)
 857  0008              	ENDIF
 858  0008              #line 858 "c:\users\tech\desktop\codetector\sevenSegment3DigitComplex\SevenSegment3DigitComplex.c"
 858  0008  2800     R  	jmp _L40
 858  0009              _L39:
 868  0009              #line 868 "c:\users\tech\desktop\codetector\sevenSegment3DigitComplex\SevenSegment3DigitComplex.c"
 868  0009  0FE7        	mov a,231
 868  000A  0200     R  	sub a,_shwoSegment_2[0]
 868  000B  0F03        	mov a,3
 868  000C  1200     R  	sbc a,_shwoSegment_2[1]
 868  000D  380A        	snz c
 868  000E  2800     R  	jmp _L40
 868  000F  0700     R  	mov a,_shwoSegment_2[0]
 868  0010  0080     E  	mov rb,a
 868  0011  0700     R  	mov a,_shwoSegment_2[1]
 868  0012  0080     E  	mov rc,a
 868  0013              _L42:
 868  0013              #pragma debug scope 37 36
 868  0013              ;begin block, line: 868.-1
 868  0013              #pragma debug scope 38 37
 868  0013              ;begin block, line: 868.-1
 836  0013              #line 836 "c:\users\tech\desktop\codetector\sevenSegment3DigitComplex\SevenSegment3DigitComplex.c"
 836  0013  0700     E  	mov a,rb
 836  0014  0080     E  	mov _builtin_holtek_udivmodhi4_2[0],a
 836  0015  0700     E  	mov a,rc
 836  0016  0080     E  	mov _builtin_holtek_udivmodhi4_2[1],a
 836  0017  0F0A        	mov a,10
 836  0018  0080     E  	mov _builtin_holtek_udivmodhi4_2[2],a
 836  0019  0F00        	mov a,0
 836  001A  0080     E  	mov _builtin_holtek_udivmodhi4_2[3],a
 836  001B  2000     E  	call _builtin_holtek_divmodhi4
 836  001C  0700     E  	mov a,_builtin_holtek_udivmodhi4_2[0]
 836  001D  0080     E  	mov rb,a
 836  001E  0700     E  	mov a,_builtin_holtek_udivmodhi4_2[1]
 836  001F  0080     E  	mov rc,a
"File: SevenSegment3DigitComplex.c  Assembler  Version HGASM0202      Page 66

 834  0020              #line 834 "c:\users\tech\desktop\codetector\sevenSegment3DigitComplex\SevenSegment3DigitComplex.c"
 834  0020  0700     E  	mov a,rb
 834  0021  0500     E  	or a,rc
 834  0022  390A        	snz z
 834  0023  2800     R  	jmp _L42
 834  0024  0F03        	mov a,3
 834  0025  0080     R  	mov _shwoSegment_2[4],a
 834  0026  1F00     R  	clr _shwoSegment_2[5]
 834  0027  0F64        	mov a,100
 834  0028  0080     R  	mov _shwoSegment_2[6],a
 834  0029              _L78:
 834  0029              #pragma debug scope 37 36
 834  0029              #pragma debug scope 36 1
 880  0029              #line 880 "c:\users\tech\desktop\codetector\sevenSegment3DigitComplex\SevenSegment3DigitComplex.c"
 880  0029  0700     R  	mov a,_shwoSegment_2[6]
 880  002A  0080     E  	mov rb,a
 880  002B  1F00     E  	clr rc
 880  002C  3F85        	sz acc.7
 880  002D  1F80     E  	set rc
 880  002E  0700     R  	mov a,_shwoSegment_2[0]
 880  002F  0080     E  	mov _builtin_holtek_udivmodhi4_2[0],a
 880  0030  0700     R  	mov a,_shwoSegment_2[1]
 880  0031  0080     E  	mov _builtin_holtek_udivmodhi4_2[1],a
 880  0032  0700     E  	mov a,rb
 880  0033  0080     E  	mov _builtin_holtek_udivmodhi4_2[2],a
 880  0034  0700     E  	mov a,rc
 880  0035  0080     E  	mov _builtin_holtek_udivmodhi4_2[3],a
 880  0036  2000     E  	call _builtin_holtek_divmodhi4
 880  0037  0700     E  	mov a,_builtin_holtek_udivmodhi4_2[0]
 880  0038  0080     R  	mov _shwoSegment_2[2],a
 880  0039  0700     E  	mov a,_builtin_holtek_udivmodhi4_2[1]
 880  003A  0080     R  	mov _shwoSegment_2[3],a
 881  003B              #line 881 "c:\users\tech\desktop\codetector\sevenSegment3DigitComplex\SevenSegment3DigitComplex.c"
 881  003B  0700     R  	mov a,_shwoSegment_2[2]  
 881  003C  0080     E  	mov _builtin_holtek_mulhi3_2[0],a  
 881  003D  0700     R  	mov a,_shwoSegment_2[3]  
 881  003E  0080     E  	mov _builtin_holtek_mulhi3_2[1],a
 881  003F  0700     E  	mov a,rb  
 881  0040  0080     E  	mov _builtin_holtek_mulhi3_2[2],a  
 881  0041  0700     E  	mov a,rc  
 881  0042  0080     E  	mov _builtin_holtek_mulhi3_2[3],a
 881  0043  2000     E  	call _builtin_holtek_mulhi3
 881  0044  0700     E  	mov a,_builtin_holtek_mulhi3_2[4]  
 881  0045  0080     E  	mov rb,a  
 881  0046  0700     E  	mov a,_builtin_holtek_mulhi3_2[5]  
 881  0047  0080     E  	mov rc,a
 881  0048  0700     R  	mov a,_shwoSegment_2[0]
 881  0049  0200     E  	sub a,rb
 881  004A  0080     R  	mov _shwoSegment_2[0],a
 881  004B  0700     R  	mov a,_shwoSegment_2[1]
 881  004C  1200     E  	sbc a,rc
 881  004D  0080     R  	mov _shwoSegment_2[1],a
 884  004E              #line 884 "c:\users\tech\desktop\codetector\sevenSegment3DigitComplex\SevenSegment3DigitComplex.c"
 884  004E  0700     R  	mov a,_shwoSegment_2[4]
 884  004F  0C01        	xor a,1
 884  0050  0500     R  	or a,_shwoSegment_2[5]
 884  0051  3D0A        	sz z
 884  0052  2800     R  	jmp _L44
 884  0053  0700     R  	mov a,_shwoSegment_2[4]
 884  0054  0C02        	xor a,2
"File: SevenSegment3DigitComplex.c  Assembler  Version HGASM0202      Page 67

 884  0055  0500     R  	or a,_shwoSegment_2[5]
 884  0056  3D0A        	sz z
 884  0057  2800     R  	jmp _L45
 884  0058  0700     R  	mov a,_shwoSegment_2[4]
 884  0059  0C03        	xor a,3
 884  005A  0500     R  	or a,_shwoSegment_2[5]
 884  005B  390A        	snz z
 884  005C  2800     R  	jmp _L43
 884  005D  2800     R  	jmp _L79
 884  005E              _L44:
 892  005E              #line 892 "c:\users\tech\desktop\codetector\sevenSegment3DigitComplex\SevenSegment3DigitComplex.c"
 892  005E  2000     R  	call _clearSegment
 893  005F              #line 893 "c:\users\tech\desktop\codetector\sevenSegment3DigitComplex\SevenSegment3DigitComplex.c"
 893  005F              ;# 893 "c:\users\tech\desktop\codetector\sevenSegment3DigitComplex\SevenSegment3DigitComplex.c" 1
 893  005F              	IF 1000>263690
 893  005F              ;# 893 "c:\users\tech\desktop\codetector\sevenSegment3DigitComplex\SevenSegment3DigitComplex.c" 1
 893  005F              	ERRMESSAGE 'the value 1000of the argument exceeds the maxinum 263690'
 893  005F              	ENDIF
 893  005F              ;# 893 "c:\users\tech\desktop\codetector\sevenSegment3DigitComplex\SevenSegment3DigitComplex.c" 1
 893  005F              	IF 1000<0
 893  005F              ;# 893 "c:\users\tech\desktop\codetector\sevenSegment3DigitComplex\SevenSegment3DigitComplex.c" 1
 893  005F              	ERRMESSAGE 'the value 1000 of the argument exceeds the mininum 0'
 893  005F              	ENDIF
 893  005F              ;# 893 "c:\users\tech\desktop\codetector\sevenSegment3DigitComplex\SevenSegment3DigitComplex.c" 1
 893  005F              	IF 1000==0
 893  005F              ;# 893 "c:\users\tech\desktop\codetector\sevenSegment3DigitComplex\SevenSegment3DigitComplex.c" 1
 893  005F              	JMP $
 893  005F              	ENDIF
 893  005F              ;# 893 "c:\users\tech\desktop\codetector\sevenSegment3DigitComplex\SevenSegment3DigitComplex.c" 1
 893  005F              	IF 1000==1
 893  005F              ;# 893 "c:\users\tech\desktop\codetector\sevenSegment3DigitComplex\SevenSegment3DigitComplex.c" 1
 893  005F              	NOP
 893  005F              	ENDIF
 893  005F              ;# 893 "c:\users\tech\desktop\codetector\sevenSegment3DigitComplex\SevenSegment3DigitComplex.c" 1
 893  005F              	IF 1000==2
 893  005F              ;# 893 "c:\users\tech\desktop\codetector\sevenSegment3DigitComplex\SevenSegment3DigitComplex.c" 1
 893  005F              	NOP
 893  005F              ;# 893 "c:\users\tech\desktop\codetector\sevenSegment3DigitComplex\SevenSegment3DigitComplex.c" 1
 893  005F              	NOP
 893  005F              	ENDIF
 893  005F              ;# 893 "c:\users\tech\desktop\codetector\sevenSegment3DigitComplex\SevenSegment3DigitComplex.c" 1
 893  005F              	IF 1000==3
 893  005F              ;# 893 "c:\users\tech\desktop\codetector\sevenSegment3DigitComplex\SevenSegment3DigitComplex.c" 1
 893  005F              	NOP
 893  005F              ;# 893 "c:\users\tech\desktop\codetector\sevenSegment3DigitComplex\SevenSegment3DigitComplex.c" 1
 893  005F              	NOP
 893  005F              ;# 893 "c:\users\tech\desktop\codetector\sevenSegment3DigitComplex\SevenSegment3DigitComplex.c" 1
 893  005F              	NOP
 893  005F              	ENDIF
 893  005F              ;# 893 "c:\users\tech\desktop\codetector\sevenSegment3DigitComplex\SevenSegment3DigitComplex.c" 1
 893  005F              	IF (1000<8) AND (1000>3)
 893  005F              ;# 893 "c:\users\tech\desktop\codetector\sevenSegment3DigitComplex\SevenSegment3DigitComplex.c" 1
 893  005F              	CALL __DELAY3 + 7 -1000
 893  005F              	ENDIF
 893  005F              ;# 893 "c:\users\tech\desktop\codetector\sevenSegment3DigitComplex\SevenSegment3DigitComplex.c" 1
 893  005F              	IF (1000< 0404h) AND (1000>7)
 893  005F              ;# 893 "c:\users\tech\desktop\codetector\sevenSegment3DigitComplex\SevenSegment3DigitComplex.c" 1
 893  005F  0FF9        	MOV A,1000/4-1
 893  0060              ;# 893 "c:\users\tech\desktop\codetector\sevenSegment3DigitComplex\SevenSegment3DigitComplex.c" 1
 893  0060  2000     E  	CALL __DELAYX3 + 3 -(1000 MOD 4)
"File: SevenSegment3DigitComplex.c  Assembler  Version HGASM0202      Page 68

 893  0061              	ENDIF
 893  0061              ;# 893 "c:\users\tech\desktop\codetector\sevenSegment3DigitComplex\SevenSegment3DigitComplex.c" 1
 893  0061              	IF (1000< 0x40B) AND (1000> 0403h)
 893  0061              ;# 893 "c:\users\tech\desktop\codetector\sevenSegment3DigitComplex\SevenSegment3DigitComplex.c" 1
 893  0061              	MOV A,0 
 893  0061              ;# 893 "c:\users\tech\desktop\codetector\sevenSegment3DigitComplex\SevenSegment3DigitComplex.c" 1
 893  0061              	CALL __DELAYX6 + 0x40a -1000
 893  0061              	ENDIF
 893  0061              ;# 893 "c:\users\tech\desktop\codetector\sevenSegment3DigitComplex\SevenSegment3DigitComplex.c" 1
 893  0061              	IF (1000 >= 0x40b) AND ((((1000-9)%0402h)/4+1)>256)
 893  0061              ;# 893 "c:\users\tech\desktop\codetector\sevenSegment3DigitComplex\SevenSegment3DigitComplex.c" 1
 893  0061              	MOV A,(1000-9)/0402h
 893  0061              ;# 893 "c:\users\tech\desktop\codetector\sevenSegment3DigitComplex\SevenSegment3DigitComplex.c" 1
 893  0061              	MOV _builtin_holtek_delay_2,A
 893  0061              ;# 893 "c:\users\tech\desktop\codetector\sevenSegment3DigitComplex\SevenSegment3DigitComplex.c" 1
 893  0061              	MOV A,0
 893  0061              ;# 893 "c:\users\tech\desktop\codetector\sevenSegment3DigitComplex\SevenSegment3DigitComplex.c" 1
 893  0061              	CALL __DELAYY5 +5- (((1000-9)%0402h)%6)
 893  0061              	ENDIF
 893  0061              ;# 893 "c:\users\tech\desktop\codetector\sevenSegment3DigitComplex\SevenSegment3DigitComplex.c" 1
 893  0061              	IF (1000 >= 0x40b) AND ((((1000-9)%0402h)/4+1)<=256)
 893  0061              ;# 893 "c:\users\tech\desktop\codetector\sevenSegment3DigitComplex\SevenSegment3DigitComplex.c" 1
 893  0061              	MOV A,(1000-9)/0402h
 893  0061              ;# 893 "c:\users\tech\desktop\codetector\sevenSegment3DigitComplex\SevenSegment3DigitComplex.c" 1
 893  0061              	MOV _builtin_holtek_delay_2,A
 893  0061              ;# 893 "c:\users\tech\desktop\codetector\sevenSegment3DigitComplex\SevenSegment3DigitComplex.c" 1
 893  0061              	MOV A,((1000-9)%0402h)/4+1
 893  0061              ;# 893 "c:\users\tech\desktop\codetector\sevenSegment3DigitComplex\SevenSegment3DigitComplex.c" 1
 893  0061              	CALL __DELAYY3 +3-(((1000-9)%0402h)%4)
 893  0061              	ENDIF
 895  0061              #line 895 "c:\users\tech\desktop\codetector\sevenSegment3DigitComplex\SevenSegment3DigitComplex.c"
 895  0061  0700     R  	mov a,_shwoSegment_2[2]
 895  0062  0500     R  	or a,_shwoSegment_2[3]
 895  0063  3D0A        	sz z
 895  0064  2800     R  	jmp _L47
 895  0065  0700     R  	mov a,_shwoSegment_2[2]
 895  0066  0C01        	xor a,1
 895  0067  0500     R  	or a,_shwoSegment_2[3]
 895  0068  3D0A        	sz z
 895  0069  2800     R  	jmp _L48
 895  006A  0700     R  	mov a,_shwoSegment_2[2]
 895  006B  0C02        	xor a,2
 895  006C  0500     R  	or a,_shwoSegment_2[3]
 895  006D  3D0A        	sz z
 895  006E  2800     R  	jmp _L49
 895  006F  0700     R  	mov a,_shwoSegment_2[2]
 895  0070  0C03        	xor a,3
 895  0071  0500     R  	or a,_shwoSegment_2[3]
 895  0072  3D0A        	sz z
 895  0073  2800     R  	jmp _L50
 895  0074  0700     R  	mov a,_shwoSegment_2[2]
 895  0075  0C04        	xor a,4
 895  0076  0500     R  	or a,_shwoSegment_2[3]
 895  0077  3D0A        	sz z
 895  0078  2800     R  	jmp _L51
 895  0079  0700     R  	mov a,_shwoSegment_2[2]
 895  007A  0C05        	xor a,5
 895  007B  0500     R  	or a,_shwoSegment_2[3]
 895  007C  3D0A        	sz z
 895  007D  2800     R  	jmp _L52
"File: SevenSegment3DigitComplex.c  Assembler  Version HGASM0202      Page 69

 895  007E  0700     R  	mov a,_shwoSegment_2[2]
 895  007F  0C06        	xor a,6
 895  0080  0500     R  	or a,_shwoSegment_2[3]
 895  0081  3D0A        	sz z
 895  0082  2800     R  	jmp _L53
 895  0083  0700     R  	mov a,_shwoSegment_2[2]
 895  0084  0C07        	xor a,7
 895  0085  0500     R  	or a,_shwoSegment_2[3]
 895  0086  3D0A        	sz z
 895  0087  2800     R  	jmp _L54
 895  0088  0700     R  	mov a,_shwoSegment_2[2]
 895  0089  0C08        	xor a,8
 895  008A  0500     R  	or a,_shwoSegment_2[3]
 895  008B  3D0A        	sz z
 895  008C  2800     R  	jmp _L55
 895  008D  0700     R  	mov a,_shwoSegment_2[2]
 895  008E  0C09        	xor a,9
 895  008F  0500     R  	or a,_shwoSegment_2[3]
 895  0090  390A        	snz z
 895  0091  2800     R  	jmp _L43
 907  0092              #line 907 "c:\users\tech\desktop\codetector\sevenSegment3DigitComplex\SevenSegment3DigitComplex.c"
 907  0092  2000     R  	call _nineDigit3
 907  0093  2800     R  	jmp _L43
 907  0094              _L47:
 898  0094              #line 898 "c:\users\tech\desktop\codetector\sevenSegment3DigitComplex\SevenSegment3DigitComplex.c"
 898  0094  2000     R  	call _ziroDigit3
 898  0095  2800     R  	jmp _L43
 898  0096              _L48:
 899  0096              #line 899 "c:\users\tech\desktop\codetector\sevenSegment3DigitComplex\SevenSegment3DigitComplex.c"
 899  0096  2000     R  	call _oneDigit3
 899  0097  2800     R  	jmp _L43
 899  0098              _L49:
 900  0098              #line 900 "c:\users\tech\desktop\codetector\sevenSegment3DigitComplex\SevenSegment3DigitComplex.c"
 900  0098  2000     R  	call _towDigit3
 900  0099  2800     R  	jmp _L43
 900  009A              _L50:
 901  009A              #line 901 "c:\users\tech\desktop\codetector\sevenSegment3DigitComplex\SevenSegment3DigitComplex.c"
 901  009A  2000     R  	call _threeDigit3
 901  009B  2800     R  	jmp _L43
 901  009C              _L51:
 902  009C              #line 902 "c:\users\tech\desktop\codetector\sevenSegment3DigitComplex\SevenSegment3DigitComplex.c"
 902  009C  2000     R  	call _fourDigit3
 902  009D  2800     R  	jmp _L43
 902  009E              _L52:
 903  009E              #line 903 "c:\users\tech\desktop\codetector\sevenSegment3DigitComplex\SevenSegment3DigitComplex.c"
 903  009E  2000     R  	call _fiveDigit3
 903  009F  2800     R  	jmp _L43
 903  00A0              _L53:
 904  00A0              #line 904 "c:\users\tech\desktop\codetector\sevenSegment3DigitComplex\SevenSegment3DigitComplex.c"
 904  00A0  2000     R  	call _sixDigit3
 904  00A1  2800     R  	jmp _L43
 904  00A2              _L54:
 905  00A2              #line 905 "c:\users\tech\desktop\codetector\sevenSegment3DigitComplex\SevenSegment3DigitComplex.c"
 905  00A2  2000     R  	call _sevenDigit3
 905  00A3  2800     R  	jmp _L43
 905  00A4              _L55:
 906  00A4              #line 906 "c:\users\tech\desktop\codetector\sevenSegment3DigitComplex\SevenSegment3DigitComplex.c"
 906  00A4  2000     R  	call _eightDigit3
 906  00A5  2800     R  	jmp _L43
 906  00A6              _L45:
"File: SevenSegment3DigitComplex.c  Assembler  Version HGASM0202      Page 70

 917  00A6              #line 917 "c:\users\tech\desktop\codetector\sevenSegment3DigitComplex\SevenSegment3DigitComplex.c"
 917  00A6  2000     R  	call _clearSegment
 918  00A7              #line 918 "c:\users\tech\desktop\codetector\sevenSegment3DigitComplex\SevenSegment3DigitComplex.c"
 918  00A7              ;# 918 "c:\users\tech\desktop\codetector\sevenSegment3DigitComplex\SevenSegment3DigitComplex.c" 1
 918  00A7              	IF 1000>263690
 918  00A7              ;# 918 "c:\users\tech\desktop\codetector\sevenSegment3DigitComplex\SevenSegment3DigitComplex.c" 1
 918  00A7              	ERRMESSAGE 'the value 1000of the argument exceeds the maxinum 263690'
 918  00A7              	ENDIF
 918  00A7              ;# 918 "c:\users\tech\desktop\codetector\sevenSegment3DigitComplex\SevenSegment3DigitComplex.c" 1
 918  00A7              	IF 1000<0
 918  00A7              ;# 918 "c:\users\tech\desktop\codetector\sevenSegment3DigitComplex\SevenSegment3DigitComplex.c" 1
 918  00A7              	ERRMESSAGE 'the value 1000 of the argument exceeds the mininum 0'
 918  00A7              	ENDIF
 918  00A7              ;# 918 "c:\users\tech\desktop\codetector\sevenSegment3DigitComplex\SevenSegment3DigitComplex.c" 1
 918  00A7              	IF 1000==0
 918  00A7              ;# 918 "c:\users\tech\desktop\codetector\sevenSegment3DigitComplex\SevenSegment3DigitComplex.c" 1
 918  00A7              	JMP $
 918  00A7              	ENDIF
 918  00A7              ;# 918 "c:\users\tech\desktop\codetector\sevenSegment3DigitComplex\SevenSegment3DigitComplex.c" 1
 918  00A7              	IF 1000==1
 918  00A7              ;# 918 "c:\users\tech\desktop\codetector\sevenSegment3DigitComplex\SevenSegment3DigitComplex.c" 1
 918  00A7              	NOP
 918  00A7              	ENDIF
 918  00A7              ;# 918 "c:\users\tech\desktop\codetector\sevenSegment3DigitComplex\SevenSegment3DigitComplex.c" 1
 918  00A7              	IF 1000==2
 918  00A7              ;# 918 "c:\users\tech\desktop\codetector\sevenSegment3DigitComplex\SevenSegment3DigitComplex.c" 1
 918  00A7              	NOP
 918  00A7              ;# 918 "c:\users\tech\desktop\codetector\sevenSegment3DigitComplex\SevenSegment3DigitComplex.c" 1
 918  00A7              	NOP
 918  00A7              	ENDIF
 918  00A7              ;# 918 "c:\users\tech\desktop\codetector\sevenSegment3DigitComplex\SevenSegment3DigitComplex.c" 1
 918  00A7              	IF 1000==3
 918  00A7              ;# 918 "c:\users\tech\desktop\codetector\sevenSegment3DigitComplex\SevenSegment3DigitComplex.c" 1
 918  00A7              	NOP
 918  00A7              ;# 918 "c:\users\tech\desktop\codetector\sevenSegment3DigitComplex\SevenSegment3DigitComplex.c" 1
 918  00A7              	NOP
 918  00A7              ;# 918 "c:\users\tech\desktop\codetector\sevenSegment3DigitComplex\SevenSegment3DigitComplex.c" 1
 918  00A7              	NOP
 918  00A7              	ENDIF
 918  00A7              ;# 918 "c:\users\tech\desktop\codetector\sevenSegment3DigitComplex\SevenSegment3DigitComplex.c" 1
 918  00A7              	IF (1000<8) AND (1000>3)
 918  00A7              ;# 918 "c:\users\tech\desktop\codetector\sevenSegment3DigitComplex\SevenSegment3DigitComplex.c" 1
 918  00A7              	CALL __DELAY3 + 7 -1000
 918  00A7              	ENDIF
 918  00A7              ;# 918 "c:\users\tech\desktop\codetector\sevenSegment3DigitComplex\SevenSegment3DigitComplex.c" 1
 918  00A7              	IF (1000< 0404h) AND (1000>7)
 918  00A7              ;# 918 "c:\users\tech\desktop\codetector\sevenSegment3DigitComplex\SevenSegment3DigitComplex.c" 1
 918  00A7  0FF9        	MOV A,1000/4-1
 918  00A8              ;# 918 "c:\users\tech\desktop\codetector\sevenSegment3DigitComplex\SevenSegment3DigitComplex.c" 1
 918  00A8  2000     E  	CALL __DELAYX3 + 3 -(1000 MOD 4)
 918  00A9              	ENDIF
 918  00A9              ;# 918 "c:\users\tech\desktop\codetector\sevenSegment3DigitComplex\SevenSegment3DigitComplex.c" 1
 918  00A9              	IF (1000< 0x40B) AND (1000> 0403h)
 918  00A9              ;# 918 "c:\users\tech\desktop\codetector\sevenSegment3DigitComplex\SevenSegment3DigitComplex.c" 1
 918  00A9              	MOV A,0 
 918  00A9              ;# 918 "c:\users\tech\desktop\codetector\sevenSegment3DigitComplex\SevenSegment3DigitComplex.c" 1
 918  00A9              	CALL __DELAYX6 + 0x40a -1000
 918  00A9              	ENDIF
 918  00A9              ;# 918 "c:\users\tech\desktop\codetector\sevenSegment3DigitComplex\SevenSegment3DigitComplex.c" 1
 918  00A9              	IF (1000 >= 0x40b) AND ((((1000-9)%0402h)/4+1)>256)
"File: SevenSegment3DigitComplex.c  Assembler  Version HGASM0202      Page 71

 918  00A9              ;# 918 "c:\users\tech\desktop\codetector\sevenSegment3DigitComplex\SevenSegment3DigitComplex.c" 1
 918  00A9              	MOV A,(1000-9)/0402h
 918  00A9              ;# 918 "c:\users\tech\desktop\codetector\sevenSegment3DigitComplex\SevenSegment3DigitComplex.c" 1
 918  00A9              	MOV _builtin_holtek_delay_2,A
 918  00A9              ;# 918 "c:\users\tech\desktop\codetector\sevenSegment3DigitComplex\SevenSegment3DigitComplex.c" 1
 918  00A9              	MOV A,0
 918  00A9              ;# 918 "c:\users\tech\desktop\codetector\sevenSegment3DigitComplex\SevenSegment3DigitComplex.c" 1
 918  00A9              	CALL __DELAYY5 +5- (((1000-9)%0402h)%6)
 918  00A9              	ENDIF
 918  00A9              ;# 918 "c:\users\tech\desktop\codetector\sevenSegment3DigitComplex\SevenSegment3DigitComplex.c" 1
 918  00A9              	IF (1000 >= 0x40b) AND ((((1000-9)%0402h)/4+1)<=256)
 918  00A9              ;# 918 "c:\users\tech\desktop\codetector\sevenSegment3DigitComplex\SevenSegment3DigitComplex.c" 1
 918  00A9              	MOV A,(1000-9)/0402h
 918  00A9              ;# 918 "c:\users\tech\desktop\codetector\sevenSegment3DigitComplex\SevenSegment3DigitComplex.c" 1
 918  00A9              	MOV _builtin_holtek_delay_2,A
 918  00A9              ;# 918 "c:\users\tech\desktop\codetector\sevenSegment3DigitComplex\SevenSegment3DigitComplex.c" 1
 918  00A9              	MOV A,((1000-9)%0402h)/4+1
 918  00A9              ;# 918 "c:\users\tech\desktop\codetector\sevenSegment3DigitComplex\SevenSegment3DigitComplex.c" 1
 918  00A9              	CALL __DELAYY3 +3-(((1000-9)%0402h)%4)
 918  00A9              	ENDIF
 920  00A9              #line 920 "c:\users\tech\desktop\codetector\sevenSegment3DigitComplex\SevenSegment3DigitComplex.c"
 920  00A9  0700     R  	mov a,_shwoSegment_2[2]
 920  00AA  0500     R  	or a,_shwoSegment_2[3]
 920  00AB  3D0A        	sz z
 920  00AC  2800     R  	jmp _L57
 920  00AD  0700     R  	mov a,_shwoSegment_2[2]
 920  00AE  0C01        	xor a,1
 920  00AF  0500     R  	or a,_shwoSegment_2[3]
 920  00B0  3D0A        	sz z
 920  00B1  2800     R  	jmp _L58
 920  00B2  0700     R  	mov a,_shwoSegment_2[2]
 920  00B3  0C02        	xor a,2
 920  00B4  0500     R  	or a,_shwoSegment_2[3]
 920  00B5  3D0A        	sz z
 920  00B6  2800     R  	jmp _L59
 920  00B7  0700     R  	mov a,_shwoSegment_2[2]
 920  00B8  0C03        	xor a,3
 920  00B9  0500     R  	or a,_shwoSegment_2[3]
 920  00BA  3D0A        	sz z
 920  00BB  2800     R  	jmp _L60
 920  00BC  0700     R  	mov a,_shwoSegment_2[2]
 920  00BD  0C04        	xor a,4
 920  00BE  0500     R  	or a,_shwoSegment_2[3]
 920  00BF  3D0A        	sz z
 920  00C0  2800     R  	jmp _L61
 920  00C1  0700     R  	mov a,_shwoSegment_2[2]
 920  00C2  0C05        	xor a,5
 920  00C3  0500     R  	or a,_shwoSegment_2[3]
 920  00C4  3D0A        	sz z
 920  00C5  2800     R  	jmp _L62
 920  00C6  0700     R  	mov a,_shwoSegment_2[2]
 920  00C7  0C06        	xor a,6
 920  00C8  0500     R  	or a,_shwoSegment_2[3]
 920  00C9  3D0A        	sz z
 920  00CA  2800     R  	jmp _L63
 920  00CB  0700     R  	mov a,_shwoSegment_2[2]
 920  00CC  0C07        	xor a,7
 920  00CD  0500     R  	or a,_shwoSegment_2[3]
 920  00CE  3D0A        	sz z
 920  00CF  2800     R  	jmp _L64
"File: SevenSegment3DigitComplex.c  Assembler  Version HGASM0202      Page 72

 920  00D0  0700     R  	mov a,_shwoSegment_2[2]
 920  00D1  0C08        	xor a,8
 920  00D2  0500     R  	or a,_shwoSegment_2[3]
 920  00D3  3D0A        	sz z
 920  00D4  2800     R  	jmp _L65
 920  00D5  0700     R  	mov a,_shwoSegment_2[2]
 920  00D6  0C09        	xor a,9
 920  00D7  0500     R  	or a,_shwoSegment_2[3]
 920  00D8  390A        	snz z
 920  00D9  2800     R  	jmp _L43
 931  00DA              #line 931 "c:\users\tech\desktop\codetector\sevenSegment3DigitComplex\SevenSegment3DigitComplex.c"
 931  00DA  2000     R  	call _nineDigit2
 931  00DB  2800     R  	jmp _L43
 931  00DC              _L57:
 922  00DC              #line 922 "c:\users\tech\desktop\codetector\sevenSegment3DigitComplex\SevenSegment3DigitComplex.c"
 922  00DC  2000     R  	call _ziroDigit2
 922  00DD  2800     R  	jmp _L43
 922  00DE              _L58:
 923  00DE              #line 923 "c:\users\tech\desktop\codetector\sevenSegment3DigitComplex\SevenSegment3DigitComplex.c"
 923  00DE  2000     R  	call _oneDigit2
 923  00DF  2800     R  	jmp _L43
 923  00E0              _L59:
 924  00E0              #line 924 "c:\users\tech\desktop\codetector\sevenSegment3DigitComplex\SevenSegment3DigitComplex.c"
 924  00E0  2000     R  	call _towDigit2
 924  00E1  2800     R  	jmp _L43
 924  00E2              _L60:
 925  00E2              #line 925 "c:\users\tech\desktop\codetector\sevenSegment3DigitComplex\SevenSegment3DigitComplex.c"
 925  00E2  2000     R  	call _threeDigit2
 925  00E3  2800     R  	jmp _L43
 925  00E4              _L61:
 926  00E4              #line 926 "c:\users\tech\desktop\codetector\sevenSegment3DigitComplex\SevenSegment3DigitComplex.c"
 926  00E4  2000     R  	call _fourDigit2
 926  00E5  2800     R  	jmp _L43
 926  00E6              _L62:
 927  00E6              #line 927 "c:\users\tech\desktop\codetector\sevenSegment3DigitComplex\SevenSegment3DigitComplex.c"
 927  00E6  2000     R  	call _fiveDigit2
 927  00E7  2800     R  	jmp _L43
 927  00E8              _L63:
 928  00E8              #line 928 "c:\users\tech\desktop\codetector\sevenSegment3DigitComplex\SevenSegment3DigitComplex.c"
 928  00E8  2000     R  	call _sixDigit2
 928  00E9  2800     R  	jmp _L43
 928  00EA              _L64:
 929  00EA              #line 929 "c:\users\tech\desktop\codetector\sevenSegment3DigitComplex\SevenSegment3DigitComplex.c"
 929  00EA  2000     R  	call _sevenDigit2
 929  00EB  2800     R  	jmp _L43
 929  00EC              _L65:
 930  00EC              #line 930 "c:\users\tech\desktop\codetector\sevenSegment3DigitComplex\SevenSegment3DigitComplex.c"
 930  00EC  2000     R  	call _eightDigit2
 930  00ED  2800     R  	jmp _L43
 930  00EE              _L79:
 938  00EE              #line 938 "c:\users\tech\desktop\codetector\sevenSegment3DigitComplex\SevenSegment3DigitComplex.c"
 938  00EE  2000     R  	call _clearSegment
 939  00EF              #line 939 "c:\users\tech\desktop\codetector\sevenSegment3DigitComplex\SevenSegment3DigitComplex.c"
 939  00EF              ;# 939 "c:\users\tech\desktop\codetector\sevenSegment3DigitComplex\SevenSegment3DigitComplex.c" 1
 939  00EF              	IF 1000>263690
 939  00EF              ;# 939 "c:\users\tech\desktop\codetector\sevenSegment3DigitComplex\SevenSegment3DigitComplex.c" 1
 939  00EF              	ERRMESSAGE 'the value 1000of the argument exceeds the maxinum 263690'
 939  00EF              	ENDIF
 939  00EF              ;# 939 "c:\users\tech\desktop\codetector\sevenSegment3DigitComplex\SevenSegment3DigitComplex.c" 1
 939  00EF              	IF 1000<0
"File: SevenSegment3DigitComplex.c  Assembler  Version HGASM0202      Page 73

 939  00EF              ;# 939 "c:\users\tech\desktop\codetector\sevenSegment3DigitComplex\SevenSegment3DigitComplex.c" 1
 939  00EF              	ERRMESSAGE 'the value 1000 of the argument exceeds the mininum 0'
 939  00EF              	ENDIF
 939  00EF              ;# 939 "c:\users\tech\desktop\codetector\sevenSegment3DigitComplex\SevenSegment3DigitComplex.c" 1
 939  00EF              	IF 1000==0
 939  00EF              ;# 939 "c:\users\tech\desktop\codetector\sevenSegment3DigitComplex\SevenSegment3DigitComplex.c" 1
 939  00EF              	JMP $
 939  00EF              	ENDIF
 939  00EF              ;# 939 "c:\users\tech\desktop\codetector\sevenSegment3DigitComplex\SevenSegment3DigitComplex.c" 1
 939  00EF              	IF 1000==1
 939  00EF              ;# 939 "c:\users\tech\desktop\codetector\sevenSegment3DigitComplex\SevenSegment3DigitComplex.c" 1
 939  00EF              	NOP
 939  00EF              	ENDIF
 939  00EF              ;# 939 "c:\users\tech\desktop\codetector\sevenSegment3DigitComplex\SevenSegment3DigitComplex.c" 1
 939  00EF              	IF 1000==2
 939  00EF              ;# 939 "c:\users\tech\desktop\codetector\sevenSegment3DigitComplex\SevenSegment3DigitComplex.c" 1
 939  00EF              	NOP
 939  00EF              ;# 939 "c:\users\tech\desktop\codetector\sevenSegment3DigitComplex\SevenSegment3DigitComplex.c" 1
 939  00EF              	NOP
 939  00EF              	ENDIF
 939  00EF              ;# 939 "c:\users\tech\desktop\codetector\sevenSegment3DigitComplex\SevenSegment3DigitComplex.c" 1
 939  00EF              	IF 1000==3
 939  00EF              ;# 939 "c:\users\tech\desktop\codetector\sevenSegment3DigitComplex\SevenSegment3DigitComplex.c" 1
 939  00EF              	NOP
 939  00EF              ;# 939 "c:\users\tech\desktop\codetector\sevenSegment3DigitComplex\SevenSegment3DigitComplex.c" 1
 939  00EF              	NOP
 939  00EF              ;# 939 "c:\users\tech\desktop\codetector\sevenSegment3DigitComplex\SevenSegment3DigitComplex.c" 1
 939  00EF              	NOP
 939  00EF              	ENDIF
 939  00EF              ;# 939 "c:\users\tech\desktop\codetector\sevenSegment3DigitComplex\SevenSegment3DigitComplex.c" 1
 939  00EF              	IF (1000<8) AND (1000>3)
 939  00EF              ;# 939 "c:\users\tech\desktop\codetector\sevenSegment3DigitComplex\SevenSegment3DigitComplex.c" 1
 939  00EF              	CALL __DELAY3 + 7 -1000
 939  00EF              	ENDIF
 939  00EF              ;# 939 "c:\users\tech\desktop\codetector\sevenSegment3DigitComplex\SevenSegment3DigitComplex.c" 1
 939  00EF              	IF (1000< 0404h) AND (1000>7)
 939  00EF              ;# 939 "c:\users\tech\desktop\codetector\sevenSegment3DigitComplex\SevenSegment3DigitComplex.c" 1
 939  00EF  0FF9        	MOV A,1000/4-1
 939  00F0              ;# 939 "c:\users\tech\desktop\codetector\sevenSegment3DigitComplex\SevenSegment3DigitComplex.c" 1
 939  00F0  2000     E  	CALL __DELAYX3 + 3 -(1000 MOD 4)
 939  00F1              	ENDIF
 939  00F1              ;# 939 "c:\users\tech\desktop\codetector\sevenSegment3DigitComplex\SevenSegment3DigitComplex.c" 1
 939  00F1              	IF (1000< 0x40B) AND (1000> 0403h)
 939  00F1              ;# 939 "c:\users\tech\desktop\codetector\sevenSegment3DigitComplex\SevenSegment3DigitComplex.c" 1
 939  00F1              	MOV A,0 
 939  00F1              ;# 939 "c:\users\tech\desktop\codetector\sevenSegment3DigitComplex\SevenSegment3DigitComplex.c" 1
 939  00F1              	CALL __DELAYX6 + 0x40a -1000
 939  00F1              	ENDIF
 939  00F1              ;# 939 "c:\users\tech\desktop\codetector\sevenSegment3DigitComplex\SevenSegment3DigitComplex.c" 1
 939  00F1              	IF (1000 >= 0x40b) AND ((((1000-9)%0402h)/4+1)>256)
 939  00F1              ;# 939 "c:\users\tech\desktop\codetector\sevenSegment3DigitComplex\SevenSegment3DigitComplex.c" 1
 939  00F1              	MOV A,(1000-9)/0402h
 939  00F1              ;# 939 "c:\users\tech\desktop\codetector\sevenSegment3DigitComplex\SevenSegment3DigitComplex.c" 1
 939  00F1              	MOV _builtin_holtek_delay_2,A
 939  00F1              ;# 939 "c:\users\tech\desktop\codetector\sevenSegment3DigitComplex\SevenSegment3DigitComplex.c" 1
 939  00F1              	MOV A,0
 939  00F1              ;# 939 "c:\users\tech\desktop\codetector\sevenSegment3DigitComplex\SevenSegment3DigitComplex.c" 1
 939  00F1              	CALL __DELAYY5 +5- (((1000-9)%0402h)%6)
 939  00F1              	ENDIF
 939  00F1              ;# 939 "c:\users\tech\desktop\codetector\sevenSegment3DigitComplex\SevenSegment3DigitComplex.c" 1
"File: SevenSegment3DigitComplex.c  Assembler  Version HGASM0202      Page 74

 939  00F1              	IF (1000 >= 0x40b) AND ((((1000-9)%0402h)/4+1)<=256)
 939  00F1              ;# 939 "c:\users\tech\desktop\codetector\sevenSegment3DigitComplex\SevenSegment3DigitComplex.c" 1
 939  00F1              	MOV A,(1000-9)/0402h
 939  00F1              ;# 939 "c:\users\tech\desktop\codetector\sevenSegment3DigitComplex\SevenSegment3DigitComplex.c" 1
 939  00F1              	MOV _builtin_holtek_delay_2,A
 939  00F1              ;# 939 "c:\users\tech\desktop\codetector\sevenSegment3DigitComplex\SevenSegment3DigitComplex.c" 1
 939  00F1              	MOV A,((1000-9)%0402h)/4+1
 939  00F1              ;# 939 "c:\users\tech\desktop\codetector\sevenSegment3DigitComplex\SevenSegment3DigitComplex.c" 1
 939  00F1              	CALL __DELAYY3 +3-(((1000-9)%0402h)%4)
 939  00F1              	ENDIF
 941  00F1              #line 941 "c:\users\tech\desktop\codetector\sevenSegment3DigitComplex\SevenSegment3DigitComplex.c"
 941  00F1  0700     R  	mov a,_shwoSegment_2[2]
 941  00F2  0500     R  	or a,_shwoSegment_2[3]
 941  00F3  3D0A        	sz z
 941  00F4  2800     R  	jmp _L67
 941  00F5  0700     R  	mov a,_shwoSegment_2[2]
 941  00F6  0C01        	xor a,1
 941  00F7  0500     R  	or a,_shwoSegment_2[3]
 941  00F8  3D0A        	sz z
 941  00F9  2800     R  	jmp _L68
 941  00FA  0700     R  	mov a,_shwoSegment_2[2]
 941  00FB  0C02        	xor a,2
 941  00FC  0500     R  	or a,_shwoSegment_2[3]
 941  00FD  3D0A        	sz z
 941  00FE  2800     R  	jmp _L69
 941  00FF  0700     R  	mov a,_shwoSegment_2[2]
 941  0100  0C03        	xor a,3
 941  0101  0500     R  	or a,_shwoSegment_2[3]
 941  0102  3D0A        	sz z
 941  0103  2800     R  	jmp _L70
 941  0104  0700     R  	mov a,_shwoSegment_2[2]
 941  0105  0C04        	xor a,4
 941  0106  0500     R  	or a,_shwoSegment_2[3]
 941  0107  3D0A        	sz z
 941  0108  2800     R  	jmp _L71
 941  0109  0700     R  	mov a,_shwoSegment_2[2]
 941  010A  0C05        	xor a,5
 941  010B  0500     R  	or a,_shwoSegment_2[3]
 941  010C  3D0A        	sz z
 941  010D  2800     R  	jmp _L72
 941  010E  0700     R  	mov a,_shwoSegment_2[2]
 941  010F  0C06        	xor a,6
 941  0110  0500     R  	or a,_shwoSegment_2[3]
 941  0111  3D0A        	sz z
 941  0112  2800     R  	jmp _L73
 941  0113  0700     R  	mov a,_shwoSegment_2[2]
 941  0114  0C07        	xor a,7
 941  0115  0500     R  	or a,_shwoSegment_2[3]
 941  0116  3D0A        	sz z
 941  0117  2800     R  	jmp _L74
 941  0118  0700     R  	mov a,_shwoSegment_2[2]
 941  0119  0C08        	xor a,8
 941  011A  0500     R  	or a,_shwoSegment_2[3]
 941  011B  3D0A        	sz z
 941  011C  2800     R  	jmp _L75
 941  011D  0700     R  	mov a,_shwoSegment_2[2]
 941  011E  0C09        	xor a,9
 941  011F  0500     R  	or a,_shwoSegment_2[3]
 941  0120  390A        	snz z
 941  0121  2800     R  	jmp _L43
"File: SevenSegment3DigitComplex.c  Assembler  Version HGASM0202      Page 75

 952  0122              #line 952 "c:\users\tech\desktop\codetector\sevenSegment3DigitComplex\SevenSegment3DigitComplex.c"
 952  0122  2000     R  	call _nineDigit1
 952  0123  2800     R  	jmp _L43
 952  0124              _L67:
 943  0124              #line 943 "c:\users\tech\desktop\codetector\sevenSegment3DigitComplex\SevenSegment3DigitComplex.c"
 943  0124  2000     R  	call _ziroDigit1
 943  0125  2800     R  	jmp _L43
 943  0126              _L68:
 944  0126              #line 944 "c:\users\tech\desktop\codetector\sevenSegment3DigitComplex\SevenSegment3DigitComplex.c"
 944  0126  2000     R  	call _oneDigit1
 944  0127  2800     R  	jmp _L43
 944  0128              _L69:
 945  0128              #line 945 "c:\users\tech\desktop\codetector\sevenSegment3DigitComplex\SevenSegment3DigitComplex.c"
 945  0128  2000     R  	call _towDigit1
 945  0129  2800     R  	jmp _L43
 945  012A              _L70:
 946  012A              #line 946 "c:\users\tech\desktop\codetector\sevenSegment3DigitComplex\SevenSegment3DigitComplex.c"
 946  012A  2000     R  	call _threeDigit1
 946  012B  2800     R  	jmp _L43
 946  012C              _L71:
 947  012C              #line 947 "c:\users\tech\desktop\codetector\sevenSegment3DigitComplex\SevenSegment3DigitComplex.c"
 947  012C  2000     R  	call _fourDigit1
 947  012D  2800     R  	jmp _L43
 947  012E              _L72:
 948  012E              #line 948 "c:\users\tech\desktop\codetector\sevenSegment3DigitComplex\SevenSegment3DigitComplex.c"
 948  012E  2000     R  	call _fiveDigit1
 948  012F  2800     R  	jmp _L43
 948  0130              _L73:
 949  0130              #line 949 "c:\users\tech\desktop\codetector\sevenSegment3DigitComplex\SevenSegment3DigitComplex.c"
 949  0130  2000     R  	call _sixDigit1
 949  0131  2800     R  	jmp _L43
 949  0132              _L74:
 950  0132              #line 950 "c:\users\tech\desktop\codetector\sevenSegment3DigitComplex\SevenSegment3DigitComplex.c"
 950  0132  2000     R  	call _sevenDigit1
 950  0133  2800     R  	jmp _L43
 950  0134              _L75:
 951  0134              #line 951 "c:\users\tech\desktop\codetector\sevenSegment3DigitComplex\SevenSegment3DigitComplex.c"
 951  0134  2000     R  	call _eightDigit1
 951  0135              _L43:
 960  0135              #line 960 "c:\users\tech\desktop\codetector\sevenSegment3DigitComplex\SevenSegment3DigitComplex.c"
 960  0135  0700     R  	mov a,_shwoSegment_2[6]  
 960  0136  0080     E  	mov _builtin_holtek_udivmodqi4_2[0],a
 960  0137  0F0A        	mov a,10  
 960  0138  0080     E  	mov _builtin_holtek_udivmodqi4_2[1],a
 960  0139  2000     E  	call _builtin_holtek_divmodqi4
 960  013A  0700     E  	mov a,_builtin_holtek_udivmodqi4_2[0]  
 960  013B  0080     R  	mov _shwoSegment_2[6],a
 877  013C              #line 877 "c:\users\tech\desktop\codetector\sevenSegment3DigitComplex\SevenSegment3DigitComplex.c"
 877  013C  0FFF        	mov a,255
 877  013D  0380     R  	addm a,_shwoSegment_2[4]
 877  013E  0FFF        	mov a,255
 877  013F  1380     R  	adcm a,_shwoSegment_2[5]
 877  0140  0700     R  	mov a,_shwoSegment_2[4]
 877  0141  0600     R  	and a,_shwoSegment_2[5]
 877  0142  0B01        	add a,1
 877  0143  380A        	snz c
 877  0144  2800     R  	jmp _L78
 877  0145  2800     R  	jmp _L38
 877  0146              _L40:
 877  0146  0F01        	mov a,1
"File: SevenSegment3DigitComplex.c  Assembler  Version HGASM0202      Page 76

 877  0147  0080     E  	mov ra,a
 877  0148  1F00     E  	clr rb
 877  0149              _L38:
 877  0149  0003        	ret
 877  014A              _shwoSegment endp
 877  014A              #line 877 "c:\users\tech\desktop\codetector\sevenSegment3DigitComplex\SevenSegment3DigitComplex.c"
 877  014A              #pragma debug scope 1 1
 877  014A              #pragma debug struct_end
 877  014A              #pragma debug struct_end
 877  014A              #pragma debug union_end
 877  014A              #pragma debug union_end
 877  014A              #pragma debug variable 43 1 ___pa "__pa" 1
 877  014A              #pragma debug struct_end
 877  014A              #pragma debug struct_end
 877  014A              #pragma debug union_end
 877  014A              #pragma debug union_end
 877  014A              #pragma debug variable 45 1 ___pac "__pac" 1
 877  014A              #pragma debug struct_end
 877  014A              #pragma debug struct_end
 877  014A              #pragma debug union_end
 877  014A              #pragma debug union_end
 877  014A              #pragma debug variable 47 1 ___pb "__pb" 1
 877  014A              #pragma debug struct_end
 877  014A              #pragma debug struct_end
 877  014A              #pragma debug union_end
 877  014A              #pragma debug union_end
 877  014A              #pragma debug variable 49 1 ___pbc "__pbc" 1
 877  014A              extern _builtin_holtek_divmodhi4:near
 877  014A              extern _builtin_holtek_udivmodhi4_2:byte
 877  014A              extern _builtin_holtek_udivmodhi4:near
 877  014A              extern _builtin_holtek_mulhi3_2:byte
 877  014A              extern _builtin_holtek_mulhi3:near
 877  014A              extern _builtin_holtek_divmodqi4:near
 877  014A              extern _builtin_holtek_udivmodqi4_2:byte
 877  014A              extern _builtin_holtek_udivmodqi4:near
 877  014A              
 877  014A              ; 
 877  014A              ; Generated by holtek-gcc v3.19, Mon Oct 09 19:17:30 2023
 877  014A              ; Rebuild 718
 877  014A              ; end of file


        0 Errors, 0